
========================================================================

** ELF Header Information

    File Name: bin\am1805_time.axf

    Machine class: ELFCLASS32 (32-bit)
    Data encoding: ELFDATA2LSB (Little endian)
    Header version: EV_CURRENT (Current version)
    Operating System ABI: none
    ABI Version: 0
    File Type: ET_EXEC (Executable) (2)
    Machine: EM_ARM (ARM)

    Image Entry point: 0x00000099
    Flags: EF_ARM_HASENTRY (0x05000002)

    ARM ELF revision: 5 (ABI version 2)

    Built with
    Component: ARM Compiler 5.05 update 1 (build 106) Tool: armasm [4d0efa]
    Component: ARM Compiler 5.05 update 1 (build 106) Tool: armlink [4d0efa]

    Header size: 52 bytes (0x34)
    Program header entry size: 32 bytes (0x20)
    Section header entry size: 40 bytes (0x28)

    Program header entries: 1
    Section header entries: 16

    Program header offset: 91452 (0x0001653c)
    Section header offset: 91484 (0x0001655c)

    Section header string table index: 15

========================================================================

** Program header #0 (PT_LOAD) [PF_X + PF_W + PF_R + PF_ARM_ENTRY]
    Size : 11880 bytes (10960 bytes in file)
    Virtual address: 0x00000000 (Alignment 8)


========================================================================

** Section #1 'FLASH' (SHT_PROGBITS) [SHF_ALLOC + SHF_EXECINSTR]
    Size   : 10824 bytes (alignment 4)
    Address: 0x00000000

    $d
    RESET
    __Vectors
        0x00000000:    10000420     ...    DCD    268436512
        0x00000004:    00000071    q...    DCD    113
        0x00000008:    00000085    ....    DCD    133
        0x0000000c:    00000141    A...    DCD    321
        0x00000010:    0000008b    ....    DCD    139
        0x00000014:    0000008d    ....    DCD    141
        0x00000018:    0000008f    ....    DCD    143
        0x0000001c:    00000000    ....    DCD    0
        0x00000020:    00000000    ....    DCD    0
        0x00000024:    00000000    ....    DCD    0
        0x00000028:    00000000    ....    DCD    0
        0x0000002c:    00000091    ....    DCD    145
        0x00000030:    00000091    ....    DCD    145
        0x00000034:    00000000    ....    DCD    0
        0x00000038:    00000091    ....    DCD    145
        0x0000003c:    00000091    ....    DCD    145
        0x00000040:    00000091    ....    DCD    145
        0x00000044:    00000091    ....    DCD    145
        0x00000048:    00000091    ....    DCD    145
        0x0000004c:    00000091    ....    DCD    145
        0x00000050:    00000091    ....    DCD    145
        0x00000054:    00000091    ....    DCD    145
        0x00000058:    00000091    ....    DCD    145
        0x0000005c:    00000091    ....    DCD    145
        0x00000060:    00000091    ....    DCD    145
        0x00000064:    000008c5    ....    DCD    2245
        0x00000068:    00000091    ....    DCD    145
        0x0000006c:    00000091    ....    DCD    145
    $t
    $v0
    Reset_Handler
        0x00000070:    f64e5088    N..P    MOV      r0,#0xed88
        0x00000074:    f2ce0000    ....    MOVT     r0,#0xe000
        0x00000078:    6801        .h      LDR      r1,[r0,#0]
        0x0000007a:    f4410170    A.p.    ORR      r1,r1,#0xf00000
        0x0000007e:    6001        .`      STR      r1,[r0,#0]
        0x00000080:    4804        .H      LDR      r0,[pc,#16] ; [0x94] = 0x99
        0x00000082:    4700        .G      BX       r0
    am_nmi_isr
        0x00000084:    e7fe        ..      B        am_nmi_isr ; 0x84
        0x00000086:    e7fe        ..      B        0x86 ; am_nmi_isr + 2
    am_memmanage_isr
        0x00000088:    e7fe        ..      B        am_memmanage_isr ; 0x88
    am_mpufault_isr
        0x0000008a:    e7fe        ..      B        am_mpufault_isr ; 0x8a
    am_busfault_isr
        0x0000008c:    e7fe        ..      B        am_busfault_isr ; 0x8c
    am_usagefault_isr
        0x0000008e:    e7fe        ..      B        am_usagefault_isr ; 0x8e
    am_adc_isr
    am_brownout_isr
    am_clkgen_isr
    am_ctimer_isr
    am_debugmon_isr
    am_iomaster0_isr
    am_iomaster1_isr
    am_ioslave_acc_isr
    am_ioslave_ios_isr
    am_pendsv_isr
    am_svcall_isr
    am_systick_isr
    am_uart_isr
    am_vcomp_isr
    am_watchdog_isr
        0x00000090:    e7fe        ..      B        am_adc_isr ; 0x90
    $d
        0x00000092:    0000        ..      DCW    0
        0x00000094:    00000099    ....    DCD    153
    $t
    !!!main
    __main
        0x00000098:    f000f802    ....    BL       __scatterload ; 0xa0
        0x0000009c:    f000f83c    ..<.    BL       __rt_entry ; 0x118
    !!!scatter
    __scatterload
    __scatterload_rt2
    __scatterload_rt2_thumb_only
        0x000000a0:    a00a        ..      ADR      r0,{pc}+0x2c ; 0xcc
        0x000000a2:    e8900c00    ....    LDM      r0,{r10,r11}
        0x000000a6:    4482        .D      ADD      r10,r10,r0
        0x000000a8:    4483        .D      ADD      r11,r11,r0
        0x000000aa:    f1aa0701    ....    SUB      r7,r10,#1
    __scatterload_null
        0x000000ae:    45da        .E      CMP      r10,r11
        0x000000b0:    d101        ..      BNE      0xb6 ; __scatterload_null + 8
        0x000000b2:    f000f831    ..1.    BL       __rt_entry ; 0x118
        0x000000b6:    f2af0e09    ....    ADR      lr,{pc}-7 ; 0xaf
        0x000000ba:    e8ba000f    ....    LDM      r10!,{r0-r3}
        0x000000be:    f0130f01    ....    TST      r3,#1
        0x000000c2:    bf18        ..      IT       NE
        0x000000c4:    1afb        ..      SUBNE    r3,r7,r3
        0x000000c6:    f0430301    C...    ORR      r3,r3,#1
        0x000000ca:    4718        .G      BX       r3
    $d
        0x000000cc:    0000295c    \)..    DCD    10588
        0x000000d0:    0000297c    |)..    DCD    10620
    $t
    !!handler_copy
    __scatterload_copy
        0x000000d4:    3a10        .:      SUBS     r2,r2,#0x10
        0x000000d6:    bf24        $.      ITT      CS
        0x000000d8:    c878        x.      LDMCS    r0!,{r3-r6}
        0x000000da:    c178        x.      STMCS    r1!,{r3-r6}
        0x000000dc:    d8fa        ..      BHI      __scatterload_copy ; 0xd4
        0x000000de:    0752        R.      LSLS     r2,r2,#29
        0x000000e0:    bf24        $.      ITT      CS
        0x000000e2:    c830        0.      LDMCS    r0!,{r4,r5}
        0x000000e4:    c130        0.      STMCS    r1!,{r4,r5}
        0x000000e6:    bf44        D.      ITT      MI
        0x000000e8:    6804        .h      LDRMI    r4,[r0,#0]
        0x000000ea:    600c        .`      STRMI    r4,[r1,#0]
        0x000000ec:    4770        pG      BX       lr
        0x000000ee:    0000        ..      MOVS     r0,r0
    !!handler_zi
    __scatterload_zeroinit
        0x000000f0:    2300        .#      MOVS     r3,#0
        0x000000f2:    2400        .$      MOVS     r4,#0
        0x000000f4:    2500        .%      MOVS     r5,#0
        0x000000f6:    2600        .&      MOVS     r6,#0
        0x000000f8:    3a10        .:      SUBS     r2,r2,#0x10
        0x000000fa:    bf28        (.      IT       CS
        0x000000fc:    c178        x.      STMCS    r1!,{r3-r6}
        0x000000fe:    d8fb        ..      BHI      0xf8 ; __scatterload_zeroinit + 8
        0x00000100:    0752        R.      LSLS     r2,r2,#29
        0x00000102:    bf28        (.      IT       CS
        0x00000104:    c130        0.      STMCS    r1!,{r4,r5}
        0x00000106:    bf48        H.      IT       MI
        0x00000108:    600b        .`      STRMI    r3,[r1,#0]
        0x0000010a:    4770        pG      BX       lr
    .ARM.Collect$$libinit$$00000000
    __rt_lib_init
        0x0000010c:    b51f        ..      PUSH     {r0-r4,lr}
    .ARM.Collect$$libinit$$00000001
    __rt_lib_init_fp_1
        0x0000010e:    f002fba8    ....    BL       _fp_init ; 0x2862
    .ARM.Collect$$libinit$$00000004
    .ARM.Collect$$libinit$$0000000A
    .ARM.Collect$$libinit$$0000000C
    .ARM.Collect$$libinit$$0000000E
    .ARM.Collect$$libinit$$00000011
    .ARM.Collect$$libinit$$00000013
    .ARM.Collect$$libinit$$00000015
    .ARM.Collect$$libinit$$00000017
    .ARM.Collect$$libinit$$00000019
    .ARM.Collect$$libinit$$0000001B
    .ARM.Collect$$libinit$$0000001D
    .ARM.Collect$$libinit$$0000001F
    .ARM.Collect$$libinit$$00000021
    .ARM.Collect$$libinit$$00000023
    .ARM.Collect$$libinit$$00000025
    .ARM.Collect$$libinit$$0000002C
    .ARM.Collect$$libinit$$0000002E
    .ARM.Collect$$libinit$$00000030
    .ARM.Collect$$libinit$$00000032
    .ARM.Collect$$libinit$$00000033
    __rt_lib_init_alloca_1
    __rt_lib_init_argv_1
    __rt_lib_init_atexit_1
    __rt_lib_init_clock_1
    __rt_lib_init_cpp_1
    __rt_lib_init_exceptions_1
    __rt_lib_init_fp_trap_1
    __rt_lib_init_getenv_1
    __rt_lib_init_heap_1
    __rt_lib_init_lc_collate_1
    __rt_lib_init_lc_ctype_1
    __rt_lib_init_lc_monetary_1
    __rt_lib_init_lc_numeric_1
    __rt_lib_init_lc_time_1
    __rt_lib_init_preinit_1
    __rt_lib_init_rand_1
    __rt_lib_init_return
    __rt_lib_init_signal_1
    __rt_lib_init_stdio_1
    __rt_lib_init_user_alloc_1
        0x00000112:    bd1f        ..      POP      {r0-r4,pc}
    .ARM.Collect$$libshutdown$$00000000
    __rt_lib_shutdown
        0x00000114:    b510        ..      PUSH     {r4,lr}
    .ARM.Collect$$libshutdown$$00000003
    .ARM.Collect$$libshutdown$$00000006
    .ARM.Collect$$libshutdown$$00000009
    .ARM.Collect$$libshutdown$$0000000B
    .ARM.Collect$$libshutdown$$0000000E
    .ARM.Collect$$libshutdown$$0000000F
    __rt_lib_shutdown_fp_trap_1
    __rt_lib_shutdown_heap_1
    __rt_lib_shutdown_return
    __rt_lib_shutdown_signal_1
    __rt_lib_shutdown_stdio_1
    __rt_lib_shutdown_user_alloc_1
        0x00000116:    bd10        ..      POP      {r4,pc}
    .ARM.Collect$$rtentry$$00000000
    .ARM.Collect$$rtentry$$00000002
    .ARM.Collect$$rtentry$$00000004
    __rt_entry
    __rt_entry_presh_1
    __rt_entry_sh
        0x00000118:    f000f83b    ..;.    BL       __user_setup_stackheap ; 0x192
        0x0000011c:    4611        .F      MOV      r1,r2
    .ARM.Collect$$rtentry$$00000009
    .ARM.Collect$$rtentry$$0000000A
    __rt_entry_li
    __rt_entry_postsh_1
        0x0000011e:    f7fffff5    ....    BL       __rt_lib_init ; 0x10c
    .ARM.Collect$$rtentry$$0000000C
    .ARM.Collect$$rtentry$$0000000D
    __rt_entry_main
    __rt_entry_postli_1
        0x00000122:    f002f8df    ....    BL       main ; 0x22e4
        0x00000126:    f000f859    ..Y.    BL       exit ; 0x1dc
    .ARM.Collect$$rtexit$$00000000
    __rt_exit
        0x0000012a:    b403        ..      PUSH     {r0,r1}
    .ARM.Collect$$rtexit$$00000002
    .ARM.Collect$$rtexit$$00000003
    __rt_exit_ls
    __rt_exit_prels_1
        0x0000012c:    f7fffff2    ....    BL       __rt_lib_shutdown ; 0x114
    .ARM.Collect$$rtexit$$00000004
    __rt_exit_exit
        0x00000130:    bc03        ..      POP      {r0,r1}
        0x00000132:    f000f85d    ..].    BL       _sys_exit ; 0x1f0
        0x00000136:    0000        ..      MOVS     r0,r0
    .emb_text
    $v0
    am_util_delay_cycles
        0x00000138:    3801        .8      SUBS     r0,#1
        0x0000013a:    d1fd        ..      BNE      am_util_delay_cycles ; 0x138
        0x0000013c:    4770        pG      BX       lr
        0x0000013e:    0000        ..      MOVS     r0,r0
    .emb_text
    $v0
    am_fault_isr
        0x00000140:    b580        ..      PUSH     {r7,lr}
        0x00000142:    4668        hF      MOV      r0,sp
        0x00000144:    3008        .0      ADDS     r0,r0,#8
        0x00000146:    f001fbef    ....    BL       am_util_faultisr_collect_data ; 0x1928
        0x0000014a:    bd01        ..      POP      {r0,pc}
    getStackedReg
        0x0000014c:    0080        ..      LSLS     r0,r0,#2
        0x0000014e:    1840        @.      ADDS     r0,r0,r1
        0x00000150:    6800        .h      LDR      r0,[r0,#0]
        0x00000152:    4770        pG      BX       lr
    .emb_text
    $v0
    am_hal_interrupt_master_enable
        0x00000154:    f3ef8010    ....    MRS      r0,PRIMASK
        0x00000158:    b662        b.      CPSIE    i
        0x0000015a:    4770        pG      BX       lr
    am_hal_interrupt_master_disable
        0x0000015c:    f3ef8010    ....    MRS      r0,PRIMASK
        0x00000160:    b672        r.      CPSID    i
        0x00000162:    4770        pG      BX       lr
    am_hal_interrupt_master_set
        0x00000164:    f3808810    ....    MSR      PRIMASK,r0
        0x00000168:    4770        pG      BX       lr
        0x0000016a:    0000        ..      MOVS     r0,r0
    .emb_text
    $v0
    __asm___12_am_hal_itm_c_0782d9ac__am_itm_delay_cycles
        0x0000016c:    3801        .8      SUBS     r0,#1
        0x0000016e:    d1fd        ..      BNE      __asm___12_am_hal_itm_c_0782d9ac__am_itm_delay_cycles ; 0x16c
        0x00000170:    4770        pG      BX       lr
        0x00000172:    0000        ..      MOVS     r0,r0
    .text
    $v0
    __user_initial_stackheap
        0x00000174:    4802        .H      LDR      r0,[pc,#8] ; [0x180] = 0x10000220
        0x00000176:    4903        .I      LDR      r1,[pc,#12] ; [0x184] = 0x10000420
        0x00000178:    4a01        .J      LDR      r2,[pc,#4] ; [0x180] = 0x10000220
        0x0000017a:    4b03        .K      LDR      r3,[pc,#12] ; [0x188] = 0x10000220
        0x0000017c:    4770        pG      BX       lr
    $d
        0x0000017e:    0000        ..      DCW    0
        0x00000180:    10000220     ...    DCD    268436000
        0x00000184:    10000420     ...    DCD    268436512
        0x00000188:    10000220     ...    DCD    268436000
    $t
    .text
    __use_two_region_memory
        0x0000018c:    4770        pG      BX       lr
    __rt_heap_escrow$2region
        0x0000018e:    4770        pG      BX       lr
    __rt_heap_expand$2region
        0x00000190:    4770        pG      BX       lr
    .text
    __user_setup_stackheap
        0x00000192:    4675        uF      MOV      r5,lr
        0x00000194:    f000f828    ..(.    BL       __user_libspace ; 0x1e8
        0x00000198:    46ae        .F      MOV      lr,r5
        0x0000019a:    0005        ..      MOVS     r5,r0
        0x0000019c:    4669        iF      MOV      r1,sp
        0x0000019e:    4653        SF      MOV      r3,r10
        0x000001a0:    f0200007     ...    BIC      r0,r0,#7
        0x000001a4:    4685        .F      MOV      sp,r0
        0x000001a6:    b018        ..      ADD      sp,sp,#0x60
        0x000001a8:    b520         .      PUSH     {r5,lr}
        0x000001aa:    f7ffffe3    ....    BL       __user_initial_stackheap ; 0x174
        0x000001ae:    e8bd4020    .. @    POP      {r5,lr}
        0x000001b2:    f04f0600    O...    MOV      r6,#0
        0x000001b6:    f04f0700    O...    MOV      r7,#0
        0x000001ba:    f04f0800    O...    MOV      r8,#0
        0x000001be:    f04f0b00    O...    MOV      r11,#0
        0x000001c2:    f0210107    !...    BIC      r1,r1,#7
        0x000001c6:    46ac        .F      MOV      r12,r5
        0x000001c8:    e8ac09c0    ....    STM      r12!,{r6-r8,r11}
        0x000001cc:    e8ac09c0    ....    STM      r12!,{r6-r8,r11}
        0x000001d0:    e8ac09c0    ....    STM      r12!,{r6-r8,r11}
        0x000001d4:    e8ac09c0    ....    STM      r12!,{r6-r8,r11}
        0x000001d8:    468d        .F      MOV      sp,r1
        0x000001da:    4770        pG      BX       lr
    .text
    exit
        0x000001dc:    4604        .F      MOV      r4,r0
        0x000001de:    f3af8000    ....    NOP.W    
        0x000001e2:    4620         F      MOV      r0,r4
        0x000001e4:    f7ffffa1    ....    BL       __rt_exit ; 0x12a
    .text
    __user_libspace
    __user_perproc_libspace
    __user_perthread_libspace
        0x000001e8:    4800        .H      LDR      r0,[pc,#0] ; [0x1ec] = 0x100001c0
        0x000001ea:    4770        pG      BX       lr
    $d
        0x000001ec:    100001c0    ....    DCD    268435904
    $t
    .text
    _sys_exit
        0x000001f0:    4901        .I      LDR      r1,[pc,#4] ; [0x1f8] = 0x20026
        0x000001f2:    2018        .       MOVS     r0,#0x18
        0x000001f4:    beab        ..      BKPT     #0xab
        0x000001f6:    e7fe        ..      B        0x1f6 ; _sys_exit + 6
    $d
        0x000001f8:    00020026    &...    DCD    131110
    $t
    .text
    __I$use$semihosting
    __use_no_semihosting_swi
        0x000001fc:    4770        pG      BX       lr
    .text
    __semihosting_library_function
        0x000001fe:    0000        ..      MOVS     r0,r0
    i.am_bsp_debug_printf_disable
    am_bsp_debug_printf_disable
        0x00000200:    480e        .H      LDR      r0,[pc,#56] ; [0x23c] = 0x10000074
        0x00000202:    6800        .h      LDR      r0,[r0,#0]
        0x00000204:    f0100f01    ....    TST      r0,#1
        0x00000208:    bf18        ..      IT       NE
        0x0000020a:    4770        pG      BXNE     lr
        0x0000020c:    b510        ..      PUSH     {r4,lr}
        0x0000020e:    f001fac7    ....    BL       am_hal_itm_not_busy ; 0x17a0
        0x00000212:    480b        .H      LDR      r0,[pc,#44] ; [0x240] = 0x40010000
        0x00000214:    2173        s!      MOVS     r1,#0x73
        0x00000216:    6601        .f      STR      r1,[r0,#0x60]
        0x00000218:    6d41        Am      LDR      r1,[r0,#0x54]
        0x0000021a:    f0210170    !.p.    BIC      r1,r1,#0x70
        0x0000021e:    f0410120    A. .    ORR      r1,r1,#0x20
        0x00000222:    6541        Ae      STR      r1,[r0,#0x54]
        0x00000224:    6a81        .j      LDR      r1,[r0,#0x28]
        0x00000226:    f421417f    !..A    BIC      r1,r1,#0xff00
        0x0000022a:    f44151c0    A..Q    ORR      r1,r1,#0x1800
        0x0000022e:    6281        .b      STR      r1,[r0,#0x28]
        0x00000230:    2100        .!      MOVS     r1,#0
        0x00000232:    6601        .f      STR      r1,[r0,#0x60]
        0x00000234:    e8bd4010    ...@    POP      {r4,lr}
        0x00000238:    f001bb3e    ..>.    B.W      am_hal_tpiu_disable ; 0x18b8
    $d
        0x0000023c:    10000074    t...    DCD    268435572
        0x00000240:    40010000    ...@    DCD    1073807360
    $t
    i.am_bsp_debug_printf_enable
    am_bsp_debug_printf_enable
        0x00000244:    480c        .H      LDR      r0,[pc,#48] ; [0x278] = 0x10000074
        0x00000246:    6800        .h      LDR      r0,[r0,#0]
        0x00000248:    f0100f01    ....    TST      r0,#1
        0x0000024c:    bf18        ..      IT       NE
        0x0000024e:    4770        pG      BXNE     lr
        0x00000250:    b510        ..      PUSH     {r4,lr}
        0x00000252:    f001fb39    ..9.    BL       am_hal_tpiu_enable ; 0x18c8
        0x00000256:    4809        .H      LDR      r0,[pc,#36] ; [0x27c] = 0x40010000
        0x00000258:    2173        s!      MOVS     r1,#0x73
        0x0000025a:    6601        .f      STR      r1,[r0,#0x60]
        0x0000025c:    6d41        Am      LDR      r1,[r0,#0x54]
        0x0000025e:    f0210170    !.p.    BIC      r1,r1,#0x70
        0x00000262:    6541        Ae      STR      r1,[r0,#0x54]
        0x00000264:    6a81        .j      LDR      r1,[r0,#0x28]
        0x00000266:    f421417f    !..A    BIC      r1,r1,#0xff00
        0x0000026a:    f4415180    A..Q    ORR      r1,r1,#0x1000
        0x0000026e:    6281        .b      STR      r1,[r0,#0x28]
        0x00000270:    2100        .!      MOVS     r1,#0
        0x00000272:    6601        .f      STR      r1,[r0,#0x60]
        0x00000274:    bd10        ..      POP      {r4,pc}
    $d
        0x00000276:    0000        ..      DCW    0
        0x00000278:    10000074    t...    DCD    268435572
        0x0000027c:    40010000    ...@    DCD    1073807360
    $t
    i.am_bsp_iom_i2c_pins_enable
    am_bsp_iom_i2c_pins_enable
        0x00000280:    2801        .(      CMP      r0,#1
        0x00000282:    d000        ..      BEQ      0x286 ; am_bsp_iom_i2c_pins_enable + 6
        0x00000284:    e7fe        ..      B        0x284 ; am_bsp_iom_i2c_pins_enable + 4
        0x00000286:    4813        .H      LDR      r0,[pc,#76] ; [0x2d4] = 0x40010000
        0x00000288:    f44f7180    O..q    MOV      r1,#0x100
        0x0000028c:    f8c01090    ....    STR      r1,[r0,#0x90]
        0x00000290:    1541        A.      ASRS     r1,r0,#21
        0x00000292:    f8c01090    ....    STR      r1,[r0,#0x90]
        0x00000296:    2173        s!      MOVS     r1,#0x73
        0x00000298:    6601        .f      STR      r1,[r0,#0x60]
        0x0000029a:    6c42        Bl      LDR      r2,[r0,#0x44]
        0x0000029c:    f0220270    ".p.    BIC      r2,r2,#0x70
        0x000002a0:    f0420240    B.@.    ORR      r2,r2,#0x40
        0x000002a4:    6442        Bd      STR      r2,[r0,#0x44]
        0x000002a6:    6882        .h      LDR      r2,[r0,#8]
        0x000002a8:    f422427f    "..B    BIC      r2,r2,#0xff00
        0x000002ac:    f4427200    B..r    ORR      r2,r2,#0x200
        0x000002b0:    6082        .`      STR      r2,[r0,#8]
        0x000002b2:    2200        ."      MOVS     r2,#0
        0x000002b4:    6602        .f      STR      r2,[r0,#0x60]
        0x000002b6:    6601        .f      STR      r1,[r0,#0x60]
        0x000002b8:    6c41        Al      LDR      r1,[r0,#0x44]
        0x000002ba:    f0210107    !...    BIC      r1,r1,#7
        0x000002be:    f0410104    A...    ORR      r1,r1,#4
        0x000002c2:    6441        Ad      STR      r1,[r0,#0x44]
        0x000002c4:    6881        .h      LDR      r1,[r0,#8]
        0x000002c6:    f02101ff    !...    BIC      r1,r1,#0xff
        0x000002ca:    f0410106    A...    ORR      r1,r1,#6
        0x000002ce:    6081        .`      STR      r1,[r0,#8]
        0x000002d0:    6602        .f      STR      r2,[r0,#0x60]
        0x000002d2:    4770        pG      BX       lr
    $d
        0x000002d4:    40010000    ...@    DCD    1073807360
    $t
    i.am_bsp_low_power_init
    am_bsp_low_power_init
        0x000002d8:    b510        ..      PUSH     {r4,lr}
        0x000002da:    f001faad    ....    BL       am_hal_mcuctrl_bucks_enable ; 0x1838
        0x000002de:    f001fb0d    ....    BL       am_hal_vcomp_disable ; 0x18fc
        0x000002e2:    2001        .       MOVS     r0,#1
        0x000002e4:    f001fac3    ....    BL       am_hal_rtc_osc_select ; 0x186e
        0x000002e8:    2001        .       MOVS     r0,#1
        0x000002ea:    f000fafb    ....    BL       am_hal_clkgen_osc_stop ; 0x8e4
        0x000002ee:    2002        .       MOVS     r0,#2
        0x000002f0:    f000faf8    ....    BL       am_hal_clkgen_osc_stop ; 0x8e4
        0x000002f4:    f001fab4    ....    BL       am_hal_rtc_osc_disable ; 0x1860
        0x000002f8:    e8bd4010    ...@    POP      {r4,lr}
        0x000002fc:    f001ba94    ....    B.W      am_hal_mcuctrl_bandgap_disable ; 0x1828
    i.am_devices_amx8x5_countdown_set
    am_devices_amx8x5_countdown_set
        0x00000300:    e92d4fff    -..O    PUSH     {r0-r11,lr}
        0x00000304:    b083        ..      SUB      sp,sp,#0xc
        0x00000306:    4615        .F      MOV      r5,r2
        0x00000308:    4698        .F      MOV      r8,r3
        0x0000030a:    9f10        ..      LDR      r7,[sp,#0x40]
        0x0000030c:    211d        .!      MOVS     r1,#0x1d
        0x0000030e:    9803        ..      LDR      r0,[sp,#0xc]
        0x00000310:    f000f974    ..t.    BL       am_devices_amx8x5_reg_read ; 0x5fc
        0x00000314:    f3c01000    ....    UBFX     r0,r0,#4,#1
        0x00000318:    9000        ..      STR      r0,[sp,#0]
        0x0000031a:    b917        ..      CBNZ     r7,0x322 ; am_devices_amx8x5_countdown_set + 34
        0x0000031c:    2000        .       MOVS     r0,#0
        0x0000031e:    9002        ..      STR      r0,[sp,#8]
        0x00000320:    e078        x.      B        0x414 ; am_devices_amx8x5_countdown_set + 276
        0x00000322:    2001        .       MOVS     r0,#1
        0x00000324:    9002        ..      STR      r0,[sp,#8]
        0x00000326:    f1b80f00    ....    CMP      r8,#0
        0x0000032a:    d148        H.      BNE      0x3be ; am_devices_amx8x5_countdown_set + 190
        0x0000032c:    4682        .F      MOV      r10,r0
        0x0000032e:    f04f0b00    O...    MOV      r11,#0
        0x00000332:    9804        ..      LDR      r0,[sp,#0x10]
        0x00000334:    2800        .(      CMP      r0,#0
        0x00000336:    d136        6.      BNE      0x3a6 ; am_devices_amx8x5_countdown_set + 166
        0x00000338:    9800        ..      LDR      r0,[sp,#0]
        0x0000033a:    b9d0        ..      CBNZ     r0,0x372 ; am_devices_amx8x5_countdown_set + 114
        0x0000033c:    f24f4024    O.$@    MOV      r0,#0xf424
        0x00000340:    4285        .B      CMP      r5,r0
        0x00000342:    dc06        ..      BGT      0x352 ; am_devices_amx8x5_countdown_set + 82
        0x00000344:    2600        .&      MOVS     r6,#0
        0x00000346:    032c        ,.      LSLS     r4,r5,#12
        0x00000348:    0100        ..      LSLS     r0,r0,#4
        0x0000034a:    fb94f4f0    ....    SDIV     r4,r4,r0
        0x0000034e:    1e64        d.      SUBS     r4,r4,#1
        0x00000350:    e060        `.      B        0x414 ; am_devices_amx8x5_countdown_set + 276
        0x00000352:    f5b50f7a    ..z.    CMP      r5,#0xfa0000
        0x00000356:    dc06        ..      BGT      0x366 ; am_devices_amx8x5_countdown_set + 102
        0x00000358:    2601        .&      MOVS     r6,#1
        0x0000035a:    01ac        ..      LSLS     r4,r5,#6
        0x0000035c:    485b        [H      LDR      r0,[pc,#364] ; [0x4cc] = 0xf4240
        0x0000035e:    fb94f4f0    ....    SDIV     r4,r4,r0
        0x00000362:    1e64        d.      SUBS     r4,r4,#1
        0x00000364:    e056        V.      B        0x414 ; am_devices_amx8x5_countdown_set + 276
        0x00000366:    2602        .&      MOVS     r6,#2
        0x00000368:    4858        XH      LDR      r0,[pc,#352] ; [0x4cc] = 0xf4240
        0x0000036a:    fb95f4f0    ....    SDIV     r4,r5,r0
        0x0000036e:    1e64        d.      SUBS     r4,r4,#1
        0x00000370:    e050        P.      B        0x414 ; am_devices_amx8x5_countdown_set + 276
        0x00000372:    4857        WH      LDR      r0,[pc,#348] ; [0x4d0] = 0x1e8480
        0x00000374:    4285        .B      CMP      r5,r0
        0x00000376:    dc06        ..      BGT      0x386 ; am_devices_amx8x5_countdown_set + 134
        0x00000378:    2600        .&      MOVS     r6,#0
        0x0000037a:    01ec        ..      LSLS     r4,r5,#7
        0x0000037c:    1040        @.      ASRS     r0,r0,#1
        0x0000037e:    fb94f4f0    ....    SDIV     r4,r4,r0
        0x00000382:    1e64        d.      SUBS     r4,r4,#1
        0x00000384:    e046        F.      B        0x414 ; am_devices_amx8x5_countdown_set + 276
        0x00000386:    4853        SH      LDR      r0,[pc,#332] ; [0x4d4] = 0x3d0900
        0x00000388:    4285        .B      CMP      r5,r0
        0x0000038a:    dc06        ..      BGT      0x39a ; am_devices_amx8x5_countdown_set + 154
        0x0000038c:    2601        .&      MOVS     r6,#1
        0x0000038e:    01ac        ..      LSLS     r4,r5,#6
        0x00000390:    1080        ..      ASRS     r0,r0,#2
        0x00000392:    fb94f4f0    ....    SDIV     r4,r4,r0
        0x00000396:    1e64        d.      SUBS     r4,r4,#1
        0x00000398:    e03c        <.      B        0x414 ; am_devices_amx8x5_countdown_set + 276
        0x0000039a:    2602        .&      MOVS     r6,#2
        0x0000039c:    484b        KH      LDR      r0,[pc,#300] ; [0x4cc] = 0xf4240
        0x0000039e:    fb95f4f0    ....    SDIV     r4,r5,r0
        0x000003a2:    1e64        d.      SUBS     r4,r4,#1
        0x000003a4:    e036        6.      B        0x414 ; am_devices_amx8x5_countdown_set + 276
        0x000003a6:    f5b57f80    ....    CMP      r5,#0x100
        0x000003aa:    dc02        ..      BGT      0x3b2 ; am_devices_amx8x5_countdown_set + 178
        0x000003ac:    2602        .&      MOVS     r6,#2
        0x000003ae:    1e6c        l.      SUBS     r4,r5,#1
        0x000003b0:    e030        0.      B        0x414 ; am_devices_amx8x5_countdown_set + 276
        0x000003b2:    2603        .&      MOVS     r6,#3
        0x000003b4:    203c        <       MOVS     r0,#0x3c
        0x000003b6:    fb95f4f0    ....    SDIV     r4,r5,r0
        0x000003ba:    1e64        d.      SUBS     r4,r4,#1
        0x000003bc:    e02a        *.      B        0x414 ; am_devices_amx8x5_countdown_set + 276
        0x000003be:    f04f0a00    O...    MOV      r10,#0
        0x000003c2:    f0080b01    ....    AND      r11,r8,#1
        0x000003c6:    f1b80f03    ....    CMP      r8,#3
        0x000003ca:    da0e        ..      BGE      0x3ea ; am_devices_amx8x5_countdown_set + 234
        0x000003cc:    2600        .&      MOVS     r6,#0
        0x000003ce:    9800        ..      LDR      r0,[sp,#0]
        0x000003d0:    b928        (.      CBNZ     r0,0x3de ; am_devices_amx8x5_countdown_set + 222
        0x000003d2:    032c        ,.      LSLS     r4,r5,#12
        0x000003d4:    483d        =H      LDR      r0,[pc,#244] ; [0x4cc] = 0xf4240
        0x000003d6:    fb94f4f0    ....    SDIV     r4,r4,r0
        0x000003da:    1e64        d.      SUBS     r4,r4,#1
        0x000003dc:    e01a        ..      B        0x414 ; am_devices_amx8x5_countdown_set + 276
        0x000003de:    01ec        ..      LSLS     r4,r5,#7
        0x000003e0:    483a        :H      LDR      r0,[pc,#232] ; [0x4cc] = 0xf4240
        0x000003e2:    fb94f4f0    ....    SDIV     r4,r4,r0
        0x000003e6:    1e64        d.      SUBS     r4,r4,#1
        0x000003e8:    e014        ..      B        0x414 ; am_devices_amx8x5_countdown_set + 276
        0x000003ea:    f1b80f05    ....    CMP      r8,#5
        0x000003ee:    da06        ..      BGE      0x3fe ; am_devices_amx8x5_countdown_set + 254
        0x000003f0:    2601        .&      MOVS     r6,#1
        0x000003f2:    01ec        ..      LSLS     r4,r5,#7
        0x000003f4:    4835        5H      LDR      r0,[pc,#212] ; [0x4cc] = 0xf4240
        0x000003f6:    fb94f4f0    ....    SDIV     r4,r4,r0
        0x000003fa:    1e64        d.      SUBS     r4,r4,#1
        0x000003fc:    e00a        ..      B        0x414 ; am_devices_amx8x5_countdown_set + 276
        0x000003fe:    f5b57f80    ....    CMP      r5,#0x100
        0x00000402:    dc02        ..      BGT      0x40a ; am_devices_amx8x5_countdown_set + 266
        0x00000404:    2602        .&      MOVS     r6,#2
        0x00000406:    1e6c        l.      SUBS     r4,r5,#1
        0x00000408:    e004        ..      B        0x414 ; am_devices_amx8x5_countdown_set + 276
        0x0000040a:    2603        .&      MOVS     r6,#3
        0x0000040c:    203c        <       MOVS     r0,#0x3c
        0x0000040e:    fb95f4f0    ....    SDIV     r4,r5,r0
        0x00000412:    1e64        d.      SUBS     r4,r4,#1
        0x00000414:    2118        .!      MOVS     r1,#0x18
        0x00000416:    9803        ..      LDR      r0,[sp,#0xc]
        0x00000418:    f000f8f0    ....    BL       am_devices_amx8x5_reg_read ; 0x5fc
        0x0000041c:    f000001c    ....    AND      r0,r0,#0x1c
        0x00000420:    9001        ..      STR      r0,[sp,#4]
        0x00000422:    2118        .!      MOVS     r1,#0x18
        0x00000424:    9a01        ..      LDR      r2,[sp,#4]
        0x00000426:    9803        ..      LDR      r0,[sp,#0xc]
        0x00000428:    f000f91b    ....    BL       am_devices_amx8x5_reg_write ; 0x662
        0x0000042c:    e9dd1001    ....    LDRD     r1,r0,[sp,#4]
        0x00000430:    ea4110c0    A...    ORR      r0,r1,r0,LSL #7
        0x00000434:    ea40108a    @...    ORR      r0,r0,r10,LSL #6
        0x00000438:    ea40104b    @.K.    ORR      r0,r0,r11,LSL #5
        0x0000043c:    4330        0C      ORRS     r0,r0,r6
        0x0000043e:    b2c0        ..      UXTB     r0,r0
        0x00000440:    9001        ..      STR      r0,[sp,#4]
        0x00000442:    2f02        ./      CMP      r7,#2
        0x00000444:    d104        ..      BNE      0x450 ; am_devices_amx8x5_countdown_set + 336
        0x00000446:    2203        ."      MOVS     r2,#3
        0x00000448:    2111        .!      MOVS     r1,#0x11
        0x0000044a:    9803        ..      LDR      r0,[sp,#0xc]
        0x0000044c:    f000f8c4    ....    BL       am_devices_amx8x5_reg_clear ; 0x5d8
        0x00000450:    2f03        ./      CMP      r7,#3
        0x00000452:    d110        ..      BNE      0x476 ; am_devices_amx8x5_countdown_set + 374
        0x00000454:    2111        .!      MOVS     r1,#0x11
        0x00000456:    9803        ..      LDR      r0,[sp,#0xc]
        0x00000458:    f000f8d0    ....    BL       am_devices_amx8x5_reg_read ; 0x5fc
        0x0000045c:    4681        .F      MOV      r9,r0
        0x0000045e:    f009001c    ....    AND      r0,r9,#0x1c
        0x00000462:    b118        ..      CBZ      r0,0x46c ; am_devices_amx8x5_countdown_set + 364
        0x00000464:    f00900e3    ....    AND      r0,r9,#0xe3
        0x00000468:    f0400914    @...    ORR      r9,r0,#0x14
        0x0000046c:    464a        JF      MOV      r2,r9
        0x0000046e:    2111        .!      MOVS     r1,#0x11
        0x00000470:    9803        ..      LDR      r0,[sp,#0xc]
        0x00000472:    f000f8f6    ....    BL       am_devices_amx8x5_reg_write ; 0x662
        0x00000476:    2f04        ./      CMP      r7,#4
        0x00000478:    d104        ..      BNE      0x484 ; am_devices_amx8x5_countdown_set + 388
        0x0000047a:    229b        ."      MOVS     r2,#0x9b
        0x0000047c:    2113        .!      MOVS     r1,#0x13
        0x0000047e:    9803        ..      LDR      r0,[sp,#0xc]
        0x00000480:    f000f8ef    ....    BL       am_devices_amx8x5_reg_write ; 0x662
        0x00000484:    2f05        ./      CMP      r7,#5
        0x00000486:    d104        ..      BNE      0x492 ; am_devices_amx8x5_countdown_set + 402
        0x00000488:    229a        ."      MOVS     r2,#0x9a
        0x0000048a:    2113        .!      MOVS     r1,#0x13
        0x0000048c:    9803        ..      LDR      r0,[sp,#0xc]
        0x0000048e:    f000f8e8    ....    BL       am_devices_amx8x5_reg_write ; 0x662
        0x00000492:    b1c7        ..      CBZ      r7,0x4c6 ; am_devices_amx8x5_countdown_set + 454
        0x00000494:    2208        ."      MOVS     r2,#8
        0x00000496:    210f        .!      MOVS     r1,#0xf
        0x00000498:    9803        ..      LDR      r0,[sp,#0xc]
        0x0000049a:    f000f89d    ....    BL       am_devices_amx8x5_reg_clear ; 0x5d8
        0x0000049e:    2208        ."      MOVS     r2,#8
        0x000004a0:    2112        .!      MOVS     r1,#0x12
        0x000004a2:    9803        ..      LDR      r0,[sp,#0xc]
        0x000004a4:    f000f8cb    ....    BL       am_devices_amx8x5_reg_set ; 0x63e
        0x000004a8:    b2e2        ..      UXTB     r2,r4
        0x000004aa:    2119        .!      MOVS     r1,#0x19
        0x000004ac:    9803        ..      LDR      r0,[sp,#0xc]
        0x000004ae:    f000f8d8    ....    BL       am_devices_amx8x5_reg_write ; 0x662
        0x000004b2:    b2e2        ..      UXTB     r2,r4
        0x000004b4:    211a        .!      MOVS     r1,#0x1a
        0x000004b6:    9803        ..      LDR      r0,[sp,#0xc]
        0x000004b8:    f000f8d3    ....    BL       am_devices_amx8x5_reg_write ; 0x662
        0x000004bc:    2118        .!      MOVS     r1,#0x18
        0x000004be:    9a01        ..      LDR      r2,[sp,#4]
        0x000004c0:    9803        ..      LDR      r0,[sp,#0xc]
        0x000004c2:    f000f8ce    ....    BL       am_devices_amx8x5_reg_write ; 0x662
        0x000004c6:    b007        ..      ADD      sp,sp,#0x1c
        0x000004c8:    e8bd8ff0    ....    POP      {r4-r11,pc}
    $d
        0x000004cc:    000f4240    @B..    DCD    1000000
        0x000004d0:    001e8480    ....    DCD    2000000
        0x000004d4:    003d0900    ..=.    DCD    4000000
    $t
    i.am_devices_amx8x5_reg_block_read
    am_devices_amx8x5_reg_block_read
        0x000004d8:    e92d47fc    -..G    PUSH     {r2-r10,lr}
        0x000004dc:    4604        .F      MOV      r4,r0
        0x000004de:    460f        .F      MOV      r7,r1
        0x000004e0:    4690        .F      MOV      r8,r2
        0x000004e2:    4699        .F      MOV      r9,r3
        0x000004e4:    9d0a        ..      LDR      r5,[sp,#0x28]
        0x000004e6:    463e        >F      MOV      r6,r7
        0x000004e8:    7820         x      LDRB     r0,[r4,#0]
        0x000004ea:    2801        .(      CMP      r0,#1
        0x000004ec:    d119        ..      BNE      0x522 ; am_devices_amx8x5_reg_block_read + 74
        0x000004ee:    b165        e.      CBZ      r5,0x50a ; am_devices_amx8x5_reg_block_read + 50
        0x000004f0:    f44f407f    O..@    MOV      r0,#0xff00
        0x000004f4:    ea002006    ...     AND      r0,r0,r6,LSL #8
        0x000004f8:    e9cd0500    ....    STRD     r0,r5,[sp,#0]
        0x000004fc:    464b        KF      MOV      r3,r9
        0x000004fe:    4642        BF      MOV      r2,r8
        0x00000500:    e9d40101    ....    LDRD     r0,r1,[r4,#4]
        0x00000504:    f000ffe8    ....    BL       am_hal_iom_spi_read_nb ; 0x14d8
        0x00000508:    e024        $.      B        0x554 ; am_devices_amx8x5_reg_block_read + 124
        0x0000050a:    f44f407f    O..@    MOV      r0,#0xff00
        0x0000050e:    ea002006    ...     AND      r0,r0,r6,LSL #8
        0x00000512:    9000        ..      STR      r0,[sp,#0]
        0x00000514:    464b        KF      MOV      r3,r9
        0x00000516:    4642        BF      MOV      r2,r8
        0x00000518:    e9d40101    ....    LDRD     r0,r1,[r4,#4]
        0x0000051c:    f000ff6c    ..l.    BL       am_hal_iom_spi_read ; 0x13f8
        0x00000520:    e018        ..      B        0x554 ; am_devices_amx8x5_reg_block_read + 124
        0x00000522:    b165        e.      CBZ      r5,0x53e ; am_devices_amx8x5_reg_block_read + 102
        0x00000524:    f44f407f    O..@    MOV      r0,#0xff00
        0x00000528:    ea002006    ...     AND      r0,r0,r6,LSL #8
        0x0000052c:    e9cd0500    ....    STRD     r0,r5,[sp,#0]
        0x00000530:    464b        KF      MOV      r3,r9
        0x00000532:    4642        BF      MOV      r2,r8
        0x00000534:    68e1        .h      LDR      r1,[r4,#0xc]
        0x00000536:    6860        `h      LDR      r0,[r4,#4]
        0x00000538:    f000fdf0    ....    BL       am_hal_iom_i2c_read_nb ; 0x111c
        0x0000053c:    e00a        ..      B        0x554 ; am_devices_amx8x5_reg_block_read + 124
        0x0000053e:    f44f407f    O..@    MOV      r0,#0xff00
        0x00000542:    ea002006    ...     AND      r0,r0,r6,LSL #8
        0x00000546:    9000        ..      STR      r0,[sp,#0]
        0x00000548:    464b        KF      MOV      r3,r9
        0x0000054a:    4642        BF      MOV      r2,r8
        0x0000054c:    68e1        .h      LDR      r1,[r4,#0xc]
        0x0000054e:    6860        `h      LDR      r0,[r4,#4]
        0x00000550:    f000fd5c    ..\.    BL       am_hal_iom_i2c_read ; 0x100c
        0x00000554:    e8bd87fc    ....    POP      {r2-r10,pc}
    i.am_devices_amx8x5_reg_block_write
    am_devices_amx8x5_reg_block_write
        0x00000558:    e92d47fc    -..G    PUSH     {r2-r10,lr}
        0x0000055c:    4604        .F      MOV      r4,r0
        0x0000055e:    460f        .F      MOV      r7,r1
        0x00000560:    4690        .F      MOV      r8,r2
        0x00000562:    4699        .F      MOV      r9,r3
        0x00000564:    9d0a        ..      LDR      r5,[sp,#0x28]
        0x00000566:    463e        >F      MOV      r6,r7
        0x00000568:    7820         x      LDRB     r0,[r4,#0]
        0x0000056a:    2801        .(      CMP      r0,#1
        0x0000056c:    d119        ..      BNE      0x5a2 ; am_devices_amx8x5_reg_block_write + 74
        0x0000056e:    b165        e.      CBZ      r5,0x58a ; am_devices_amx8x5_reg_block_write + 50
        0x00000570:    f44f407f    O..@    MOV      r0,#0xff00
        0x00000574:    ea002006    ...     AND      r0,r0,r6,LSL #8
        0x00000578:    e9cd0500    ....    STRD     r0,r5,[sp,#0]
        0x0000057c:    464b        KF      MOV      r3,r9
        0x0000057e:    4642        BF      MOV      r2,r8
        0x00000580:    e9d40101    ....    LDRD     r0,r1,[r4,#4]
        0x00000584:    f001f870    ..p.    BL       am_hal_iom_spi_write_nb ; 0x1668
        0x00000588:    e024        $.      B        0x5d4 ; am_devices_amx8x5_reg_block_write + 124
        0x0000058a:    f44f407f    O..@    MOV      r0,#0xff00
        0x0000058e:    ea002006    ...     AND      r0,r0,r6,LSL #8
        0x00000592:    9000        ..      STR      r0,[sp,#0]
        0x00000594:    464b        KF      MOV      r3,r9
        0x00000596:    4642        BF      MOV      r2,r8
        0x00000598:    e9d40101    ....    LDRD     r0,r1,[r4,#4]
        0x0000059c:    f000fff0    ....    BL       am_hal_iom_spi_write ; 0x1580
        0x000005a0:    e018        ..      B        0x5d4 ; am_devices_amx8x5_reg_block_write + 124
        0x000005a2:    b165        e.      CBZ      r5,0x5be ; am_devices_amx8x5_reg_block_write + 102
        0x000005a4:    f44f407f    O..@    MOV      r0,#0xff00
        0x000005a8:    ea002006    ...     AND      r0,r0,r6,LSL #8
        0x000005ac:    e9cd0500    ....    STRD     r0,r5,[sp,#0]
        0x000005b0:    464b        KF      MOV      r3,r9
        0x000005b2:    4642        BF      MOV      r2,r8
        0x000005b4:    68e1        .h      LDR      r1,[r4,#0xc]
        0x000005b6:    6860        `h      LDR      r0,[r4,#4]
        0x000005b8:    f000fea4    ....    BL       am_hal_iom_i2c_write_nb ; 0x1304
        0x000005bc:    e00a        ..      B        0x5d4 ; am_devices_amx8x5_reg_block_write + 124
        0x000005be:    f44f407f    O..@    MOV      r0,#0xff00
        0x000005c2:    ea002006    ...     AND      r0,r0,r6,LSL #8
        0x000005c6:    9000        ..      STR      r0,[sp,#0]
        0x000005c8:    464b        KF      MOV      r3,r9
        0x000005ca:    4642        BF      MOV      r2,r8
        0x000005cc:    68e1        .h      LDR      r1,[r4,#0xc]
        0x000005ce:    6860        `h      LDR      r0,[r4,#4]
        0x000005d0:    f000fe12    ....    BL       am_hal_iom_i2c_write ; 0x11f8
        0x000005d4:    e8bd87fc    ....    POP      {r2-r10,pc}
    i.am_devices_amx8x5_reg_clear
    am_devices_amx8x5_reg_clear
        0x000005d8:    e92d41f0    -..A    PUSH     {r4-r8,lr}
        0x000005dc:    4606        .F      MOV      r6,r0
        0x000005de:    460f        .F      MOV      r7,r1
        0x000005e0:    4614        .F      MOV      r4,r2
        0x000005e2:    4639        9F      MOV      r1,r7
        0x000005e4:    4630        0F      MOV      r0,r6
        0x000005e6:    f000f809    ....    BL       am_devices_amx8x5_reg_read ; 0x5fc
        0x000005ea:    4605        .F      MOV      r5,r0
        0x000005ec:    43a5        .C      BICS     r5,r5,r4
        0x000005ee:    462a        *F      MOV      r2,r5
        0x000005f0:    4639        9F      MOV      r1,r7
        0x000005f2:    4630        0F      MOV      r0,r6
        0x000005f4:    f000f835    ..5.    BL       am_devices_amx8x5_reg_write ; 0x662
        0x000005f8:    e8bd81f0    ....    POP      {r4-r8,pc}
    i.am_devices_amx8x5_reg_read
    am_devices_amx8x5_reg_read
        0x000005fc:    b57c        |.      PUSH     {r2-r6,lr}
        0x000005fe:    4604        .F      MOV      r4,r0
        0x00000600:    460d        .F      MOV      r5,r1
        0x00000602:    462e        .F      MOV      r6,r5
        0x00000604:    7820         x      LDRB     r0,[r4,#0]
        0x00000606:    2801        .(      CMP      r0,#1
        0x00000608:    d10b        ..      BNE      0x622 ; am_devices_amx8x5_reg_read + 38
        0x0000060a:    f44f407f    O..@    MOV      r0,#0xff00
        0x0000060e:    ea002006    ...     AND      r0,r0,r6,LSL #8
        0x00000612:    9000        ..      STR      r0,[sp,#0]
        0x00000614:    2301        .#      MOVS     r3,#1
        0x00000616:    aa01        ..      ADD      r2,sp,#4
        0x00000618:    e9d40101    ....    LDRD     r0,r1,[r4,#4]
        0x0000061c:    f000feec    ....    BL       am_hal_iom_spi_read ; 0x13f8
        0x00000620:    e00a        ..      B        0x638 ; am_devices_amx8x5_reg_read + 60
        0x00000622:    f44f407f    O..@    MOV      r0,#0xff00
        0x00000626:    ea002006    ...     AND      r0,r0,r6,LSL #8
        0x0000062a:    9000        ..      STR      r0,[sp,#0]
        0x0000062c:    2301        .#      MOVS     r3,#1
        0x0000062e:    aa01        ..      ADD      r2,sp,#4
        0x00000630:    68e1        .h      LDR      r1,[r4,#0xc]
        0x00000632:    6860        `h      LDR      r0,[r4,#4]
        0x00000634:    f000fcea    ....    BL       am_hal_iom_i2c_read ; 0x100c
        0x00000638:    f89d0004    ....    LDRB     r0,[sp,#4]
        0x0000063c:    bd7c        |.      POP      {r2-r6,pc}
    i.am_devices_amx8x5_reg_set
    am_devices_amx8x5_reg_set
        0x0000063e:    e92d41f0    -..A    PUSH     {r4-r8,lr}
        0x00000642:    4606        .F      MOV      r6,r0
        0x00000644:    460f        .F      MOV      r7,r1
        0x00000646:    4614        .F      MOV      r4,r2
        0x00000648:    4639        9F      MOV      r1,r7
        0x0000064a:    4630        0F      MOV      r0,r6
        0x0000064c:    f7ffffd6    ....    BL       am_devices_amx8x5_reg_read ; 0x5fc
        0x00000650:    4605        .F      MOV      r5,r0
        0x00000652:    4325        %C      ORRS     r5,r5,r4
        0x00000654:    462a        *F      MOV      r2,r5
        0x00000656:    4639        9F      MOV      r1,r7
        0x00000658:    4630        0F      MOV      r0,r6
        0x0000065a:    f000f802    ....    BL       am_devices_amx8x5_reg_write ; 0x662
        0x0000065e:    e8bd81f0    ....    POP      {r4-r8,pc}
    i.am_devices_amx8x5_reg_write
    am_devices_amx8x5_reg_write
        0x00000662:    e92d41fc    -..A    PUSH     {r2-r8,lr}
        0x00000666:    4604        .F      MOV      r4,r0
        0x00000668:    460d        .F      MOV      r5,r1
        0x0000066a:    4616        .F      MOV      r6,r2
        0x0000066c:    462f        /F      MOV      r7,r5
        0x0000066e:    f88d6004    ...`    STRB     r6,[sp,#4]
        0x00000672:    7820         x      LDRB     r0,[r4,#0]
        0x00000674:    2801        .(      CMP      r0,#1
        0x00000676:    d10b        ..      BNE      0x690 ; am_devices_amx8x5_reg_write + 46
        0x00000678:    f44f407f    O..@    MOV      r0,#0xff00
        0x0000067c:    ea002007    ...     AND      r0,r0,r7,LSL #8
        0x00000680:    9000        ..      STR      r0,[sp,#0]
        0x00000682:    2301        .#      MOVS     r3,#1
        0x00000684:    aa01        ..      ADD      r2,sp,#4
        0x00000686:    e9d40101    ....    LDRD     r0,r1,[r4,#4]
        0x0000068a:    f000ff79    ..y.    BL       am_hal_iom_spi_write ; 0x1580
        0x0000068e:    e00a        ..      B        0x6a6 ; am_devices_amx8x5_reg_write + 68
        0x00000690:    f44f407f    O..@    MOV      r0,#0xff00
        0x00000694:    ea002007    ...     AND      r0,r0,r7,LSL #8
        0x00000698:    9000        ..      STR      r0,[sp,#0]
        0x0000069a:    2301        .#      MOVS     r3,#1
        0x0000069c:    aa01        ..      ADD      r2,sp,#4
        0x0000069e:    68e1        .h      LDR      r1,[r4,#0xc]
        0x000006a0:    6860        `h      LDR      r0,[r4,#4]
        0x000006a2:    f000fda9    ....    BL       am_hal_iom_i2c_write ; 0x11f8
        0x000006a6:    e8bd81fc    ....    POP      {r2-r8,pc}
        0x000006aa:    0000        ..      MOVS     r0,r0
    i.am_devices_amx8x5_time_get
    am_devices_amx8x5_time_get
        0x000006ac:    b53e        >.      PUSH     {r1-r5,lr}
        0x000006ae:    4604        .F      MOV      r4,r0
        0x000006b0:    2000        .       MOVS     r0,#0
        0x000006b2:    2308        .#      MOVS     r3,#8
        0x000006b4:    aa01        ..      ADD      r2,sp,#4
        0x000006b6:    4601        .F      MOV      r1,r0
        0x000006b8:    9000        ..      STR      r0,[sp,#0]
        0x000006ba:    4620         F      MOV      r0,r4
        0x000006bc:    f7ffff0c    ....    BL       am_devices_amx8x5_reg_block_read ; 0x4d8
        0x000006c0:    f89d0004    ....    LDRB     r0,[sp,#4]
        0x000006c4:    f001f984    ....    BL       am_util_math_bcd_to_dec ; 0x19d0
        0x000006c8:    492c        ,I      LDR      r1,[pc,#176] ; [0x77c] = 0x10000188
        0x000006ca:    7008        .p      STRB     r0,[r1,#0]
        0x000006cc:    f89d0005    ....    LDRB     r0,[sp,#5]
        0x000006d0:    f001f97e    ..~.    BL       am_util_math_bcd_to_dec ; 0x19d0
        0x000006d4:    4929        )I      LDR      r1,[pc,#164] ; [0x77c] = 0x10000188
        0x000006d6:    7048        Hp      STRB     r0,[r1,#1]
        0x000006d8:    f89d0006    ....    LDRB     r0,[sp,#6]
        0x000006dc:    f001f978    ..x.    BL       am_util_math_bcd_to_dec ; 0x19d0
        0x000006e0:    4926        &I      LDR      r1,[pc,#152] ; [0x77c] = 0x10000188
        0x000006e2:    7088        .p      STRB     r0,[r1,#2]
        0x000006e4:    f89d0007    ....    LDRB     r0,[sp,#7]
        0x000006e8:    70c8        .p      STRB     r0,[r1,#3]
        0x000006ea:    f89d0008    ....    LDRB     r0,[sp,#8]
        0x000006ee:    f001f96f    ..o.    BL       am_util_math_bcd_to_dec ; 0x19d0
        0x000006f2:    4922        "I      LDR      r1,[pc,#136] ; [0x77c] = 0x10000188
        0x000006f4:    7108        .q      STRB     r0,[r1,#4]
        0x000006f6:    f89d0009    ....    LDRB     r0,[sp,#9]
        0x000006fa:    f001f969    ..i.    BL       am_util_math_bcd_to_dec ; 0x19d0
        0x000006fe:    491f        .I      LDR      r1,[pc,#124] ; [0x77c] = 0x10000188
        0x00000700:    7188        .q      STRB     r0,[r1,#6]
        0x00000702:    f89d000a    ....    LDRB     r0,[sp,#0xa]
        0x00000706:    f001f963    ..c.    BL       am_util_math_bcd_to_dec ; 0x19d0
        0x0000070a:    491c        .I      LDR      r1,[pc,#112] ; [0x77c] = 0x10000188
        0x0000070c:    71c8        .q      STRB     r0,[r1,#7]
        0x0000070e:    f89d000b    ....    LDRB     r0,[sp,#0xb]
        0x00000712:    f001f95d    ..].    BL       am_util_math_bcd_to_dec ; 0x19d0
        0x00000716:    4919        .I      LDR      r1,[pc,#100] ; [0x77c] = 0x10000188
        0x00000718:    7148        Hq      STRB     r0,[r1,#5]
        0x0000071a:    2110        .!      MOVS     r1,#0x10
        0x0000071c:    4620         F      MOV      r0,r4
        0x0000071e:    f7ffff6d    ..m.    BL       am_devices_amx8x5_reg_read ; 0x5fc
        0x00000722:    f88d0004    ....    STRB     r0,[sp,#4]
        0x00000726:    f89d0004    ....    LDRB     r0,[sp,#4]
        0x0000072a:    f0000040    ..@.    AND      r0,r0,#0x40
        0x0000072e:    b940        @.      CBNZ     r0,0x742 ; am_devices_amx8x5_time_get + 150
        0x00000730:    2002        .       MOVS     r0,#2
        0x00000732:    4912        .I      LDR      r1,[pc,#72] ; [0x77c] = 0x10000188
        0x00000734:    7248        Hr      STRB     r0,[r1,#9]
        0x00000736:    4608        .F      MOV      r0,r1
        0x00000738:    78c0        .x      LDRB     r0,[r0,#3]
        0x0000073a:    f000003f    ..?.    AND      r0,r0,#0x3f
        0x0000073e:    70c8        .p      STRB     r0,[r1,#3]
        0x00000740:    e00a        ..      B        0x758 ; am_devices_amx8x5_time_get + 172
        0x00000742:    480e        .H      LDR      r0,[pc,#56] ; [0x77c] = 0x10000188
        0x00000744:    78c0        .x      LDRB     r0,[r0,#3]
        0x00000746:    f3c01040    ..@.    UBFX     r0,r0,#5,#1
        0x0000074a:    490c        .I      LDR      r1,[pc,#48] ; [0x77c] = 0x10000188
        0x0000074c:    7248        Hr      STRB     r0,[r1,#9]
        0x0000074e:    4608        .F      MOV      r0,r1
        0x00000750:    78c0        .x      LDRB     r0,[r0,#3]
        0x00000752:    f000001f    ....    AND      r0,r0,#0x1f
        0x00000756:    70c8        .p      STRB     r0,[r1,#3]
        0x00000758:    4908        .I      LDR      r1,[pc,#32] ; [0x77c] = 0x10000188
        0x0000075a:    78c8        .x      LDRB     r0,[r1,#3]
        0x0000075c:    f001f938    ..8.    BL       am_util_math_bcd_to_dec ; 0x19d0
        0x00000760:    4906        .I      LDR      r1,[pc,#24] ; [0x77c] = 0x10000188
        0x00000762:    70c8        .p      STRB     r0,[r1,#3]
        0x00000764:    210f        .!      MOVS     r1,#0xf
        0x00000766:    4620         F      MOV      r0,r4
        0x00000768:    f7ffff48    ..H.    BL       am_devices_amx8x5_reg_read ; 0x5fc
        0x0000076c:    f88d0004    ....    STRB     r0,[sp,#4]
        0x00000770:    f89d0004    ....    LDRB     r0,[sp,#4]
        0x00000774:    09c0        ..      LSRS     r0,r0,#7
        0x00000776:    4901        .I      LDR      r1,[pc,#4] ; [0x77c] = 0x10000188
        0x00000778:    7208        .r      STRB     r0,[r1,#8]
        0x0000077a:    bd3e        >.      POP      {r1-r5,pc}
    $d
        0x0000077c:    10000188    ....    DCD    268435848
    $t
    i.am_devices_amx8x5_time_set
    am_devices_amx8x5_time_set
        0x00000780:    b53e        >.      PUSH     {r1-r5,lr}
        0x00000782:    4605        .F      MOV      r5,r0
        0x00000784:    460c        .F      MOV      r4,r1
        0x00000786:    494e        NI      LDR      r1,[pc,#312] ; [0x8c0] = 0x10000188
        0x00000788:    7808        .x      LDRB     r0,[r1,#0]
        0x0000078a:    f001f92b    ..+.    BL       am_util_math_dec_to_bcd ; 0x19e4
        0x0000078e:    494c        LI      LDR      r1,[pc,#304] ; [0x8c0] = 0x10000188
        0x00000790:    7008        .p      STRB     r0,[r1,#0]
        0x00000792:    7848        Hx      LDRB     r0,[r1,#1]
        0x00000794:    f001f926    ..&.    BL       am_util_math_dec_to_bcd ; 0x19e4
        0x00000798:    4949        II      LDR      r1,[pc,#292] ; [0x8c0] = 0x10000188
        0x0000079a:    7048        Hp      STRB     r0,[r1,#1]
        0x0000079c:    7888        .x      LDRB     r0,[r1,#2]
        0x0000079e:    f001f921    ..!.    BL       am_util_math_dec_to_bcd ; 0x19e4
        0x000007a2:    4947        GI      LDR      r1,[pc,#284] ; [0x8c0] = 0x10000188
        0x000007a4:    7088        .p      STRB     r0,[r1,#2]
        0x000007a6:    78c8        .x      LDRB     r0,[r1,#3]
        0x000007a8:    f001f91c    ....    BL       am_util_math_dec_to_bcd ; 0x19e4
        0x000007ac:    4944        DI      LDR      r1,[pc,#272] ; [0x8c0] = 0x10000188
        0x000007ae:    70c8        .p      STRB     r0,[r1,#3]
        0x000007b0:    7908        .y      LDRB     r0,[r1,#4]
        0x000007b2:    f001f917    ....    BL       am_util_math_dec_to_bcd ; 0x19e4
        0x000007b6:    4942        BI      LDR      r1,[pc,#264] ; [0x8c0] = 0x10000188
        0x000007b8:    7108        .q      STRB     r0,[r1,#4]
        0x000007ba:    7948        Hy      LDRB     r0,[r1,#5]
        0x000007bc:    f001f912    ....    BL       am_util_math_dec_to_bcd ; 0x19e4
        0x000007c0:    493f        ?I      LDR      r1,[pc,#252] ; [0x8c0] = 0x10000188
        0x000007c2:    7148        Hq      STRB     r0,[r1,#5]
        0x000007c4:    7988        .y      LDRB     r0,[r1,#6]
        0x000007c6:    f001f90d    ....    BL       am_util_math_dec_to_bcd ; 0x19e4
        0x000007ca:    493d        =I      LDR      r1,[pc,#244] ; [0x8c0] = 0x10000188
        0x000007cc:    7188        .q      STRB     r0,[r1,#6]
        0x000007ce:    79c8        .y      LDRB     r0,[r1,#7]
        0x000007d0:    f001f908    ....    BL       am_util_math_dec_to_bcd ; 0x19e4
        0x000007d4:    493a        :I      LDR      r1,[pc,#232] ; [0x8c0] = 0x10000188
        0x000007d6:    71c8        .q      STRB     r0,[r1,#7]
        0x000007d8:    4608        .F      MOV      r0,r1
        0x000007da:    7a40        @z      LDRB     r0,[r0,#9]
        0x000007dc:    2802        .(      CMP      r0,#2
        0x000007de:    d105        ..      BNE      0x7ec ; am_devices_amx8x5_time_set + 108
        0x000007e0:    2240        @"      MOVS     r2,#0x40
        0x000007e2:    2110        .!      MOVS     r1,#0x10
        0x000007e4:    4628        (F      MOV      r0,r5
        0x000007e6:    f7fffef7    ....    BL       am_devices_amx8x5_reg_clear ; 0x5d8
        0x000007ea:    e014        ..      B        0x816 ; am_devices_amx8x5_time_set + 150
        0x000007ec:    4834        4H      LDR      r0,[pc,#208] ; [0x8c0] = 0x10000188
        0x000007ee:    7a40        @z      LDRB     r0,[r0,#9]
        0x000007f0:    2801        .(      CMP      r0,#1
        0x000007f2:    d10b        ..      BNE      0x80c ; am_devices_amx8x5_time_set + 140
        0x000007f4:    4832        2H      LDR      r0,[pc,#200] ; [0x8c0] = 0x10000188
        0x000007f6:    78c0        .x      LDRB     r0,[r0,#3]
        0x000007f8:    f0400020    @. .    ORR      r0,r0,#0x20
        0x000007fc:    4930        0I      LDR      r1,[pc,#192] ; [0x8c0] = 0x10000188
        0x000007fe:    70c8        .p      STRB     r0,[r1,#3]
        0x00000800:    2240        @"      MOVS     r2,#0x40
        0x00000802:    2110        .!      MOVS     r1,#0x10
        0x00000804:    4628        (F      MOV      r0,r5
        0x00000806:    f7ffff1a    ....    BL       am_devices_amx8x5_reg_set ; 0x63e
        0x0000080a:    e004        ..      B        0x816 ; am_devices_amx8x5_time_set + 150
        0x0000080c:    2240        @"      MOVS     r2,#0x40
        0x0000080e:    2110        .!      MOVS     r1,#0x10
        0x00000810:    4628        (F      MOV      r0,r5
        0x00000812:    f7ffff14    ....    BL       am_devices_amx8x5_reg_set ; 0x63e
        0x00000816:    2201        ."      MOVS     r2,#1
        0x00000818:    2110        .!      MOVS     r1,#0x10
        0x0000081a:    4628        (F      MOV      r0,r5
        0x0000081c:    f7ffff0f    ....    BL       am_devices_amx8x5_reg_set ; 0x63e
        0x00000820:    4827        'H      LDR      r0,[pc,#156] ; [0x8c0] = 0x10000188
        0x00000822:    7a00        .z      LDRB     r0,[r0,#8]
        0x00000824:    b928        (.      CBNZ     r0,0x832 ; am_devices_amx8x5_time_set + 178
        0x00000826:    2280        ."      MOVS     r2,#0x80
        0x00000828:    210f        .!      MOVS     r1,#0xf
        0x0000082a:    4628        (F      MOV      r0,r5
        0x0000082c:    f7fffed4    ....    BL       am_devices_amx8x5_reg_clear ; 0x5d8
        0x00000830:    e004        ..      B        0x83c ; am_devices_amx8x5_time_set + 188
        0x00000832:    2280        ."      MOVS     r2,#0x80
        0x00000834:    210f        .!      MOVS     r1,#0xf
        0x00000836:    4628        (F      MOV      r0,r5
        0x00000838:    f7ffff01    ....    BL       am_devices_amx8x5_reg_set ; 0x63e
        0x0000083c:    4820         H      LDR      r0,[pc,#128] ; [0x8c0] = 0x10000188
        0x0000083e:    7800        .x      LDRB     r0,[r0,#0]
        0x00000840:    f88d0004    ....    STRB     r0,[sp,#4]
        0x00000844:    481e        .H      LDR      r0,[pc,#120] ; [0x8c0] = 0x10000188
        0x00000846:    7840        @x      LDRB     r0,[r0,#1]
        0x00000848:    f88d0005    ....    STRB     r0,[sp,#5]
        0x0000084c:    481c        .H      LDR      r0,[pc,#112] ; [0x8c0] = 0x10000188
        0x0000084e:    7880        .x      LDRB     r0,[r0,#2]
        0x00000850:    f88d0006    ....    STRB     r0,[sp,#6]
        0x00000854:    481a        .H      LDR      r0,[pc,#104] ; [0x8c0] = 0x10000188
        0x00000856:    78c0        .x      LDRB     r0,[r0,#3]
        0x00000858:    f88d0007    ....    STRB     r0,[sp,#7]
        0x0000085c:    4818        .H      LDR      r0,[pc,#96] ; [0x8c0] = 0x10000188
        0x0000085e:    7900        .y      LDRB     r0,[r0,#4]
        0x00000860:    f88d0008    ....    STRB     r0,[sp,#8]
        0x00000864:    4816        .H      LDR      r0,[pc,#88] ; [0x8c0] = 0x10000188
        0x00000866:    7980        .y      LDRB     r0,[r0,#6]
        0x00000868:    f88d0009    ....    STRB     r0,[sp,#9]
        0x0000086c:    4814        .H      LDR      r0,[pc,#80] ; [0x8c0] = 0x10000188
        0x0000086e:    79c0        .y      LDRB     r0,[r0,#7]
        0x00000870:    f88d000a    ....    STRB     r0,[sp,#0xa]
        0x00000874:    4812        .H      LDR      r0,[pc,#72] ; [0x8c0] = 0x10000188
        0x00000876:    7940        @y      LDRB     r0,[r0,#5]
        0x00000878:    f88d000b    ....    STRB     r0,[sp,#0xb]
        0x0000087c:    2000        .       MOVS     r0,#0
        0x0000087e:    2308        .#      MOVS     r3,#8
        0x00000880:    aa01        ..      ADD      r2,sp,#4
        0x00000882:    4601        .F      MOV      r1,r0
        0x00000884:    9000        ..      STR      r0,[sp,#0]
        0x00000886:    4628        (F      MOV      r0,r5
        0x00000888:    f7fffe66    ..f.    BL       am_devices_amx8x5_reg_block_write ; 0x558
        0x0000088c:    2110        .!      MOVS     r1,#0x10
        0x0000088e:    4628        (F      MOV      r0,r5
        0x00000890:    f7fffeb4    ....    BL       am_devices_amx8x5_reg_read ; 0x5fc
        0x00000894:    f88d0004    ....    STRB     r0,[sp,#4]
        0x00000898:    f89d0004    ....    LDRB     r0,[sp,#4]
        0x0000089c:    f000007e    ..~.    AND      r0,r0,#0x7e
        0x000008a0:    f88d0004    ....    STRB     r0,[sp,#4]
        0x000008a4:    f89d0004    ....    LDRB     r0,[sp,#4]
        0x000008a8:    2101        .!      MOVS     r1,#1
        0x000008aa:    43a1        .C      BICS     r1,r1,r4
        0x000008ac:    4308        .C      ORRS     r0,r0,r1
        0x000008ae:    f88d0004    ....    STRB     r0,[sp,#4]
        0x000008b2:    f89d2004    ...     LDRB     r2,[sp,#4]
        0x000008b6:    2110        .!      MOVS     r1,#0x10
        0x000008b8:    4628        (F      MOV      r0,r5
        0x000008ba:    f7fffed2    ....    BL       am_devices_amx8x5_reg_write ; 0x662
        0x000008be:    bd3e        >.      POP      {r1-r5,pc}
    $d
        0x000008c0:    10000188    ....    DCD    268435848
    $t
    i.am_gpio_isr
    am_gpio_isr
        0x000008c4:    b570        p.      PUSH     {r4-r6,lr}
        0x000008c6:    2000        .       MOVS     r0,#0
        0x000008c8:    f000f862    ..b.    BL       am_hal_gpio_int_status_get ; 0x990
        0x000008cc:    4604        .F      MOV      r4,r0
        0x000008ce:    460d        .F      MOV      r5,r1
        0x000008d0:    4620         F      MOV      r0,r4
        0x000008d2:    4629        )F      MOV      r1,r5
        0x000008d4:    f000f846    ..F.    BL       am_hal_gpio_int_clear ; 0x964
        0x000008d8:    2001        .       MOVS     r0,#1
        0x000008da:    4901        .I      LDR      r1,[pc,#4] ; [0x8e0] = 0x1000004c
        0x000008dc:    6008        .`      STR      r0,[r1,#0]
        0x000008de:    bd70        p.      POP      {r4-r6,pc}
    $d
        0x000008e0:    1000004c    L...    DCD    268435532
    $t
    i.am_hal_clkgen_osc_stop
    am_hal_clkgen_osc_stop
        0x000008e4:    f04f2140    O.@!    MOV      r1,#0x40004000
        0x000008e8:    68ca        .h      LDR      r2,[r1,#0xc]
        0x000008ea:    4310        .C      ORRS     r0,r0,r2
        0x000008ec:    60c8        .`      STR      r0,[r1,#0xc]
        0x000008ee:    4770        pG      BX       lr
    i.am_hal_clkgen_sysclk_get
    am_hal_clkgen_sysclk_get
        0x000008f0:    f04f2040    O.@     MOV      r0,#0x40004000
        0x000008f4:    6980        .i      LDR      r0,[r0,#0x18]
        0x000008f6:    f0000007    ....    AND      r0,r0,#7
        0x000008fa:    2808        .(      CMP      r0,#8
        0x000008fc:    d215        ..      BCS      0x92a ; am_hal_clkgen_sysclk_get + 58
        0x000008fe:    e8dff000    ....    TBB      [pc,r0]
    $d
        0x00000902:    0604        ..      DCW    1540
        0x00000904:    0e0c0a08    ....    DCD    235670024
        0x00000908:    1210        ..      DCW    4624
    $t
        0x0000090a:    4809        .H      LDR      r0,[pc,#36] ; [0x930] = 0x16e3600
        0x0000090c:    4770        pG      BX       lr
        0x0000090e:    4809        .H      LDR      r0,[pc,#36] ; [0x934] = 0xb71b00
        0x00000910:    4770        pG      BX       lr
        0x00000912:    4809        .H      LDR      r0,[pc,#36] ; [0x938] = 0x7a1200
        0x00000914:    4770        pG      BX       lr
        0x00000916:    4809        .H      LDR      r0,[pc,#36] ; [0x93c] = 0x5b8d80
        0x00000918:    4770        pG      BX       lr
        0x0000091a:    4809        .H      LDR      r0,[pc,#36] ; [0x940] = 0x493e00
        0x0000091c:    4770        pG      BX       lr
        0x0000091e:    4809        .H      LDR      r0,[pc,#36] ; [0x944] = 0x3d0900
        0x00000920:    4770        pG      BX       lr
        0x00000922:    4809        .H      LDR      r0,[pc,#36] ; [0x948] = 0x3450db
        0x00000924:    4770        pG      BX       lr
        0x00000926:    4809        .H      LDR      r0,[pc,#36] ; [0x94c] = 0x2dc6c0
        0x00000928:    4770        pG      BX       lr
        0x0000092a:    f04f30ff    O..0    MOV      r0,#0xffffffff
        0x0000092e:    4770        pG      BX       lr
    $d
        0x00000930:    016e3600    .6n.    DCD    24000000
        0x00000934:    00b71b00    ....    DCD    12000000
        0x00000938:    007a1200    ..z.    DCD    8000000
        0x0000093c:    005b8d80    ..[.    DCD    6000000
        0x00000940:    00493e00    .>I.    DCD    4800000
        0x00000944:    003d0900    ..=.    DCD    4000000
        0x00000948:    003450db    .P4.    DCD    3428571
        0x0000094c:    002dc6c0    ..-.    DCD    3000000
    $t
    i.am_hal_clkgen_sysclk_select
    am_hal_clkgen_sysclk_select
        0x00000950:    f04f2140    O.@!    MOV      r1,#0x40004000
        0x00000954:    2247        G"      MOVS     r2,#0x47
        0x00000956:    614a        Ja      STR      r2,[r1,#0x14]
        0x00000958:    6188        .a      STR      r0,[r1,#0x18]
        0x0000095a:    2000        .       MOVS     r0,#0
        0x0000095c:    6148        Ha      STR      r0,[r1,#0x14]
        0x0000095e:    4770        pG      BX       lr
    i.am_hal_debug_error
    am_hal_debug_error
        0x00000960:    e7fe        ..      B        am_hal_debug_error ; 0x960
        0x00000962:    0000        ..      MOVS     r0,r0
    i.am_hal_gpio_int_clear
    am_hal_gpio_int_clear
        0x00000964:    4a02        .J      LDR      r2,[pc,#8] ; [0x970] = 0x40010000
        0x00000966:    f8c21218    ....    STR      r1,[r2,#0x218]
        0x0000096a:    f8c20208    ....    STR      r0,[r2,#0x208]
        0x0000096e:    4770        pG      BX       lr
    $d
        0x00000970:    40010000    ...@    DCD    1073807360
    $t
    i.am_hal_gpio_int_enable
    am_hal_gpio_int_enable
        0x00000974:    4a05        .J      LDR      r2,[pc,#20] ; [0x98c] = 0x40010000
        0x00000976:    f8d23210    ...2    LDR      r3,[r2,#0x210]
        0x0000097a:    4319        .C      ORRS     r1,r1,r3
        0x0000097c:    f8c21210    ....    STR      r1,[r2,#0x210]
        0x00000980:    f8d21200    ....    LDR      r1,[r2,#0x200]
        0x00000984:    4308        .C      ORRS     r0,r0,r1
        0x00000986:    f8c20200    ....    STR      r0,[r2,#0x200]
        0x0000098a:    4770        pG      BX       lr
    $d
        0x0000098c:    40010000    ...@    DCD    1073807360
    $t
    i.am_hal_gpio_int_status_get
    am_hal_gpio_int_status_get
        0x00000990:    4a0c        .J      LDR      r2,[pc,#48] ; [0x9c4] = 0x40010000
        0x00000992:    2100        .!      MOVS     r1,#0
        0x00000994:    b178        x.      CBZ      r0,0x9b6 ; am_hal_gpio_int_status_get + 38
        0x00000996:    f8d23210    ...2    LDR      r3,[r2,#0x210]
        0x0000099a:    f8d20200    ....    LDR      r0,[r2,#0x200]
        0x0000099e:    f8d2c214    ....    LDR      r12,[r2,#0x214]
        0x000009a2:    4308        .C      ORRS     r0,r0,r1
        0x000009a4:    430b        .C      ORRS     r3,r3,r1
        0x000009a6:    f8d22204    ..."    LDR      r2,[r2,#0x204]
        0x000009aa:    430a        .C      ORRS     r2,r2,r1
        0x000009ac:    ea41010c    A...    ORR      r1,r1,r12
        0x000009b0:    4010        .@      ANDS     r0,r0,r2
        0x000009b2:    4019        .@      ANDS     r1,r1,r3
        0x000009b4:    4770        pG      BX       lr
        0x000009b6:    f8d23214    ...2    LDR      r3,[r2,#0x214]
        0x000009ba:    f8d20204    ....    LDR      r0,[r2,#0x204]
        0x000009be:    4308        .C      ORRS     r0,r0,r1
        0x000009c0:    4319        .C      ORRS     r1,r1,r3
        0x000009c2:    4770        pG      BX       lr
    $d
        0x000009c4:    40010000    ...@    DCD    1073807360
    $t
    i.am_hal_i2c_bit_bang_receive
    am_hal_i2c_bit_bang_receive
        0x000009c8:    e92d5fff    -.._    PUSH     {r0-r12,lr}
        0x000009cc:    4f77        wO      LDR      r7,[pc,#476] ; [0xbac] = 0x100001b4
        0x000009ce:    4681        .F      MOV      r9,r0
        0x000009d0:    2401        .$      MOVS     r4,#1
        0x000009d2:    68b9        .h      LDR      r1,[r7,#8]
        0x000009d4:    2504        .%      MOVS     r5,#4
        0x000009d6:    f001001f    ....    AND      r0,r1,#0x1f
        0x000009da:    ea0501d1    ....    AND      r1,r5,r1,LSR #3
        0x000009de:    f1014180    ...A    ADD      r1,r1,#0x40000000
        0x000009e2:    f5013180    ...1    ADD      r1,r1,#0x10000
        0x000009e6:    9e0e        ..      LDR      r6,[sp,#0x38]
        0x000009e8:    fa04f000    ....    LSL      r0,r4,r0
        0x000009ec:    4698        .F      MOV      r8,r3
        0x000009ee:    4692        .F      MOV      r10,r2
        0x000009f0:    f8c10098    ....    STR      r0,[r1,#0x98]
        0x000009f4:    4620         F      MOV      r0,r4
        0x000009f6:    f000ff87    ....    BL       am_util_delay_us ; 0x1908
        0x000009fa:    4648        HF      MOV      r0,r9
        0x000009fc:    f001fbf4    ....    BL       i2c_send_byte ; 0x21e8
        0x00000a00:    2800        .(      CMP      r0,#0
        0x00000a02:    bf1e        ..      ITTT     NE
        0x00000a04:    2001        .       MOVNE    r0,#1
        0x00000a06:    b004        ..      ADDNE    sp,sp,#0x10
        0x00000a08:    e8bd9ff0    ....    POPNE    {r4-r12,pc}
        0x00000a0c:    b146        F.      CBZ      r6,0xa20 ; am_hal_i2c_bit_bang_receive + 88
        0x00000a0e:    4640        @F      MOV      r0,r8
        0x00000a10:    f001fbea    ....    BL       i2c_send_byte ; 0x21e8
        0x00000a14:    2800        .(      CMP      r0,#0
        0x00000a16:    bf1e        ..      ITTT     NE
        0x00000a18:    2002        .       MOVNE    r0,#2
        0x00000a1a:    b004        ..      ADDNE    sp,sp,#0x10
        0x00000a1c:    e8bd9ff0    ....    POPNE    {r4-r12,pc}
        0x00000a20:    f04f0900    O...    MOV      r9,#0
        0x00000a24:    9801        ..      LDR      r0,[sp,#4]
        0x00000a26:    2800        .(      CMP      r0,#0
        0x00000a28:    bf88        ..      IT       HI
        0x00000a2a:    f04f0b80    O...    MOVHI    r11,#0x80
        0x00000a2e:    d978        x.      BLS      0xb22 ; am_hal_i2c_bit_bang_receive + 346
        0x00000a30:    f04f0800    O...    MOV      r8,#0
        0x00000a34:    4646        FF      MOV      r6,r8
        0x00000a36:    6878        xh      LDR      r0,[r7,#4]
        0x00000a38:    f000011f    ....    AND      r1,r0,#0x1f
        0x00000a3c:    ea0500d0    ....    AND      r0,r5,r0,LSR #3
        0x00000a40:    f1004080    ...@    ADD      r0,r0,#0x40000000
        0x00000a44:    f5003080    ...0    ADD      r0,r0,#0x10000
        0x00000a48:    fa04f101    ....    LSL      r1,r4,r1
        0x00000a4c:    f8c01098    ....    STR      r1,[r0,#0x98]
        0x00000a50:    2001        .       MOVS     r0,#1
        0x00000a52:    f000ff59    ..Y.    BL       am_util_delay_us ; 0x1908
        0x00000a56:    68b8        .h      LDR      r0,[r7,#8]
        0x00000a58:    f000011f    ....    AND      r1,r0,#0x1f
        0x00000a5c:    fa04f201    ....    LSL      r2,r4,r1
        0x00000a60:    ea0500d0    ....    AND      r0,r5,r0,LSR #3
        0x00000a64:    f1004180    ...A    ADD      r1,r0,#0x40000000
        0x00000a68:    f5013180    ...1    ADD      r1,r1,#0x10000
        0x00000a6c:    f8c12090    ...     STR      r2,[r1,#0x90]
        0x00000a70:    687b        {h      LDR      r3,[r7,#4]
        0x00000a72:    f003001f    ....    AND      r0,r3,#0x1f
        0x00000a76:    ea0503d3    ....    AND      r3,r5,r3,LSR #3
        0x00000a7a:    f1034380    ...C    ADD      r3,r3,#0x40000000
        0x00000a7e:    f5033380    ...3    ADD      r3,r3,#0x10000
        0x00000a82:    fa04f000    ....    LSL      r0,r4,r0
        0x00000a86:    f8c30090    ....    STR      r0,[r3,#0x90]
        0x00000a8a:    bf00        ..      NOP      
        0x00000a8c:    f8d3c080    ....    LDR      r12,[r3,#0x80]
        0x00000a90:    ea1c0f00    ....    TST      r12,r0
        0x00000a94:    d0fa        ..      BEQ      0xa8c ; am_hal_i2c_bit_bang_receive + 196
        0x00000a96:    f8d10080    ....    LDR      r0,[r1,#0x80]
        0x00000a9a:    4210        .B      TST      r0,r2
        0x00000a9c:    bf1c        ..      ITT      NE
        0x00000a9e:    fa2bf006    +...    LSRNE    r0,r11,r6
        0x00000aa2:    ea400808    @...    ORRNE    r8,r0,r8
        0x00000aa6:    2002        .       MOVS     r0,#2
        0x00000aa8:    f000ff2e    ....    BL       am_util_delay_us ; 0x1908
        0x00000aac:    1c76        v.      ADDS     r6,r6,#1
        0x00000aae:    2e08        ..      CMP      r6,#8
        0x00000ab0:    dbc1        ..      BLT      0xa36 ; am_hal_i2c_bit_bang_receive + 110
        0x00000ab2:    6878        xh      LDR      r0,[r7,#4]
        0x00000ab4:    f000011f    ....    AND      r1,r0,#0x1f
        0x00000ab8:    ea0500d0    ....    AND      r0,r5,r0,LSR #3
        0x00000abc:    f1004080    ...@    ADD      r0,r0,#0x40000000
        0x00000ac0:    f5003080    ...0    ADD      r0,r0,#0x10000
        0x00000ac4:    fa04f101    ....    LSL      r1,r4,r1
        0x00000ac8:    f8c01098    ....    STR      r1,[r0,#0x98]
        0x00000acc:    2001        .       MOVS     r0,#1
        0x00000ace:    f000ff1b    ....    BL       am_util_delay_us ; 0x1908
        0x00000ad2:    6878        xh      LDR      r0,[r7,#4]
        0x00000ad4:    f000011f    ....    AND      r1,r0,#0x1f
        0x00000ad8:    ea0500d0    ....    AND      r0,r5,r0,LSR #3
        0x00000adc:    f1004080    ...@    ADD      r0,r0,#0x40000000
        0x00000ae0:    f5003080    ...0    ADD      r0,r0,#0x10000
        0x00000ae4:    fa04f101    ....    LSL      r1,r4,r1
        0x00000ae8:    f8c01090    ....    STR      r1,[r0,#0x90]
        0x00000aec:    2001        .       MOVS     r0,#1
        0x00000aee:    f000ff0b    ....    BL       am_util_delay_us ; 0x1908
        0x00000af2:    6879        yh      LDR      r1,[r7,#4]
        0x00000af4:    f001001f    ....    AND      r0,r1,#0x1f
        0x00000af8:    ea0501d1    ....    AND      r1,r5,r1,LSR #3
        0x00000afc:    f1014180    ...A    ADD      r1,r1,#0x40000000
        0x00000b00:    f5013180    ...1    ADD      r1,r1,#0x10000
        0x00000b04:    fa04f000    ....    LSL      r0,r4,r0
        0x00000b08:    f8c10090    ....    STR      r0,[r1,#0x90]
        0x00000b0c:    f8d12080    ...     LDR      r2,[r1,#0x80]
        0x00000b10:    4202        .B      TST      r2,r0
        0x00000b12:    d0fb        ..      BEQ      0xb0c ; am_hal_i2c_bit_bang_receive + 324
        0x00000b14:    f80a8b01    ....    STRB     r8,[r10],#1
        0x00000b18:    9801        ..      LDR      r0,[sp,#4]
        0x00000b1a:    f1090901    ....    ADD      r9,r9,#1
        0x00000b1e:    4548        HE      CMP      r0,r9
        0x00000b20:    d886        ..      BHI      0xa30 ; am_hal_i2c_bit_bang_receive + 104
        0x00000b22:    6878        xh      LDR      r0,[r7,#4]
        0x00000b24:    f000011f    ....    AND      r1,r0,#0x1f
        0x00000b28:    ea0500d0    ....    AND      r0,r5,r0,LSR #3
        0x00000b2c:    f1004080    ...@    ADD      r0,r0,#0x40000000
        0x00000b30:    f5003080    ...0    ADD      r0,r0,#0x10000
        0x00000b34:    fa04f101    ....    LSL      r1,r4,r1
        0x00000b38:    f8c01098    ....    STR      r1,[r0,#0x98]
        0x00000b3c:    2001        .       MOVS     r0,#1
        0x00000b3e:    f000fee3    ....    BL       am_util_delay_us ; 0x1908
        0x00000b42:    68b8        .h      LDR      r0,[r7,#8]
        0x00000b44:    f000011f    ....    AND      r1,r0,#0x1f
        0x00000b48:    ea0500d0    ....    AND      r0,r5,r0,LSR #3
        0x00000b4c:    f1004080    ...@    ADD      r0,r0,#0x40000000
        0x00000b50:    f5003080    ...0    ADD      r0,r0,#0x10000
        0x00000b54:    fa04f101    ....    LSL      r1,r4,r1
        0x00000b58:    f8c01098    ....    STR      r1,[r0,#0x98]
        0x00000b5c:    2001        .       MOVS     r0,#1
        0x00000b5e:    f000fed3    ....    BL       am_util_delay_us ; 0x1908
        0x00000b62:    6878        xh      LDR      r0,[r7,#4]
        0x00000b64:    f000011f    ....    AND      r1,r0,#0x1f
        0x00000b68:    ea0500d0    ....    AND      r0,r5,r0,LSR #3
        0x00000b6c:    f1004080    ...@    ADD      r0,r0,#0x40000000
        0x00000b70:    f5003080    ...0    ADD      r0,r0,#0x10000
        0x00000b74:    fa04f101    ....    LSL      r1,r4,r1
        0x00000b78:    f8c01090    ....    STR      r1,[r0,#0x90]
        0x00000b7c:    f8d02080    ...     LDR      r2,[r0,#0x80]
        0x00000b80:    420a        .B      TST      r2,r1
        0x00000b82:    d0fb        ..      BEQ      0xb7c ; am_hal_i2c_bit_bang_receive + 436
        0x00000b84:    2002        .       MOVS     r0,#2
        0x00000b86:    f000febf    ....    BL       am_util_delay_us ; 0x1908
        0x00000b8a:    68b8        .h      LDR      r0,[r7,#8]
        0x00000b8c:    f000011f    ....    AND      r1,r0,#0x1f
        0x00000b90:    ea0500d0    ....    AND      r0,r5,r0,LSR #3
        0x00000b94:    f1004080    ...@    ADD      r0,r0,#0x40000000
        0x00000b98:    f5003080    ...0    ADD      r0,r0,#0x10000
        0x00000b9c:    fa04f101    ....    LSL      r1,r4,r1
        0x00000ba0:    f8c01090    ....    STR      r1,[r0,#0x90]
        0x00000ba4:    b004        ..      ADD      sp,sp,#0x10
        0x00000ba6:    2000        .       MOVS     r0,#0
        0x00000ba8:    e8bd9ff0    ....    POP      {r4-r12,pc}
    $d
        0x00000bac:    100001b4    ....    DCD    268435892
    $t
    i.am_hal_i2c_bit_bang_send
    am_hal_i2c_bit_bang_send
        0x00000bb0:    e92d5fff    -.._    PUSH     {r0-r12,lr}
        0x00000bb4:    4f45        EO      LDR      r7,[pc,#276] ; [0xccc] = 0x100001b4
        0x00000bb6:    460e        .F      MOV      r6,r1
        0x00000bb8:    f04f0904    O...    MOV      r9,#4
        0x00000bbc:    68b8        .h      LDR      r0,[r7,#8]
        0x00000bbe:    f04f0801    O...    MOV      r8,#1
        0x00000bc2:    f000011f    ....    AND      r1,r0,#0x1f
        0x00000bc6:    ea0900d0    ....    AND      r0,r9,r0,LSR #3
        0x00000bca:    f1004080    ...@    ADD      r0,r0,#0x40000000
        0x00000bce:    f5003080    ...0    ADD      r0,r0,#0x10000
        0x00000bd2:    9c0e        ..      LDR      r4,[sp,#0x38]
        0x00000bd4:    fa08f101    ....    LSL      r1,r8,r1
        0x00000bd8:    469b        .F      MOV      r11,r3
        0x00000bda:    4615        .F      MOV      r5,r2
        0x00000bdc:    f04f0a00    O...    MOV      r10,#0
        0x00000be0:    f8c01098    ....    STR      r1,[r0,#0x98]
        0x00000be4:    4640        @F      MOV      r0,r8
        0x00000be6:    f000fe8f    ....    BL       am_util_delay_us ; 0x1908
        0x00000bea:    9800        ..      LDR      r0,[sp,#0]
        0x00000bec:    f001fafc    ....    BL       i2c_send_byte ; 0x21e8
        0x00000bf0:    2800        .(      CMP      r0,#0
        0x00000bf2:    bf1e        ..      ITTT     NE
        0x00000bf4:    2001        .       MOVNE    r0,#1
        0x00000bf6:    b004        ..      ADDNE    sp,sp,#0x10
        0x00000bf8:    e8bd9ff0    ....    POPNE    {r4-r12,pc}
        0x00000bfc:    b124        $.      CBZ      r4,0xc08 ; am_hal_i2c_bit_bang_send + 88
        0x00000bfe:    4658        XF      MOV      r0,r11
        0x00000c00:    f001faf2    ....    BL       i2c_send_byte ; 0x21e8
        0x00000c04:    2800        .(      CMP      r0,#0
        0x00000c06:    d15c        \.      BNE      0xcc2 ; am_hal_i2c_bit_bang_send + 274
        0x00000c08:    2400        .$      MOVS     r4,#0
        0x00000c0a:    2e00        ..      CMP      r6,#0
        0x00000c0c:    bf88        ..      IT       HI
        0x00000c0e:    f1a60b01    ....    SUBHI    r11,r6,#1
        0x00000c12:    d90d        ..      BLS      0xc30 ; am_hal_i2c_bit_bang_send + 128
        0x00000c14:    f8150b01    ....    LDRB     r0,[r5],#1
        0x00000c18:    f001fae6    ....    BL       i2c_send_byte ; 0x21e8
        0x00000c1c:    2800        .(      CMP      r0,#0
        0x00000c1e:    bf18        ..      IT       NE
        0x00000c20:    455c        \E      CMPNE    r4,r11
        0x00000c22:    d002        ..      BEQ      0xc2a ; am_hal_i2c_bit_bang_send + 122
        0x00000c24:    f04f0a01    O...    MOV      r10,#1
        0x00000c28:    e002        ..      B        0xc30 ; am_hal_i2c_bit_bang_send + 128
        0x00000c2a:    1c64        d.      ADDS     r4,r4,#1
        0x00000c2c:    42b4        .B      CMP      r4,r6
        0x00000c2e:    d3f1        ..      BCC      0xc14 ; am_hal_i2c_bit_bang_send + 100
        0x00000c30:    6878        xh      LDR      r0,[r7,#4]
        0x00000c32:    f000011f    ....    AND      r1,r0,#0x1f
        0x00000c36:    ea0900d0    ....    AND      r0,r9,r0,LSR #3
        0x00000c3a:    f1004080    ...@    ADD      r0,r0,#0x40000000
        0x00000c3e:    f5003080    ...0    ADD      r0,r0,#0x10000
        0x00000c42:    fa08f101    ....    LSL      r1,r8,r1
        0x00000c46:    f8c01098    ....    STR      r1,[r0,#0x98]
        0x00000c4a:    2001        .       MOVS     r0,#1
        0x00000c4c:    f000fe5c    ..\.    BL       am_util_delay_us ; 0x1908
        0x00000c50:    68b8        .h      LDR      r0,[r7,#8]
        0x00000c52:    f000011f    ....    AND      r1,r0,#0x1f
        0x00000c56:    ea0900d0    ....    AND      r0,r9,r0,LSR #3
        0x00000c5a:    f1004080    ...@    ADD      r0,r0,#0x40000000
        0x00000c5e:    f5003080    ...0    ADD      r0,r0,#0x10000
        0x00000c62:    fa08f101    ....    LSL      r1,r8,r1
        0x00000c66:    f8c01098    ....    STR      r1,[r0,#0x98]
        0x00000c6a:    2001        .       MOVS     r0,#1
        0x00000c6c:    f000fe4c    ..L.    BL       am_util_delay_us ; 0x1908
        0x00000c70:    6878        xh      LDR      r0,[r7,#4]
        0x00000c72:    f000011f    ....    AND      r1,r0,#0x1f
        0x00000c76:    ea0900d0    ....    AND      r0,r9,r0,LSR #3
        0x00000c7a:    f1004080    ...@    ADD      r0,r0,#0x40000000
        0x00000c7e:    f5003080    ...0    ADD      r0,r0,#0x10000
        0x00000c82:    fa08f101    ....    LSL      r1,r8,r1
        0x00000c86:    f8c01090    ....    STR      r1,[r0,#0x90]
        0x00000c8a:    bf00        ..      NOP      
        0x00000c8c:    f8d02080    ...     LDR      r2,[r0,#0x80]
        0x00000c90:    420a        .B      TST      r2,r1
        0x00000c92:    d0fb        ..      BEQ      0xc8c ; am_hal_i2c_bit_bang_send + 220
        0x00000c94:    2002        .       MOVS     r0,#2
        0x00000c96:    f000fe37    ..7.    BL       am_util_delay_us ; 0x1908
        0x00000c9a:    68b8        .h      LDR      r0,[r7,#8]
        0x00000c9c:    f000011f    ....    AND      r1,r0,#0x1f
        0x00000ca0:    ea0900d0    ....    AND      r0,r9,r0,LSR #3
        0x00000ca4:    f1004080    ...@    ADD      r0,r0,#0x40000000
        0x00000ca8:    f5003080    ...0    ADD      r0,r0,#0x10000
        0x00000cac:    fa08f101    ....    LSL      r1,r8,r1
        0x00000cb0:    f8c01090    ....    STR      r1,[r0,#0x90]
        0x00000cb4:    f1ba0f00    ....    CMP      r10,#0
        0x00000cb8:    bf02        ..      ITTT     EQ
        0x00000cba:    2000        .       MOVEQ    r0,#0
        0x00000cbc:    b004        ..      ADDEQ    sp,sp,#0x10
        0x00000cbe:    e8bd9ff0    ....    POPEQ    {r4-r12,pc}
        0x00000cc2:    2002        .       MOVS     r0,#2
        0x00000cc4:    b004        ..      ADD      sp,sp,#0x10
        0x00000cc6:    e8bd9ff0    ....    POP      {r4-r12,pc}
    $d
        0x00000cca:    0000        ..      DCW    0
        0x00000ccc:    100001b4    ....    DCD    268435892
    $t
    i.am_hal_interrupt_enable
    am_hal_interrupt_enable
        0x00000cd0:    280f        .(      CMP      r0,#0xf
        0x00000cd2:    d90a        ..      BLS      0xcea ; am_hal_interrupt_enable + 26
        0x00000cd4:    3810        .8      SUBS     r0,r0,#0x10
        0x00000cd6:    f000001f    ....    AND      r0,r0,#0x1f
        0x00000cda:    2101        .!      MOVS     r1,#1
        0x00000cdc:    fa01f000    ....    LSL      r0,r1,r0
        0x00000ce0:    f04f21e0    O..!    MOV      r1,#0xe000e000
        0x00000ce4:    f8c10100    ....    STR      r0,[r1,#0x100]
        0x00000ce8:    4770        pG      BX       lr
        0x00000cea:    490b        .I      LDR      r1,[pc,#44] ; [0xd18] = 0xe000ed24
        0x00000cec:    2804        .(      CMP      r0,#4
        0x00000cee:    d00d        ..      BEQ      0xd0c ; am_hal_interrupt_enable + 60
        0x00000cf0:    2805        .(      CMP      r0,#5
        0x00000cf2:    bf04        ..      ITT      EQ
        0x00000cf4:    6808        .h      LDREQ    r0,[r1,#0]
        0x00000cf6:    f4403000    @..0    ORREQ    r0,r0,#0x20000
        0x00000cfa:    d005        ..      BEQ      0xd08 ; am_hal_interrupt_enable + 56
        0x00000cfc:    2806        .(      CMP      r0,#6
        0x00000cfe:    bf06        ..      ITTE     EQ
        0x00000d00:    6808        .h      LDREQ    r0,[r1,#0]
        0x00000d02:    f4402080    @..     ORREQ    r0,r0,#0x40000
        0x00000d06:    4770        pG      BXNE     lr
        0x00000d08:    6008        .`      STR      r0,[r1,#0]
        0x00000d0a:    4770        pG      BX       lr
        0x00000d0c:    6808        .h      LDR      r0,[r1,#0]
        0x00000d0e:    f4403080    @..0    ORR      r0,r0,#0x10000
        0x00000d12:    6008        .`      STR      r0,[r1,#0]
        0x00000d14:    4770        pG      BX       lr
    $d
        0x00000d16:    0000        ..      DCW    0
        0x00000d18:    e000ed24    $...    DCD    3758157092
    $t
    i.am_hal_iom_config
    am_hal_iom_config
        0x00000d1c:    680a        .h      LDR      r2,[r1,#0]
        0x00000d1e:    4b14        .K      LDR      r3,[pc,#80] ; [0xd70] = 0x10000078
        0x00000d20:    2800        .(      CMP      r0,#0
        0x00000d22:    4694        .F      MOV      r12,r2
        0x00000d24:    bf0c        ..      ITE      EQ
        0x00000d26:    f8c3c000    ....    STREQ    r12,[r3,#0]
        0x00000d2a:    f8c3c004    ....    STRNE    r12,[r3,#4]
        0x00000d2e:    7a0b        .z      LDRB     r3,[r1,#8]
        0x00000d30:    2b00        .+      CMP      r3,#0
        0x00000d32:    bf18        ..      IT       NE
        0x00000d34:    f0420204    B...    ORRNE    r2,r2,#4
        0x00000d38:    7a4b        Kz      LDRB     r3,[r1,#9]
        0x00000d3a:    2b00        .+      CMP      r3,#0
        0x00000d3c:    bf18        ..      IT       NE
        0x00000d3e:    f0420202    B...    ORRNE    r2,r2,#2
        0x00000d42:    0300        ..      LSLS     r0,r0,#12
        0x00000d44:    f10040a0    ...@    ADD      r0,r0,#0x50000000
        0x00000d48:    f5004080    ...@    ADD      r0,r0,#0x4000
        0x00000d4c:    f8c0211c    ...!    STR      r2,[r0,#0x11c]
        0x00000d50:    7a8a        .z      LDRB     r2,[r1,#0xa]
        0x00000d52:    f44f537c    O.|S    MOV      r3,#0x3f00
        0x00000d56:    ea032202    ..."    AND      r2,r3,r2,LSL #8
        0x00000d5a:    7acb        .z      LDRB     r3,[r1,#0xb]
        0x00000d5c:    f003033f    ..?.    AND      r3,r3,#0x3f
        0x00000d60:    431a        .C      ORRS     r2,r2,r3
        0x00000d62:    f8c02108    ...!    STR      r2,[r0,#0x108]
        0x00000d66:    6849        Ih      LDR      r1,[r1,#4]
        0x00000d68:    f8c0110c    ....    STR      r1,[r0,#0x10c]
        0x00000d6c:    4770        pG      BX       lr
    $d
        0x00000d6e:    0000        ..      DCW    0
        0x00000d70:    10000078    x...    DCD    268435576
    $t
    i.am_hal_iom_disable
    am_hal_iom_disable
        0x00000d74:    0301        ..      LSLS     r1,r0,#12
        0x00000d76:    f10141a0    ...A    ADD      r1,r1,#0x50000000
        0x00000d7a:    f5014180    ...A    ADD      r1,r1,#0x4000
        0x00000d7e:    bf00        ..      NOP      
        0x00000d80:    f8d12118    ...!    LDR      r2,[r1,#0x118]
        0x00000d84:    f0120f04    ....    TST      r2,#4
        0x00000d88:    d0fa        ..      BEQ      0xd80 ; am_hal_iom_disable + 12
        0x00000d8a:    0301        ..      LSLS     r1,r0,#12
        0x00000d8c:    f10141a0    ...A    ADD      r1,r1,#0x50000000
        0x00000d90:    f5014180    ...A    ADD      r1,r1,#0x4000
        0x00000d94:    f8d1211c    ...!    LDR      r2,[r1,#0x11c]
        0x00000d98:    f0224200    "..B    BIC      r2,r2,#0x80000000
        0x00000d9c:    f8c1211c    ...!    STR      r2,[r1,#0x11c]
        0x00000da0:    2200        ."      MOVS     r2,#0
        0x00000da2:    f8dfc050    ..P.    LDR      r12,[pc,#80] ; [0xdf4] = 0x10000078
        0x00000da6:    4914        .I      LDR      r1,[pc,#80] ; [0xdf8] = 0x40010000
        0x00000da8:    2373        s#      MOVS     r3,#0x73
        0x00000daa:    b188        ..      CBZ      r0,0xdd0 ; am_hal_iom_disable + 92
        0x00000dac:    f8dc0004    ....    LDR      r0,[r12,#4]
        0x00000db0:    2801        .(      CMP      r0,#1
        0x00000db2:    bf18        ..      IT       NE
        0x00000db4:    4770        pG      BXNE     lr
        0x00000db6:    660b        .f      STR      r3,[r1,#0x60]
        0x00000db8:    6c48        Hl      LDR      r0,[r1,#0x44]
        0x00000dba:    f0200070     .p.    BIC      r0,r0,#0x70
        0x00000dbe:    6448        Hd      STR      r0,[r1,#0x44]
        0x00000dc0:    6888        .h      LDR      r0,[r1,#8]
        0x00000dc2:    f420407f     ..@    BIC      r0,r0,#0xff00
        0x00000dc6:    f4406000    @..`    ORR      r0,r0,#0x800
        0x00000dca:    6088        .`      STR      r0,[r1,#8]
        0x00000dcc:    660a        .f      STR      r2,[r1,#0x60]
        0x00000dce:    4770        pG      BX       lr
        0x00000dd0:    f8dc0000    ....    LDR      r0,[r12,#0]
        0x00000dd4:    2801        .(      CMP      r0,#1
        0x00000dd6:    bf18        ..      IT       NE
        0x00000dd8:    4770        pG      BXNE     lr
        0x00000dda:    660b        .f      STR      r3,[r1,#0x60]
        0x00000ddc:    6c08        .l      LDR      r0,[r1,#0x40]
        0x00000dde:    f02060e0     ..`    BIC      r0,r0,#0x7000000
        0x00000de2:    6408        .d      STR      r0,[r1,#0x40]
        0x00000de4:    6848        Hh      LDR      r0,[r1,#4]
        0x00000de6:    f420007f     ...    BIC      r0,r0,#0xff0000
        0x00000dea:    f4402000    @..     ORR      r0,r0,#0x80000
        0x00000dee:    6048        H`      STR      r0,[r1,#4]
        0x00000df0:    e7ec        ..      B        0xdcc ; am_hal_iom_disable + 88
    $d
        0x00000df2:    0000        ..      DCW    0
        0x00000df4:    10000078    x...    DCD    268435576
        0x00000df8:    40010000    ...@    DCD    1073807360
    $t
    i.am_hal_iom_enable
    am_hal_iom_enable
        0x00000dfc:    0301        ..      LSLS     r1,r0,#12
        0x00000dfe:    f10141a0    ...A    ADD      r1,r1,#0x50000000
        0x00000e02:    f5014180    ...A    ADD      r1,r1,#0x4000
        0x00000e06:    f8d1211c    ...!    LDR      r2,[r1,#0x11c]
        0x00000e0a:    f0424200    B..B    ORR      r2,r2,#0x80000000
        0x00000e0e:    f8c1211c    ...!    STR      r2,[r1,#0x11c]
        0x00000e12:    2200        ."      MOVS     r2,#0
        0x00000e14:    4913        .I      LDR      r1,[pc,#76] ; [0xe64] = 0x40010000
        0x00000e16:    f8dfc050    ..P.    LDR      r12,[pc,#80] ; [0xe68] = 0x10000078
        0x00000e1a:    2373        s#      MOVS     r3,#0x73
        0x00000e1c:    b188        ..      CBZ      r0,0xe42 ; am_hal_iom_enable + 70
        0x00000e1e:    f8dc0004    ....    LDR      r0,[r12,#4]
        0x00000e22:    2801        .(      CMP      r0,#1
        0x00000e24:    bf18        ..      IT       NE
        0x00000e26:    4770        pG      BXNE     lr
        0x00000e28:    660b        .f      STR      r3,[r1,#0x60]
        0x00000e2a:    6c48        Hl      LDR      r0,[r1,#0x44]
        0x00000e2c:    f0200070     .p.    BIC      r0,r0,#0x70
        0x00000e30:    6448        Hd      STR      r0,[r1,#0x44]
        0x00000e32:    6888        .h      LDR      r0,[r1,#8]
        0x00000e34:    f420407f     ..@    BIC      r0,r0,#0xff00
        0x00000e38:    f4406020    @. `    ORR      r0,r0,#0xa00
        0x00000e3c:    6088        .`      STR      r0,[r1,#8]
        0x00000e3e:    660a        .f      STR      r2,[r1,#0x60]
        0x00000e40:    4770        pG      BX       lr
        0x00000e42:    f8dc0000    ....    LDR      r0,[r12,#0]
        0x00000e46:    2801        .(      CMP      r0,#1
        0x00000e48:    bf18        ..      IT       NE
        0x00000e4a:    4770        pG      BXNE     lr
        0x00000e4c:    660b        .f      STR      r3,[r1,#0x60]
        0x00000e4e:    6c08        .l      LDR      r0,[r1,#0x40]
        0x00000e50:    f02060e0     ..`    BIC      r0,r0,#0x7000000
        0x00000e54:    6408        .d      STR      r0,[r1,#0x40]
        0x00000e56:    6848        Hh      LDR      r0,[r1,#4]
        0x00000e58:    f420007f     ...    BIC      r0,r0,#0xff0000
        0x00000e5c:    f4402020    @.      ORR      r0,r0,#0xa0000
        0x00000e60:    6048        H`      STR      r0,[r1,#4]
        0x00000e62:    e7ec        ..      B        0xe3e ; am_hal_iom_enable + 66
    $d
        0x00000e64:    40010000    ...@    DCD    1073807360
        0x00000e68:    10000078    x...    DCD    268435576
    $t
    i.am_hal_iom_fifo_read
    am_hal_iom_fifo_read
        0x00000e6c:    b570        p.      PUSH     {r4-r6,lr}
        0x00000e6e:    0300        ..      LSLS     r0,r0,#12
        0x00000e70:    f10045a0    ...E    ADD      r5,r0,#0x50000000
        0x00000e74:    f5054580    ...E    ADD      r5,r5,#0x4000
        0x00000e78:    4614        .F      MOV      r4,r2
        0x00000e7a:    f8d50100    ....    LDR      r0,[r5,#0x100]
        0x00000e7e:    460e        .F      MOV      r6,r1
        0x00000e80:    f000007f    ....    AND      r0,r0,#0x7f
        0x00000e84:    42a0        .B      CMP      r0,r4
        0x00000e86:    d205        ..      BCS      0xe94 ; am_hal_iom_fifo_read + 40
        0x00000e88:    a21a        ..      ADR      r2,{pc}+0x6c ; 0xef4
        0x00000e8a:    f44f6199    O..a    MOV      r1,#0x4c8
        0x00000e8e:    a027        '.      ADR      r0,{pc}+0x9e ; 0xf2c
        0x00000e90:    f7fffd66    ..f.    BL       am_hal_debug_error ; 0x960
        0x00000e94:    2300        .#      MOVS     r3,#0
        0x00000e96:    1ce2        ..      ADDS     r2,r4,#3
        0x00000e98:    2a03        .*      CMP      r2,#3
        0x00000e9a:    d921        !.      BLS      0xee0 ; am_hal_iom_fifo_read + 116
        0x00000e9c:    f1b44f00    ...O    CMP      r4,#0x80000000
        0x00000ea0:    d21e        ..      BCS      0xee0 ; am_hal_iom_fifo_read + 116
        0x00000ea2:    17d1        ..      ASRS     r1,r2,#31
        0x00000ea4:    eb027191    ...q    ADD      r1,r2,r1,LSR #30
        0x00000ea8:    2a03        .*      CMP      r2,#3
        0x00000eaa:    bfd8        ..      IT       LE
        0x00000eac:    2000        .       MOVLE    r0,#0
        0x00000eae:    dd05        ..      BLE      0xebc ; am_hal_iom_fifo_read + 80
        0x00000eb0:    f3c10080    ....    UBFX     r0,r1,#2,#1
        0x00000eb4:    b110        ..      CBZ      r0,0xebc ; am_hal_iom_fifo_read + 80
        0x00000eb6:    682a        *h      LDR      r2,[r5,#0]
        0x00000eb8:    2301        .#      MOVS     r3,#1
        0x00000eba:    6032        2`      STR      r2,[r6,#0]
        0x00000ebc:    2201        ."      MOVS     r2,#1
        0x00000ebe:    eb0202a1    ....    ADD      r2,r2,r1,ASR #2
        0x00000ec2:    1c40        @.      ADDS     r0,r0,#1
        0x00000ec4:    e008        ..      B        0xed8 ; am_hal_iom_fifo_read + 108
        0x00000ec6:    6829        )h      LDR      r1,[r5,#0]
        0x00000ec8:    f8461023    F.#.    STR      r1,[r6,r3,LSL #2]
        0x00000ecc:    1c59        Y.      ADDS     r1,r3,#1
        0x00000ece:    682b        +h      LDR      r3,[r5,#0]
        0x00000ed0:    f8463021    F.!0    STR      r3,[r6,r1,LSL #2]
        0x00000ed4:    1c4b        K.      ADDS     r3,r1,#1
        0x00000ed6:    1c80        ..      ADDS     r0,r0,#2
        0x00000ed8:    4282        .B      CMP      r2,r0
        0x00000eda:    dcf4        ..      BGT      0xec6 ; am_hal_iom_fifo_read + 90
        0x00000edc:    4620         F      MOV      r0,r4
        0x00000ede:    bd70        p.      POP      {r4-r6,pc}
        0x00000ee0:    2c00        .,      CMP      r4,#0
        0x00000ee2:    d9fb        ..      BLS      0xedc ; am_hal_iom_fifo_read + 112
        0x00000ee4:    6828        (h      LDR      r0,[r5,#0]
        0x00000ee6:    f8460023    F.#.    STR      r0,[r6,r3,LSL #2]
        0x00000eea:    1c5b        [.      ADDS     r3,r3,#1
        0x00000eec:    ebb40f83    ....    CMP      r4,r3,LSL #2
        0x00000ef0:    d8f8        ..      BHI      0xee4 ; am_hal_iom_fifo_read + 120
        0x00000ef2:    e7f3        ..      B        0xedc ; am_hal_iom_fifo_read + 112
    $d
        0x00000ef4:    20656854    The     DCD    543516756
        0x00000ef8:    6f666966    fifo    DCD    1868982630
        0x00000efc:    656f6420     doe    DCD    1701798944
        0x00000f00:    74276e73    sn't    DCD    1948741235
        0x00000f04:    6e6f6320     con    DCD    1852793632
        0x00000f08:    6e696174    tain    DCD    1852399988
        0x00000f0c:    65687420     the    DCD    1701344288
        0x00000f10:    71657220     req    DCD    1902473760
        0x00000f14:    74736575    uest    DCD    1953719669
        0x00000f18:    6e206465    ed n    DCD    1847616613
        0x00000f1c:    65626d75    umbe    DCD    1700949365
        0x00000f20:    666f2072    r of    DCD    1718558834
        0x00000f24:    74796220     byt    DCD    1954112032
        0x00000f28:    002e7365    es..    DCD    3044197
        0x00000f2c:    612f2e2e    ../a    DCD    1630481966
        0x00000f30:    61685f6d    m_ha    DCD    1634230125
        0x00000f34:    6f695f6c    l_io    DCD    1869176684
        0x00000f38:    00632e6d    m.c.    DCD    6499949
    $t
    i.am_hal_iom_fifo_write
    am_hal_iom_fifo_write
        0x00000f3c:    b570        p.      PUSH     {r4-r6,lr}
        0x00000f3e:    0300        ..      LSLS     r0,r0,#12
        0x00000f40:    f10045a0    ...E    ADD      r5,r0,#0x50000000
        0x00000f44:    f5054580    ...E    ADD      r5,r5,#0x4000
        0x00000f48:    4614        .F      MOV      r4,r2
        0x00000f4a:    f8d50100    ....    LDR      r0,[r5,#0x100]
        0x00000f4e:    460e        .F      MOV      r6,r1
        0x00000f50:    f3c04006    ...@    UBFX     r0,r0,#16,#7
        0x00000f54:    42a0        .B      CMP      r0,r4
        0x00000f56:    d205        ..      BCS      0xf64 ; am_hal_iom_fifo_write + 40
        0x00000f58:    a21b        ..      ADR      r2,{pc}+0x70 ; 0xfc8
        0x00000f5a:    f240419a    @..A    MOV      r1,#0x49a
        0x00000f5e:    a027        '.      ADR      r0,{pc}+0x9e ; 0xffc
        0x00000f60:    f7fffcfe    ....    BL       am_hal_debug_error ; 0x960
        0x00000f64:    2300        .#      MOVS     r3,#0
        0x00000f66:    1ce0        ..      ADDS     r0,r4,#3
        0x00000f68:    2803        .(      CMP      r0,#3
        0x00000f6a:    d922        ".      BLS      0xfb2 ; am_hal_iom_fifo_write + 118
        0x00000f6c:    f1b44f00    ...O    CMP      r4,#0x80000000
        0x00000f70:    d21f        ..      BCS      0xfb2 ; am_hal_iom_fifo_write + 118
        0x00000f72:    17c2        ..      ASRS     r2,r0,#31
        0x00000f74:    eb007292    ...r    ADD      r2,r0,r2,LSR #30
        0x00000f78:    2803        .(      CMP      r0,#3
        0x00000f7a:    bfd8        ..      IT       LE
        0x00000f7c:    2000        .       MOVLE    r0,#0
        0x00000f7e:    dd05        ..      BLE      0xf8c ; am_hal_iom_fifo_write + 80
        0x00000f80:    f3c20080    ....    UBFX     r0,r2,#2,#1
        0x00000f84:    b110        ..      CBZ      r0,0xf8c ; am_hal_iom_fifo_write + 80
        0x00000f86:    6831        1h      LDR      r1,[r6,#0]
        0x00000f88:    6029        )`      STR      r1,[r5,#0]
        0x00000f8a:    2301        .#      MOVS     r3,#1
        0x00000f8c:    2101        .!      MOVS     r1,#1
        0x00000f8e:    eb0102a2    ....    ADD      r2,r1,r2,ASR #2
        0x00000f92:    1c40        @.      ADDS     r0,r0,#1
        0x00000f94:    e009        ..      B        0xfaa ; am_hal_iom_fifo_write + 110
        0x00000f96:    bf00        ..      NOP      
        0x00000f98:    f8561023    V.#.    LDR      r1,[r6,r3,LSL #2]
        0x00000f9c:    6029        )`      STR      r1,[r5,#0]
        0x00000f9e:    1c59        Y.      ADDS     r1,r3,#1
        0x00000fa0:    f8563021    V.!0    LDR      r3,[r6,r1,LSL #2]
        0x00000fa4:    602b        +`      STR      r3,[r5,#0]
        0x00000fa6:    1c4b        K.      ADDS     r3,r1,#1
        0x00000fa8:    1c80        ..      ADDS     r0,r0,#2
        0x00000faa:    4282        .B      CMP      r2,r0
        0x00000fac:    dcf4        ..      BGT      0xf98 ; am_hal_iom_fifo_write + 92
        0x00000fae:    4620         F      MOV      r0,r4
        0x00000fb0:    bd70        p.      POP      {r4-r6,pc}
        0x00000fb2:    2c00        .,      CMP      r4,#0
        0x00000fb4:    d9fb        ..      BLS      0xfae ; am_hal_iom_fifo_write + 114
        0x00000fb6:    bf00        ..      NOP      
        0x00000fb8:    f8560023    V.#.    LDR      r0,[r6,r3,LSL #2]
        0x00000fbc:    6028        (`      STR      r0,[r5,#0]
        0x00000fbe:    1c5b        [.      ADDS     r3,r3,#1
        0x00000fc0:    ebb40f83    ....    CMP      r4,r3,LSL #2
        0x00000fc4:    d8f8        ..      BHI      0xfb8 ; am_hal_iom_fifo_write + 124
        0x00000fc6:    e7f2        ..      B        0xfae ; am_hal_iom_fifo_write + 114
    $d
        0x00000fc8:    20656854    The     DCD    543516756
        0x00000fcc:    6f666966    fifo    DCD    1868982630
        0x00000fd0:    756f6320     cou    DCD    1970234144
        0x00000fd4:    276e646c    ldn'    DCD    661546092
        0x00000fd8:    69662074    t fi    DCD    1768300660
        0x00000fdc:    68742074    t th    DCD    1752440948
        0x00000fe0:    65722065    e re    DCD    1701978213
        0x00000fe4:    73657571    ques    DCD    1936029041
        0x00000fe8:    20646574    ted     DCD    543450484
        0x00000fec:    626d756e    numb    DCD    1651340654
        0x00000ff0:    6f207265    er o    DCD    1864397413
        0x00000ff4:    79622066    f by    DCD    2036473958
        0x00000ff8:    00736574    tes.    DCD    7562612
        0x00000ffc:    612f2e2e    ../a    DCD    1630481966
        0x00001000:    61685f6d    m_ha    DCD    1634230125
        0x00001004:    6f695f6c    l_io    DCD    1869176684
        0x00001008:    00632e6d    m.c.    DCD    6499949
    $t
    i.am_hal_iom_i2c_read
    am_hal_iom_i2c_read
        0x0000100c:    e92d43f8    -..C    PUSH     {r3-r9,lr}
        0x00001010:    461c        .F      MOV      r4,r3
        0x00001012:    9d08        ..      LDR      r5,[sp,#0x20]
        0x00001014:    4616        .F      MOV      r6,r2
        0x00001016:    4688        .F      MOV      r8,r1
        0x00001018:    4607        .F      MOV      r7,r0
        0x0000101a:    2802        .(      CMP      r0,#2
        0x0000101c:    d038        8.      BEQ      0x1090 ; am_hal_iom_i2c_read + 132
        0x0000101e:    f5b47f80    ....    CMP      r4,#0x100
        0x00001022:    d305        ..      BCC      0x1030 ; am_hal_iom_i2c_read + 36
        0x00001024:    a232        2.      ADR      r2,{pc}+0xcc ; 0x10f0
        0x00001026:    f44f7146    O.Fq    MOV      r1,#0x318
        0x0000102a:    a037        7.      ADR      r0,{pc}+0xde ; 0x1108
        0x0000102c:    f7fffc98    ....    BL       am_hal_debug_error ; 0x960
        0x00001030:    0338        8.      LSLS     r0,r7,#12
        0x00001032:    f10041a0    ...A    ADD      r1,r0,#0x50000000
        0x00001036:    f5014180    ...A    ADD      r1,r1,#0x4000
        0x0000103a:    bf00        ..      NOP      
        0x0000103c:    f8d10118    ....    LDR      r0,[r1,#0x118]
        0x00001040:    f0100f04    ....    TST      r0,#4
        0x00001044:    d0fa        ..      BEQ      0x103c ; am_hal_iom_i2c_read + 48
        0x00001046:    b2e0        ..      UXTB     r0,r4
        0x00001048:    f06f417c    o.|A    MVN      r1,#0xfc000000
        0x0000104c:    f0404000    @..@    ORR      r0,r0,#0x80000000
        0x00001050:    ea014108    ...A    AND      r1,r1,r8,LSL #16
        0x00001054:    4308        .C      ORRS     r0,r0,r1
        0x00001056:    4930        0I      LDR      r1,[pc,#192] ; [0x1118] = 0x5c00ff00
        0x00001058:    4029        )@      ANDS     r1,r1,r5
        0x0000105a:    4308        .C      ORRS     r0,r0,r1
        0x0000105c:    0339        9.      LSLS     r1,r7,#12
        0x0000105e:    f10145a0    ...E    ADD      r5,r1,#0x50000000
        0x00001062:    f5054580    ...E    ADD      r5,r5,#0x4000
        0x00001066:    f8c50110    ....    STR      r0,[r5,#0x110]
        0x0000106a:    f8d50118    ....    LDR      r0,[r5,#0x118]
        0x0000106e:    f0100f04    ....    TST      r0,#4
        0x00001072:    bf18        ..      IT       NE
        0x00001074:    e8bd83f8    ....    POPNE    {r3-r9,pc}
        0x00001078:    f8d51100    ....    LDR      r1,[r5,#0x100]
        0x0000107c:    f001017f    ....    AND      r1,r1,#0x7f
        0x00001080:    42a1        .B      CMP      r1,r4
        0x00001082:    d120         .      BNE      0x10c6 ; am_hal_iom_i2c_read + 186
        0x00001084:    4622        "F      MOV      r2,r4
        0x00001086:    4631        1F      MOV      r1,r6
        0x00001088:    4638        8F      MOV      r0,r7
        0x0000108a:    f7fffeef    ....    BL       am_hal_iom_fifo_read ; 0xe6c
        0x0000108e:    e027        '.      B        0x10e0 ; am_hal_iom_i2c_read + 212
        0x00001090:    f04f0101    O...    MOV      r1,#1
        0x00001094:    f0154f80    ...O    TST      r5,#0x40000000
        0x00001098:    ea410048    A.H.    ORR      r0,r1,r8,LSL #1
        0x0000109c:    d009        ..      BEQ      0x10b2 ; am_hal_iom_i2c_read + 166
        0x0000109e:    2100        .!      MOVS     r1,#0
        0x000010a0:    460b        .F      MOV      r3,r1
        0x000010a2:    9100        ..      STR      r1,[sp,#0]
        0x000010a4:    b2c0        ..      UXTB     r0,r0
        0x000010a6:    4632        2F      MOV      r2,r6
        0x000010a8:    4621        !F      MOV      r1,r4
        0x000010aa:    f7fffc8d    ....    BL       am_hal_i2c_bit_bang_receive ; 0x9c8
        0x000010ae:    e8bd83f8    ....    POP      {r3-r9,pc}
        0x000010b2:    9100        ..      STR      r1,[sp,#0]
        0x000010b4:    b2c0        ..      UXTB     r0,r0
        0x000010b6:    f3c52307    ...#    UBFX     r3,r5,#8,#8
        0x000010ba:    4632        2F      MOV      r2,r6
        0x000010bc:    4621        !F      MOV      r1,r4
        0x000010be:    f7fffc83    ....    BL       am_hal_i2c_bit_bang_receive ; 0x9c8
        0x000010c2:    e8bd83f8    ....    POP      {r3-r9,pc}
        0x000010c6:    f8d50100    ....    LDR      r0,[r5,#0x100]
        0x000010ca:    f000007f    ....    AND      r0,r0,#0x7f
        0x000010ce:    2804        .(      CMP      r0,#4
        0x000010d0:    d306        ..      BCC      0x10e0 ; am_hal_iom_i2c_read + 212
        0x000010d2:    2204        ."      MOVS     r2,#4
        0x000010d4:    4631        1F      MOV      r1,r6
        0x000010d6:    4638        8F      MOV      r0,r7
        0x000010d8:    f7fffec8    ....    BL       am_hal_iom_fifo_read ; 0xe6c
        0x000010dc:    1f24        $.      SUBS     r4,r4,#4
        0x000010de:    1d36        6.      ADDS     r6,r6,#4
        0x000010e0:    f8d50118    ....    LDR      r0,[r5,#0x118]
        0x000010e4:    f0100f04    ....    TST      r0,#4
        0x000010e8:    d0c6        ..      BEQ      0x1078 ; am_hal_iom_i2c_read + 108
        0x000010ea:    e8bd83f8    ....    POP      {r3-r9,pc}
    $d
        0x000010ee:    0000        ..      DCW    0
        0x000010f0:    20433249    I2C     DCD    541274697
        0x000010f4:    6e617274    tran    DCD    1851880052
        0x000010f8:    72656673    sfer    DCD    1919247987
        0x000010fc:    6f6f7420     too    DCD    1869575200
        0x00001100:    67696220     big    DCD    1734959648
        0x00001104:    0000002e    ....    DCD    46
        0x00001108:    612f2e2e    ../a    DCD    1630481966
        0x0000110c:    61685f6d    m_ha    DCD    1634230125
        0x00001110:    6f695f6c    l_io    DCD    1869176684
        0x00001114:    00632e6d    m.c.    DCD    6499949
        0x00001118:    5c00ff00    ...\    DCD    1543569152
    $t
    i.am_hal_iom_i2c_read_nb
    am_hal_iom_i2c_read_nb
        0x0000111c:    e92d43f8    -..C    PUSH     {r3-r9,lr}
        0x00001120:    461d        .F      MOV      r5,r3
        0x00001122:    e9dd6708    ...g    LDRD     r6,r7,[sp,#0x20]
        0x00001126:    4691        .F      MOV      r9,r2
        0x00001128:    4688        .F      MOV      r8,r1
        0x0000112a:    4604        .F      MOV      r4,r0
        0x0000112c:    2802        .(      CMP      r0,#2
        0x0000112e:    d02e        ..      BEQ      0x118e ; am_hal_iom_i2c_read_nb + 114
        0x00001130:    f5b57f80    ....    CMP      r5,#0x100
        0x00001134:    d305        ..      BCC      0x1142 ; am_hal_iom_i2c_read_nb + 38
        0x00001136:    a224        $.      ADR      r2,{pc}+0x92 ; 0x11c8
        0x00001138:    f24031f5    @..1    MOV      r1,#0x3f5
        0x0000113c:    a028        (.      ADR      r0,{pc}+0xa4 ; 0x11e0
        0x0000113e:    f7fffc0f    ....    BL       am_hal_debug_error ; 0x960
        0x00001142:    0320         .      LSLS     r0,r4,#12
        0x00001144:    f10040a0    ...@    ADD      r0,r0,#0x50000000
        0x00001148:    f5004080    ...@    ADD      r0,r0,#0x4000
        0x0000114c:    f8d01118    ....    LDR      r1,[r0,#0x118]
        0x00001150:    f0110f04    ....    TST      r1,#4
        0x00001154:    d0fa        ..      BEQ      0x114c ; am_hal_iom_i2c_read_nb + 48
        0x00001156:    4826        &H      LDR      r0,[pc,#152] ; [0x11f0] = 0x10000194
        0x00001158:    2102        .!      MOVS     r1,#2
        0x0000115a:    eb001004    ....    ADD      r0,r0,r4,LSL #4
        0x0000115e:    e9c01900    ....    STRD     r1,r9,[r0,#0]
        0x00001162:    e9c05702    ...W    STRD     r5,r7,[r0,#8]
        0x00001166:    b2e8        ..      UXTB     r0,r5
        0x00001168:    f06f417c    o.|A    MVN      r1,#0xfc000000
        0x0000116c:    f0404000    @..@    ORR      r0,r0,#0x80000000
        0x00001170:    ea014108    ...A    AND      r1,r1,r8,LSL #16
        0x00001174:    4308        .C      ORRS     r0,r0,r1
        0x00001176:    491f        .I      LDR      r1,[pc,#124] ; [0x11f4] = 0x5c00ff00
        0x00001178:    4031        1@      ANDS     r1,r1,r6
        0x0000117a:    4308        .C      ORRS     r0,r0,r1
        0x0000117c:    0321        !.      LSLS     r1,r4,#12
        0x0000117e:    f10141a0    ...A    ADD      r1,r1,#0x50000000
        0x00001182:    f5014180    ...A    ADD      r1,r1,#0x4000
        0x00001186:    f8c10110    ....    STR      r0,[r1,#0x110]
        0x0000118a:    e8bd83f8    ....    POP      {r3-r9,pc}
        0x0000118e:    f04f0101    O...    MOV      r1,#1
        0x00001192:    f0164f80    ...O    TST      r6,#0x40000000
        0x00001196:    ea410048    A.H.    ORR      r0,r1,r8,LSL #1
        0x0000119a:    d008        ..      BEQ      0x11ae ; am_hal_iom_i2c_read_nb + 146
        0x0000119c:    2100        .!      MOVS     r1,#0
        0x0000119e:    460b        .F      MOV      r3,r1
        0x000011a0:    9100        ..      STR      r1,[sp,#0]
        0x000011a2:    b2c0        ..      UXTB     r0,r0
        0x000011a4:    464a        JF      MOV      r2,r9
        0x000011a6:    4629        )F      MOV      r1,r5
        0x000011a8:    f7fffc0e    ....    BL       am_hal_i2c_bit_bang_receive ; 0x9c8
        0x000011ac:    e007        ..      B        0x11be ; am_hal_iom_i2c_read_nb + 162
        0x000011ae:    9100        ..      STR      r1,[sp,#0]
        0x000011b0:    b2c0        ..      UXTB     r0,r0
        0x000011b2:    f3c62307    ...#    UBFX     r3,r6,#8,#8
        0x000011b6:    464a        JF      MOV      r2,r9
        0x000011b8:    4629        )F      MOV      r1,r5
        0x000011ba:    f7fffc05    ....    BL       am_hal_i2c_bit_bang_receive ; 0x9c8
        0x000011be:    b001        ..      ADD      sp,sp,#4
        0x000011c0:    46bc        .F      MOV      r12,r7
        0x000011c2:    e8bd43f0    ...C    POP      {r4-r9,lr}
        0x000011c6:    4760        `G      BX       r12
    $d
        0x000011c8:    20433249    I2C     DCD    541274697
        0x000011cc:    6e617274    tran    DCD    1851880052
        0x000011d0:    72656673    sfer    DCD    1919247987
        0x000011d4:    6f6f7420     too    DCD    1869575200
        0x000011d8:    67696220     big    DCD    1734959648
        0x000011dc:    0000002e    ....    DCD    46
        0x000011e0:    612f2e2e    ../a    DCD    1630481966
        0x000011e4:    61685f6d    m_ha    DCD    1634230125
        0x000011e8:    6f695f6c    l_io    DCD    1869176684
        0x000011ec:    00632e6d    m.c.    DCD    6499949
        0x000011f0:    10000194    ....    DCD    268435860
        0x000011f4:    5c00ff00    ...\    DCD    1543569152
    $t
    i.am_hal_iom_i2c_write
    am_hal_iom_i2c_write
        0x000011f8:    e92d43f8    -..C    PUSH     {r3-r9,lr}
        0x000011fc:    461c        .F      MOV      r4,r3
        0x000011fe:    f8dd8020    .. .    LDR      r8,[sp,#0x20]
        0x00001202:    4617        .F      MOV      r7,r2
        0x00001204:    4689        .F      MOV      r9,r1
        0x00001206:    4606        .F      MOV      r6,r0
        0x00001208:    2802        .(      CMP      r0,#2
        0x0000120a:    d04d        M.      BEQ      0x12a8 ; am_hal_iom_i2c_write + 176
        0x0000120c:    f5b47f80    ....    CMP      r4,#0x100
        0x00001210:    d305        ..      BCC      0x121e ; am_hal_iom_i2c_write + 38
        0x00001212:    a231        1.      ADR      r2,{pc}+0xc6 ; 0x12d8
        0x00001214:    f44f7126    O.&q    MOV      r1,#0x298
        0x00001218:    a035        5.      ADR      r0,{pc}+0xd8 ; 0x12f0
        0x0000121a:    f7fffba1    ....    BL       am_hal_debug_error ; 0x960
        0x0000121e:    2c40        @,      CMP      r4,#0x40
        0x00001220:    bf94        ..      ITE      LS
        0x00001222:    4625        %F      MOVLS    r5,r4
        0x00001224:    2540        @%      MOVHI    r5,#0x40
        0x00001226:    0330        0.      LSLS     r0,r6,#12
        0x00001228:    f10040a0    ...@    ADD      r0,r0,#0x50000000
        0x0000122c:    f5004080    ...@    ADD      r0,r0,#0x4000
        0x00001230:    f8d01118    ....    LDR      r1,[r0,#0x118]
        0x00001234:    f0110f04    ....    TST      r1,#4
        0x00001238:    d0fa        ..      BEQ      0x1230 ; am_hal_iom_i2c_write + 56
        0x0000123a:    462a        *F      MOV      r2,r5
        0x0000123c:    4639        9F      MOV      r1,r7
        0x0000123e:    4630        0F      MOV      r0,r6
        0x00001240:    f7fffe7c    ..|.    BL       am_hal_iom_fifo_write ; 0xf3c
        0x00001244:    f06f417c    o.|A    MVN      r1,#0xfc000000
        0x00001248:    b2e0        ..      UXTB     r0,r4
        0x0000124a:    ea014109    ...A    AND      r1,r1,r9,LSL #16
        0x0000124e:    4308        .C      ORRS     r0,r0,r1
        0x00001250:    492b        +I      LDR      r1,[pc,#172] ; [0x1300] = 0x5c00ff00
        0x00001252:    ea080101    ....    AND      r1,r8,r1
        0x00001256:    4308        .C      ORRS     r0,r0,r1
        0x00001258:    0331        1.      LSLS     r1,r6,#12
        0x0000125a:    f10148a0    ...H    ADD      r8,r1,#0x50000000
        0x0000125e:    f5084880    ...H    ADD      r8,r8,#0x4000
        0x00001262:    f8c80110    ....    STR      r0,[r8,#0x110]
        0x00001266:    f0250003    %...    BIC      r0,r5,#3
        0x0000126a:    1b64        d.      SUBS     r4,r4,r5
        0x0000126c:    4407        .D      ADD      r7,r7,r0
        0x0000126e:    bf08        ..      IT       EQ
        0x00001270:    e8bd83f8    ....    POPEQ    {r3-r9,pc}
        0x00001274:    f8d80100    ....    LDR      r0,[r8,#0x100]
        0x00001278:    f3c04006    ...@    UBFX     r0,r0,#16,#7
        0x0000127c:    42a0        .B      CMP      r0,r4
        0x0000127e:    bf28        (.      IT       CS
        0x00001280:    4625        %F      MOVCS    r5,r4
        0x00001282:    d205        ..      BCS      0x1290 ; am_hal_iom_i2c_write + 152
        0x00001284:    f8d80100    ....    LDR      r0,[r8,#0x100]
        0x00001288:    f3c04006    ...@    UBFX     r0,r0,#16,#7
        0x0000128c:    f0200503     ...    BIC      r5,r0,#3
        0x00001290:    462a        *F      MOV      r2,r5
        0x00001292:    4639        9F      MOV      r1,r7
        0x00001294:    4630        0F      MOV      r0,r6
        0x00001296:    f7fffe51    ..Q.    BL       am_hal_iom_fifo_write ; 0xf3c
        0x0000129a:    f0250003    %...    BIC      r0,r5,#3
        0x0000129e:    1b64        d.      SUBS     r4,r4,r5
        0x000012a0:    4407        .D      ADD      r7,r7,r0
        0x000012a2:    d1e7        ..      BNE      0x1274 ; am_hal_iom_i2c_write + 124
        0x000012a4:    e8bd83f8    ....    POP      {r3-r9,pc}
        0x000012a8:    f0184f80    ...O    TST      r8,#0x40000000
        0x000012ac:    ea4f0049    O.I.    LSL      r0,r9,#1
        0x000012b0:    d008        ..      BEQ      0x12c4 ; am_hal_iom_i2c_write + 204
        0x000012b2:    2100        .!      MOVS     r1,#0
        0x000012b4:    460b        .F      MOV      r3,r1
        0x000012b6:    9100        ..      STR      r1,[sp,#0]
        0x000012b8:    b2c0        ..      UXTB     r0,r0
        0x000012ba:    4621        !F      MOV      r1,r4
        0x000012bc:    f7fffc78    ..x.    BL       am_hal_i2c_bit_bang_send ; 0xbb0
        0x000012c0:    e8bd83f8    ....    POP      {r3-r9,pc}
        0x000012c4:    2101        .!      MOVS     r1,#1
        0x000012c6:    9100        ..      STR      r1,[sp,#0]
        0x000012c8:    b2c0        ..      UXTB     r0,r0
        0x000012ca:    f3c82307    ...#    UBFX     r3,r8,#8,#8
        0x000012ce:    4621        !F      MOV      r1,r4
        0x000012d0:    f7fffc6e    ..n.    BL       am_hal_i2c_bit_bang_send ; 0xbb0
        0x000012d4:    e8bd83f8    ....    POP      {r3-r9,pc}
    $d
        0x000012d8:    20433249    I2C     DCD    541274697
        0x000012dc:    6e617274    tran    DCD    1851880052
        0x000012e0:    72656673    sfer    DCD    1919247987
        0x000012e4:    6f6f7420     too    DCD    1869575200
        0x000012e8:    67696220     big    DCD    1734959648
        0x000012ec:    0000002e    ....    DCD    46
        0x000012f0:    612f2e2e    ../a    DCD    1630481966
        0x000012f4:    61685f6d    m_ha    DCD    1634230125
        0x000012f8:    6f695f6c    l_io    DCD    1869176684
        0x000012fc:    00632e6d    m.c.    DCD    6499949
        0x00001300:    5c00ff00    ...\    DCD    1543569152
    $t
    i.am_hal_iom_i2c_write_nb
    am_hal_iom_i2c_write_nb
        0x00001304:    e92d4ff8    -..O    PUSH     {r3-r11,lr}
        0x00001308:    461c        .F      MOV      r4,r3
        0x0000130a:    e9dd6a0a    ...j    LDRD     r6,r10,[sp,#0x28]
        0x0000130e:    4690        .F      MOV      r8,r2
        0x00001310:    460f        .F      MOV      r7,r1
        0x00001312:    4605        .F      MOV      r5,r0
        0x00001314:    f04f0b01    O...    MOV      r11,#1
        0x00001318:    2802        .(      CMP      r0,#2
        0x0000131a:    d03b        ;.      BEQ      0x1394 ; am_hal_iom_i2c_write_nb + 144
        0x0000131c:    f5b47f80    ....    CMP      r4,#0x100
        0x00001320:    d305        ..      BCC      0x132e ; am_hal_iom_i2c_write_nb + 42
        0x00001322:    a229        ).      ADR      r2,{pc}+0xa6 ; 0x13c8
        0x00001324:    f2403189    @..1    MOV      r1,#0x389
        0x00001328:    a02d        -.      ADR      r0,{pc}+0xb8 ; 0x13e0
        0x0000132a:    f7fffb19    ....    BL       am_hal_debug_error ; 0x960
        0x0000132e:    2c40        @,      CMP      r4,#0x40
        0x00001330:    bf94        ..      ITE      LS
        0x00001332:    46a1        .F      MOVLS    r9,r4
        0x00001334:    f04f0940    O.@.    MOVHI    r9,#0x40
        0x00001338:    0328        (.      LSLS     r0,r5,#12
        0x0000133a:    f10040a0    ...@    ADD      r0,r0,#0x50000000
        0x0000133e:    f5004080    ...@    ADD      r0,r0,#0x4000
        0x00001342:    bf00        ..      NOP      
        0x00001344:    f8d01118    ....    LDR      r1,[r0,#0x118]
        0x00001348:    f0110f04    ....    TST      r1,#4
        0x0000134c:    d0fa        ..      BEQ      0x1344 ; am_hal_iom_i2c_write_nb + 64
        0x0000134e:    464a        JF      MOV      r2,r9
        0x00001350:    4641        AF      MOV      r1,r8
        0x00001352:    4628        (F      MOV      r0,r5
        0x00001354:    f7fffdf2    ....    BL       am_hal_iom_fifo_write ; 0xf3c
        0x00001358:    4825        %H      LDR      r0,[pc,#148] ; [0x13f0] = 0x10000194
        0x0000135a:    eba40109    ....    SUB      r1,r4,r9
        0x0000135e:    eb001005    ....    ADD      r0,r0,r5,LSL #4
        0x00001362:    e9c01a02    ....    STRD     r1,r10,[r0,#8]
        0x00001366:    f0290103    )...    BIC      r1,r9,#3
        0x0000136a:    4441        AD      ADD      r1,r1,r8
        0x0000136c:    e9c0b100    ....    STRD     r11,r1,[r0,#0]
        0x00001370:    f06f417c    o.|A    MVN      r1,#0xfc000000
        0x00001374:    b2e0        ..      UXTB     r0,r4
        0x00001376:    ea014107    ...A    AND      r1,r1,r7,LSL #16
        0x0000137a:    4308        .C      ORRS     r0,r0,r1
        0x0000137c:    491d        .I      LDR      r1,[pc,#116] ; [0x13f4] = 0x5c00ff00
        0x0000137e:    4031        1@      ANDS     r1,r1,r6
        0x00001380:    4308        .C      ORRS     r0,r0,r1
        0x00001382:    0329        ).      LSLS     r1,r5,#12
        0x00001384:    f10141a0    ...A    ADD      r1,r1,#0x50000000
        0x00001388:    f5014180    ...A    ADD      r1,r1,#0x4000
        0x0000138c:    f8c10110    ....    STR      r0,[r1,#0x110]
        0x00001390:    e8bd8ff8    ....    POP      {r3-r11,pc}
        0x00001394:    f0164f80    ...O    TST      r6,#0x40000000
        0x00001398:    ea4f0047    O.G.    LSL      r0,r7,#1
        0x0000139c:    d007        ..      BEQ      0x13ae ; am_hal_iom_i2c_write_nb + 170
        0x0000139e:    2100        .!      MOVS     r1,#0
        0x000013a0:    460b        .F      MOV      r3,r1
        0x000013a2:    9100        ..      STR      r1,[sp,#0]
        0x000013a4:    b2c0        ..      UXTB     r0,r0
        0x000013a6:    4621        !F      MOV      r1,r4
        0x000013a8:    f7fffc02    ....    BL       am_hal_i2c_bit_bang_send ; 0xbb0
        0x000013ac:    e007        ..      B        0x13be ; am_hal_iom_i2c_write_nb + 186
        0x000013ae:    b2c0        ..      UXTB     r0,r0
        0x000013b0:    f3c62307    ...#    UBFX     r3,r6,#8,#8
        0x000013b4:    4621        !F      MOV      r1,r4
        0x000013b6:    f8cdb000    ....    STR      r11,[sp,#0]
        0x000013ba:    f7fffbf9    ....    BL       am_hal_i2c_bit_bang_send ; 0xbb0
        0x000013be:    b001        ..      ADD      sp,sp,#4
        0x000013c0:    46d4        .F      MOV      r12,r10
        0x000013c2:    e8bd4ff0    ...O    POP      {r4-r11,lr}
        0x000013c6:    4760        `G      BX       r12
    $d
        0x000013c8:    20433249    I2C     DCD    541274697
        0x000013cc:    6e617274    tran    DCD    1851880052
        0x000013d0:    72656673    sfer    DCD    1919247987
        0x000013d4:    6f6f7420     too    DCD    1869575200
        0x000013d8:    67696220     big    DCD    1734959648
        0x000013dc:    0000002e    ....    DCD    46
        0x000013e0:    612f2e2e    ../a    DCD    1630481966
        0x000013e4:    61685f6d    m_ha    DCD    1634230125
        0x000013e8:    6f695f6c    l_io    DCD    1869176684
        0x000013ec:    00632e6d    m.c.    DCD    6499949
        0x000013f0:    10000194    ....    DCD    268435860
        0x000013f4:    5c00ff00    ...\    DCD    1543569152
    $t
    i.am_hal_iom_spi_read
    am_hal_iom_spi_read
        0x000013f8:    e92d41f0    -..A    PUSH     {r4-r8,lr}
        0x000013fc:    461c        .F      MOV      r4,r3
        0x000013fe:    f8dd8018    ....    LDR      r8,[sp,#0x18]
        0x00001402:    4616        .F      MOV      r6,r2
        0x00001404:    460d        .F      MOV      r5,r1
        0x00001406:    4607        .F      MOV      r7,r0
        0x00001408:    f5b35f80    ..._    CMP      r3,#0x1000
        0x0000140c:    d305        ..      BCC      0x141a ; am_hal_iom_spi_read + 34
        0x0000140e:    a227        '.      ADR      r2,{pc}+0x9e ; 0x14ac
        0x00001410:    f240117b    @.{.    MOV      r1,#0x17b
        0x00001414:    a02b        +.      ADR      r0,{pc}+0xb0 ; 0x14c4
        0x00001416:    f7fffaa3    ....    BL       am_hal_debug_error ; 0x960
        0x0000141a:    0338        8.      LSLS     r0,r7,#12
        0x0000141c:    f10041a0    ...A    ADD      r1,r0,#0x50000000
        0x00001420:    f5014180    ...A    ADD      r1,r1,#0x4000
        0x00001424:    f8d10118    ....    LDR      r0,[r1,#0x118]
        0x00001428:    f0100f04    ....    TST      r0,#4
        0x0000142c:    d0fa        ..      BEQ      0x1424 ; am_hal_iom_spi_read + 44
        0x0000142e:    f04f4000    O..@    MOV      r0,#0x80000000
        0x00001432:    f4046170    ..pa    AND      r1,r4,#0xf00
        0x00001436:    ea4030c1    @..0    ORR      r0,r0,r1,LSL #15
        0x0000143a:    b2e1        ..      UXTB     r1,r4
        0x0000143c:    4308        .C      ORRS     r0,r0,r1
        0x0000143e:    f44f21e0    O..!    MOV      r1,#0x70000
        0x00001442:    ea014105    ...A    AND      r1,r1,r5,LSL #16
        0x00001446:    4308        .C      ORRS     r0,r0,r1
        0x00001448:    4922        "I      LDR      r1,[pc,#136] ; [0x14d4] = 0x5c00ff00
        0x0000144a:    ea080101    ....    AND      r1,r8,r1
        0x0000144e:    4308        .C      ORRS     r0,r0,r1
        0x00001450:    0339        9.      LSLS     r1,r7,#12
        0x00001452:    f10145a0    ...E    ADD      r5,r1,#0x50000000
        0x00001456:    f5054580    ...E    ADD      r5,r5,#0x4000
        0x0000145a:    f8c50110    ....    STR      r0,[r5,#0x110]
        0x0000145e:    f8d50118    ....    LDR      r0,[r5,#0x118]
        0x00001462:    f0100f04    ....    TST      r0,#4
        0x00001466:    bf18        ..      IT       NE
        0x00001468:    e8bd81f0    ....    POPNE    {r4-r8,pc}
        0x0000146c:    f8d50100    ....    LDR      r0,[r5,#0x100]
        0x00001470:    f000017f    ....    AND      r1,r0,#0x7f
        0x00001474:    42a1        .B      CMP      r1,r4
        0x00001476:    d105        ..      BNE      0x1484 ; am_hal_iom_spi_read + 140
        0x00001478:    4622        "F      MOV      r2,r4
        0x0000147a:    4631        1F      MOV      r1,r6
        0x0000147c:    4638        8F      MOV      r0,r7
        0x0000147e:    f7fffcf5    ....    BL       am_hal_iom_fifo_read ; 0xe6c
        0x00001482:    e00c        ..      B        0x149e ; am_hal_iom_spi_read + 166
        0x00001484:    f8d50100    ....    LDR      r0,[r5,#0x100]
        0x00001488:    f000007f    ....    AND      r0,r0,#0x7f
        0x0000148c:    2804        .(      CMP      r0,#4
        0x0000148e:    d306        ..      BCC      0x149e ; am_hal_iom_spi_read + 166
        0x00001490:    2204        ."      MOVS     r2,#4
        0x00001492:    4631        1F      MOV      r1,r6
        0x00001494:    4638        8F      MOV      r0,r7
        0x00001496:    f7fffce9    ....    BL       am_hal_iom_fifo_read ; 0xe6c
        0x0000149a:    1f24        $.      SUBS     r4,r4,#4
        0x0000149c:    1d36        6.      ADDS     r6,r6,#4
        0x0000149e:    f8d50118    ....    LDR      r0,[r5,#0x118]
        0x000014a2:    f0100f04    ....    TST      r0,#4
        0x000014a6:    d0e1        ..      BEQ      0x146c ; am_hal_iom_spi_read + 116
        0x000014a8:    e8bd81f0    ....    POP      {r4-r8,pc}
    $d
        0x000014ac:    20495053    SPI     DCD    541675603
        0x000014b0:    6e617274    tran    DCD    1851880052
        0x000014b4:    72656673    sfer    DCD    1919247987
        0x000014b8:    6f6f7420     too    DCD    1869575200
        0x000014bc:    67696220     big    DCD    1734959648
        0x000014c0:    0000002e    ....    DCD    46
        0x000014c4:    612f2e2e    ../a    DCD    1630481966
        0x000014c8:    61685f6d    m_ha    DCD    1634230125
        0x000014cc:    6f695f6c    l_io    DCD    1869176684
        0x000014d0:    00632e6d    m.c.    DCD    6499949
        0x000014d4:    5c00ff00    ...\    DCD    1543569152
    $t
    i.am_hal_iom_spi_read_nb
    am_hal_iom_spi_read_nb
        0x000014d8:    e92d47f0    -..G    PUSH     {r4-r10,lr}
        0x000014dc:    461d        .F      MOV      r5,r3
        0x000014de:    e9dd7908    ...y    LDRD     r7,r9,[sp,#0x20]
        0x000014e2:    4690        .F      MOV      r8,r2
        0x000014e4:    460e        .F      MOV      r6,r1
        0x000014e6:    4604        .F      MOV      r4,r0
        0x000014e8:    f5b35f80    ..._    CMP      r3,#0x1000
        0x000014ec:    d305        ..      BCC      0x14fa ; am_hal_iom_spi_read_nb + 34
        0x000014ee:    a218        ..      ADR      r2,{pc}+0x62 ; 0x1550
        0x000014f0:    f44f7106    O..q    MOV      r1,#0x218
        0x000014f4:    a01c        ..      ADR      r0,{pc}+0x74 ; 0x1568
        0x000014f6:    f7fffa33    ..3.    BL       am_hal_debug_error ; 0x960
        0x000014fa:    0320         .      LSLS     r0,r4,#12
        0x000014fc:    f10040a0    ...@    ADD      r0,r0,#0x50000000
        0x00001500:    f5004080    ...@    ADD      r0,r0,#0x4000
        0x00001504:    f8d01118    ....    LDR      r1,[r0,#0x118]
        0x00001508:    f0110f04    ....    TST      r1,#4
        0x0000150c:    d0fa        ..      BEQ      0x1504 ; am_hal_iom_spi_read_nb + 44
        0x0000150e:    481a        .H      LDR      r0,[pc,#104] ; [0x1578] = 0x10000194
        0x00001510:    2102        .!      MOVS     r1,#2
        0x00001512:    eb001004    ....    ADD      r0,r0,r4,LSL #4
        0x00001516:    e9c01800    ....    STRD     r1,r8,[r0,#0]
        0x0000151a:    e9c05902    ...Y    STRD     r5,r9,[r0,#8]
        0x0000151e:    0788        ..      LSLS     r0,r1,#30
        0x00001520:    f4056170    ..pa    AND      r1,r5,#0xf00
        0x00001524:    ea4030c1    @..0    ORR      r0,r0,r1,LSL #15
        0x00001528:    b2e9        ..      UXTB     r1,r5
        0x0000152a:    4308        .C      ORRS     r0,r0,r1
        0x0000152c:    f44f21e0    O..!    MOV      r1,#0x70000
        0x00001530:    ea014106    ...A    AND      r1,r1,r6,LSL #16
        0x00001534:    4308        .C      ORRS     r0,r0,r1
        0x00001536:    4911        .I      LDR      r1,[pc,#68] ; [0x157c] = 0x5c00ff00
        0x00001538:    4039        9@      ANDS     r1,r1,r7
        0x0000153a:    4308        .C      ORRS     r0,r0,r1
        0x0000153c:    0321        !.      LSLS     r1,r4,#12
        0x0000153e:    f10141a0    ...A    ADD      r1,r1,#0x50000000
        0x00001542:    f5014180    ...A    ADD      r1,r1,#0x4000
        0x00001546:    f8c10110    ....    STR      r0,[r1,#0x110]
        0x0000154a:    e8bd87f0    ....    POP      {r4-r10,pc}
    $d
        0x0000154e:    0000        ..      DCW    0
        0x00001550:    20495053    SPI     DCD    541675603
        0x00001554:    6e617274    tran    DCD    1851880052
        0x00001558:    72656673    sfer    DCD    1919247987
        0x0000155c:    6f6f7420     too    DCD    1869575200
        0x00001560:    67696220     big    DCD    1734959648
        0x00001564:    0000002e    ....    DCD    46
        0x00001568:    612f2e2e    ../a    DCD    1630481966
        0x0000156c:    61685f6d    m_ha    DCD    1634230125
        0x00001570:    6f695f6c    l_io    DCD    1869176684
        0x00001574:    00632e6d    m.c.    DCD    6499949
        0x00001578:    10000194    ....    DCD    268435860
        0x0000157c:    5c00ff00    ...\    DCD    1543569152
    $t
    i.am_hal_iom_spi_write
    am_hal_iom_spi_write
        0x00001580:    e92d47f0    -..G    PUSH     {r4-r10,lr}
        0x00001584:    461c        .F      MOV      r4,r3
        0x00001586:    9f08        ..      LDR      r7,[sp,#0x20]
        0x00001588:    4691        .F      MOV      r9,r2
        0x0000158a:    460e        .F      MOV      r6,r1
        0x0000158c:    4680        .F      MOV      r8,r0
        0x0000158e:    f5b35f80    ..._    CMP      r3,#0x1000
        0x00001592:    d305        ..      BCC      0x15a0 ; am_hal_iom_spi_write + 32
        0x00001594:    a229        ).      ADR      r2,{pc}+0xa8 ; 0x163c
        0x00001596:    f44f718f    O..q    MOV      r1,#0x11e
        0x0000159a:    a02e        ..      ADR      r0,{pc}+0xba ; 0x1654
        0x0000159c:    f7fff9e0    ....    BL       am_hal_debug_error ; 0x960
        0x000015a0:    2c40        @,      CMP      r4,#0x40
        0x000015a2:    bf94        ..      ITE      LS
        0x000015a4:    4625        %F      MOVLS    r5,r4
        0x000015a6:    2540        @%      MOVHI    r5,#0x40
        0x000015a8:    ea4f3008    O..0    LSL      r0,r8,#12
        0x000015ac:    f10040a0    ...@    ADD      r0,r0,#0x50000000
        0x000015b0:    f5004080    ...@    ADD      r0,r0,#0x4000
        0x000015b4:    f8d01118    ....    LDR      r1,[r0,#0x118]
        0x000015b8:    f0110f04    ....    TST      r1,#4
        0x000015bc:    d0fa        ..      BEQ      0x15b4 ; am_hal_iom_spi_write + 52
        0x000015be:    462a        *F      MOV      r2,r5
        0x000015c0:    4649        IF      MOV      r1,r9
        0x000015c2:    4640        @F      MOV      r0,r8
        0x000015c4:    f7fffcba    ....    BL       am_hal_iom_fifo_write ; 0xf3c
        0x000015c8:    2000        .       MOVS     r0,#0
        0x000015ca:    f4046170    ..pa    AND      r1,r4,#0xf00
        0x000015ce:    ea4030c1    @..0    ORR      r0,r0,r1,LSL #15
        0x000015d2:    b2e1        ..      UXTB     r1,r4
        0x000015d4:    4308        .C      ORRS     r0,r0,r1
        0x000015d6:    f44f21e0    O..!    MOV      r1,#0x70000
        0x000015da:    ea014106    ...A    AND      r1,r1,r6,LSL #16
        0x000015de:    4308        .C      ORRS     r0,r0,r1
        0x000015e0:    4920         I      LDR      r1,[pc,#128] ; [0x1664] = 0x5c00ff00
        0x000015e2:    4039        9@      ANDS     r1,r1,r7
        0x000015e4:    4308        .C      ORRS     r0,r0,r1
        0x000015e6:    ea4f3108    O..1    LSL      r1,r8,#12
        0x000015ea:    f10147a0    ...G    ADD      r7,r1,#0x50000000
        0x000015ee:    f5074780    ...G    ADD      r7,r7,#0x4000
        0x000015f2:    f8c70110    ....    STR      r0,[r7,#0x110]
        0x000015f6:    f0250003    %...    BIC      r0,r5,#3
        0x000015fa:    1b64        d.      SUBS     r4,r4,r5
        0x000015fc:    eb000609    ....    ADD      r6,r0,r9
        0x00001600:    bf08        ..      IT       EQ
        0x00001602:    e8bd87f0    ....    POPEQ    {r4-r10,pc}
        0x00001606:    bf00        ..      NOP      
        0x00001608:    f8d70100    ....    LDR      r0,[r7,#0x100]
        0x0000160c:    f3c04006    ...@    UBFX     r0,r0,#16,#7
        0x00001610:    42a0        .B      CMP      r0,r4
        0x00001612:    bf28        (.      IT       CS
        0x00001614:    4625        %F      MOVCS    r5,r4
        0x00001616:    d205        ..      BCS      0x1624 ; am_hal_iom_spi_write + 164
        0x00001618:    f8d70100    ....    LDR      r0,[r7,#0x100]
        0x0000161c:    f3c04006    ...@    UBFX     r0,r0,#16,#7
        0x00001620:    f0200503     ...    BIC      r5,r0,#3
        0x00001624:    462a        *F      MOV      r2,r5
        0x00001626:    4631        1F      MOV      r1,r6
        0x00001628:    4640        @F      MOV      r0,r8
        0x0000162a:    f7fffc87    ....    BL       am_hal_iom_fifo_write ; 0xf3c
        0x0000162e:    f0250003    %...    BIC      r0,r5,#3
        0x00001632:    1b64        d.      SUBS     r4,r4,r5
        0x00001634:    4406        .D      ADD      r6,r6,r0
        0x00001636:    d1e7        ..      BNE      0x1608 ; am_hal_iom_spi_write + 136
        0x00001638:    e8bd87f0    ....    POP      {r4-r10,pc}
    $d
        0x0000163c:    20495053    SPI     DCD    541675603
        0x00001640:    6e617274    tran    DCD    1851880052
        0x00001644:    72656673    sfer    DCD    1919247987
        0x00001648:    6f6f7420     too    DCD    1869575200
        0x0000164c:    67696220     big    DCD    1734959648
        0x00001650:    0000002e    ....    DCD    46
        0x00001654:    612f2e2e    ../a    DCD    1630481966
        0x00001658:    61685f6d    m_ha    DCD    1634230125
        0x0000165c:    6f695f6c    l_io    DCD    1869176684
        0x00001660:    00632e6d    m.c.    DCD    6499949
        0x00001664:    5c00ff00    ...\    DCD    1543569152
    $t
    i.am_hal_iom_spi_write_nb
    am_hal_iom_spi_write_nb
        0x00001668:    e92d47f0    -..G    PUSH     {r4-r10,lr}
        0x0000166c:    461c        .F      MOV      r4,r3
        0x0000166e:    e9dd9a08    ....    LDRD     r9,r10,[sp,#0x20]
        0x00001672:    4616        .F      MOV      r6,r2
        0x00001674:    4688        .F      MOV      r8,r1
        0x00001676:    4605        .F      MOV      r5,r0
        0x00001678:    f5b35f80    ..._    CMP      r3,#0x1000
        0x0000167c:    d305        ..      BCC      0x168a ; am_hal_iom_spi_write_nb + 34
        0x0000167e:    a21f        ..      ADR      r2,{pc}+0x7e ; 0x16fc
        0x00001680:    f44f71e6    O..q    MOV      r1,#0x1cc
        0x00001684:    a023        #.      ADR      r0,{pc}+0x90 ; 0x1714
        0x00001686:    f7fff96b    ..k.    BL       am_hal_debug_error ; 0x960
        0x0000168a:    2c40        @,      CMP      r4,#0x40
        0x0000168c:    bf94        ..      ITE      LS
        0x0000168e:    4627        'F      MOVLS    r7,r4
        0x00001690:    2740        @'      MOVHI    r7,#0x40
        0x00001692:    0328        (.      LSLS     r0,r5,#12
        0x00001694:    f10040a0    ...@    ADD      r0,r0,#0x50000000
        0x00001698:    f5004080    ...@    ADD      r0,r0,#0x4000
        0x0000169c:    f8d01118    ....    LDR      r1,[r0,#0x118]
        0x000016a0:    f0110f04    ....    TST      r1,#4
        0x000016a4:    d0fa        ..      BEQ      0x169c ; am_hal_iom_spi_write_nb + 52
        0x000016a6:    463a        :F      MOV      r2,r7
        0x000016a8:    4631        1F      MOV      r1,r6
        0x000016aa:    4628        (F      MOV      r0,r5
        0x000016ac:    f7fffc46    ..F.    BL       am_hal_iom_fifo_write ; 0xf3c
        0x000016b0:    481c        .H      LDR      r0,[pc,#112] ; [0x1724] = 0x10000194
        0x000016b2:    2101        .!      MOVS     r1,#1
        0x000016b4:    eb001005    ....    ADD      r0,r0,r5,LSL #4
        0x000016b8:    6001        .`      STR      r1,[r0,#0]
        0x000016ba:    1be1        ..      SUBS     r1,r4,r7
        0x000016bc:    e9c01a02    ....    STRD     r1,r10,[r0,#8]
        0x000016c0:    f0270103    '...    BIC      r1,r7,#3
        0x000016c4:    4431        1D      ADD      r1,r1,r6
        0x000016c6:    6041        A`      STR      r1,[r0,#4]
        0x000016c8:    2000        .       MOVS     r0,#0
        0x000016ca:    f4046170    ..pa    AND      r1,r4,#0xf00
        0x000016ce:    ea4030c1    @..0    ORR      r0,r0,r1,LSL #15
        0x000016d2:    b2e1        ..      UXTB     r1,r4
        0x000016d4:    4308        .C      ORRS     r0,r0,r1
        0x000016d6:    f44f21e0    O..!    MOV      r1,#0x70000
        0x000016da:    ea014108    ...A    AND      r1,r1,r8,LSL #16
        0x000016de:    4308        .C      ORRS     r0,r0,r1
        0x000016e0:    4911        .I      LDR      r1,[pc,#68] ; [0x1728] = 0x5c00ff00
        0x000016e2:    ea090101    ....    AND      r1,r9,r1
        0x000016e6:    4308        .C      ORRS     r0,r0,r1
        0x000016e8:    0329        ).      LSLS     r1,r5,#12
        0x000016ea:    f10141a0    ...A    ADD      r1,r1,#0x50000000
        0x000016ee:    f5014180    ...A    ADD      r1,r1,#0x4000
        0x000016f2:    f8c10110    ....    STR      r0,[r1,#0x110]
        0x000016f6:    e8bd87f0    ....    POP      {r4-r10,pc}
    $d
        0x000016fa:    0000        ..      DCW    0
        0x000016fc:    20495053    SPI     DCD    541675603
        0x00001700:    6e617274    tran    DCD    1851880052
        0x00001704:    72656673    sfer    DCD    1919247987
        0x00001708:    6f6f7420     too    DCD    1869575200
        0x0000170c:    67696220     big    DCD    1734959648
        0x00001710:    0000002e    ....    DCD    46
        0x00001714:    612f2e2e    ../a    DCD    1630481966
        0x00001718:    61685f6d    m_ha    DCD    1634230125
        0x0000171c:    6f695f6c    l_io    DCD    1869176684
        0x00001720:    00632e6d    m.c.    DCD    6499949
        0x00001724:    10000194    ....    DCD    268435860
        0x00001728:    5c00ff00    ...\    DCD    1543569152
    $t
    i.am_hal_itm_delay_us
    am_hal_itm_delay_us
        0x0000172c:    b510        ..      PUSH     {r4,lr}
        0x0000172e:    4604        .F      MOV      r4,r0
        0x00001730:    f7fff8de    ....    BL       am_hal_clkgen_sysclk_get ; 0x8f0
        0x00001734:    4903        .I      LDR      r1,[pc,#12] ; [0x1744] = 0x2dc6c0
        0x00001736:    fbb0f0f1    ....    UDIV     r0,r0,r1
        0x0000173a:    4360        `C      MULS     r0,r4,r0
        0x0000173c:    e8bd4010    ...@    POP      {r4,lr}
        0x00001740:    f7febd14    ....    B        __asm___12_am_hal_itm_c_0782d9ac__am_itm_delay_cycles ; 0x16c
    $d
        0x00001744:    002dc6c0    ..-.    DCD    3000000
    $t
    i.am_hal_itm_enable
    am_hal_itm_enable
        0x00001748:    480d        .H      LDR      r0,[pc,#52] ; [0x1780] = 0x10000074
        0x0000174a:    6800        .h      LDR      r0,[r0,#0]
        0x0000174c:    f0100f01    ....    TST      r0,#1
        0x00001750:    bf18        ..      IT       NE
        0x00001752:    4770        pG      BXNE     lr
        0x00001754:    480b        .H      LDR      r0,[pc,#44] ; [0x1784] = 0xe000edfc
        0x00001756:    6801        .h      LDR      r1,[r0,#0]
        0x00001758:    f0417180    A..q    ORR      r1,r1,#0x1000000
        0x0000175c:    6001        .`      STR      r1,[r0,#0]
        0x0000175e:    6801        .h      LDR      r1,[r0,#0]
        0x00001760:    f0117f80    ....    TST      r1,#0x1000000
        0x00001764:    d0fb        ..      BEQ      0x175e ; am_hal_itm_enable + 22
        0x00001766:    4909        .I      LDR      r1,[pc,#36] ; [0x178c] = 0xe0000fb0
        0x00001768:    4807        .H      LDR      r0,[pc,#28] ; [0x1788] = 0xc5acce55
        0x0000176a:    6008        .`      STR      r0,[r1,#0]
        0x0000176c:    4908        .I      LDR      r1,[pc,#32] ; [0x1790] = 0xe0000e40
        0x0000176e:    200f        .       MOVS     r0,#0xf
        0x00001770:    6008        .`      STR      r0,[r1,#0]
        0x00001772:    1748        H.      ASRS     r0,r1,#29
        0x00001774:    4907        .I      LDR      r1,[pc,#28] ; [0x1794] = 0xe0000e00
        0x00001776:    6008        .`      STR      r0,[r1,#0]
        0x00001778:    4908        .I      LDR      r1,[pc,#32] ; [0x179c] = 0xe0000e80
        0x0000177a:    4807        .H      LDR      r0,[pc,#28] ; [0x1798] = 0x150511
        0x0000177c:    6008        .`      STR      r0,[r1,#0]
        0x0000177e:    4770        pG      BX       lr
    $d
        0x00001780:    10000074    t...    DCD    268435572
        0x00001784:    e000edfc    ....    DCD    3758157308
        0x00001788:    c5acce55    U...    DCD    3316436565
        0x0000178c:    e0000fb0    ....    DCD    3758100400
        0x00001790:    e0000e40    @...    DCD    3758100032
        0x00001794:    e0000e00    ....    DCD    3758099968
        0x00001798:    00150511    ....    DCD    1377553
        0x0000179c:    e0000e80    ....    DCD    3758100096
    $t
    i.am_hal_itm_not_busy
    am_hal_itm_not_busy
        0x000017a0:    b510        ..      PUSH     {r4,lr}
        0x000017a2:    4808        .H      LDR      r0,[pc,#32] ; [0x17c4] = 0xe0000e80
        0x000017a4:    6801        .h      LDR      r1,[r0,#0]
        0x000017a6:    f4110f00    ....    TST      r1,#0x800000
        0x000017aa:    d1fb        ..      BNE      0x17a4 ; am_hal_itm_not_busy + 4
        0x000017ac:    f7fff8a0    ....    BL       am_hal_clkgen_sysclk_get ; 0x8f0
        0x000017b0:    4905        .I      LDR      r1,[pc,#20] ; [0x17c8] = 0x2dc6c0
        0x000017b2:    e8bd4010    ...@    POP      {r4,lr}
        0x000017b6:    fbb0f0f1    ....    UDIV     r0,r0,r1
        0x000017ba:    2132        2!      MOVS     r1,#0x32
        0x000017bc:    4348        HC      MULS     r0,r1,r0
        0x000017be:    f7febcd5    ....    B        __asm___12_am_hal_itm_c_0782d9ac__am_itm_delay_cycles ; 0x16c
    $d
        0x000017c2:    0000        ..      DCW    0
        0x000017c4:    e0000e80    ....    DCD    3758100096
        0x000017c8:    002dc6c0    ..-.    DCD    3000000
    $t
    i.am_hal_itm_print
    am_hal_itm_print
        0x000017cc:    7802        .x      LDRB     r2,[r0,#0]
        0x000017ce:    2100        .!      MOVS     r1,#0
        0x000017d0:    2a00        .*      CMP      r2,#0
        0x000017d2:    bf08        ..      IT       EQ
        0x000017d4:    4770        pG      BXEQ     lr
        0x000017d6:    1c49        I.      ADDS     r1,r1,#1
        0x000017d8:    5c42        B\      LDRB     r2,[r0,r1]
        0x000017da:    2a00        .*      CMP      r2,#0
        0x000017dc:    d1fb        ..      BNE      0x17d6 ; am_hal_itm_print + 10
        0x000017de:    2900        .)      CMP      r1,#0
        0x000017e0:    bf08        ..      IT       EQ
        0x000017e2:    4770        pG      BXEQ     lr
        0x000017e4:    b4f0        ..      PUSH     {r4-r7}
        0x000017e6:    4e0f        .N      LDR      r6,[pc,#60] ; [0x1824] = 0x10000080
        0x000017e8:    f04f4760    O.`G    MOV      r7,#0xe0000000
        0x000017ec:    1d34        4.      ADDS     r4,r6,#4
        0x000017ee:    46b4        .F      MOV      r12,r6
        0x000017f0:    f8dc2004    ...     LDR      r2,[r12,#4]
        0x000017f4:    f8523b04    R..;    LDR      r3,[r2],#4
        0x000017f8:    f8cc2004    ...     STR      r2,[r12,#4]
        0x000017fc:    f8105b01    ...[    LDRB     r5,[r0],#1
        0x00001800:    eb070283    ....    ADD      r2,r7,r3,LSL #2
        0x00001804:    6813        .h      LDR      r3,[r2,#0]
        0x00001806:    2b00        .+      CMP      r3,#0
        0x00001808:    d0fc        ..      BEQ      0x1804 ; am_hal_itm_print + 56
        0x0000180a:    7015        .p      STRB     r5,[r2,#0]
        0x0000180c:    f8dc2004    ...     LDR      r2,[r12,#4]
        0x00001810:    1e49        I.      SUBS     r1,r1,#1
        0x00001812:    42a2        .B      CMP      r2,r4
        0x00001814:    bf28        (.      IT       CS
        0x00001816:    f8cc6004    ...`    STRCS    r6,[r12,#4]
        0x0000181a:    2900        .)      CMP      r1,#0
        0x0000181c:    d1e8        ..      BNE      0x17f0 ; am_hal_itm_print + 36
        0x0000181e:    bcf0        ..      POP      {r4-r7}
        0x00001820:    4770        pG      BX       lr
    $d
        0x00001822:    0000        ..      DCW    0
        0x00001824:    10000080    ....    DCD    268435584
    $t
    i.am_hal_mcuctrl_bandgap_disable
    am_hal_mcuctrl_bandgap_disable
        0x00001828:    4902        .I      LDR      r1,[pc,#8] ; [0x1834] = 0x40020000
        0x0000182a:    f06f0001    o...    MVN      r0,#1
        0x0000182e:    f8c100fc    ....    STR      r0,[r1,#0xfc]
        0x00001832:    4770        pG      BX       lr
    $d
        0x00001834:    40020000    ...@    DCD    1073872896
    $t
    i.am_hal_mcuctrl_bucks_enable
    am_hal_mcuctrl_bucks_enable
        0x00001838:    4808        .H      LDR      r0,[pc,#32] ; [0x185c] = 0x40020000
        0x0000183a:    6901        .i      LDR      r1,[r0,#0x10]
        0x0000183c:    f0410102    A...    ORR      r1,r1,#2
        0x00001840:    6101        .a      STR      r1,[r0,#0x10]
        0x00001842:    6901        .i      LDR      r1,[r0,#0x10]
        0x00001844:    f0410101    A...    ORR      r1,r1,#1
        0x00001848:    6101        .a      STR      r1,[r0,#0x10]
        0x0000184a:    6941        Ai      LDR      r1,[r0,#0x14]
        0x0000184c:    f0110f02    ....    TST      r1,#2
        0x00001850:    d0fb        ..      BEQ      0x184a ; am_hal_mcuctrl_bucks_enable + 18
        0x00001852:    6941        Ai      LDR      r1,[r0,#0x14]
        0x00001854:    f0110f01    ....    TST      r1,#1
        0x00001858:    d0fb        ..      BEQ      0x1852 ; am_hal_mcuctrl_bucks_enable + 26
        0x0000185a:    4770        pG      BX       lr
    $d
        0x0000185c:    40020000    ...@    DCD    1073872896
    $t
    i.am_hal_rtc_osc_disable
    am_hal_rtc_osc_disable
        0x00001860:    f04f2040    O.@     MOV      r0,#0x40004000
        0x00001864:    6d01        .m      LDR      r1,[r0,#0x50]
        0x00001866:    f0410110    A...    ORR      r1,r1,#0x10
        0x0000186a:    6501        .e      STR      r1,[r0,#0x50]
        0x0000186c:    4770        pG      BX       lr
    i.am_hal_rtc_osc_select
    am_hal_rtc_osc_select
        0x0000186e:    f04f2140    O.@!    MOV      r1,#0x40004000
        0x00001872:    2800        .(      CMP      r0,#0
        0x00001874:    68c8        .h      LDR      r0,[r1,#0xc]
        0x00001876:    bf14        ..      ITE      NE
        0x00001878:    f0400080    @...    ORRNE    r0,r0,#0x80
        0x0000187c:    f0200080     ...    BICEQ    r0,r0,#0x80
        0x00001880:    60c8        .`      STR      r0,[r1,#0xc]
        0x00001882:    4770        pG      BX       lr
    i.am_hal_sysctrl_sleep
    am_hal_sysctrl_sleep
        0x00001884:    490a        .I      LDR      r1,[pc,#40] ; [0x18b0] = 0xe000ed10
        0x00001886:    b160        `.      CBZ      r0,0x18a2 ; am_hal_sysctrl_sleep + 30
        0x00001888:    480a        .H      LDR      r0,[pc,#40] ; [0x18b4] = 0x40020000
        0x0000188a:    f8d00250    ..P.    LDR      r0,[r0,#0x250]
        0x0000188e:    f0300001    0...    BICS     r0,r0,#1
        0x00001892:    6808        .h      LDR      r0,[r1,#0]
        0x00001894:    bf0c        ..      ITE      EQ
        0x00001896:    f0400004    @...    ORREQ    r0,r0,#4
        0x0000189a:    f0200004     ...    BICNE    r0,r0,#4
        0x0000189e:    6008        .`      STR      r0,[r1,#0]
        0x000018a0:    e003        ..      B        0x18aa ; am_hal_sysctrl_sleep + 38
        0x000018a2:    6808        .h      LDR      r0,[r1,#0]
        0x000018a4:    f0200004     ...    BIC      r0,r0,#4
        0x000018a8:    6008        .`      STR      r0,[r1,#0]
        0x000018aa:    bf30        0.      WFI      
        0x000018ac:    4770        pG      BX       lr
    $d
        0x000018ae:    0000        ..      DCW    0
        0x000018b0:    e000ed10    ....    DCD    3758157072
        0x000018b4:    40020000    ...@    DCD    1073872896
    $t
    i.am_hal_tpiu_disable
    am_hal_tpiu_disable
        0x000018b8:    4902        .I      LDR      r1,[pc,#8] ; [0x18c4] = 0x40020000
        0x000018ba:    2000        .       MOVS     r0,#0
        0x000018bc:    f8c10250    ..P.    STR      r0,[r1,#0x250]
        0x000018c0:    4770        pG      BX       lr
    $d
        0x000018c2:    0000        ..      DCW    0
        0x000018c4:    40020000    ...@    DCD    1073872896
    $t
    i.am_hal_tpiu_enable
    am_hal_tpiu_enable
        0x000018c8:    4809        .H      LDR      r0,[pc,#36] ; [0x18f0] = 0xe0040000
        0x000018ca:    2100        .!      MOVS     r1,#0
        0x000018cc:    f8c01304    ....    STR      r1,[r0,#0x304]
        0x000018d0:    2201        ."      MOVS     r2,#1
        0x000018d2:    6042        B`      STR      r2,[r0,#4]
        0x000018d4:    2202        ."      MOVS     r2,#2
        0x000018d6:    6102        .a      STR      r2,[r0,#0x10]
        0x000018d8:    f8c020f0    ...     STR      r2,[r0,#0xf0]
        0x000018dc:    4805        .H      LDR      r0,[pc,#20] ; [0x18f4] = 0xe0040f00
        0x000018de:    6001        .`      STR      r1,[r0,#0]
        0x000018e0:    4905        .I      LDR      r1,[pc,#20] ; [0x18f8] = 0x40020000
        0x000018e2:    f2402001    @..     MOV      r0,#0x201
        0x000018e6:    f8c10250    ..P.    STR      r0,[r1,#0x250]
        0x000018ea:    2032        2       MOVS     r0,#0x32
        0x000018ec:    f7ffbf1e    ....    B.W      am_hal_itm_delay_us ; 0x172c
    $d
        0x000018f0:    e0040000    ....    DCD    3758358528
        0x000018f4:    e0040f00    ....    DCD    3758362368
        0x000018f8:    40020000    ...@    DCD    1073872896
    $t
    i.am_hal_vcomp_disable
    am_hal_vcomp_disable
        0x000018fc:    4901        .I      LDR      r1,[pc,#4] ; [0x1904] = 0x4000c000
        0x000018fe:    2037        7       MOVS     r0,#0x37
        0x00001900:    6088        .`      STR      r0,[r1,#8]
        0x00001902:    4770        pG      BX       lr
    $d
        0x00001904:    4000c000    ...@    DCD    1073790976
    $t
    i.am_util_delay_us
    am_util_delay_us
        0x00001908:    b570        p.      PUSH     {r4-r6,lr}
        0x0000190a:    4604        .F      MOV      r4,r0
        0x0000190c:    f7fefff0    ....    BL       am_hal_clkgen_sysclk_get ; 0x8f0
        0x00001910:    4904        .I      LDR      r1,[pc,#16] ; [0x1924] = 0x2dc6c0
        0x00001912:    fbb0f0f1    ....    UDIV     r0,r0,r1
        0x00001916:    fb00f504    ....    MUL      r5,r0,r4
        0x0000191a:    4628        (F      MOV      r0,r5
        0x0000191c:    f7fefc0c    ....    BL       am_util_delay_cycles ; 0x138
        0x00001920:    bd70        p.      POP      {r4-r6,pc}
    $d
        0x00001922:    0000        ..      DCW    0
        0x00001924:    002dc6c0    ..-.    DCD    3000000
    $t
    i.am_util_faultisr_collect_data
    am_util_faultisr_collect_data
        0x00001928:    b08c        ..      SUB      sp,sp,#0x30
        0x0000192a:    4604        .F      MOV      r4,r0
        0x0000192c:    2500        .%      MOVS     r5,#0
        0x0000192e:    950a        ..      STR      r5,[sp,#0x28]
        0x00001930:    4826        &H      LDR      r0,[pc,#152] ; [0x19cc] = 0xe000ed28
        0x00001932:    6800        .h      LDR      r0,[r0,#0]
        0x00001934:    900a        ..      STR      r0,[sp,#0x28]
        0x00001936:    980a        ..      LDR      r0,[sp,#0x28]
        0x00001938:    b2c0        ..      UXTB     r0,r0
        0x0000193a:    f88d002c    ..,.    STRB     r0,[sp,#0x2c]
        0x0000193e:    980a        ..      LDR      r0,[sp,#0x28]
        0x00001940:    0a00        ..      LSRS     r0,r0,#8
        0x00001942:    f88d002d    ..-.    STRB     r0,[sp,#0x2d]
        0x00001946:    980a        ..      LDR      r0,[sp,#0x28]
        0x00001948:    f64f71ff    O..q    MOV      r1,#0xffff
        0x0000194c:    ea014010    ...@    AND      r0,r1,r0,LSR #16
        0x00001950:    f8ad002e    ....    STRH     r0,[sp,#0x2e]
        0x00001954:    481d        .H      LDR      r0,[pc,#116] ; [0x19cc] = 0xe000ed28
        0x00001956:    3010        .0      ADDS     r0,r0,#0x10
        0x00001958:    6800        .h      LDR      r0,[r0,#0]
        0x0000195a:    9009        ..      STR      r0,[sp,#0x24]
        0x0000195c:    f89d002d    ..-.    LDRB     r0,[sp,#0x2d]
        0x00001960:    f0000002    ....    AND      r0,r0,#2
        0x00001964:    b120         .      CBZ      r0,0x1970 ; am_util_faultisr_collect_data + 72
        0x00001966:    4621        !F      MOV      r1,r4
        0x00001968:    2006        .       MOVS     r0,#6
        0x0000196a:    f7fefbef    ....    BL       getStackedReg ; 0x14c
        0x0000196e:    e001        ..      B        0x1974 ; am_util_faultisr_collect_data + 76
        0x00001970:    f04f30ff    O..0    MOV      r0,#0xffffffff
        0x00001974:    9008        ..      STR      r0,[sp,#0x20]
        0x00001976:    4621        !F      MOV      r1,r4
        0x00001978:    2000        .       MOVS     r0,#0
        0x0000197a:    f7fefbe7    ....    BL       getStackedReg ; 0x14c
        0x0000197e:    9000        ..      STR      r0,[sp,#0]
        0x00001980:    4621        !F      MOV      r1,r4
        0x00001982:    2001        .       MOVS     r0,#1
        0x00001984:    f7fefbe2    ....    BL       getStackedReg ; 0x14c
        0x00001988:    9001        ..      STR      r0,[sp,#4]
        0x0000198a:    4621        !F      MOV      r1,r4
        0x0000198c:    2002        .       MOVS     r0,#2
        0x0000198e:    f7fefbdd    ....    BL       getStackedReg ; 0x14c
        0x00001992:    9002        ..      STR      r0,[sp,#8]
        0x00001994:    4621        !F      MOV      r1,r4
        0x00001996:    2003        .       MOVS     r0,#3
        0x00001998:    f7fefbd8    ....    BL       getStackedReg ; 0x14c
        0x0000199c:    9003        ..      STR      r0,[sp,#0xc]
        0x0000199e:    4621        !F      MOV      r1,r4
        0x000019a0:    2004        .       MOVS     r0,#4
        0x000019a2:    f7fefbd3    ....    BL       getStackedReg ; 0x14c
        0x000019a6:    9004        ..      STR      r0,[sp,#0x10]
        0x000019a8:    4621        !F      MOV      r1,r4
        0x000019aa:    2005        .       MOVS     r0,#5
        0x000019ac:    f7fefbce    ....    BL       getStackedReg ; 0x14c
        0x000019b0:    9005        ..      STR      r0,[sp,#0x14]
        0x000019b2:    4621        !F      MOV      r1,r4
        0x000019b4:    2006        .       MOVS     r0,#6
        0x000019b6:    f7fefbc9    ....    BL       getStackedReg ; 0x14c
        0x000019ba:    9006        ..      STR      r0,[sp,#0x18]
        0x000019bc:    4621        !F      MOV      r1,r4
        0x000019be:    2007        .       MOVS     r0,#7
        0x000019c0:    f7fefbc4    ....    BL       getStackedReg ; 0x14c
        0x000019c4:    9007        ..      STR      r0,[sp,#0x1c]
        0x000019c6:    bf00        ..      NOP      
        0x000019c8:    bf00        ..      NOP      
        0x000019ca:    e7fe        ..      B        0x19ca ; am_util_faultisr_collect_data + 162
    $d
        0x000019cc:    e000ed28    (...    DCD    3758157096
    $t
    i.am_util_math_bcd_to_dec
    am_util_math_bcd_to_dec
        0x000019d0:    4601        .F      MOV      r1,r0
        0x000019d2:    f001000f    ....    AND      r0,r1,#0xf
        0x000019d6:    090a        ..      LSRS     r2,r1,#4
        0x000019d8:    eb020282    ....    ADD      r2,r2,r2,LSL #2
        0x000019dc:    eb000042    ..B.    ADD      r0,r0,r2,LSL #1
        0x000019e0:    b2c0        ..      UXTB     r0,r0
        0x000019e2:    4770        pG      BX       lr
    i.am_util_math_dec_to_bcd
    am_util_math_dec_to_bcd
        0x000019e4:    4601        .F      MOV      r1,r0
        0x000019e6:    200a        .       MOVS     r0,#0xa
        0x000019e8:    fb91f2f0    ....    SDIV     r2,r1,r0
        0x000019ec:    fb001012    ....    MLS      r0,r0,r2,r1
        0x000019f0:    220a        ."      MOVS     r2,#0xa
        0x000019f2:    fb91f2f2    ....    SDIV     r2,r1,r2
        0x000019f6:    ea401002    @...    ORR      r0,r0,r2,LSL #4
        0x000019fa:    b2c0        ..      UXTB     r0,r0
        0x000019fc:    4770        pG      BX       lr
        0x000019fe:    0000        ..      MOVS     r0,r0
    i.am_util_stdio_printf
    am_util_stdio_printf
        0x00001a00:    b40f        ..      PUSH     {r0-r3}
        0x00001a02:    b538        8.      PUSH     {r3-r5,lr}
        0x00001a04:    a805        ..      ADD      r0,sp,#0x14
        0x00001a06:    9000        ..      STR      r0,[sp,#0]
        0x00001a08:    4807        .H      LDR      r0,[pc,#28] ; [0x1a28] = 0x10000088
        0x00001a0a:    9a00        ..      LDR      r2,[sp,#0]
        0x00001a0c:    9904        ..      LDR      r1,[sp,#0x10]
        0x00001a0e:    f000f831    ..1.    BL       am_util_stdio_vsprintf ; 0x1a74
        0x00001a12:    4604        .F      MOV      r4,r0
        0x00001a14:    2000        .       MOVS     r0,#0
        0x00001a16:    9000        ..      STR      r0,[sp,#0]
        0x00001a18:    4803        .H      LDR      r0,[pc,#12] ; [0x1a28] = 0x10000088
        0x00001a1a:    4904        .I      LDR      r1,[pc,#16] ; [0x1a2c] = 0x1000006c
        0x00001a1c:    6809        .h      LDR      r1,[r1,#0]
        0x00001a1e:    4788        .G      BLX      r1
        0x00001a20:    4620         F      MOV      r0,r4
        0x00001a22:    bc38        8.      POP      {r3-r5}
        0x00001a24:    f85dfb14    ]...    LDR      pc,[sp],#0x14
    $d
        0x00001a28:    10000088    ....    DCD    268435592
        0x00001a2c:    1000006c    l...    DCD    268435564
    $t
    i.am_util_stdio_printf_init
    am_util_stdio_printf_init
        0x00001a30:    4901        .I      LDR      r1,[pc,#4] ; [0x1a38] = 0x1000006c
        0x00001a32:    6008        .`      STR      r0,[r1,#0]
        0x00001a34:    4770        pG      BX       lr
    $d
        0x00001a36:    0000        ..      DCW    0
        0x00001a38:    1000006c    l...    DCD    268435564
    $t
    i.am_util_stdio_terminal_clear
    am_util_stdio_terminal_clear
        0x00001a3c:    b510        ..      PUSH     {r4,lr}
        0x00001a3e:    a003        ..      ADR      r0,{pc}+0xe ; 0x1a4c
        0x00001a40:    f7ffffde    ....    BL       am_util_stdio_printf ; 0x1a00
        0x00001a44:    a009        ..      ADR      r0,{pc}+0x28 ; 0x1a6c
        0x00001a46:    f7ffffdb    ....    BL       am_util_stdio_printf ; 0x1a00
        0x00001a4a:    bd10        ..      POP      {r4,pc}
    $d
        0x00001a4c:    20202020            DCD    538976288
        0x00001a50:    20202020            DCD    538976288
        0x00001a54:    20202020            DCD    538976288
        0x00001a58:    20202020            DCD    538976288
        0x00001a5c:    20202020            DCD    538976288
        0x00001a60:    20202020            DCD    538976288
        0x00001a64:    20202020            DCD    538976288
        0x00001a68:    00002020      ..    DCD    8224
        0x00001a6c:    4a325b1b    .[2J    DCD    1244814107
        0x00001a70:    00485b1b    .[H.    DCD    4741915
    $t
    i.am_util_stdio_vsprintf
    am_util_stdio_vsprintf
        0x00001a74:    e92d4ff7    -..O    PUSH     {r0-r2,r4-r11,lr}
        0x00001a78:    ed2d8b02    -...    VPUSH    {d8}
        0x00001a7c:    b08a        ..      SUB      sp,sp,#0x28
        0x00001a7e:    4604        .F      MOV      r4,r0
        0x00001a80:    460d        .F      MOV      r5,r1
        0x00001a82:    2600        .&      MOVS     r6,#0
        0x00001a84:    e182        ..      B        0x1d8c ; am_util_stdio_vsprintf + 792
        0x00001a86:    2006        .       MOVS     r0,#6
        0x00001a88:    9004        ..      STR      r0,[sp,#0x10]
        0x00001a8a:    7828        (x      LDRB     r0,[r5,#0]
        0x00001a8c:    2825        %(      CMP      r0,#0x25
        0x00001a8e:    d010        ..      BEQ      0x1ab2 ; am_util_stdio_vsprintf + 62
        0x00001a90:    b164        d.      CBZ      r4,0x1aac ; am_util_stdio_vsprintf + 56
        0x00001a92:    7828        (x      LDRB     r0,[r5,#0]
        0x00001a94:    280a        .(      CMP      r0,#0xa
        0x00001a96:    d106        ..      BNE      0x1aa6 ; am_util_stdio_vsprintf + 50
        0x00001a98:    48c2        .H      LDR      r0,[pc,#776] ; [0x1da4] = 0x10000070
        0x00001a9a:    7800        .x      LDRB     r0,[r0,#0]
        0x00001a9c:    b118        ..      CBZ      r0,0x1aa6 ; am_util_stdio_vsprintf + 50
        0x00001a9e:    200d        .       MOVS     r0,#0xd
        0x00001aa0:    f8040b01    ....    STRB     r0,[r4],#1
        0x00001aa4:    1c76        v.      ADDS     r6,r6,#1
        0x00001aa6:    7828        (x      LDRB     r0,[r5,#0]
        0x00001aa8:    f8040b01    ....    STRB     r0,[r4],#1
        0x00001aac:    1c6d        m.      ADDS     r5,r5,#1
        0x00001aae:    1c76        v.      ADDS     r6,r6,#1
        0x00001ab0:    e16c        l.      B        0x1d8c ; am_util_stdio_vsprintf + 792
        0x00001ab2:    1c6d        m.      ADDS     r5,r5,#1
        0x00001ab4:    2000        .       MOVS     r0,#0
        0x00001ab6:    9001        ..      STR      r0,[sp,#4]
        0x00001ab8:    9002        ..      STR      r0,[sp,#8]
        0x00001aba:    f04f0b20    O. .    MOV      r11,#0x20
        0x00001abe:    7828        (x      LDRB     r0,[r5,#0]
        0x00001ac0:    2830        0(      CMP      r0,#0x30
        0x00001ac2:    d101        ..      BNE      0x1ac8 ; am_util_stdio_vsprintf + 84
        0x00001ac4:    4683        .F      MOV      r11,r0
        0x00001ac6:    1c6d        m.      ADDS     r5,r5,#1
        0x00001ac8:    a905        ..      ADD      r1,sp,#0x14
        0x00001aca:    4628        (F      MOV      r0,r5
        0x00001acc:    f000fa66    ..f.    BL       decstr_to_u ; 0x1f9c
        0x00001ad0:    4682        .F      MOV      r10,r0
        0x00001ad2:    9805        ..      LDR      r0,[sp,#0x14]
        0x00001ad4:    4405        .D      ADD      r5,r5,r0
        0x00001ad6:    7828        (x      LDRB     r0,[r5,#0]
        0x00001ad8:    282e        .(      CMP      r0,#0x2e
        0x00001ada:    d107        ..      BNE      0x1aec ; am_util_stdio_vsprintf + 120
        0x00001adc:    1c6d        m.      ADDS     r5,r5,#1
        0x00001ade:    a905        ..      ADD      r1,sp,#0x14
        0x00001ae0:    4628        (F      MOV      r0,r5
        0x00001ae2:    f000fa5b    ..[.    BL       decstr_to_u ; 0x1f9c
        0x00001ae6:    9004        ..      STR      r0,[sp,#0x10]
        0x00001ae8:    9805        ..      LDR      r0,[sp,#0x14]
        0x00001aea:    4405        .D      ADD      r5,r5,r0
        0x00001aec:    7828        (x      LDRB     r0,[r5,#0]
        0x00001aee:    286c        l(      CMP      r0,#0x6c
        0x00001af0:    d106        ..      BNE      0x1b00 ; am_util_stdio_vsprintf + 140
        0x00001af2:    1c6d        m.      ADDS     r5,r5,#1
        0x00001af4:    7828        (x      LDRB     r0,[r5,#0]
        0x00001af6:    286c        l(      CMP      r0,#0x6c
        0x00001af8:    d102        ..      BNE      0x1b00 ; am_util_stdio_vsprintf + 140
        0x00001afa:    1c6d        m.      ADDS     r5,r5,#1
        0x00001afc:    2001        .       MOVS     r0,#1
        0x00001afe:    9001        ..      STR      r0,[sp,#4]
        0x00001b00:    7828        (x      LDRB     r0,[r5,#0]
        0x00001b02:    2866        f(      CMP      r0,#0x66
        0x00001b04:    d078        x.      BEQ      0x1bf8 ; am_util_stdio_vsprintf + 388
        0x00001b06:    dc08        ..      BGT      0x1b1a ; am_util_stdio_vsprintf + 166
        0x00001b08:    2846        F(      CMP      r0,#0x46
        0x00001b0a:    d076        v.      BEQ      0x1bfa ; am_util_stdio_vsprintf + 390
        0x00001b0c:    2858        X(      CMP      r0,#0x58
        0x00001b0e:    d031        1.      BEQ      0x1b74 ; am_util_stdio_vsprintf + 256
        0x00001b10:    2863        c(      CMP      r0,#0x63
        0x00001b12:    d00b        ..      BEQ      0x1b2c ; am_util_stdio_vsprintf + 184
        0x00001b14:    2864        d(      CMP      r0,#0x64
        0x00001b16:    d171        q.      BNE      0x1bfc ; am_util_stdio_vsprintf + 392
        0x00001b18:    e097        ..      B        0x1c4a ; am_util_stdio_vsprintf + 470
        0x00001b1a:    2869        i(      CMP      r0,#0x69
        0x00001b1c:    d06f        o.      BEQ      0x1bfe ; am_util_stdio_vsprintf + 394
        0x00001b1e:    2873        s(      CMP      r0,#0x73
        0x00001b20:    d010        ..      BEQ      0x1b44 ; am_util_stdio_vsprintf + 208
        0x00001b22:    2875        u(      CMP      r0,#0x75
        0x00001b24:    d05a        Z.      BEQ      0x1bdc ; am_util_stdio_vsprintf + 360
        0x00001b26:    2878        x(      CMP      r0,#0x78
        0x00001b28:    d1f5        ..      BNE      0x1b16 ; am_util_stdio_vsprintf + 162
        0x00001b2a:    e020         .      B        0x1b6e ; am_util_stdio_vsprintf + 250
        0x00001b2c:    980e        ..      LDR      r0,[sp,#0x38]
        0x00001b2e:    f8101b04    ....    LDRB     r1,[r0],#4
        0x00001b32:    900e        ..      STR      r0,[sp,#0x38]
        0x00001b34:    b2c8        ..      UXTB     r0,r1
        0x00001b36:    9003        ..      STR      r0,[sp,#0xc]
        0x00001b38:    b114        ..      CBZ      r4,0x1b40 ; am_util_stdio_vsprintf + 204
        0x00001b3a:    9803        ..      LDR      r0,[sp,#0xc]
        0x00001b3c:    f8040b01    ....    STRB     r0,[r4],#1
        0x00001b40:    1c76        v.      ADDS     r6,r6,#1
        0x00001b42:    e120         .      B        0x1d86 ; am_util_stdio_vsprintf + 786
        0x00001b44:    980e        ..      LDR      r0,[sp,#0x38]
        0x00001b46:    6800        .h      LDR      r0,[r0,#0]
        0x00001b48:    9008        ..      STR      r0,[sp,#0x20]
        0x00001b4a:    980e        ..      LDR      r0,[sp,#0x38]
        0x00001b4c:    1d00        ..      ADDS     r0,r0,#4
        0x00001b4e:    900e        ..      STR      r0,[sp,#0x38]
        0x00001b50:    e008        ..      B        0x1b64 ; am_util_stdio_vsprintf + 240
        0x00001b52:    b11c        ..      CBZ      r4,0x1b5c ; am_util_stdio_vsprintf + 232
        0x00001b54:    9808        ..      LDR      r0,[sp,#0x20]
        0x00001b56:    7800        .x      LDRB     r0,[r0,#0]
        0x00001b58:    f8040b01    ....    STRB     r0,[r4],#1
        0x00001b5c:    9808        ..      LDR      r0,[sp,#0x20]
        0x00001b5e:    1c40        @.      ADDS     r0,r0,#1
        0x00001b60:    9008        ..      STR      r0,[sp,#0x20]
        0x00001b62:    1c76        v.      ADDS     r6,r6,#1
        0x00001b64:    9808        ..      LDR      r0,[sp,#0x20]
        0x00001b66:    7800        .x      LDRB     r0,[r0,#0]
        0x00001b68:    2800        .(      CMP      r0,#0
        0x00001b6a:    d1f2        ..      BNE      0x1b52 ; am_util_stdio_vsprintf + 222
        0x00001b6c:    e10b        ..      B        0x1d86 ; am_util_stdio_vsprintf + 786
        0x00001b6e:    2001        .       MOVS     r0,#1
        0x00001b70:    9002        ..      STR      r0,[sp,#8]
        0x00001b72:    bf00        ..      NOP      
        0x00001b74:    9801        ..      LDR      r0,[sp,#4]
        0x00001b76:    b158        X.      CBZ      r0,0x1b90 ; am_util_stdio_vsprintf + 284
        0x00001b78:    980e        ..      LDR      r0,[sp,#0x38]
        0x00001b7a:    1dc0        ..      ADDS     r0,r0,#7
        0x00001b7c:    f0200007     ...    BIC      r0,r0,#7
        0x00001b80:    4601        .F      MOV      r1,r0
        0x00001b82:    900e        ..      STR      r0,[sp,#0x38]
        0x00001b84:    6800        .h      LDR      r0,[r0,#0]
        0x00001b86:    6849        Ih      LDR      r1,[r1,#4]
        0x00001b88:    9a0e        ..      LDR      r2,[sp,#0x38]
        0x00001b8a:    3208        .2      ADDS     r2,r2,#8
        0x00001b8c:    920e        ..      STR      r2,[sp,#0x38]
        0x00001b8e:    e005        ..      B        0x1b9c ; am_util_stdio_vsprintf + 296
        0x00001b90:    980e        ..      LDR      r0,[sp,#0x38]
        0x00001b92:    6800        .h      LDR      r0,[r0,#0]
        0x00001b94:    990e        ..      LDR      r1,[sp,#0x38]
        0x00001b96:    1d09        ..      ADDS     r1,r1,#4
        0x00001b98:    910e        ..      STR      r1,[sp,#0x38]
        0x00001b9a:    2100        .!      MOVS     r1,#0
        0x00001b9c:    4607        .F      MOV      r7,r0
        0x00001b9e:    4688        .F      MOV      r8,r1
        0x00001ba0:    f1ba0f00    ....    CMP      r10,#0
        0x00001ba4:    d00f        ..      BEQ      0x1bc6 ; am_util_stdio_vsprintf + 338
        0x00001ba6:    4638        8F      MOV      r0,r7
        0x00001ba8:    4641        AF      MOV      r1,r8
        0x00001baa:    f000fcd5    ....    BL       ndigits_in_hex ; 0x2558
        0x00001bae:    ebaa0a00    ....    SUB      r10,r10,r0
        0x00001bb2:    e003        ..      B        0x1bbc ; am_util_stdio_vsprintf + 328
        0x00001bb4:    b10c        ..      CBZ      r4,0x1bba ; am_util_stdio_vsprintf + 326
        0x00001bb6:    f804bb01    ....    STRB     r11,[r4],#1
        0x00001bba:    1c76        v.      ADDS     r6,r6,#1
        0x00001bbc:    f1ba0000    ....    SUBS     r0,r10,#0
        0x00001bc0:    f1aa0a01    ....    SUB      r10,r10,#1
        0x00001bc4:    dcf6        ..      BGT      0x1bb4 ; am_util_stdio_vsprintf + 320
        0x00001bc6:    4622        "F      MOV      r2,r4
        0x00001bc8:    4638        8F      MOV      r0,r7
        0x00001bca:    4641        AF      MOV      r1,r8
        0x00001bcc:    9b02        ..      LDR      r3,[sp,#8]
        0x00001bce:    f000fd4c    ..L.    BL       uint64_to_hexstr ; 0x266a
        0x00001bd2:    4681        .F      MOV      r9,r0
        0x00001bd4:    b104        ..      CBZ      r4,0x1bd8 ; am_util_stdio_vsprintf + 356
        0x00001bd6:    444c        LD      ADD      r4,r4,r9
        0x00001bd8:    444e        ND      ADD      r6,r6,r9
        0x00001bda:    e0d4        ..      B        0x1d86 ; am_util_stdio_vsprintf + 786
        0x00001bdc:    9801        ..      LDR      r0,[sp,#4]
        0x00001bde:    b178        x.      CBZ      r0,0x1c00 ; am_util_stdio_vsprintf + 396
        0x00001be0:    980e        ..      LDR      r0,[sp,#0x38]
        0x00001be2:    1dc0        ..      ADDS     r0,r0,#7
        0x00001be4:    f0200007     ...    BIC      r0,r0,#7
        0x00001be8:    4601        .F      MOV      r1,r0
        0x00001bea:    900e        ..      STR      r0,[sp,#0x38]
        0x00001bec:    6800        .h      LDR      r0,[r0,#0]
        0x00001bee:    6849        Ih      LDR      r1,[r1,#4]
        0x00001bf0:    9a0e        ..      LDR      r2,[sp,#0x38]
        0x00001bf2:    3208        .2      ADDS     r2,r2,#8
        0x00001bf4:    920e        ..      STR      r2,[sp,#0x38]
        0x00001bf6:    e009        ..      B        0x1c0c ; am_util_stdio_vsprintf + 408
        0x00001bf8:    e08c        ..      B        0x1d14 ; am_util_stdio_vsprintf + 672
        0x00001bfa:    e08c        ..      B        0x1d16 ; am_util_stdio_vsprintf + 674
        0x00001bfc:    e0bd        ..      B        0x1d7a ; am_util_stdio_vsprintf + 774
        0x00001bfe:    e025        %.      B        0x1c4c ; am_util_stdio_vsprintf + 472
        0x00001c00:    980e        ..      LDR      r0,[sp,#0x38]
        0x00001c02:    6800        .h      LDR      r0,[r0,#0]
        0x00001c04:    990e        ..      LDR      r1,[sp,#0x38]
        0x00001c06:    1d09        ..      ADDS     r1,r1,#4
        0x00001c08:    910e        ..      STR      r1,[sp,#0x38]
        0x00001c0a:    2100        .!      MOVS     r1,#0
        0x00001c0c:    4607        .F      MOV      r7,r0
        0x00001c0e:    4688        .F      MOV      r8,r1
        0x00001c10:    f1ba0f00    ....    CMP      r10,#0
        0x00001c14:    d00f        ..      BEQ      0x1c36 ; am_util_stdio_vsprintf + 450
        0x00001c16:    4638        8F      MOV      r0,r7
        0x00001c18:    4641        AF      MOV      r1,r8
        0x00001c1a:    f000fcc9    ....    BL       ndigits_in_u64 ; 0x25b0
        0x00001c1e:    ebaa0a00    ....    SUB      r10,r10,r0
        0x00001c22:    e003        ..      B        0x1c2c ; am_util_stdio_vsprintf + 440
        0x00001c24:    b10c        ..      CBZ      r4,0x1c2a ; am_util_stdio_vsprintf + 438
        0x00001c26:    f804bb01    ....    STRB     r11,[r4],#1
        0x00001c2a:    1c76        v.      ADDS     r6,r6,#1
        0x00001c2c:    f1ba0000    ....    SUBS     r0,r10,#0
        0x00001c30:    f1aa0a01    ....    SUB      r10,r10,#1
        0x00001c34:    dcf6        ..      BGT      0x1c24 ; am_util_stdio_vsprintf + 432
        0x00001c36:    4622        "F      MOV      r2,r4
        0x00001c38:    4638        8F      MOV      r0,r7
        0x00001c3a:    4641        AF      MOV      r1,r8
        0x00001c3c:    f000fd5a    ..Z.    BL       uint64_to_str ; 0x26f4
        0x00001c40:    4681        .F      MOV      r9,r0
        0x00001c42:    b104        ..      CBZ      r4,0x1c46 ; am_util_stdio_vsprintf + 466
        0x00001c44:    444c        LD      ADD      r4,r4,r9
        0x00001c46:    444e        ND      ADD      r6,r6,r9
        0x00001c48:    e09d        ..      B        0x1d86 ; am_util_stdio_vsprintf + 786
        0x00001c4a:    bf00        ..      NOP      
        0x00001c4c:    9801        ..      LDR      r0,[sp,#4]
        0x00001c4e:    b158        X.      CBZ      r0,0x1c68 ; am_util_stdio_vsprintf + 500
        0x00001c50:    980e        ..      LDR      r0,[sp,#0x38]
        0x00001c52:    1dc0        ..      ADDS     r0,r0,#7
        0x00001c54:    f0200007     ...    BIC      r0,r0,#7
        0x00001c58:    4601        .F      MOV      r1,r0
        0x00001c5a:    900e        ..      STR      r0,[sp,#0x38]
        0x00001c5c:    6800        .h      LDR      r0,[r0,#0]
        0x00001c5e:    6849        Ih      LDR      r1,[r1,#4]
        0x00001c60:    9a0e        ..      LDR      r2,[sp,#0x38]
        0x00001c62:    3208        .2      ADDS     r2,r2,#8
        0x00001c64:    920e        ..      STR      r2,[sp,#0x38]
        0x00001c66:    e005        ..      B        0x1c74 ; am_util_stdio_vsprintf + 512
        0x00001c68:    980e        ..      LDR      r0,[sp,#0x38]
        0x00001c6a:    6800        .h      LDR      r0,[r0,#0]
        0x00001c6c:    990e        ..      LDR      r1,[sp,#0x38]
        0x00001c6e:    1d09        ..      ADDS     r1,r1,#4
        0x00001c70:    910e        ..      STR      r1,[sp,#0x38]
        0x00001c72:    17c1        ..      ASRS     r1,r0,#31
        0x00001c74:    e9cd0106    ....    STRD     r0,r1,[sp,#0x18]
        0x00001c78:    2300        .#      MOVS     r3,#0
        0x00001c7a:    e9dd0106    ....    LDRD     r0,r1,[sp,#0x18]
        0x00001c7e:    1ac0        ..      SUBS     r0,r0,r3
        0x00001c80:    4199        .A      SBCS     r1,r1,r3
        0x00001c82:    da08        ..      BGE      0x1c96 ; am_util_stdio_vsprintf + 546
        0x00001c84:    2200        ."      MOVS     r2,#0
        0x00001c86:    e9dd1006    ....    LDRD     r1,r0,[sp,#0x18]
        0x00001c8a:    424f        OB      RSBS     r7,r1,#0
        0x00001c8c:    eb620800    b...    SBC      r8,r2,r0
        0x00001c90:    2001        .       MOVS     r0,#1
        0x00001c92:    9000        ..      STR      r0,[sp,#0]
        0x00001c94:    e003        ..      B        0x1c9e ; am_util_stdio_vsprintf + 554
        0x00001c96:    e9dd7806    ...x    LDRD     r7,r8,[sp,#0x18]
        0x00001c9a:    2000        .       MOVS     r0,#0
        0x00001c9c:    9000        ..      STR      r0,[sp,#0]
        0x00001c9e:    f1ba0f00    ....    CMP      r10,#0
        0x00001ca2:    d026        &.      BEQ      0x1cf2 ; am_util_stdio_vsprintf + 638
        0x00001ca4:    4638        8F      MOV      r0,r7
        0x00001ca6:    4641        AF      MOV      r1,r8
        0x00001ca8:    f000fc70    ..p.    BL       ndigits_in_i64 ; 0x258c
        0x00001cac:    ebaa0a00    ....    SUB      r10,r10,r0
        0x00001cb0:    9800        ..      LDR      r0,[sp,#0]
        0x00001cb2:    b148        H.      CBZ      r0,0x1cc8 ; am_util_stdio_vsprintf + 596
        0x00001cb4:    f1aa0a01    ....    SUB      r10,r10,#1
        0x00001cb8:    f1bb0f30    ..0.    CMP      r11,#0x30
        0x00001cbc:    d104        ..      BNE      0x1cc8 ; am_util_stdio_vsprintf + 596
        0x00001cbe:    b114        ..      CBZ      r4,0x1cc6 ; am_util_stdio_vsprintf + 594
        0x00001cc0:    202d        -       MOVS     r0,#0x2d
        0x00001cc2:    f8040b01    ....    STRB     r0,[r4],#1
        0x00001cc6:    1c76        v.      ADDS     r6,r6,#1
        0x00001cc8:    e003        ..      B        0x1cd2 ; am_util_stdio_vsprintf + 606
        0x00001cca:    b10c        ..      CBZ      r4,0x1cd0 ; am_util_stdio_vsprintf + 604
        0x00001ccc:    f804bb01    ....    STRB     r11,[r4],#1
        0x00001cd0:    1c76        v.      ADDS     r6,r6,#1
        0x00001cd2:    f1ba0000    ....    SUBS     r0,r10,#0
        0x00001cd6:    f1aa0a01    ....    SUB      r10,r10,#1
        0x00001cda:    dcf6        ..      BGT      0x1cca ; am_util_stdio_vsprintf + 598
        0x00001cdc:    9800        ..      LDR      r0,[sp,#0]
        0x00001cde:    b178        x.      CBZ      r0,0x1d00 ; am_util_stdio_vsprintf + 652
        0x00001ce0:    f1bb0f20    .. .    CMP      r11,#0x20
        0x00001ce4:    d10c        ..      BNE      0x1d00 ; am_util_stdio_vsprintf + 652
        0x00001ce6:    b114        ..      CBZ      r4,0x1cee ; am_util_stdio_vsprintf + 634
        0x00001ce8:    202d        -       MOVS     r0,#0x2d
        0x00001cea:    f8040b01    ....    STRB     r0,[r4],#1
        0x00001cee:    1c76        v.      ADDS     r6,r6,#1
        0x00001cf0:    e006        ..      B        0x1d00 ; am_util_stdio_vsprintf + 652
        0x00001cf2:    9800        ..      LDR      r0,[sp,#0]
        0x00001cf4:    b120         .      CBZ      r0,0x1d00 ; am_util_stdio_vsprintf + 652
        0x00001cf6:    b114        ..      CBZ      r4,0x1cfe ; am_util_stdio_vsprintf + 650
        0x00001cf8:    202d        -       MOVS     r0,#0x2d
        0x00001cfa:    f8040b01    ....    STRB     r0,[r4],#1
        0x00001cfe:    1c76        v.      ADDS     r6,r6,#1
        0x00001d00:    4622        "F      MOV      r2,r4
        0x00001d02:    4638        8F      MOV      r0,r7
        0x00001d04:    4641        AF      MOV      r1,r8
        0x00001d06:    f000fcf5    ....    BL       uint64_to_str ; 0x26f4
        0x00001d0a:    4681        .F      MOV      r9,r0
        0x00001d0c:    b104        ..      CBZ      r4,0x1d10 ; am_util_stdio_vsprintf + 668
        0x00001d0e:    444c        LD      ADD      r4,r4,r9
        0x00001d10:    444e        ND      ADD      r6,r6,r9
        0x00001d12:    e038        8.      B        0x1d86 ; am_util_stdio_vsprintf + 786
        0x00001d14:    bf00        ..      NOP      
        0x00001d16:    b37c        |.      CBZ      r4,0x1d78 ; am_util_stdio_vsprintf + 772
        0x00001d18:    980e        ..      LDR      r0,[sp,#0x38]
        0x00001d1a:    1dc0        ..      ADDS     r0,r0,#7
        0x00001d1c:    f0200007     ...    BIC      r0,r0,#7
        0x00001d20:    900e        ..      STR      r0,[sp,#0x38]
        0x00001d22:    ecb01b02    ....    VLDM     r0!,{d1}
        0x00001d26:    eeb00a41    ..A.    VMOV.F32 s0,s2
        0x00001d2a:    eef00a61    ..a.    VMOV.F32 s1,s3
        0x00001d2e:    900e        ..      STR      r0,[sp,#0x38]
        0x00001d30:    ec510b10    Q...    VMOV     r0,r1,d0
        0x00001d34:    f000fd16    ....    BL       __aeabi_d2f ; 0x2764
        0x00001d38:    ee080a10    ....    VMOV     s16,r0
        0x00001d3c:    2014        .       MOVS     r0,#0x14
        0x00001d3e:    6020         `      STR      r0,[r4,#0]
        0x00001d40:    4620         F      MOV      r0,r4
        0x00001d42:    eeb00a48    ..H.    VMOV.F32 s0,s16
        0x00001d46:    9904        ..      LDR      r1,[sp,#0x10]
        0x00001d48:    f000f9a4    ....    BL       ftoa ; 0x2094
        0x00001d4c:    4681        .F      MOV      r9,r0
        0x00001d4e:    f1b90f00    ....    CMP      r9,#0
        0x00001d52:    da0e        ..      BGE      0x1d72 ; am_util_stdio_vsprintf + 766
        0x00001d54:    f1090101    ....    ADD      r1,r9,#1
        0x00001d58:    b909        ..      CBNZ     r1,0x1d5e ; am_util_stdio_vsprintf + 746
        0x00001d5a:    4813        .H      LDR      r0,[pc,#76] ; [0x1da8] = 0x302e30
        0x00001d5c:    e005        ..      B        0x1d6a ; am_util_stdio_vsprintf + 758
        0x00001d5e:    f1090102    ....    ADD      r1,r9,#2
        0x00001d62:    b909        ..      CBNZ     r1,0x1d68 ; am_util_stdio_vsprintf + 756
        0x00001d64:    4811        .H      LDR      r0,[pc,#68] ; [0x1dac] = 0x232e23
        0x00001d66:    e000        ..      B        0x1d6a ; am_util_stdio_vsprintf + 758
        0x00001d68:    4811        .H      LDR      r0,[pc,#68] ; [0x1db0] = 0x3f2e3f
        0x00001d6a:    6020         `      STR      r0,[r4,#0]
        0x00001d6c:    f04f0903    O...    MOV      r9,#3
        0x00001d70:    bf00        ..      NOP      
        0x00001d72:    444e        ND      ADD      r6,r6,r9
        0x00001d74:    444c        LD      ADD      r4,r4,r9
        0x00001d76:    bf00        ..      NOP      
        0x00001d78:    e005        ..      B        0x1d86 ; am_util_stdio_vsprintf + 786
        0x00001d7a:    b114        ..      CBZ      r4,0x1d82 ; am_util_stdio_vsprintf + 782
        0x00001d7c:    7828        (x      LDRB     r0,[r5,#0]
        0x00001d7e:    f8040b01    ....    STRB     r0,[r4],#1
        0x00001d82:    1c76        v.      ADDS     r6,r6,#1
        0x00001d84:    bf00        ..      NOP      
        0x00001d86:    bf00        ..      NOP      
        0x00001d88:    1c6d        m.      ADDS     r5,r5,#1
        0x00001d8a:    bf00        ..      NOP      
        0x00001d8c:    7828        (x      LDRB     r0,[r5,#0]
        0x00001d8e:    2800        .(      CMP      r0,#0
        0x00001d90:    f47fae79    ..y.    BNE      0x1a86 ; am_util_stdio_vsprintf + 18
        0x00001d94:    b104        ..      CBZ      r4,0x1d98 ; am_util_stdio_vsprintf + 804
        0x00001d96:    7020         p      STRB     r0,[r4,#0]
        0x00001d98:    4630        0F      MOV      r0,r6
        0x00001d9a:    b00a        ..      ADD      sp,sp,#0x28
        0x00001d9c:    ecbd8b02    ....    VPOP     {d8}
        0x00001da0:    e8bd8ffe    ....    POP      {r1-r11,pc}
    $d
        0x00001da4:    10000070    p...    DCD    268435568
        0x00001da8:    00302e30    0.0.    DCD    3157552
        0x00001dac:    00232e23    #.#.    DCD    2305571
        0x00001db0:    003f2e3f    ?.?.    DCD    4140607
    $t
    i.am_util_string_strnicmp
    am_util_string_strnicmp
        0x00001db4:    b530        0.      PUSH     {r4,r5,lr}
        0x00001db6:    4603        .F      MOV      r3,r0
        0x00001db8:    4615        .F      MOV      r5,r2
        0x00001dba:    e01a        ..      B        0x1df2 ; am_util_string_strnicmp + 62
        0x00001dbc:    781a        .x      LDRB     r2,[r3,#0]
        0x00001dbe:    780c        .x      LDRB     r4,[r1,#0]
        0x00001dc0:    4810        .H      LDR      r0,[pc,#64] ; [0x1e04] = 0x2876
        0x00001dc2:    5c80        .\      LDRB     r0,[r0,r2]
        0x00001dc4:    f0000004    ....    AND      r0,r0,#4
        0x00001dc8:    b108        ..      CBZ      r0,0x1dce ; am_util_string_strnicmp + 26
        0x00001dca:    2020                MOVS     r0,#0x20
        0x00001dcc:    e000        ..      B        0x1dd0 ; am_util_string_strnicmp + 28
        0x00001dce:    2000        .       MOVS     r0,#0
        0x00001dd0:    4302        .C      ORRS     r2,r2,r0
        0x00001dd2:    480c        .H      LDR      r0,[pc,#48] ; [0x1e04] = 0x2876
        0x00001dd4:    5d00        .]      LDRB     r0,[r0,r4]
        0x00001dd6:    f0000004    ....    AND      r0,r0,#4
        0x00001dda:    b108        ..      CBZ      r0,0x1de0 ; am_util_string_strnicmp + 44
        0x00001ddc:    2020                MOVS     r0,#0x20
        0x00001dde:    e000        ..      B        0x1de2 ; am_util_string_strnicmp + 46
        0x00001de0:    2000        .       MOVS     r0,#0
        0x00001de2:    4304        .C      ORRS     r4,r4,r0
        0x00001de4:    42a2        .B      CMP      r2,r4
        0x00001de6:    d001        ..      BEQ      0x1dec ; am_util_string_strnicmp + 56
        0x00001de8:    1b10        ..      SUBS     r0,r2,r4
        0x00001dea:    bd30        0.      POP      {r4,r5,pc}
        0x00001dec:    1c5b        [.      ADDS     r3,r3,#1
        0x00001dee:    1c49        I.      ADDS     r1,r1,#1
        0x00001df0:    1e6d        m.      SUBS     r5,r5,#1
        0x00001df2:    7818        .x      LDRB     r0,[r3,#0]
        0x00001df4:    b118        ..      CBZ      r0,0x1dfe ; am_util_string_strnicmp + 74
        0x00001df6:    7808        .x      LDRB     r0,[r1,#0]
        0x00001df8:    b108        ..      CBZ      r0,0x1dfe ; am_util_string_strnicmp + 74
        0x00001dfa:    2d00        .-      CMP      r5,#0
        0x00001dfc:    d1de        ..      BNE      0x1dbc ; am_util_string_strnicmp + 8
        0x00001dfe:    2000        .       MOVS     r0,#0
        0x00001e00:    e7f3        ..      B        0x1dea ; am_util_string_strnicmp + 54
    $d
        0x00001e02:    0000        ..      DCW    0
        0x00001e04:    00002876    v(..    DCD    10358
    $t
    i.am_util_time_computeDayofWeek
    am_util_time_computeDayofWeek
        0x00001e08:    b5f0        ..      PUSH     {r4-r7,lr}
        0x00001e0a:    4603        .F      MOV      r3,r0
        0x00001e0c:    460c        .F      MOV      r4,r1
        0x00001e0e:    4615        .F      MOV      r5,r2
        0x00001e10:    2c01        .,      CMP      r4,#1
        0x00001e12:    db09        ..      BLT      0x1e28 ; am_util_time_computeDayofWeek + 32
        0x00001e14:    2c0c        .,      CMP      r4,#0xc
        0x00001e16:    dc07        ..      BGT      0x1e28 ; am_util_time_computeDayofWeek + 32
        0x00001e18:    f5b36ffa    ...o    CMP      r3,#0x7d0
        0x00001e1c:    db04        ..      BLT      0x1e28 ; am_util_time_computeDayofWeek + 32
        0x00001e1e:    f5b36f16    ...o    CMP      r3,#0x960
        0x00001e22:    da01        ..      BGE      0x1e28 ; am_util_time_computeDayofWeek + 32
        0x00001e24:    2d01        .-      CMP      r5,#1
        0x00001e26:    da01        ..      BGE      0x1e2c ; am_util_time_computeDayofWeek + 36
        0x00001e28:    2007        .       MOVS     r0,#7
        0x00001e2a:    bdf0        ..      POP      {r4-r7,pc}
        0x00001e2c:    2c02        .,      CMP      r4,#2
        0x00001e2e:    d10c        ..      BNE      0x1e4a ; am_util_time_computeDayofWeek + 66
        0x00001e30:    2d1c        .-      CMP      r5,#0x1c
        0x00001e32:    dd0a        ..      BLE      0x1e4a ; am_util_time_computeDayofWeek + 66
        0x00001e34:    2d1d        .-      CMP      r5,#0x1d
        0x00001e36:    dc06        ..      BGT      0x1e46 ; am_util_time_computeDayofWeek + 62
        0x00001e38:    17de        ..      ASRS     r6,r3,#31
        0x00001e3a:    eb037696    ...v    ADD      r6,r3,r6,LSR #30
        0x00001e3e:    10b6        ..      ASRS     r6,r6,#2
        0x00001e40:    eba30686    ....    SUB      r6,r3,r6,LSL #2
        0x00001e44:    b10e        ..      CBZ      r6,0x1e4a ; am_util_time_computeDayofWeek + 66
        0x00001e46:    2007        .       MOVS     r0,#7
        0x00001e48:    e7ef        ..      B        0x1e2a ; am_util_time_computeDayofWeek + 34
        0x00001e4a:    1e64        d.      SUBS     r4,r4,#1
        0x00001e4c:    1e6d        m.      SUBS     r5,r5,#1
        0x00001e4e:    462a        *F      MOV      r2,r5
        0x00001e50:    2100        .!      MOVS     r1,#0
        0x00001e52:    e025        %.      B        0x1ea0 ; am_util_time_computeDayofWeek + 152
        0x00001e54:    290c        .)      CMP      r1,#0xc
        0x00001e56:    d221        !.      BCS      0x1e9c ; am_util_time_computeDayofWeek + 148
        0x00001e58:    e8dff001    ....    TBB      [pc,r1]
    $d
        0x00001e5c:    060c130b    ....    DCD    101454603
        0x00001e60:    0f0e070d    ....    DCD    252577549
        0x00001e64:    11091008    ....    DCD    285806600
    $t
        0x00001e68:    bf00        ..      NOP      
        0x00001e6a:    bf00        ..      NOP      
        0x00001e6c:    bf00        ..      NOP      
        0x00001e6e:    321e        .2      ADDS     r2,r2,#0x1e
        0x00001e70:    e014        ..      B        0x1e9c ; am_util_time_computeDayofWeek + 148
        0x00001e72:    bf00        ..      NOP      
        0x00001e74:    bf00        ..      NOP      
        0x00001e76:    bf00        ..      NOP      
        0x00001e78:    bf00        ..      NOP      
        0x00001e7a:    bf00        ..      NOP      
        0x00001e7c:    bf00        ..      NOP      
        0x00001e7e:    321f        .2      ADDS     r2,r2,#0x1f
        0x00001e80:    e00c        ..      B        0x1e9c ; am_util_time_computeDayofWeek + 148
        0x00001e82:    4618        .F      MOV      r0,r3
        0x00001e84:    17de        ..      ASRS     r6,r3,#31
        0x00001e86:    eb037696    ...v    ADD      r6,r3,r6,LSR #30
        0x00001e8a:    10b6        ..      ASRS     r6,r6,#2
        0x00001e8c:    eba30686    ....    SUB      r6,r3,r6,LSL #2
        0x00001e90:    b10e        ..      CBZ      r6,0x1e96 ; am_util_time_computeDayofWeek + 142
        0x00001e92:    261c        .&      MOVS     r6,#0x1c
        0x00001e94:    e000        ..      B        0x1e98 ; am_util_time_computeDayofWeek + 144
        0x00001e96:    261d        .&      MOVS     r6,#0x1d
        0x00001e98:    4432        2D      ADD      r2,r2,r6
        0x00001e9a:    bf00        ..      NOP      
        0x00001e9c:    bf00        ..      NOP      
        0x00001e9e:    1c49        I.      ADDS     r1,r1,#1
        0x00001ea0:    42a1        .B      CMP      r1,r4
        0x00001ea2:    dbd7        ..      BLT      0x1e54 ; am_util_time_computeDayofWeek + 76
        0x00001ea4:    f44f61fa    O..a    MOV      r1,#0x7d0
        0x00001ea8:    e00e        ..      B        0x1ec8 ; am_util_time_computeDayofWeek + 192
        0x00001eaa:    4608        .F      MOV      r0,r1
        0x00001eac:    17ce        ..      ASRS     r6,r1,#31
        0x00001eae:    eb017696    ...v    ADD      r6,r1,r6,LSR #30
        0x00001eb2:    10b6        ..      ASRS     r6,r6,#2
        0x00001eb4:    eba10686    ....    SUB      r6,r1,r6,LSL #2
        0x00001eb8:    b116        ..      CBZ      r6,0x1ec0 ; am_util_time_computeDayofWeek + 184
        0x00001eba:    f240166d    @.m.    MOV      r6,#0x16d
        0x00001ebe:    e001        ..      B        0x1ec4 ; am_util_time_computeDayofWeek + 188
        0x00001ec0:    f44f76b7    O..v    MOV      r6,#0x16e
        0x00001ec4:    4432        2D      ADD      r2,r2,r6
        0x00001ec6:    1c49        I.      ADDS     r1,r1,#1
        0x00001ec8:    4299        .B      CMP      r1,r3
        0x00001eca:    dbee        ..      BLT      0x1eaa ; am_util_time_computeDayofWeek + 162
        0x00001ecc:    1d90        ..      ADDS     r0,r2,#6
        0x00001ece:    2607        .&      MOVS     r6,#7
        0x00001ed0:    fb90f7f6    ....    SDIV     r7,r0,r6
        0x00001ed4:    fb060017    ....    MLS      r0,r6,r7,r0
        0x00001ed8:    e7a7        ..      B        0x1e2a ; am_util_time_computeDayofWeek + 34
        0x00001eda:    0000        ..      MOVS     r0,r0
    i.configure_amx8x5_pins
    configure_amx8x5_pins
        0x00001edc:    b510        ..      PUSH     {r4,lr}
        0x00001ede:    2001        .       MOVS     r0,#1
        0x00001ee0:    f7fef9ce    ....    BL       am_bsp_iom_i2c_pins_enable ; 0x280
        0x00001ee4:    bf00        ..      NOP      
        0x00001ee6:    2073        s       MOVS     r0,#0x73
        0x00001ee8:    491f        .I      LDR      r1,[pc,#124] ; [0x1f68] = 0x40010000
        0x00001eea:    6608        .f      STR      r0,[r1,#0x60]
        0x00001eec:    4608        .F      MOV      r0,r1
        0x00001eee:    6d40        @m      LDR      r0,[r0,#0x54]
        0x00001ef0:    f0200007     ...    BIC      r0,r0,#7
        0x00001ef4:    f0400002    @...    ORR      r0,r0,#2
        0x00001ef8:    6548        He      STR      r0,[r1,#0x54]
        0x00001efa:    4608        .F      MOV      r0,r1
        0x00001efc:    6a80        .j      LDR      r0,[r0,#0x28]
        0x00001efe:    f02000ff     ...    BIC      r0,r0,#0xff
        0x00001f02:    f0400018    @...    ORR      r0,r0,#0x18
        0x00001f06:    6288        .b      STR      r0,[r1,#0x28]
        0x00001f08:    2000        .       MOVS     r0,#0
        0x00001f0a:    6608        .f      STR      r0,[r1,#0x60]
        0x00001f0c:    bf00        ..      NOP      
        0x00001f0e:    1588        ..      ASRS     r0,r1,#22
        0x00001f10:    4915        .I      LDR      r1,[pc,#84] ; [0x1f68] = 0x40010000
        0x00001f12:    3194        .1      ADDS     r1,r1,#0x94
        0x00001f14:    6008        .`      STR      r0,[r1,#0]
        0x00001f16:    bf00        ..      NOP      
        0x00001f18:    2073        s       MOVS     r0,#0x73
        0x00001f1a:    4913        .I      LDR      r1,[pc,#76] ; [0x1f68] = 0x40010000
        0x00001f1c:    6608        .f      STR      r0,[r1,#0x60]
        0x00001f1e:    4608        .F      MOV      r0,r1
        0x00001f20:    6c40        @l      LDR      r0,[r0,#0x44]
        0x00001f22:    f02040e0     ..@    BIC      r0,r0,#0x70000000
        0x00001f26:    6448        Hd      STR      r0,[r1,#0x44]
        0x00001f28:    4608        .F      MOV      r0,r1
        0x00001f2a:    68c0        .h      LDR      r0,[r0,#0xc]
        0x00001f2c:    f020407f     ..@    BIC      r0,r0,#0xff000000
        0x00001f30:    f04050d0    @..P    ORR      r0,r0,#0x1a000000
        0x00001f34:    60c8        .`      STR      r0,[r1,#0xc]
        0x00001f36:    2000        .       MOVS     r0,#0
        0x00001f38:    6608        .f      STR      r0,[r1,#0x60]
        0x00001f3a:    bf00        ..      NOP      
        0x00001f3c:    bf00        ..      NOP      
        0x00001f3e:    2073        s       MOVS     r0,#0x73
        0x00001f40:    6608        .f      STR      r0,[r1,#0x60]
        0x00001f42:    4608        .F      MOV      r0,r1
        0x00001f44:    6c40        @l      LDR      r0,[r0,#0x44]
        0x00001f46:    f0404000    @..@    ORR      r0,r0,#0x80000000
        0x00001f4a:    6448        Hd      STR      r0,[r1,#0x44]
        0x00001f4c:    2000        .       MOVS     r0,#0
        0x00001f4e:    6608        .f      STR      r0,[r1,#0x60]
        0x00001f50:    bf00        ..      NOP      
        0x00001f52:    f44f4000    O..@    MOV      r0,#0x8000
        0x00001f56:    2100        .!      MOVS     r1,#0
        0x00001f58:    f7fefd04    ....    BL       am_hal_gpio_int_clear ; 0x964
        0x00001f5c:    f44f4000    O..@    MOV      r0,#0x8000
        0x00001f60:    2100        .!      MOVS     r1,#0
        0x00001f62:    f7fefd07    ....    BL       am_hal_gpio_int_enable ; 0x974
        0x00001f66:    bd10        ..      POP      {r4,pc}
    $d
        0x00001f68:    40010000    ...@    DCD    1073807360
    $t
    i.countdown_start
    countdown_start
        0x00001f6c:    b508        ..      PUSH     {r3,lr}
        0x00001f6e:    2001        .       MOVS     r0,#1
        0x00001f70:    f7feff44    ..D.    BL       am_hal_iom_enable ; 0xdfc
        0x00001f74:    f000fae8    ....    BL       mux_enable ; 0x2548
        0x00001f78:    2002        .       MOVS     r0,#2
        0x00001f7a:    2300        .#      MOVS     r3,#0
        0x00001f7c:    4a05        .J      LDR      r2,[pc,#20] ; [0x1f94] = 0x7a120
        0x00001f7e:    4619        .F      MOV      r1,r3
        0x00001f80:    9000        ..      STR      r0,[sp,#0]
        0x00001f82:    4805        .H      LDR      r0,[pc,#20] ; [0x1f98] = 0x1000005c
        0x00001f84:    f7fef9bc    ....    BL       am_devices_amx8x5_countdown_set ; 0x300
        0x00001f88:    2001        .       MOVS     r0,#1
        0x00001f8a:    f7fefef3    ....    BL       am_hal_iom_disable ; 0xd74
        0x00001f8e:    f000fad3    ....    BL       mux_disable ; 0x2538
        0x00001f92:    bd08        ..      POP      {r3,pc}
    $d
        0x00001f94:    0007a120     ...    DCD    500000
        0x00001f98:    1000005c    \...    DCD    268435548
    $t
    i.decstr_to_u
    decstr_to_u
        0x00001f9c:    b510        ..      PUSH     {r4,lr}
        0x00001f9e:    4602        .F      MOV      r2,r0
        0x00001fa0:    2000        .       MOVS     r0,#0
        0x00001fa2:    2300        .#      MOVS     r3,#0
        0x00001fa4:    e007        ..      B        0x1fb6 ; decstr_to_u + 26
        0x00001fa6:    1c5b        [.      ADDS     r3,r3,#1
        0x00001fa8:    eb000480    ....    ADD      r4,r0,r0,LSL #2
        0x00001fac:    0060        `.      LSLS     r0,r4,#1
        0x00001fae:    7814        .x      LDRB     r4,[r2,#0]
        0x00001fb0:    3c30        0<      SUBS     r4,r4,#0x30
        0x00001fb2:    4420         D      ADD      r0,r0,r4
        0x00001fb4:    1c52        R.      ADDS     r2,r2,#1
        0x00001fb6:    7814        .x      LDRB     r4,[r2,#0]
        0x00001fb8:    2c30        0,      CMP      r4,#0x30
        0x00001fba:    db02        ..      BLT      0x1fc2 ; decstr_to_u + 38
        0x00001fbc:    7814        .x      LDRB     r4,[r2,#0]
        0x00001fbe:    2c39        9,      CMP      r4,#0x39
        0x00001fc0:    ddf1        ..      BLE      0x1fa6 ; decstr_to_u + 10
        0x00001fc2:    b101        ..      CBZ      r1,0x1fc6 ; decstr_to_u + 42
        0x00001fc4:    600b        .`      STR      r3,[r1,#0]
        0x00001fc6:    bd10        ..      POP      {r4,pc}
    i.divu64_10
    divu64_10
        0x00001fc8:    e92d4ff0    -..O    PUSH     {r4-r11,lr}
        0x00001fcc:    4604        .F      MOV      r4,r0
        0x00001fce:    460d        .F      MOV      r5,r1
        0x00001fd0:    2000        .       MOVS     r0,#0
        0x00001fd2:    ea850100    ....    EOR      r1,r5,r0
        0x00001fd6:    4040        @@      EORS     r0,r0,r0
        0x00001fd8:    4301        .C      ORRS     r1,r1,r0
        0x00001fda:    d044        D.      BEQ      0x2066 ; divu64_10 + 158
        0x00001fdc:    ea5f0a55    _.U.    LSRS     r10,r5,#1
        0x00001fe0:    ea4f0134    O.4.    RRX      r1,r4
        0x00001fe4:    ea4f0b94    O...    LSR      r11,r4,#2
        0x00001fe8:    ea4b7085    K..p    ORR      r0,r11,r5,LSL #30
        0x00001fec:    180a        ..      ADDS     r2,r1,r0
        0x00001fee:    eb4a0395    J...    ADC      r3,r10,r5,LSR #2
        0x00001ff2:    ea4f1012    O...    LSR      r0,r2,#4
        0x00001ff6:    ea407a03    @..z    ORR      r10,r0,r3,LSL #28
        0x00001ffa:    eb1a0202    ....    ADDS     r2,r10,r2
        0x00001ffe:    eb431313    C...    ADC      r3,r3,r3,LSR #4
        0x00002002:    ea4f2012    O..     LSR      r0,r2,#8
        0x00002006:    ea406a03    @..j    ORR      r10,r0,r3,LSL #24
        0x0000200a:    eb1a0202    ....    ADDS     r2,r10,r2
        0x0000200e:    eb432313    C..#    ADC      r3,r3,r3,LSR #8
        0x00002012:    ea4f4012    O..@    LSR      r0,r2,#16
        0x00002016:    ea404a03    @..J    ORR      r10,r0,r3,LSL #16
        0x0000201a:    eb1a0202    ....    ADDS     r2,r10,r2
        0x0000201e:    eb434313    C..C    ADC      r3,r3,r3,LSR #16
        0x00002022:    189a        ..      ADDS     r2,r3,r2
        0x00002024:    f1430300    C...    ADC      r3,r3,#0
        0x00002028:    08d0        ..      LSRS     r0,r2,#3
        0x0000202a:    ea407243    @.Cr    ORR      r2,r0,r3,LSL #29
        0x0000202e:    08db        ..      LSRS     r3,r3,#3
        0x00002030:    210a        .!      MOVS     r1,#0xa
        0x00002032:    f04f0a00    O...    MOV      r10,#0
        0x00002036:    fba20b01    ....    UMULL    r0,r11,r2,r1
        0x0000203a:    fb03b101    ....    MLA      r1,r3,r1,r11
        0x0000203e:    fb02110a    ....    MLA      r1,r2,r10,r1
        0x00002042:    1a26        &.      SUBS     r6,r4,r0
        0x00002044:    eb650701    e...    SBC      r7,r5,r1
        0x00002048:    2106        .!      MOVS     r1,#6
        0x0000204a:    eb160a01    ....    ADDS     r10,r6,r1
        0x0000204e:    f1470100    G...    ADC      r1,r7,#0
        0x00002052:    ea4f101a    O...    LSR      r0,r10,#4
        0x00002056:    ea407a01    @..z    ORR      r10,r0,r1,LSL #28
        0x0000205a:    eb1a0002    ....    ADDS     r0,r10,r2
        0x0000205e:    eb431111    C...    ADC      r1,r3,r1,LSR #4
        0x00002062:    e8bd8ff0    ....    POP      {r4-r11,pc}
        0x00002066:    46a0        .F      MOV      r8,r4
        0x00002068:    ea4f0058    O.X.    LSR      r0,r8,#1
        0x0000206c:    eb000c98    ....    ADD      r12,r0,r8,LSR #2
        0x00002070:    eb0c1c1c    ....    ADD      r12,r12,r12,LSR #4
        0x00002074:    eb0c2c1c    ...,    ADD      r12,r12,r12,LSR #8
        0x00002078:    eb0c4c1c    ...L    ADD      r12,r12,r12,LSR #16
        0x0000207c:    ea4f0cdc    O...    LSR      r12,r12,#3
        0x00002080:    eb0c008c    ....    ADD      r0,r12,r12,LSL #2
        0x00002084:    eba80940    ..@.    SUB      r9,r8,r0,LSL #1
        0x00002088:    f1090006    ....    ADD      r0,r9,#6
        0x0000208c:    eb0c1010    ....    ADD      r0,r12,r0,LSR #4
        0x00002090:    2100        .!      MOVS     r1,#0
        0x00002092:    e7e6        ..      B        0x2062 ; divu64_10 + 154
    i.ftoa
    ftoa
        0x00002094:    e92d4ff0    -..O    PUSH     {r4-r11,lr}
        0x00002098:    ed2d8b02    -...    VPUSH    {d8}
        0x0000209c:    b081        ..      SUB      sp,sp,#4
        0x0000209e:    eeb08a40    ..@.    VMOV.F32 s16,s0
        0x000020a2:    4604        .F      MOV      r4,r0
        0x000020a4:    468a        .F      MOV      r10,r1
        0x000020a6:    f8d4b000    ....    LDR      r11,[r4,#0]
        0x000020aa:    f1bb0f04    ....    CMP      r11,#4
        0x000020ae:    da06        ..      BGE      0x20be ; ftoa + 42
        0x000020b0:    f06f0002    o...    MVN      r0,#2
        0x000020b4:    b001        ..      ADD      sp,sp,#4
        0x000020b6:    ecbd8b02    ....    VPOP     {d8}
        0x000020ba:    e8bd8ff0    ....    POP      {r4-r11,pc}
        0x000020be:    eeb58ac0    ....    VCMPE.F32 s16,#0.0
        0x000020c2:    eef1fa10    ....    VMRS     APSR_nzcv,FPSCR
        0x000020c6:    d103        ..      BNE      0x20d0 ; ftoa + 60
        0x000020c8:    4846        FH      LDR      r0,[pc,#280] ; [0x21e4] = 0x302e30
        0x000020ca:    6020         `      STR      r0,[r4,#0]
        0x000020cc:    2003        .       MOVS     r0,#3
        0x000020ce:    e7f1        ..      B        0x20b4 ; ftoa + 32
        0x000020d0:    46a1        .F      MOV      r9,r4
        0x000020d2:    ed8d8a00    ....    VSTR     s16,[sp,#0]
        0x000020d6:    9800        ..      LDR      r0,[sp,#0]
        0x000020d8:    f3c050c7    ...P    UBFX     r0,r0,#23,#8
        0x000020dc:    f1a0057f    ....    SUB      r5,r0,#0x7f
        0x000020e0:    9800        ..      LDR      r0,[sp,#0]
        0x000020e2:    f020407f     ..@    BIC      r0,r0,#0xff000000
        0x000020e6:    f4400700    @...    ORR      r7,r0,#0x800000
        0x000020ea:    f04f0800    O...    MOV      r8,#0
        0x000020ee:    2600        .&      MOVS     r6,#0
        0x000020f0:    2d1f        .-      CMP      r5,#0x1f
        0x000020f2:    db01        ..      BLT      0x20f8 ; ftoa + 100
        0x000020f4:    1eb0        ..      SUBS     r0,r6,#2
        0x000020f6:    e7dd        ..      B        0x20b4 ; ftoa + 32
        0x000020f8:    f1150f17    ....    CMN      r5,#0x17
        0x000020fc:    da02        ..      BGE      0x2104 ; ftoa + 112
        0x000020fe:    f04f30ff    O..0    MOV      r0,#0xffffffff
        0x00002102:    e7d7        ..      B        0x20b4 ; ftoa + 32
        0x00002104:    2d17        .-      CMP      r5,#0x17
        0x00002106:    db04        ..      BLT      0x2112 ; ftoa + 126
        0x00002108:    f1a50017    ....    SUB      r0,r5,#0x17
        0x0000210c:    fa07f600    ....    LSL      r6,r7,r0
        0x00002110:    e011        ..      B        0x2136 ; ftoa + 162
        0x00002112:    2d00        .-      CMP      r5,#0
        0x00002114:    db09        ..      BLT      0x212a ; ftoa + 150
        0x00002116:    f1c50017    ....    RSB      r0,r5,#0x17
        0x0000211a:    fa47f600    G...    ASR      r6,r7,r0
        0x0000211e:    1c68        h.      ADDS     r0,r5,#1
        0x00002120:    fa07f000    ....    LSL      r0,r7,r0
        0x00002124:    f020487f     ..H    BIC      r8,r0,#0xff000000
        0x00002128:    e005        ..      B        0x2136 ; ftoa + 162
        0x0000212a:    f027407f    '..@    BIC      r0,r7,#0xff000000
        0x0000212e:    1c69        i.      ADDS     r1,r5,#1
        0x00002130:    4249        IB      RSBS     r1,r1,#0
        0x00002132:    fa40f801    @...    ASR      r8,r0,r1
        0x00002136:    9800        ..      LDR      r0,[sp,#0]
        0x00002138:    2800        .(      CMP      r0,#0
        0x0000213a:    da02        ..      BGE      0x2142 ; ftoa + 174
        0x0000213c:    202d        -       MOVS     r0,#0x2d
        0x0000213e:    f8040b01    ....    STRB     r0,[r4],#1
        0x00002142:    b91e        ..      CBNZ     r6,0x214c ; ftoa + 184
        0x00002144:    2030        0       MOVS     r0,#0x30
        0x00002146:    f8040b01    ....    STRB     r0,[r4],#1
        0x0000214a:    e014        ..      B        0x2176 ; ftoa + 226
        0x0000214c:    2e00        ..      CMP      r6,#0
        0x0000214e:    dd05        ..      BLE      0x215c ; ftoa + 200
        0x00002150:    4622        "F      MOV      r2,r4
        0x00002152:    4630        0F      MOV      r0,r6
        0x00002154:    17f1        ..      ASRS     r1,r6,#31
        0x00002156:    f000facd    ....    BL       uint64_to_str ; 0x26f4
        0x0000215a:    e007        ..      B        0x216c ; ftoa + 216
        0x0000215c:    202d        -       MOVS     r0,#0x2d
        0x0000215e:    f8040b01    ....    STRB     r0,[r4],#1
        0x00002162:    4622        "F      MOV      r2,r4
        0x00002164:    4270        pB      RSBS     r0,r6,#0
        0x00002166:    17c1        ..      ASRS     r1,r0,#31
        0x00002168:    f000fac4    ....    BL       uint64_to_str ; 0x26f4
        0x0000216c:    e000        ..      B        0x2170 ; ftoa + 220
        0x0000216e:    1c64        d.      ADDS     r4,r4,#1
        0x00002170:    7820         x      LDRB     r0,[r4,#0]
        0x00002172:    2800        .(      CMP      r0,#0
        0x00002174:    d1fb        ..      BNE      0x216e ; ftoa + 218
        0x00002176:    202e        .       MOVS     r0,#0x2e
        0x00002178:    f8040b01    ....    STRB     r0,[r4],#1
        0x0000217c:    f1b80f00    ....    CMP      r8,#0
        0x00002180:    d103        ..      BNE      0x218a ; ftoa + 246
        0x00002182:    2030        0       MOVS     r0,#0x30
        0x00002184:    f8040b01    ....    STRB     r0,[r4],#1
        0x00002188:    e026        &.      B        0x21d8 ; ftoa + 324
        0x0000218a:    eba40209    ....    SUB      r2,r4,r9
        0x0000218e:    ebab0202    ....    SUB      r2,r11,r2
        0x00002192:    1e51        Q.      SUBS     r1,r2,#1
        0x00002194:    4551        QE      CMP      r1,r10
        0x00002196:    dd01        ..      BLE      0x219c ; ftoa + 264
        0x00002198:    4652        RF      MOV      r2,r10
        0x0000219a:    e000        ..      B        0x219e ; ftoa + 266
        0x0000219c:    460a        .F      MOV      r2,r1
        0x0000219e:    4611        .F      MOV      r1,r2
        0x000021a0:    2000        .       MOVS     r0,#0
        0x000021a2:    e00b        ..      B        0x21bc ; ftoa + 296
        0x000021a4:    eb080288    ....    ADD      r2,r8,r8,LSL #2
        0x000021a8:    ea4f0842    O.B.    LSL      r8,r2,#1
        0x000021ac:    2230        0"      MOVS     r2,#0x30
        0x000021ae:    eb026228    ..(b    ADD      r2,r2,r8,ASR #24
        0x000021b2:    f8042b01    ...+    STRB     r2,[r4],#1
        0x000021b6:    f028487f    (..H    BIC      r8,r8,#0xff000000
        0x000021ba:    1c40        @.      ADDS     r0,r0,#1
        0x000021bc:    4288        .B      CMP      r0,r1
        0x000021be:    dbf1        ..      BLT      0x21a4 ; ftoa + 272
        0x000021c0:    1e64        d.      SUBS     r4,r4,#1
        0x000021c2:    e000        ..      B        0x21c6 ; ftoa + 306
        0x000021c4:    1e64        d.      SUBS     r4,r4,#1
        0x000021c6:    7822        "x      LDRB     r2,[r4,#0]
        0x000021c8:    2a30        0*      CMP      r2,#0x30
        0x000021ca:    d103        ..      BNE      0x21d4 ; ftoa + 320
        0x000021cc:    f8142c01    ...,    LDRB     r2,[r4,#-1]
        0x000021d0:    2a2e        .*      CMP      r2,#0x2e
        0x000021d2:    d1f7        ..      BNE      0x21c4 ; ftoa + 304
        0x000021d4:    1c64        d.      ADDS     r4,r4,#1
        0x000021d6:    bf00        ..      NOP      
        0x000021d8:    2000        .       MOVS     r0,#0
        0x000021da:    7020         p      STRB     r0,[r4,#0]
        0x000021dc:    eba40009    ....    SUB      r0,r4,r9
        0x000021e0:    e768        h.      B        0x20b4 ; ftoa + 32
    $d
        0x000021e2:    0000        ..      DCW    0
        0x000021e4:    00302e30    0.0.    DCD    3157552
    $t
    i.i2c_send_byte
    i2c_send_byte
        0x000021e8:    e92d47f0    -..G    PUSH     {r4-r10,lr}
        0x000021ec:    2400        .$      MOVS     r4,#0
        0x000021ee:    4d3c        <M      LDR      r5,[pc,#240] ; [0x22e0] = 0x100001b4
        0x000021f0:    2601        .&      MOVS     r6,#1
        0x000021f2:    4680        .F      MOV      r8,r0
        0x000021f4:    f04f0980    O...    MOV      r9,#0x80
        0x000021f8:    2704        .'      MOVS     r7,#4
        0x000021fa:    6868        hh      LDR      r0,[r5,#4]
        0x000021fc:    f000011f    ....    AND      r1,r0,#0x1f
        0x00002200:    ea0700d0    ....    AND      r0,r7,r0,LSR #3
        0x00002204:    f1004080    ...@    ADD      r0,r0,#0x40000000
        0x00002208:    f5003080    ...0    ADD      r0,r0,#0x10000
        0x0000220c:    fa06f101    ....    LSL      r1,r6,r1
        0x00002210:    f8c01098    ....    STR      r1,[r0,#0x98]
        0x00002214:    2001        .       MOVS     r0,#1
        0x00002216:    f7fffb77    ..w.    BL       am_util_delay_us ; 0x1908
        0x0000221a:    fa29f004    )...    LSR      r0,r9,r4
        0x0000221e:    ea100f08    ....    TST      r0,r8
        0x00002222:    68a8        .h      LDR      r0,[r5,#8]
        0x00002224:    f000011f    ....    AND      r1,r0,#0x1f
        0x00002228:    ea0700d0    ....    AND      r0,r7,r0,LSR #3
        0x0000222c:    f1004080    ...@    ADD      r0,r0,#0x40000000
        0x00002230:    fa06f101    ....    LSL      r1,r6,r1
        0x00002234:    f5003080    ...0    ADD      r0,r0,#0x10000
        0x00002238:    bf14        ..      ITE      NE
        0x0000223a:    f8c01090    ....    STRNE    r1,[r0,#0x90]
        0x0000223e:    f8c01098    ....    STREQ    r1,[r0,#0x98]
        0x00002242:    2001        .       MOVS     r0,#1
        0x00002244:    f7fffb60    ..`.    BL       am_util_delay_us ; 0x1908
        0x00002248:    6868        hh      LDR      r0,[r5,#4]
        0x0000224a:    f000011f    ....    AND      r1,r0,#0x1f
        0x0000224e:    fa06f201    ....    LSL      r2,r6,r1
        0x00002252:    ea0700d0    ....    AND      r0,r7,r0,LSR #3
        0x00002256:    f1004180    ...A    ADD      r1,r0,#0x40000000
        0x0000225a:    f5013180    ...1    ADD      r1,r1,#0x10000
        0x0000225e:    f8c12090    ...     STR      r2,[r1,#0x90]
        0x00002262:    bf00        ..      NOP      
        0x00002264:    f8d10080    ....    LDR      r0,[r1,#0x80]
        0x00002268:    4210        .B      TST      r0,r2
        0x0000226a:    d0fb        ..      BEQ      0x2264 ; i2c_send_byte + 124
        0x0000226c:    2002        .       MOVS     r0,#2
        0x0000226e:    f7fffb4b    ..K.    BL       am_util_delay_us ; 0x1908
        0x00002272:    1c64        d.      ADDS     r4,r4,#1
        0x00002274:    2c08        .,      CMP      r4,#8
        0x00002276:    dbc0        ..      BLT      0x21fa ; i2c_send_byte + 18
        0x00002278:    6868        hh      LDR      r0,[r5,#4]
        0x0000227a:    f000011f    ....    AND      r1,r0,#0x1f
        0x0000227e:    ea0700d0    ....    AND      r0,r7,r0,LSR #3
        0x00002282:    f1004080    ...@    ADD      r0,r0,#0x40000000
        0x00002286:    f5003080    ...0    ADD      r0,r0,#0x10000
        0x0000228a:    fa06f101    ....    LSL      r1,r6,r1
        0x0000228e:    f8c01098    ....    STR      r1,[r0,#0x98]
        0x00002292:    2002        .       MOVS     r0,#2
        0x00002294:    f7fffb38    ..8.    BL       am_util_delay_us ; 0x1908
        0x00002298:    6868        hh      LDR      r0,[r5,#4]
        0x0000229a:    f000011f    ....    AND      r1,r0,#0x1f
        0x0000229e:    ea0700d0    ....    AND      r0,r7,r0,LSR #3
        0x000022a2:    f1004080    ...@    ADD      r0,r0,#0x40000000
        0x000022a6:    f5003080    ...0    ADD      r0,r0,#0x10000
        0x000022aa:    fa06f101    ....    LSL      r1,r6,r1
        0x000022ae:    f8c01090    ....    STR      r1,[r0,#0x90]
        0x000022b2:    bf00        ..      NOP      
        0x000022b4:    f8d02080    ...     LDR      r2,[r0,#0x80]
        0x000022b8:    420a        .B      TST      r2,r1
        0x000022ba:    d0fb        ..      BEQ      0x22b4 ; i2c_send_byte + 204
        0x000022bc:    68a8        .h      LDR      r0,[r5,#8]
        0x000022be:    ea0701d0    ....    AND      r1,r7,r0,LSR #3
        0x000022c2:    f1014180    ...A    ADD      r1,r1,#0x40000000
        0x000022c6:    f5013180    ...1    ADD      r1,r1,#0x10000
        0x000022ca:    f8d11080    ....    LDR      r1,[r1,#0x80]
        0x000022ce:    f000001f    ....    AND      r0,r0,#0x1f
        0x000022d2:    fa06f000    ....    LSL      r0,r6,r0
        0x000022d6:    4008        .@      ANDS     r0,r0,r1
        0x000022d8:    bf18        ..      IT       NE
        0x000022da:    2001        .       MOVNE    r0,#1
        0x000022dc:    e8bd87f0    ....    POP      {r4-r10,pc}
    $d
        0x000022e0:    100001b4    ....    DCD    268435892
    $t
    i.main
    main
        0x000022e4:    2000        .       MOVS     r0,#0
        0x000022e6:    f7fefb33    ..3.    BL       am_hal_clkgen_sysclk_select ; 0x950
        0x000022ea:    f7fdfff5    ....    BL       am_bsp_low_power_init ; 0x2d8
        0x000022ee:    4861        aH      LDR      r0,[pc,#388] ; [0x2474] = 0x17cd
        0x000022f0:    f7fffb9e    ....    BL       am_util_stdio_printf_init ; 0x1a30
        0x000022f4:    bf00        ..      NOP      
        0x000022f6:    2073        s       MOVS     r0,#0x73
        0x000022f8:    495f        _I      LDR      r1,[pc,#380] ; [0x2478] = 0x40010000
        0x000022fa:    6608        .f      STR      r0,[r1,#0x60]
        0x000022fc:    4608        .F      MOV      r0,r1
        0x000022fe:    6d40        @m      LDR      r0,[r0,#0x54]
        0x00002300:    f0200070     .p.    BIC      r0,r0,#0x70
        0x00002304:    6548        He      STR      r0,[r1,#0x54]
        0x00002306:    4608        .F      MOV      r0,r1
        0x00002308:    6a80        .j      LDR      r0,[r0,#0x28]
        0x0000230a:    f420407f     ..@    BIC      r0,r0,#0xff00
        0x0000230e:    f4405080    @..P    ORR      r0,r0,#0x1000
        0x00002312:    6288        .b      STR      r0,[r1,#0x28]
        0x00002314:    2000        .       MOVS     r0,#0
        0x00002316:    6608        .f      STR      r0,[r1,#0x60]
        0x00002318:    bf00        ..      NOP      
        0x0000231a:    f7fffa15    ....    BL       am_hal_itm_enable ; 0x1748
        0x0000231e:    f7fdff91    ....    BL       am_bsp_debug_printf_enable ; 0x244
        0x00002322:    f7fffb8b    ....    BL       am_util_stdio_terminal_clear ; 0x1a3c
        0x00002326:    a055        U.      ADR      r0,{pc}+0x156 ; 0x247c
        0x00002328:    f7fffb6a    ..j.    BL       am_util_stdio_printf ; 0x1a00
        0x0000232c:    4958        XI      LDR      r1,[pc,#352] ; [0x2490] = 0x10000050
        0x0000232e:    2001        .       MOVS     r0,#1
        0x00002330:    f7fefcf4    ....    BL       am_hal_iom_config ; 0xd1c
        0x00002334:    f7fffdd2    ....    BL       configure_amx8x5_pins ; 0x1edc
        0x00002338:    f7fdff62    ..b.    BL       am_bsp_debug_printf_disable ; 0x200
        0x0000233c:    2019        .       MOVS     r0,#0x19
        0x0000233e:    f7fefcc7    ....    BL       am_hal_interrupt_enable ; 0xcd0
        0x00002342:    f7fdff07    ....    BL       am_hal_interrupt_master_enable ; 0x154
        0x00002346:    e093        ..      B        0x2470 ; main + 396
        0x00002348:    4852        RH      LDR      r0,[pc,#328] ; [0x2494] = 0x1000004c
        0x0000234a:    6800        .h      LDR      r0,[r0,#0]
        0x0000234c:    2800        .(      CMP      r0,#0
        0x0000234e:    d140        @.      BNE      0x23d2 ; main + 238
        0x00002350:    a051        Q.      ADR      r0,{pc}+0x148 ; 0x2498
        0x00002352:    f000f979    ..y.    BL       toVal ; 0x2648
        0x00002356:    4953        SI      LDR      r1,[pc,#332] ; [0x24a4] = 0x10000188
        0x00002358:    70c8        .p      STRB     r0,[r1,#3]
        0x0000235a:    a14f        O.      ADR      r1,{pc}+0x13e ; 0x2498
        0x0000235c:    1cc8        ..      ADDS     r0,r1,#3
        0x0000235e:    f000f973    ..s.    BL       toVal ; 0x2648
        0x00002362:    4950        PI      LDR      r1,[pc,#320] ; [0x24a4] = 0x10000188
        0x00002364:    7088        .p      STRB     r0,[r1,#2]
        0x00002366:    a14c        L.      ADR      r1,{pc}+0x132 ; 0x2498
        0x00002368:    1d88        ..      ADDS     r0,r1,#6
        0x0000236a:    f000f96d    ..m.    BL       toVal ; 0x2648
        0x0000236e:    494d        MI      LDR      r1,[pc,#308] ; [0x24a4] = 0x10000188
        0x00002370:    7048        Hp      STRB     r0,[r1,#1]
        0x00002372:    2000        .       MOVS     r0,#0
        0x00002374:    7008        .p      STRB     r0,[r1,#0]
        0x00002376:    a14c        L.      ADR      r1,{pc}+0x132 ; 0x24a8
        0x00002378:    1d08        ..      ADDS     r0,r1,#4
        0x0000237a:    f000f965    ..e.    BL       toVal ; 0x2648
        0x0000237e:    4606        .F      MOV      r6,r0
        0x00002380:    a049        I.      ADR      r0,{pc}+0x128 ; 0x24a8
        0x00002382:    f000f8c3    ....    BL       mthToIndex ; 0x250c
        0x00002386:    1c44        D.      ADDS     r4,r0,#1
        0x00002388:    a147        G.      ADR      r1,{pc}+0x120 ; 0x24a8
        0x0000238a:    f1010009    ....    ADD      r0,r1,#9
        0x0000238e:    f000f95b    ..[.    BL       toVal ; 0x2648
        0x00002392:    f50065fa    ...e    ADD      r5,r0,#0x7d0
        0x00002396:    4632        2F      MOV      r2,r6
        0x00002398:    4621        !F      MOV      r1,r4
        0x0000239a:    4628        (F      MOV      r0,r5
        0x0000239c:    f7fffd34    ..4.    BL       am_util_time_computeDayofWeek ; 0x1e08
        0x000023a0:    4940        @I      LDR      r1,[pc,#256] ; [0x24a4] = 0x10000188
        0x000023a2:    7148        Hq      STRB     r0,[r1,#5]
        0x000023a4:    a140        @.      ADR      r1,{pc}+0x104 ; 0x24a8
        0x000023a6:    1d08        ..      ADDS     r0,r1,#4
        0x000023a8:    f000f94e    ..N.    BL       toVal ; 0x2648
        0x000023ac:    493d        =I      LDR      r1,[pc,#244] ; [0x24a4] = 0x10000188
        0x000023ae:    7108        .q      STRB     r0,[r1,#4]
        0x000023b0:    a03d        =.      ADR      r0,{pc}+0xf8 ; 0x24a8
        0x000023b2:    f000f8ab    ....    BL       mthToIndex ; 0x250c
        0x000023b6:    493b        ;I      LDR      r1,[pc,#236] ; [0x24a4] = 0x10000188
        0x000023b8:    7188        .q      STRB     r0,[r1,#6]
        0x000023ba:    a13b        ;.      ADR      r1,{pc}+0xee ; 0x24a8
        0x000023bc:    f1010009    ....    ADD      r0,r1,#9
        0x000023c0:    f000f942    ..B.    BL       toVal ; 0x2648
        0x000023c4:    4937        7I      LDR      r1,[pc,#220] ; [0x24a4] = 0x10000188
        0x000023c6:    71c8        .q      STRB     r0,[r1,#7]
        0x000023c8:    2000        .       MOVS     r0,#0
        0x000023ca:    7208        .r      STRB     r0,[r1,#8]
        0x000023cc:    f000f924    ..$.    BL       time_set ; 0x2618
        0x000023d0:    e04e        N.      B        0x2470 ; main + 396
        0x000023d2:    4830        0H      LDR      r0,[pc,#192] ; [0x2494] = 0x1000004c
        0x000023d4:    6800        .h      LDR      r0,[r0,#0]
        0x000023d6:    2801        .(      CMP      r0,#1
        0x000023d8:    d102        ..      BNE      0x23e0 ; main + 252
        0x000023da:    f000f907    ....    BL       time_read ; 0x25ec
        0x000023de:    e047        G.      B        0x2470 ; main + 396
        0x000023e0:    482c        ,H      LDR      r0,[pc,#176] ; [0x2494] = 0x1000004c
        0x000023e2:    6800        .h      LDR      r0,[r0,#0]
        0x000023e4:    2802        .(      CMP      r0,#2
        0x000023e6:    d13e        >.      BNE      0x2466 ; main + 386
        0x000023e8:    f7fdff2c    ..,.    BL       am_bsp_debug_printf_enable ; 0x244
        0x000023ec:    f7fffb26    ..&.    BL       am_util_stdio_terminal_clear ; 0x1a3c
        0x000023f0:    a030        0.      ADR      r0,{pc}+0xc4 ; 0x24b4
        0x000023f2:    f7fffb05    ....    BL       am_util_stdio_printf ; 0x1a00
        0x000023f6:    482b        +H      LDR      r0,[pc,#172] ; [0x24a4] = 0x10000188
        0x000023f8:    78c1        .x      LDRB     r1,[r0,#3]
        0x000023fa:    a036        6.      ADR      r0,{pc}+0xda ; 0x24d4
        0x000023fc:    f7fffb00    ....    BL       am_util_stdio_printf ; 0x1a00
        0x00002400:    4828        (H      LDR      r0,[pc,#160] ; [0x24a4] = 0x10000188
        0x00002402:    7881        .x      LDRB     r1,[r0,#2]
        0x00002404:    a035        5.      ADR      r0,{pc}+0xd8 ; 0x24dc
        0x00002406:    f7fffafb    ....    BL       am_util_stdio_printf ; 0x1a00
        0x0000240a:    4826        &H      LDR      r0,[pc,#152] ; [0x24a4] = 0x10000188
        0x0000240c:    7841        Ax      LDRB     r1,[r0,#1]
        0x0000240e:    a035        5.      ADR      r0,{pc}+0xd6 ; 0x24e4
        0x00002410:    f7fffaf6    ....    BL       am_util_stdio_printf ; 0x1a00
        0x00002414:    4823        #H      LDR      r0,[pc,#140] ; [0x24a4] = 0x10000188
        0x00002416:    7801        .x      LDRB     r1,[r0,#0]
        0x00002418:    a034        4.      ADR      r0,{pc}+0xd4 ; 0x24ec
        0x0000241a:    f7fffaf1    ....    BL       am_util_stdio_printf ; 0x1a00
        0x0000241e:    4921        !I      LDR      r1,[pc,#132] ; [0x24a4] = 0x10000188
        0x00002420:    7949        Iy      LDRB     r1,[r1,#5]
        0x00002422:    4a34        4J      LDR      r2,[pc,#208] ; [0x24f4] = 0x10000000
        0x00002424:    f8520021    R.!.    LDR      r0,[r2,r1,LSL #2]
        0x00002428:    f7fffaea    ....    BL       am_util_stdio_printf ; 0x1a00
        0x0000242c:    a02a        *.      ADR      r0,{pc}+0xac ; 0x24d8
        0x0000242e:    f7fffae7    ....    BL       am_util_stdio_printf ; 0x1a00
        0x00002432:    491c        .I      LDR      r1,[pc,#112] ; [0x24a4] = 0x10000188
        0x00002434:    7989        .y      LDRB     r1,[r1,#6]
        0x00002436:    4a30        0J      LDR      r2,[pc,#192] ; [0x24f8] = 0x1000001c
        0x00002438:    f8520021    R.!.    LDR      r0,[r2,r1,LSL #2]
        0x0000243c:    f7fffae0    ....    BL       am_util_stdio_printf ; 0x1a00
        0x00002440:    a025        %.      ADR      r0,{pc}+0x98 ; 0x24d8
        0x00002442:    f7fffadd    ....    BL       am_util_stdio_printf ; 0x1a00
        0x00002446:    4817        .H      LDR      r0,[pc,#92] ; [0x24a4] = 0x10000188
        0x00002448:    7901        .y      LDRB     r1,[r0,#4]
        0x0000244a:    a02c        ,.      ADR      r0,{pc}+0xb2 ; 0x24fc
        0x0000244c:    f7fffad8    ....    BL       am_util_stdio_printf ; 0x1a00
        0x00002450:    4814        .H      LDR      r0,[pc,#80] ; [0x24a4] = 0x10000188
        0x00002452:    79c1        .y      LDRB     r1,[r0,#7]
        0x00002454:    a02b        +.      ADR      r0,{pc}+0xb0 ; 0x2504
        0x00002456:    f7fffad3    ....    BL       am_util_stdio_printf ; 0x1a00
        0x0000245a:    f7fdfed1    ....    BL       am_bsp_debug_printf_disable ; 0x200
        0x0000245e:    2004        .       MOVS     r0,#4
        0x00002460:    490c        .I      LDR      r1,[pc,#48] ; [0x2494] = 0x1000004c
        0x00002462:    6008        .`      STR      r0,[r1,#0]
        0x00002464:    e004        ..      B        0x2470 ; main + 396
        0x00002466:    f7fffd81    ....    BL       countdown_start ; 0x1f6c
        0x0000246a:    2001        .       MOVS     r0,#1
        0x0000246c:    f7fffa0a    ....    BL       am_hal_sysctrl_sleep ; 0x1884
        0x00002470:    e76a        j.      B        0x2348 ; main + 100
    $d
        0x00002472:    0000        ..      DCW    0
        0x00002474:    000017cd    ....    DCD    6093
        0x00002478:    40010000    ...@    DCD    1073807360
        0x0000247c:    38314d41    AM18    DCD    942755137
        0x00002480:    52203530    05 R    DCD    1377842480
        0x00002484:    54204354    TC T    DCD    1411400532
        0x00002488:    0d656d69    ime.    DCD    224750953
        0x0000248c:    0000000a    ....    DCD    10
        0x00002490:    10000050    P...    DCD    268435536
        0x00002494:    1000004c    L...    DCD    268435532
        0x00002498:    323a3032    20:2    DCD    842674226
        0x0000249c:    32323a37    7:22    DCD    842152503
        0x000024a0:    00000000    ....    DCD    0
        0x000024a4:    10000188    ....    DCD    268435848
        0x000024a8:    20727041    Apr     DCD    544370753
        0x000024ac:    32203831    18 2    DCD    840972337
        0x000024b0:    00363130    016.    DCD    3551536
        0x000024b4:    38314d41    AM18    DCD    942755137
        0x000024b8:    52203530    05 R    DCD    1377842480
        0x000024bc:    54204354    TC T    DCD    1411400532
        0x000024c0:    0d656d69    ime.    DCD    224750953
        0x000024c4:    7449090a    ..It    DCD    1950943498
        0x000024c8:    20736920     is     DCD    544434464
        0x000024cc:    20776f6e    now     DCD    544698222
        0x000024d0:    00000000    ....    DCD    0
        0x000024d4:    3a206425    %d :    DCD    975201317
        0x000024d8:    00000020     ...    DCD    32
        0x000024dc:    64323025    %02d    DCD    1681010725
        0x000024e0:    00203a20     : .    DCD    2112032
        0x000024e4:    64323025    %02d    DCD    1681010725
        0x000024e8:    0000002e    ....    DCD    46
        0x000024ec:    64323025    %02d    DCD    1681010725
        0x000024f0:    00000020     ...    DCD    32
        0x000024f4:    10000000    ....    DCD    268435456
        0x000024f8:    1000001c    ....    DCD    268435484
        0x000024fc:    202c6425    %d,     DCD    539780133
        0x00002500:    00000000    ....    DCD    0
        0x00002504:    30253032    20%0    DCD    807743538
        0x00002508:    00006432    2d..    DCD    25650
    $t
    i.mthToIndex
    mthToIndex
        0x0000250c:    b570        p.      PUSH     {r4-r6,lr}
        0x0000250e:    4605        .F      MOV      r5,r0
        0x00002510:    2400        .$      MOVS     r4,#0
        0x00002512:    e00a        ..      B        0x252a ; mthToIndex + 30
        0x00002514:    4907        .I      LDR      r1,[pc,#28] ; [0x2534] = 0x1000001c
        0x00002516:    f8510024    Q.$.    LDR      r0,[r1,r4,LSL #2]
        0x0000251a:    2203        ."      MOVS     r2,#3
        0x0000251c:    4629        )F      MOV      r1,r5
        0x0000251e:    f7fffc49    ..I.    BL       am_util_string_strnicmp ; 0x1db4
        0x00002522:    b908        ..      CBNZ     r0,0x2528 ; mthToIndex + 28
        0x00002524:    4620         F      MOV      r0,r4
        0x00002526:    bd70        p.      POP      {r4-r6,pc}
        0x00002528:    1c64        d.      ADDS     r4,r4,#1
        0x0000252a:    2c0c        .,      CMP      r4,#0xc
        0x0000252c:    dbf2        ..      BLT      0x2514 ; mthToIndex + 8
        0x0000252e:    200c        .       MOVS     r0,#0xc
        0x00002530:    e7f9        ..      B        0x2526 ; mthToIndex + 26
    $d
        0x00002532:    0000        ..      DCW    0
        0x00002534:    1000001c    ....    DCD    268435484
    $t
    i.mux_disable
    mux_disable
        0x00002538:    f44f7080    O..p    MOV      r0,#0x100
        0x0000253c:    4901        .I      LDR      r1,[pc,#4] ; [0x2544] = 0x4001009c
        0x0000253e:    6008        .`      STR      r0,[r1,#0]
        0x00002540:    4770        pG      BX       lr
    $d
        0x00002542:    0000        ..      DCW    0
        0x00002544:    4001009c    ...@    DCD    1073807516
    $t
    i.mux_enable
    mux_enable
        0x00002548:    f44f7080    O..p    MOV      r0,#0x100
        0x0000254c:    4901        .I      LDR      r1,[pc,#4] ; [0x2554] = 0x40010094
        0x0000254e:    6008        .`      STR      r0,[r1,#0]
        0x00002550:    4770        pG      BX       lr
    $d
        0x00002552:    0000        ..      DCW    0
        0x00002554:    40010094    ...@    DCD    1073807508
    $t
    i.ndigits_in_hex
    ndigits_in_hex
        0x00002558:    b530        0.      PUSH     {r4,r5,lr}
        0x0000255a:    4602        .F      MOV      r2,r0
        0x0000255c:    460b        .F      MOV      r3,r1
        0x0000255e:    2400        .$      MOVS     r4,#0
        0x00002560:    ea820104    ....    EOR      r1,r2,r4
        0x00002564:    405c        \@      EORS     r4,r4,r3
        0x00002566:    4321        !C      ORRS     r1,r1,r4
        0x00002568:    d101        ..      BNE      0x256e ; ndigits_in_hex + 22
        0x0000256a:    2101        .!      MOVS     r1,#1
        0x0000256c:    e000        ..      B        0x2570 ; ndigits_in_hex + 24
        0x0000256e:    2100        .!      MOVS     r1,#0
        0x00002570:    4608        .F      MOV      r0,r1
        0x00002572:    e004        ..      B        0x257e ; ndigits_in_hex + 38
        0x00002574:    0911        ..      LSRS     r1,r2,#4
        0x00002576:    ea417203    A..r    ORR      r2,r1,r3,LSL #28
        0x0000257a:    091b        ..      LSRS     r3,r3,#4
        0x0000257c:    1c40        @.      ADDS     r0,r0,#1
        0x0000257e:    2400        .$      MOVS     r4,#0
        0x00002580:    ea820104    ....    EOR      r1,r2,r4
        0x00002584:    405c        \@      EORS     r4,r4,r3
        0x00002586:    4321        !C      ORRS     r1,r1,r4
        0x00002588:    d1f4        ..      BNE      0x2574 ; ndigits_in_hex + 28
        0x0000258a:    bd30        0.      POP      {r4,r5,pc}
    i.ndigits_in_i64
    ndigits_in_i64
        0x0000258c:    b570        p.      PUSH     {r4-r6,lr}
        0x0000258e:    4604        .F      MOV      r4,r0
        0x00002590:    460d        .F      MOV      r5,r1
        0x00002592:    2100        .!      MOVS     r1,#0
        0x00002594:    4608        .F      MOV      r0,r1
        0x00002596:    1a61        a.      SUBS     r1,r4,r1
        0x00002598:    eb750000    u...    SBCS     r0,r5,r0
        0x0000259c:    da03        ..      BGE      0x25a6 ; ndigits_in_i64 + 26
        0x0000259e:    2200        ."      MOVS     r2,#0
        0x000025a0:    4264        dB      RSBS     r4,r4,#0
        0x000025a2:    eb620505    b...    SBC      r5,r2,r5
        0x000025a6:    4620         F      MOV      r0,r4
        0x000025a8:    4629        )F      MOV      r1,r5
        0x000025aa:    f000f801    ....    BL       ndigits_in_u64 ; 0x25b0
        0x000025ae:    bd70        p.      POP      {r4-r6,pc}
    i.ndigits_in_u64
    ndigits_in_u64
        0x000025b0:    b570        p.      PUSH     {r4-r6,lr}
        0x000025b2:    4604        .F      MOV      r4,r0
        0x000025b4:    460d        .F      MOV      r5,r1
        0x000025b6:    2100        .!      MOVS     r1,#0
        0x000025b8:    ea840001    ....    EOR      r0,r4,r1
        0x000025bc:    4069        i@      EORS     r1,r1,r5
        0x000025be:    4308        .C      ORRS     r0,r0,r1
        0x000025c0:    d101        ..      BNE      0x25c6 ; ndigits_in_u64 + 22
        0x000025c2:    2001        .       MOVS     r0,#1
        0x000025c4:    e000        ..      B        0x25c8 ; ndigits_in_u64 + 24
        0x000025c6:    2000        .       MOVS     r0,#0
        0x000025c8:    4606        .F      MOV      r6,r0
        0x000025ca:    e006        ..      B        0x25da ; ndigits_in_u64 + 42
        0x000025cc:    4620         F      MOV      r0,r4
        0x000025ce:    4629        )F      MOV      r1,r5
        0x000025d0:    f7fffcfa    ....    BL       divu64_10 ; 0x1fc8
        0x000025d4:    4604        .F      MOV      r4,r0
        0x000025d6:    460d        .F      MOV      r5,r1
        0x000025d8:    1c76        v.      ADDS     r6,r6,#1
        0x000025da:    2100        .!      MOVS     r1,#0
        0x000025dc:    ea840001    ....    EOR      r0,r4,r1
        0x000025e0:    4069        i@      EORS     r1,r1,r5
        0x000025e2:    4308        .C      ORRS     r0,r0,r1
        0x000025e4:    d1f2        ..      BNE      0x25cc ; ndigits_in_u64 + 28
        0x000025e6:    4630        0F      MOV      r0,r6
        0x000025e8:    bd70        p.      POP      {r4-r6,pc}
        0x000025ea:    0000        ..      MOVS     r0,r0
    i.time_read
    time_read
        0x000025ec:    b510        ..      PUSH     {r4,lr}
        0x000025ee:    2001        .       MOVS     r0,#1
        0x000025f0:    f7fefc04    ....    BL       am_hal_iom_enable ; 0xdfc
        0x000025f4:    f7ffffa8    ....    BL       mux_enable ; 0x2548
        0x000025f8:    4805        .H      LDR      r0,[pc,#20] ; [0x2610] = 0x1000005c
        0x000025fa:    f7fef857    ..W.    BL       am_devices_amx8x5_time_get ; 0x6ac
        0x000025fe:    2001        .       MOVS     r0,#1
        0x00002600:    f7fefbb8    ....    BL       am_hal_iom_disable ; 0xd74
        0x00002604:    f7ffff98    ....    BL       mux_disable ; 0x2538
        0x00002608:    2002        .       MOVS     r0,#2
        0x0000260a:    4902        .I      LDR      r1,[pc,#8] ; [0x2614] = 0x1000004c
        0x0000260c:    6008        .`      STR      r0,[r1,#0]
        0x0000260e:    bd10        ..      POP      {r4,pc}
    $d
        0x00002610:    1000005c    \...    DCD    268435548
        0x00002614:    1000004c    L...    DCD    268435532
    $t
    i.time_set
    time_set
        0x00002618:    b510        ..      PUSH     {r4,lr}
        0x0000261a:    2001        .       MOVS     r0,#1
        0x0000261c:    f7fefbee    ....    BL       am_hal_iom_enable ; 0xdfc
        0x00002620:    f7ffff92    ....    BL       mux_enable ; 0x2548
        0x00002624:    2101        .!      MOVS     r1,#1
        0x00002626:    4806        .H      LDR      r0,[pc,#24] ; [0x2640] = 0x1000005c
        0x00002628:    f7fef8aa    ....    BL       am_devices_amx8x5_time_set ; 0x780
        0x0000262c:    2001        .       MOVS     r0,#1
        0x0000262e:    f7fefba1    ....    BL       am_hal_iom_disable ; 0xd74
        0x00002632:    f7ffff81    ....    BL       mux_disable ; 0x2538
        0x00002636:    2001        .       MOVS     r0,#1
        0x00002638:    4902        .I      LDR      r1,[pc,#8] ; [0x2644] = 0x1000004c
        0x0000263a:    6008        .`      STR      r0,[r1,#0]
        0x0000263c:    bd10        ..      POP      {r4,pc}
    $d
        0x0000263e:    0000        ..      DCW    0
        0x00002640:    1000005c    \...    DCD    268435548
        0x00002644:    1000004c    L...    DCD    268435532
    $t
    i.toVal
    toVal
        0x00002648:    4601        .F      MOV      r1,r0
        0x0000264a:    2000        .       MOVS     r0,#0
        0x0000264c:    784a        Jx      LDRB     r2,[r1,#1]
        0x0000264e:    3a30        0:      SUBS     r2,r2,#0x30
        0x00002650:    4410        .D      ADD      r0,r0,r2
        0x00002652:    780a        .x      LDRB     r2,[r1,#0]
        0x00002654:    2a20         *      CMP      r2,#0x20
        0x00002656:    d101        ..      BNE      0x265c ; toVal + 20
        0x00002658:    2200        ."      MOVS     r2,#0
        0x0000265a:    e004        ..      B        0x2666 ; toVal + 30
        0x0000265c:    780a        .x      LDRB     r2,[r1,#0]
        0x0000265e:    3a30        0:      SUBS     r2,r2,#0x30
        0x00002660:    eb020282    ....    ADD      r2,r2,r2,LSL #2
        0x00002664:    0052        R.      LSLS     r2,r2,#1
        0x00002666:    4410        .D      ADD      r0,r0,r2
        0x00002668:    4770        pG      BX       lr
    i.uint64_to_hexstr
    uint64_to_hexstr
        0x0000266a:    e92d41f0    -..A    PUSH     {r4-r8,lr}
        0x0000266e:    b085        ..      SUB      sp,sp,#0x14
        0x00002670:    4604        .F      MOV      r4,r0
        0x00002672:    460d        .F      MOV      r5,r1
        0x00002674:    461e        .F      MOV      r6,r3
        0x00002676:    2100        .!      MOVS     r1,#0
        0x00002678:    468c        .F      MOV      r12,r1
        0x0000267a:    ea84070c    ....    EOR      r7,r4,r12
        0x0000267e:    ea850c0c    ....    EOR      r12,r5,r12
        0x00002682:    ea57070c    W...    ORRS     r7,r7,r12
        0x00002686:    d105        ..      BNE      0x2694 ; uint64_to_hexstr + 42
        0x00002688:    f04f0830    O.0.    MOV      r8,#0x30
        0x0000268c:    460f        .F      MOV      r7,r1
        0x0000268e:    1c49        I.      ADDS     r1,r1,#1
        0x00002690:    f80d8007    ....    STRB     r8,[sp,r7]
        0x00002694:    e016        ..      B        0x26c4 ; uint64_to_hexstr + 90
        0x00002696:    270f        .'      MOVS     r7,#0xf
        0x00002698:    4027        '@      ANDS     r7,r7,r4
        0x0000269a:    b2fb        ..      UXTB     r3,r7
        0x0000269c:    2b09        .+      CMP      r3,#9
        0x0000269e:    dd05        ..      BLE      0x26ac ; uint64_to_hexstr + 66
        0x000026a0:    b10e        ..      CBZ      r6,0x26a6 ; uint64_to_hexstr + 60
        0x000026a2:    2727        ''      MOVS     r7,#0x27
        0x000026a4:    e000        ..      B        0x26a8 ; uint64_to_hexstr + 62
        0x000026a6:    2707        .'      MOVS     r7,#7
        0x000026a8:    441f        .D      ADD      r7,r7,r3
        0x000026aa:    b2fb        ..      UXTB     r3,r7
        0x000026ac:    f1030730    ..0.    ADD      r7,r3,#0x30
        0x000026b0:    f00708ff    ....    AND      r8,r7,#0xff
        0x000026b4:    460f        .F      MOV      r7,r1
        0x000026b6:    1c49        I.      ADDS     r1,r1,#1
        0x000026b8:    f80d8007    ....    STRB     r8,[sp,r7]
        0x000026bc:    0927        '.      LSRS     r7,r4,#4
        0x000026be:    ea477405    G..t    ORR      r4,r7,r5,LSL #28
        0x000026c2:    092d        -.      LSRS     r5,r5,#4
        0x000026c4:    f04f0c00    O...    MOV      r12,#0
        0x000026c8:    ea84070c    ....    EOR      r7,r4,r12
        0x000026cc:    ea850c0c    ....    EOR      r12,r5,r12
        0x000026d0:    ea57070c    W...    ORRS     r7,r7,r12
        0x000026d4:    d1df        ..      BNE      0x2696 ; uint64_to_hexstr + 44
        0x000026d6:    4608        .F      MOV      r0,r1
        0x000026d8:    b14a        J.      CBZ      r2,0x26ee ; uint64_to_hexstr + 132
        0x000026da:    e003        ..      B        0x26e4 ; uint64_to_hexstr + 122
        0x000026dc:    f81d7001    ...p    LDRB     r7,[sp,r1]
        0x000026e0:    f8027b01    ...{    STRB     r7,[r2],#1
        0x000026e4:    000f        ..      MOVS     r7,r1
        0x000026e6:    f1a10101    ....    SUB      r1,r1,#1
        0x000026ea:    d1f7        ..      BNE      0x26dc ; uint64_to_hexstr + 114
        0x000026ec:    7017        .p      STRB     r7,[r2,#0]
        0x000026ee:    b005        ..      ADD      sp,sp,#0x14
        0x000026f0:    e8bd81f0    ....    POP      {r4-r8,pc}
    i.uint64_to_str
    uint64_to_str
        0x000026f4:    e92d4ff0    -..O    PUSH     {r4-r11,lr}
        0x000026f8:    b087        ..      SUB      sp,sp,#0x1c
        0x000026fa:    4607        .F      MOV      r7,r0
        0x000026fc:    4688        .F      MOV      r8,r1
        0x000026fe:    4616        .F      MOV      r6,r2
        0x00002700:    f04f0900    O...    MOV      r9,#0
        0x00002704:    46cb        .F      MOV      r11,r9
        0x00002706:    bf00        ..      NOP      
        0x00002708:    4638        8F      MOV      r0,r7
        0x0000270a:    4641        AF      MOV      r1,r8
        0x0000270c:    f7fffc5c    ..\.    BL       divu64_10 ; 0x1fc8
        0x00002710:    4604        .F      MOV      r4,r0
        0x00002712:    460d        .F      MOV      r5,r1
        0x00002714:    210a        .!      MOVS     r1,#0xa
        0x00002716:    fba40101    ....    UMULL    r0,r1,r4,r1
        0x0000271a:    ebb70a00    ....    SUBS     r10,r7,r0
        0x0000271e:    f10a0030    ..0.    ADD      r0,r10,#0x30
        0x00002722:    b2c2        ..      UXTB     r2,r0
        0x00002724:    4648        HF      MOV      r0,r9
        0x00002726:    f1090901    ....    ADD      r9,r9,#1
        0x0000272a:    f80d2000    ...     STRB     r2,[sp,r0]
        0x0000272e:    4627        'F      MOV      r7,r4
        0x00002730:    46a8        .F      MOV      r8,r5
        0x00002732:    f04f0200    O...    MOV      r2,#0
        0x00002736:    ea870002    ....    EOR      r0,r7,r2
        0x0000273a:    ea880102    ....    EOR      r1,r8,r2
        0x0000273e:    4308        .C      ORRS     r0,r0,r1
        0x00002740:    d1e2        ..      BNE      0x2708 ; uint64_to_str + 20
        0x00002742:    46cb        .F      MOV      r11,r9
        0x00002744:    b156        V.      CBZ      r6,0x275c ; uint64_to_str + 104
        0x00002746:    e003        ..      B        0x2750 ; uint64_to_str + 92
        0x00002748:    f81d0009    ....    LDRB     r0,[sp,r9]
        0x0000274c:    f8060b01    ....    STRB     r0,[r6],#1
        0x00002750:    ea5f0009    _...    MOVS     r0,r9
        0x00002754:    f1a90901    ....    SUB      r9,r9,#1
        0x00002758:    d1f6        ..      BNE      0x2748 ; uint64_to_str + 84
        0x0000275a:    7030        0p      STRB     r0,[r6,#0]
        0x0000275c:    4658        XF      MOV      r0,r11
        0x0000275e:    b007        ..      ADD      sp,sp,#0x1c
        0x00002760:    e8bd8ff0    ....    POP      {r4-r11,pc}
    x$fpl$d2f
    $v0
    __aeabi_d2f
    _d2f
        0x00002764:    f0214200    !..B    BIC      r2,r1,#0x80000000
        0x00002768:    f1a25260    ..`R    SUB      r2,r2,#0x38000000
        0x0000276c:    f5b21f80    ....    CMP      r2,#0x100000
        0x00002770:    f0014300    ...C    AND      r3,r1,#0x80000000
        0x00002774:    bf28        (.      IT       CS
        0x00002776:    f1d26c7f    ...l    RSBSCS   r12,r2,#0xff00000
        0x0000277a:    d90b        ..      BLS      0x2794 ; __aeabi_d2f + 48
        0x0000277c:    ea5f1c00    _...    LSLS     r12,r0,#4
        0x00002780:    ea4302c2    C...    ORR      r2,r3,r2,LSL #3
        0x00002784:    eb427050    B.Pp    ADC      r0,r2,r0,LSR #29
        0x00002788:    bf18        ..      IT       NE
        0x0000278a:    4770        pG      BXNE     lr
        0x0000278c:    bf28        (.      IT       CS
        0x0000278e:    f0200001     ...    BICCS    r0,r0,#1
        0x00002792:    4770        pG      BX       lr
        0x00002794:    f5b21f80    ....    CMP      r2,#0x100000
        0x00002798:    bfbc        ..      ITT      LT
        0x0000279a:    4618        .F      MOVLT    r0,r3
        0x0000279c:    4770        pG      BXLT     lr
        0x0000279e:    ea4f0c41    O.A.    LSL      r12,r1,#1
        0x000027a2:    f51c1f00    ....    CMN      r12,#0x200000
        0x000027a6:    d202        ..      BCS      0x27ae ; __aeabi_d2f + 74
        0x000027a8:    4608        .F      MOV      r0,r1
        0x000027aa:    f000b85f    .._.    B.W      __fpl_fretinf ; 0x286c
        0x000027ae:    b570        p.      PUSH     {r4-r6,lr}
        0x000027b0:    f000f809    ....    BL       __fpl_dnaninf ; 0x27c6
    $d
        0x000027b4:    89000000    ....    DCD    2298478592
    $t
        0x000027b8:    f7ffbff6    ....    B.W      0x27a8 ; __aeabi_d2f + 68
        0x000027bc:    f04f4000    O..@    MOV      r0,#0x80000000
        0x000027c0:    f5a00080    ....    SUB      r0,r0,#0x400000
        0x000027c4:    4770        pG      BX       lr
    x$fpl$dnaninf
    $v0
    __fpl_dnaninf
        0x000027c6:    f10e0e02    ....    ADD      lr,lr,#2
        0x000027ca:    f02e0e03    ....    BIC      lr,lr,#3
        0x000027ce:    f85e6b04    ^..k    LDR      r6,[lr],#4
        0x000027d2:    4236        6B      TST      r6,r6
        0x000027d4:    d405        ..      BMI      0x27e2 ; __fpl_dnaninf + 28
        0x000027d6:    2a01        .*      CMP      r2,#1
        0x000027d8:    eb430503    C...    ADC      r5,r3,r3
        0x000027dc:    f5151f00    ....    CMN      r5,#0x200000
        0x000027e0:    d812        ..      BHI      0x2808 ; __fpl_dnaninf + 66
        0x000027e2:    2801        .(      CMP      r0,#1
        0x000027e4:    eb410c01    A...    ADC      r12,r1,r1
        0x000027e8:    f51c1f00    ....    CMN      r12,#0x200000
        0x000027ec:    d80c        ..      BHI      0x2808 ; __fpl_dnaninf + 66
        0x000027ee:    d10e        ..      BNE      0x280e ; __fpl_dnaninf + 72
        0x000027f0:    ea4f7cd1    O..|    LSR      r12,r1,#31
        0x000027f4:    f5151f00    ....    CMN      r5,#0x200000
        0x000027f8:    eb0c0c4c    ..L.    ADD      r12,r12,r12,LSL #1
        0x000027fc:    f10c0c02    ....    ADD      r12,r12,#2
        0x00002800:    bf08        ..      IT       EQ
        0x00002802:    eb4c7cd3    L..|    ADCEQ    r12,r12,r3,LSR #31
        0x00002806:    e004        ..      B        0x2812 ; __fpl_dnaninf + 76
        0x00002808:    f04f0c08    O...    MOV      r12,#8
        0x0000280c:    e001        ..      B        0x2812 ; __fpl_dnaninf + 76
        0x0000280e:    ea4f7cd3    O..|    LSR      r12,r3,#31
        0x00002812:    eb0c054c    ..L.    ADD      r5,r12,r12,LSL #1
        0x00002816:    fa26f605    &...    LSR      r6,r6,r5
        0x0000281a:    f0060607    ....    AND      r6,r6,#7
        0x0000281e:    f1b60c04    ....    SUBS     r12,r6,#4
        0x00002822:    d206        ..      BCS      0x2832 ; __fpl_dnaninf + 108
        0x00002824:    eb0e0c86    ....    ADD      r12,lr,r6,LSL #2
        0x00002828:    e8bd4070    ..p@    POP      {r4-r6,lr}
        0x0000282c:    f04c0c01    L...    ORR      r12,r12,#1
        0x00002830:    4760        `G      BX       r12
        0x00002832:    e8dff00c    ....    TBB      [pc,r12]
    $d
        0x00002836:    0b09        ..      DCW    2825
        0x00002838:    0202        ..      DCW    514
    $t
        0x0000283a:    f04f4100    O..A    MOV      r1,#0x80000000
        0x0000283e:    f04f0000    O...    MOV      r0,#0
        0x00002842:    f5a12100    ...!    SUB      r1,r1,#0x80000
        0x00002846:    bd70        p.      POP      {r4-r6,pc}
        0x00002848:    4619        .F      MOV      r1,r3
        0x0000284a:    4610        .F      MOV      r0,r2
        0x0000284c:    2801        .(      CMP      r0,#1
        0x0000284e:    eb510401    Q...    ADCS     r4,r1,r1
        0x00002852:    bf18        ..      IT       NE
        0x00002854:    f5d41400    ....    RSBSNE   r4,r4,#0x200000
        0x00002858:    bf84        ..      ITT      HI
        0x0000285a:    2000        .       MOVHI    r0,#0
        0x0000285c:    f0014100    ...A    ANDHI    r1,r1,#0x80000000
        0x00002860:    bd70        p.      POP      {r4-r6,pc}
    x$fpl$fpinit
    $v0
    _fp_init
        0x00002862:    f04f7040    O.@p    MOV      r0,#0x3000000
        0x00002866:    eee10a10    ....    VMSR     FPSCR,r0
    __fplib_config_fpu_vfp
    __fplib_config_pureend_doubles
        0x0000286a:    4770        pG      BX       lr
    x$fpl$fretinf
    $v0
    __fpl_fretinf
        0x0000286c:    21ff        .!      MOVS     r1,#0xff
        0x0000286e:    ea4150d0    A..P    ORR      r0,r1,r0,LSR #23
        0x00002872:    05c0        ..      LSLS     r0,r0,#23
        0x00002874:    4770        pG      BX       lr
    $d.realdata
    .constdata
    x$fpl$usenofp
    __I$use$fp
    am_cattr
        0x00002876:    0000        ..      DCW    0
        0x00002878:    00000000    ....    DCD    0
        0x0000287c:    20000000    ...     DCD    536870912
        0x00002880:    20202020            DCD    538976288
        0x00002884:    00000000    ....    DCD    0
        0x00002888:    00000000    ....    DCD    0
        0x0000288c:    00000000    ....    DCD    0
        0x00002890:    00000000    ....    DCD    0
        0x00002894:    80200000    .. .    DCD    2149580800
        0x00002898:    80808000    ....    DCD    2155905024
        0x0000289c:    80808080    ....    DCD    2155905152
        0x000028a0:    80000000    ....    DCD    2147483648
        0x000028a4:    98980080    ....    DCD    2560098432
        0x000028a8:    98989898    ....    DCD    2560137368
        0x000028ac:    98989898    ....    DCD    2560137368
        0x000028b0:    00000000    ....    DCD    0
        0x000028b4:    95800000    ....    DCD    2508193792
        0x000028b8:    95959595    ....    DCD    2509608341
        0x000028bc:    85858595    ....    DCD    2240120213
        0x000028c0:    85858585    ....    DCD    2240120197
        0x000028c4:    85858585    ....    DCD    2240120197
        0x000028c8:    85858585    ....    DCD    2240120197
        0x000028cc:    85858585    ....    DCD    2240120197
        0x000028d0:    00000085    ....    DCD    133
        0x000028d4:    93808080    ....    DCD    2474672256
        0x000028d8:    93939393    ....    DCD    2475922323
        0x000028dc:    83838393    ....    DCD    2206434195
        0x000028e0:    83838383    ....    DCD    2206434179
        0x000028e4:    83838383    ....    DCD    2206434179
        0x000028e8:    83838383    ....    DCD    2206434179
        0x000028ec:    83838383    ....    DCD    2206434179
        0x000028f0:    80008083    ....    DCD    2147516547
        0x000028f4:    00000080    ....    DCD    128
        0x000028f8:    00000000    ....    DCD    0
        0x000028fc:    00000000    ....    DCD    0
        0x00002900:    00000000    ....    DCD    0
        0x00002904:    00000000    ....    DCD    0
        0x00002908:    00000000    ....    DCD    0
        0x0000290c:    00000000    ....    DCD    0
        0x00002910:    00000000    ....    DCD    0
        0x00002914:    00000000    ....    DCD    0
        0x00002918:    00000000    ....    DCD    0
        0x0000291c:    00000000    ....    DCD    0
        0x00002920:    00000000    ....    DCD    0
        0x00002924:    00000000    ....    DCD    0
        0x00002928:    00000000    ....    DCD    0
        0x0000292c:    00000000    ....    DCD    0
        0x00002930:    00000000    ....    DCD    0
        0x00002934:    00000000    ....    DCD    0
        0x00002938:    00000000    ....    DCD    0
        0x0000293c:    00000000    ....    DCD    0
        0x00002940:    00000000    ....    DCD    0
        0x00002944:    00000000    ....    DCD    0
        0x00002948:    00000000    ....    DCD    0
        0x0000294c:    00000000    ....    DCD    0
        0x00002950:    00000000    ....    DCD    0
        0x00002954:    00000000    ....    DCD    0
        0x00002958:    00000000    ....    DCD    0
        0x0000295c:    00000000    ....    DCD    0
        0x00002960:    00000000    ....    DCD    0
        0x00002964:    00000000    ....    DCD    0
        0x00002968:    00000000    ....    DCD    0
        0x0000296c:    00000000    ....    DCD    0
        0x00002970:    00000000    ....    DCD    0
        0x00002974:    00000000    ....    DCD    0
    .conststring
        0x00002978:    656e754a    June    DCD    1701737802
        0x0000297c:    00000000    ....    DCD    0
        0x00002980:    6372614d    Marc    DCD    1668440397
        0x00002984:    00000068    h...    DCD    104
        0x00002988:    69727041    Apri    DCD    1769107521
        0x0000298c:    0000006c    l...    DCD    108
        0x00002990:    65636544    Dece    DCD    1701012804
        0x00002994:    7265626d    mber    DCD    1919246957
        0x00002998:    00000000    ....    DCD    0
        0x0000299c:    74706553    Sept    DCD    1953523027
        0x000029a0:    65626d65    embe    DCD    1700949349
        0x000029a4:    00000072    r...    DCD    114
        0x000029a8:    65766f4e    Nove    DCD    1702260558
        0x000029ac:    7265626d    mber    DCD    1919246957
        0x000029b0:    00000000    ....    DCD    0
        0x000029b4:    6f74634f    Octo    DCD    1869898575
        0x000029b8:    00726562    ber.    DCD    7497058
        0x000029bc:    75677541    Augu    DCD    1969714497
        0x000029c0:    00007473    st..    DCD    29811
        0x000029c4:    0079614d    May.    DCD    7954765
        0x000029c8:    64697246    Frid    DCD    1684632134
        0x000029cc:    00007961    ay..    DCD    31073
        0x000029d0:    646e6f4d    Mond    DCD    1684959053
        0x000029d4:    00007961    ay..    DCD    31073
        0x000029d8:    646e7553    Sund    DCD    1684960595
        0x000029dc:    00007961    ay..    DCD    31073
        0x000029e0:    75746153    Satu    DCD    1970561363
        0x000029e4:    79616472    rday    DCD    2036425842
        0x000029e8:    00000000    ....    DCD    0
        0x000029ec:    6e646557    Wedn    DCD    1852073303
        0x000029f0:    61647365    esda    DCD    1633973093
        0x000029f4:    00000079    y...    DCD    121
        0x000029f8:    73657554    Tues    DCD    1936029012
        0x000029fc:    00796164    day.    DCD    7954788
        0x00002a00:    72756854    Thur    DCD    1920297044
        0x00002a04:    79616473    sday    DCD    2036425843
        0x00002a08:    00000000    ....    DCD    0
        0x00002a0c:    796c754a    July    DCD    2037151050
        0x00002a10:    00000000    ....    DCD    0
        0x00002a14:    756e614a    Janu    DCD    1970168138
        0x00002a18:    00797261    ary.    DCD    7959137
        0x00002a1c:    72626546    Febr    DCD    1919051078
        0x00002a20:    79726175    uary    DCD    2037539189
        0x00002a24:    00000000    ....    DCD    0
    Region$$Table$$Base
        0x00002a28:    00002a48    H*..    DCD    10824
        0x00002a2c:    10000000    ....    DCD    268435456
        0x00002a30:    00000088    ....    DCD    136
        0x00002a34:    000000d4    ....    DCD    212
        0x00002a38:    00002ad0    .*..    DCD    10960
        0x00002a3c:    10000088    ....    DCD    268435592
        0x00002a40:    00000398    ....    DCD    920
        0x00002a44:    000000f0    ....    DCD    240
    Region$$Table$$Limit

** Section #2 'SRAM' (SHT_PROGBITS) [SHF_ALLOC + SHF_WRITE]
    Size   : 136 bytes (alignment 4)
    Address: 0x10000000

    0x10000000:   d8 29 00 00 d0 29 00 00 f8 29 00 00 ec 29 00 00    .)...)...)...)..
    0x10000010:   00 2a 00 00 c8 29 00 00 e0 29 00 00 14 2a 00 00    .*...)...)...*..
    0x10000020:   1c 2a 00 00 80 29 00 00 88 29 00 00 c4 29 00 00    .*...)...)...)..
    0x10000030:   78 29 00 00 0c 2a 00 00 bc 29 00 00 9c 29 00 00    x)...*...)...)..
    0x10000040:   b4 29 00 00 a8 29 00 00 90 29 00 00 00 00 00 00    .)...)...)......
    0x10000050:   00 00 00 00 00 1a 04 09 00 00 3c 3c 00 00 00 00    ..........<<....
    0x10000060:   01 00 00 00 00 00 00 00 69 00 00 00 00 00 00 00    ........i.......
    0x10000070:   00 00 00 00 00 00 00 00 00 00 00 00 00 00 00 00    ................
    0x10000080:   00 00 00 00 80 00 00 10                            ........


** Section #3 'SRAM' (SHT_NOBITS) [SHF_ALLOC + SHF_WRITE]
    Size   : 920 bytes (alignment 8)
    Address: 0x10000088


** Section #4 '.debug_abbrev' (SHT_PROGBITS)
    Size   : 1476 bytes


** Section #5 '.debug_frame' (SHT_PROGBITS)
    Size   : 3804 bytes


** Section #6 '.debug_info' (SHT_PROGBITS)
    Size   : 20348 bytes


** Section #7 '.debug_line' (SHT_PROGBITS)
    Size   : 8068 bytes


** Section #8 '.debug_loc' (SHT_PROGBITS)
    Size   : 3480 bytes


** Section #9 '.debug_macinfo' (SHT_PROGBITS)
    Size   : 7272 bytes


** Section #10 '.debug_pubnames' (SHT_PROGBITS)
    Size   : 1495 bytes


** Section #11 '.symtab' (SHT_SYMTAB)
    Size   : 9168 bytes (alignment 4)
    String table #12 '.strtab'
    Last local symbol no. 387

    Symbol table .symtab (572 symbols, 387 local)

      #  Symbol Name                Value      Bind  Sec  Type  Vis  Size
    ========================================================================

      1  $d                         0x00000000   Lc    1   --   De 
      2  $t                         0x00000070   Lc    1   --   De 
      3  $d                         0x00000092   Lc    1   --   De 
      4  $t                         0x00000098   Lc    1   --   De 
      5  $d                         0x000000cc   Lc    1   --   De 
      6  $t                         0x000000d4   Lc    1   --   De 
      7  $d                         0x0000017e   Lc    1   --   De 
      8  $t                         0x0000018c   Lc    1   --   De 
      9  $d                         0x000001ec   Lc    1   --   De 
     10  $t                         0x000001f0   Lc    1   --   De 
     11  $d                         0x000001f8   Lc    1   --   De 
     12  $t                         0x000001fc   Lc    1   --   De 
     13  $d                         0x0000023c   Lc    1   --   De 
     14  $t                         0x00000244   Lc    1   --   De 
     15  $d                         0x00000276   Lc    1   --   De 
     16  $t                         0x00000280   Lc    1   --   De 
     17  $d                         0x000002d4   Lc    1   --   De 
     18  $t                         0x000002d8   Lc    1   --   De 
     19  $d                         0x000004cc   Lc    1   --   De 
     20  $t                         0x000004d8   Lc    1   --   De 
     21  $d                         0x0000077c   Lc    1   --   De 
     22  $t                         0x00000780   Lc    1   --   De 
     23  $d                         0x000008c0   Lc    1   --   De 
     24  $t                         0x000008c4   Lc    1   --   De 
     25  $d                         0x000008e0   Lc    1   --   De 
     26  $t                         0x000008e4   Lc    1   --   De 
     27  $d                         0x00000902   Lc    1   --   De 
     28  $t                         0x0000090a   Lc    1   --   De 
     29  $d                         0x00000930   Lc    1   --   De 
     30  $t                         0x00000950   Lc    1   --   De 
     31  $d                         0x00000970   Lc    1   --   De 
     32  $t                         0x00000974   Lc    1   --   De 
     33  $d                         0x0000098c   Lc    1   --   De 
     34  $t                         0x00000990   Lc    1   --   De 
     35  $d                         0x000009c4   Lc    1   --   De 
     36  $t                         0x000009c8   Lc    1   --   De 
     37  $d                         0x00000bac   Lc    1   --   De 
     38  $t                         0x00000bb0   Lc    1   --   De 
     39  $d                         0x00000cca   Lc    1   --   De 
     40  $t                         0x00000cd0   Lc    1   --   De 
     41  $d                         0x00000d16   Lc    1   --   De 
     42  $t                         0x00000d1c   Lc    1   --   De 
     43  $d                         0x00000d6e   Lc    1   --   De 
     44  $t                         0x00000d74   Lc    1   --   De 
     45  $d                         0x00000df2   Lc    1   --   De 
     46  $t                         0x00000dfc   Lc    1   --   De 
     47  $d                         0x00000e64   Lc    1   --   De 
     48  $t                         0x00000e6c   Lc    1   --   De 
     49  $d                         0x00000ef4   Lc    1   --   De 
     50  $t                         0x00000f3c   Lc    1   --   De 
     51  $d                         0x00000fc8   Lc    1   --   De 
     52  $t                         0x0000100c   Lc    1   --   De 
     53  $d                         0x000010ee   Lc    1   --   De 
     54  $t                         0x0000111c   Lc    1   --   De 
     55  $d                         0x000011c8   Lc    1   --   De 
     56  $t                         0x000011f8   Lc    1   --   De 
     57  $d                         0x000012d8   Lc    1   --   De 
     58  $t                         0x00001304   Lc    1   --   De 
     59  $d                         0x000013c8   Lc    1   --   De 
     60  $t                         0x000013f8   Lc    1   --   De 
     61  $d                         0x000014ac   Lc    1   --   De 
     62  $t                         0x000014d8   Lc    1   --   De 
     63  $d                         0x0000154e   Lc    1   --   De 
     64  $t                         0x00001580   Lc    1   --   De 
     65  $d                         0x0000163c   Lc    1   --   De 
     66  $t                         0x00001668   Lc    1   --   De 
     67  $d                         0x000016fa   Lc    1   --   De 
     68  $t                         0x0000172c   Lc    1   --   De 
     69  $d                         0x00001744   Lc    1   --   De 
     70  $t                         0x00001748   Lc    1   --   De 
     71  $d                         0x00001780   Lc    1   --   De 
     72  $t                         0x000017a0   Lc    1   --   De 
     73  $d                         0x000017c2   Lc    1   --   De 
     74  $t                         0x000017cc   Lc    1   --   De 
     75  $d                         0x00001822   Lc    1   --   De 
     76  $t                         0x00001828   Lc    1   --   De 
     77  $d                         0x00001834   Lc    1   --   De 
     78  $t                         0x00001838   Lc    1   --   De 
     79  $d                         0x0000185c   Lc    1   --   De 
     80  $t                         0x00001860   Lc    1   --   De 
     81  $d                         0x000018ae   Lc    1   --   De 
     82  $t                         0x000018b8   Lc    1   --   De 
     83  $d                         0x000018c2   Lc    1   --   De 
     84  $t                         0x000018c8   Lc    1   --   De 
     85  $d                         0x000018f0   Lc    1   --   De 
     86  $t                         0x000018fc   Lc    1   --   De 
     87  $d                         0x00001904   Lc    1   --   De 
     88  $t                         0x00001908   Lc    1   --   De 
     89  $d                         0x00001922   Lc    1   --   De 
     90  $t                         0x00001928   Lc    1   --   De 
     91  $d                         0x000019cc   Lc    1   --   De 
     92  $t                         0x000019d0   Lc    1   --   De 
     93  $d                         0x00001a28   Lc    1   --   De 
     94  $t                         0x00001a30   Lc    1   --   De 
     95  $d                         0x00001a36   Lc    1   --   De 
     96  $t                         0x00001a3c   Lc    1   --   De 
     97  $d                         0x00001a4c   Lc    1   --   De 
     98  $t                         0x00001a74   Lc    1   --   De 
     99  $d                         0x00001da4   Lc    1   --   De 
    100  $t                         0x00001db4   Lc    1   --   De 
    101  $d                         0x00001e02   Lc    1   --   De 
    102  $t                         0x00001e08   Lc    1   --   De 
    103  $d                         0x00001e5c   Lc    1   --   De 
    104  $t                         0x00001e68   Lc    1   --   De 
    105  $d                         0x00001f68   Lc    1   --   De 
    106  $t                         0x00001f6c   Lc    1   --   De 
    107  $d                         0x00001f94   Lc    1   --   De 
    108  $t                         0x00001f9c   Lc    1   --   De 
    109  $d                         0x000021e2   Lc    1   --   De 
    110  $t                         0x000021e8   Lc    1   --   De 
    111  $d                         0x000022e0   Lc    1   --   De 
    112  $t                         0x000022e4   Lc    1   --   De 
    113  $d                         0x00002472   Lc    1   --   De 
    114  $t                         0x0000250c   Lc    1   --   De 
    115  $d                         0x00002532   Lc    1   --   De 
    116  $t                         0x00002538   Lc    1   --   De 
    117  $d                         0x00002542   Lc    1   --   De 
    118  $t                         0x00002548   Lc    1   --   De 
    119  $d                         0x00002552   Lc    1   --   De 
    120  $t                         0x00002558   Lc    1   --   De 
    121  $d                         0x00002610   Lc    1   --   De 
    122  $t                         0x00002618   Lc    1   --   De 
    123  $d                         0x0000263e   Lc    1   --   De 
    124  $t                         0x00002648   Lc    1   --   De 
    125  $d                         0x000027b4   Lc    1   --   De 
    126  $t                         0x000027b8   Lc    1   --   De 
    127  $d                         0x00002836   Lc    1   --   De 
    128  $t                         0x0000283a   Lc    1   --   De 
    129  $d.realdata                0x00002876   Lc    1   --   De 
    130  $d.realdata                0x10000000   Lc    2   --   De 
    131  ../src/am1805_time.c       0x00000000   Lc  Abs  File  De 
    132  i.am_gpio_isr              0x000008c4   Lc    1  Sect  De 
    133  i.configure_amx8x5_pins    0x00001edc   Lc    1  Sect  De 
    134  i.countdown_start          0x00001f6c   Lc    1  Sect  De 
    135  i.main                     0x000022e4   Lc    1  Sect  De 
    136  i.mthToIndex               0x0000250c   Lc    1  Sect  De 
    137  i.mux_disable              0x00002538   Lc    1  Sect  De 
    138  i.mux_enable               0x00002548   Lc    1  Sect  De 
    139  i.time_read                0x000025ec   Lc    1  Sect  De 
    140  i.time_set                 0x00002618   Lc    1  Sect  De 
    141  i.toVal                    0x00002648   Lc    1  Sect  De 
    142  .conststring               0x00002978   Lc    1  Sect  De   0xad
    143  .data                      0x10000000   Lc    2  Sect  De   0x6c
    144  ..\..\..\..\..\utils\am_util_delay.c
                                    0x00000000   Lc  Abs  File  De 
    145  .emb_text                  0x00000138   Lc    1  Sect  De   0x6
    146  $v0                        0x00000138   Lc    1   --   De 
    147  ../../../../../utils/am_util_delay.c
                                    0x00000000   Lc  Abs  File  De 
    148  i.am_util_delay_us         0x00001908   Lc    1  Sect  De 
    149  ..\..\..\..\..\utils\am_util_faultisr.c
                                    0x00000000   Lc  Abs  File  De 
    150  .emb_text                  0x00000140   Lc    1  Sect  De   0x14
    151  $v0                        0x00000140   Lc    1   --   De 
    152  ../../../../../utils/am_util_faultisr.c
                                    0x00000000   Lc  Abs  File  De 
    153  i.am_util_faultisr_collect_data
                                    0x00001928   Lc    1  Sect  De 
    154  ../../../../../utils/am_util_math.c
                                    0x00000000   Lc  Abs  File  De 
    155  i.am_util_math_bcd_to_dec  0x000019d0   Lc    1  Sect  De 
    156  i.am_util_math_dec_to_bcd  0x000019e4   Lc    1  Sect  De 
    157  ../../../../../utils/am_util_stdio.c
                                    0x00000000   Lc  Abs  File  De 
    158  i.am_util_stdio_printf     0x00001a00   Lc    1  Sect  De 
    159  i.am_util_stdio_printf_init
                                    0x00001a30   Lc    1  Sect  De 
    160  i.am_util_stdio_terminal_clear
                                    0x00001a3c   Lc    1  Sect  De 
    161  i.am_util_stdio_vsprintf   0x00001a74   Lc    1  Sect  De 
    162  i.decstr_to_u              0x00001f9c   Lc    1  Sect  De 
    163  decstr_to_u                0x00001f9d   Lc    1  Code  De   0x2c
    164  i.divu64_10                0x00001fc8   Lc    1  Sect  De 
    165  divu64_10                  0x00001fc9   Lc    1  Code  De   0xcc
    166  i.ftoa                     0x00002094   Lc    1  Sect  De 
    167  ftoa                       0x00002095   Lc    1  Code  De   0x14e
    168  i.ndigits_in_hex           0x00002558   Lc    1  Sect  De 
    169  ndigits_in_hex             0x00002559   Lc    1  Code  De   0x34
    170  i.ndigits_in_i64           0x0000258c   Lc    1  Sect  De 
    171  ndigits_in_i64             0x0000258d   Lc    1  Code  De   0x24
    172  i.ndigits_in_u64           0x000025b0   Lc    1  Sect  De 
    173  ndigits_in_u64             0x000025b1   Lc    1  Code  De   0x3a
    174  i.uint64_to_hexstr         0x0000266a   Lc    1  Sect  De 
    175  uint64_to_hexstr           0x0000266b   Lc    1  Code  De   0x8a
    176  i.uint64_to_str            0x000026f4   Lc    1  Sect  De 
    177  uint64_to_str              0x000026f5   Lc    1  Code  De   0x70
    178  .bss                       0x10000088   Lc    3  Sect  De   0x100
    179  g_prfbuf                   0x10000088   Lc    3  Data  De   0x100
    180  .data                      0x1000006c   Lc    2  Sect  De   0x5
    181  g_bTxtXlate                0x10000070   Lc    2  Data  De   0x1
    182  ../../../../../utils/am_util_string.c
                                    0x00000000   Lc  Abs  File  De 
    183  i.am_util_string_strnicmp  0x00001db4   Lc    1  Sect  De 
    184  .constdata                 0x00002876   Lc    1  Sect  De   0x100
    185  ../../../../../utils/am_util_time.c
                                    0x00000000   Lc  Abs  File  De 
    186  i.am_util_time_computeDayofWeek
                                    0x00001e08   Lc    1  Sect  De 
    187  ../../../../../devices/am_devices_amx8x5.c
                                    0x00000000   Lc  Abs  File  De 
    188  i.am_devices_amx8x5_countdown_set
                                    0x00000300   Lc    1  Sect  De 
    189  i.am_devices_amx8x5_reg_block_read
                                    0x000004d8   Lc    1  Sect  De 
    190  i.am_devices_amx8x5_reg_block_write
                                    0x00000558   Lc    1  Sect  De 
    191  i.am_devices_amx8x5_reg_clear
                                    0x000005d8   Lc    1  Sect  De 
    192  i.am_devices_amx8x5_reg_read
                                    0x000005fc   Lc    1  Sect  De 
    193  i.am_devices_amx8x5_reg_set
                                    0x0000063e   Lc    1  Sect  De 
    194  i.am_devices_amx8x5_reg_write
                                    0x00000662   Lc    1  Sect  De 
    195  i.am_devices_amx8x5_time_get
                                    0x000006ac   Lc    1  Sect  De 
    196  i.am_devices_amx8x5_time_set
                                    0x00000780   Lc    1  Sect  De 
    197  .bss                       0x10000188   Lc    3  Sect  De   0xa
    198  ../keil/startup_keil.s     0x00000000   Lc  Abs  File  De 
    199  STACK                      0x10000220   Lc    3  Sect  De   0x200
    200  StackMem                   0x10000220   Lc    3  Data  De 
    201  HEAP                       0x10000220   Lc    3  Sect  De 
    202  HeapMem                    0x10000220   Lc    3  Data  De 
    203  RESET                      0x00000000   Lc    1  Sect  De   0x98
    204  $v0                        0x00000070   Lc    1   --   De 
    205  .text                      0x00000174   Lc    1  Sect  De   0x18
    206  $v0                        0x00000174   Lc    1   --   De 
    207  ../am_hal_global.c         0x00000000   Lc  Abs  File  De 
    208  .data                      0x10000074   Lc    2  Sect  De   0x4
    209  ../am_hal_clkgen.c         0x00000000   Lc  Abs  File  De 
    210  i.am_hal_clkgen_osc_stop   0x000008e4   Lc    1  Sect  De 
    211  i.am_hal_clkgen_sysclk_get 0x000008f0   Lc    1  Sect  De 
    212  i.am_hal_clkgen_sysclk_select
                                    0x00000950   Lc    1  Sect  De 
    213  ../am_hal_gpio.c           0x00000000   Lc  Abs  File  De 
    214  i.am_hal_gpio_int_clear    0x00000964   Lc    1  Sect  De 
    215  i.am_hal_gpio_int_enable   0x00000974   Lc    1  Sect  De 
    216  i.am_hal_gpio_int_status_get
                                    0x00000990   Lc    1  Sect  De 
    217  ..\am_hal_interrupt.c      0x00000000   Lc  Abs  File  De 
    218  .emb_text                  0x00000154   Lc    1  Sect  De   0x16
    219  $v0                        0x00000154   Lc    1   --   De 
    220  ../am_hal_interrupt.c      0x00000000   Lc  Abs  File  De 
    221  i.am_hal_interrupt_enable  0x00000cd0   Lc    1  Sect  De 
    222  ../am_hal_iom.c            0x00000000   Lc  Abs  File  De 
    223  i.am_hal_iom_config        0x00000d1c   Lc    1  Sect  De 
    224  i.am_hal_iom_disable       0x00000d74   Lc    1  Sect  De 
    225  i.am_hal_iom_enable        0x00000dfc   Lc    1  Sect  De 
    226  i.am_hal_iom_fifo_read     0x00000e6c   Lc    1  Sect  De 
    227  i.am_hal_iom_fifo_write    0x00000f3c   Lc    1  Sect  De 
    228  i.am_hal_iom_i2c_read      0x0000100c   Lc    1  Sect  De 
    229  i.am_hal_iom_i2c_read_nb   0x0000111c   Lc    1  Sect  De 
    230  i.am_hal_iom_i2c_write     0x000011f8   Lc    1  Sect  De 
    231  i.am_hal_iom_i2c_write_nb  0x00001304   Lc    1  Sect  De 
    232  i.am_hal_iom_spi_read      0x000013f8   Lc    1  Sect  De 
    233  i.am_hal_iom_spi_read_nb   0x000014d8   Lc    1  Sect  De 
    234  i.am_hal_iom_spi_write     0x00001580   Lc    1  Sect  De 
    235  i.am_hal_iom_spi_write_nb  0x00001668   Lc    1  Sect  De 
    236  .bss                       0x10000194   Lc    3  Sect  De   0x20
    237  .data                      0x10000078   Lc    2  Sect  De   0x8
    238  ..\am_hal_itm.c            0x00000000   Lc  Abs  File  De 
    239  .emb_text                  0x0000016c   Lc    1  Sect  De   0x6
    240  $v0                        0x0000016c   Lc    1   --   De 
    241  ../am_hal_itm.c            0x00000000   Lc  Abs  File  De 
    242  i.am_hal_itm_delay_us      0x0000172c   Lc    1  Sect  De 
    243  i.am_hal_itm_enable        0x00001748   Lc    1  Sect  De 
    244  i.am_hal_itm_not_busy      0x000017a0   Lc    1  Sect  De 
    245  i.am_hal_itm_print         0x000017cc   Lc    1  Sect  De 
    246  .data                      0x10000080   Lc    2  Sect  De   0x8
    247  ../am_hal_sysctrl.c        0x00000000   Lc  Abs  File  De 
    248  i.am_hal_sysctrl_sleep     0x00001884   Lc    1  Sect  De 
    249  ../am_bsp.c                0x00000000   Lc  Abs  File  De 
    250  i.am_bsp_debug_printf_disable
                                    0x00000200   Lc    1  Sect  De 
    251  i.am_bsp_debug_printf_enable
                                    0x00000244   Lc    1  Sect  De 
    252  i.am_bsp_iom_i2c_pins_enable
                                    0x00000280   Lc    1  Sect  De 
    253  i.am_bsp_low_power_init    0x000002d8   Lc    1  Sect  De 
    254  ../am_hal_debug.c          0x00000000   Lc  Abs  File  De 
    255  i.am_hal_debug_error       0x00000960   Lc    1  Sect  De 
    256  ../am_hal_i2c_bit_bang.c   0x00000000   Lc  Abs  File  De 
    257  i.am_hal_i2c_bit_bang_receive
                                    0x000009c8   Lc    1  Sect  De 
    258  i.am_hal_i2c_bit_bang_send 0x00000bb0   Lc    1  Sect  De 
    259  i.i2c_send_byte            0x000021e8   Lc    1  Sect  De 
    260  i2c_send_byte              0x000021e9   Lc    1  Code  De   0xf8
    261  .bss                       0x100001b4   Lc    3  Sect  De   0xc
    262  am_hal_i2c_bit_bang_priv   0x100001b4   Lc    3  Data  De   0xc
    263  ../am_hal_mcuctrl.c        0x00000000   Lc  Abs  File  De 
    264  i.am_hal_mcuctrl_bandgap_disable
                                    0x00001828   Lc    1  Sect  De 
    265  i.am_hal_mcuctrl_bucks_enable
                                    0x00001838   Lc    1  Sect  De 
    266  ../am_hal_rtc.c            0x00000000   Lc  Abs  File  De 
    267  i.am_hal_rtc_osc_disable   0x00001860   Lc    1  Sect  De 
    268  i.am_hal_rtc_osc_select    0x0000186e   Lc    1  Sect  De 
    269  ../am_hal_tpiu.c           0x00000000   Lc  Abs  File  De 
    270  i.am_hal_tpiu_disable      0x000018b8   Lc    1  Sect  De 
    271  i.am_hal_tpiu_enable       0x000018c8   Lc    1  Sect  De 
    272  ../am_hal_vcomp.c          0x00000000   Lc  Abs  File  De 
    273  i.am_hal_vcomp_disable     0x000018fc   Lc    1  Sect  De 
    274  dc.s                       0x00000000   Lc  Abs  File  De 
    275  ../clib/heapaux.c          0x00000000   Lc  Abs  File  De 
    276  .text                      0x0000018c   Lc    1  Sect  De 
    277  ../clib/angel/startup.s    0x00000000   Lc  Abs  File  De 
    278  !!!main                    0x00000098   Lc    1  Sect  De   0x8
    279  ../fplib/d2f.s             0x00000000   Lc  Abs  File  De 
    280  x$fpl$d2f                  0x00002764   Lc    1  Sect  De   0x62
    281  $v0                        0x00002764   Lc    1   --   De 
    282  ../clib/angel/kernel.s     0x00000000   Lc  Abs  File  De 
    283  .ARM.Collect$$rtentry$$00000000
                                    0x00000118   Lc    1  Sect  De 
    284  ../fplib/dnaninf.s         0x00000000   Lc  Abs  File  De 
    285  x$fpl$dnaninf              0x000027c6   Lc    1  Sect  De   0x9c
    286  $v0                        0x000027c6   Lc    1   --   De 
    287  ../fplib/fretinf.s         0x00000000   Lc  Abs  File  De 
    288  x$fpl$fretinf              0x0000286c   Lc    1  Sect  De   0xa
    289  $v0                        0x0000286c   Lc    1   --   De 
    290  ../fplib/usenofp.s         0x00000000   Lc  Abs  File  De 
    291  x$fpl$usenofp              0x00002876   Lc    1  Sect  De 
    292  ../clib/angel/kernel.s     0x00000000   Lc  Abs  File  De 
    293  .ARM.Collect$$rtentry$$00000002
                                    0x00000118   Lc    1  Sect  De 
    294  .ARM.Collect$$rtentry$$00000009
                                    0x0000011e   Lc    1  Sect  De 
    295  .ARM.Collect$$rtentry$$0000000A
                                    0x0000011e   Lc    1  Sect  De   0x4
    296  .ARM.Collect$$rtentry$$0000000C
                                    0x00000122   Lc    1  Sect  De 
    297  .ARM.Collect$$rtentry$$0000000D
                                    0x00000122   Lc    1  Sect  De   0x8
    298  ../clib/angel/kernel.s     0x00000000   Lc  Abs  File  De 
    299  .ARM.Collect$$rtentry$$00000004
                                    0x00000118   Lc    1  Sect  De   0x6
    300  ../clib/angel/sys.s        0x00000000   Lc  Abs  File  De 
    301  .text                      0x00000192   Lc    1  Sect  De   0x4a
    302  ../clib/stdlib.c           0x00000000   Lc  Abs  File  De 
    303  .text                      0x000001dc   Lc    1  Sect  De 
    304  ../clib/angel/boardlib.s   0x00000000   Lc  Abs  File  De 
    305  ../clib/angel/boardlib.s   0x00000000   Lc  Abs  File  De 
    306  ../clib/angel/boardlib.s   0x00000000   Lc  Abs  File  De 
    307  ../clib/libinit.s          0x00000000   Lc  Abs  File  De 
    308  .ARM.Collect$$libinit$$00000000
                                    0x0000010c   Lc    1  Sect  De   0x2
    309  ../clib/angel/sys.s        0x00000000   Lc  Abs  File  De 
    310  .text                      0x000001e8   Lc    1  Sect  De   0x8
    311  .bss                       0x100001c0   Lc    3  Sect  De   0x60
    312  ../clib/angel/kernel.s     0x00000000   Lc  Abs  File  De 
    313  .ARM.Collect$$rtexit$$00000000
                                    0x0000012a   Lc    1  Sect  De   0x2
    314  ../clib/libinit.s          0x00000000   Lc  Abs  File  De 
    315  .ARM.Collect$$libinit$$00000001
                                    0x0000010e   Lc    1  Sect  De   0x4
    316  .ARM.Collect$$libinit$$00000004
                                    0x00000112   Lc    1  Sect  De 
    317  .ARM.Collect$$libinit$$0000000A
                                    0x00000112   Lc    1  Sect  De 
    318  .ARM.Collect$$libinit$$0000000C
                                    0x00000112   Lc    1  Sect  De 
    319  .ARM.Collect$$libinit$$0000000E
                                    0x00000112   Lc    1  Sect  De 
    320  .ARM.Collect$$libinit$$00000011
                                    0x00000112   Lc    1  Sect  De 
    321  .ARM.Collect$$libinit$$00000013
                                    0x00000112   Lc    1  Sect  De 
    322  .ARM.Collect$$libinit$$00000015
                                    0x00000112   Lc    1  Sect  De 
    323  .ARM.Collect$$libinit$$00000017
                                    0x00000112   Lc    1  Sect  De 
    324  .ARM.Collect$$libinit$$00000019
                                    0x00000112   Lc    1  Sect  De 
    325  .ARM.Collect$$libinit$$0000001B
                                    0x00000112   Lc    1  Sect  De 
    326  .ARM.Collect$$libinit$$0000001D
                                    0x00000112   Lc    1  Sect  De 
    327  .ARM.Collect$$libinit$$0000001F
                                    0x00000112   Lc    1  Sect  De 
    328  .ARM.Collect$$libinit$$00000021
                                    0x00000112   Lc    1  Sect  De 
    329  .ARM.Collect$$libinit$$00000023
                                    0x00000112   Lc    1  Sect  De 
    330  .ARM.Collect$$libinit$$00000025
                                    0x00000112   Lc    1  Sect  De 
    331  .ARM.Collect$$libinit$$0000002C
                                    0x00000112   Lc    1  Sect  De 
    332  .ARM.Collect$$libinit$$0000002E
                                    0x00000112   Lc    1  Sect  De 
    333  .ARM.Collect$$libinit$$00000030
                                    0x00000112   Lc    1  Sect  De 
    334  .ARM.Collect$$libinit$$00000032
                                    0x00000112   Lc    1  Sect  De 
    335  .ARM.Collect$$libinit$$00000033
                                    0x00000112   Lc    1  Sect  De   0x2
    336  ../clib/angel/kernel.s     0x00000000   Lc  Abs  File  De 
    337  .ARM.Collect$$rtexit$$00000002
                                    0x0000012c   Lc    1  Sect  De 
    338  .ARM.Collect$$rtexit$$00000003
                                    0x0000012c   Lc    1  Sect  De   0x4
    339  .ARM.Collect$$rtexit$$00000004
                                    0x00000130   Lc    1  Sect  De   0x6
    340  ../clib/armsys.c           0x00000000   Lc  Abs  File  De 
    341  ../clib/armsys.c           0x00000000   Lc  Abs  File  De 
    342  ../fplib/fpinit.s          0x00000000   Lc  Abs  File  De 
    343  x$fpl$fpinit               0x00002862   Lc    1  Sect  De   0xa
    344  $v0                        0x00002862   Lc    1   --   De 
    345  ../clib/angel/sysapp.c     0x00000000   Lc  Abs  File  De 
    346  .text                      0x000001f0   Lc    1  Sect  De 
    347  ../clib/angel/boardlib.s   0x00000000   Lc  Abs  File  De 
    348  ../clib/armsys.c           0x00000000   Lc  Abs  File  De 
    349  ../clib/armsys.c           0x00000000   Lc  Abs  File  De 
    350  ../clib/libinit.s          0x00000000   Lc  Abs  File  De 
    351  .ARM.Collect$$libshutdown$$00000000
                                    0x00000114   Lc    1  Sect  De   0x2
    352  ../clib/angel/sysapp.c     0x00000000   Lc  Abs  File  De 
    353  ../clib/angel/sys.s        0x00000000   Lc  Abs  File  De 
    354  .text                      0x000001fc   Lc    1  Sect  De   0x2
    355  ../clib/angel/sys.s        0x00000000   Lc  Abs  File  De 
    356  .text                      0x000001fe   Lc    1  Sect  De 
    357  ../clib/heapalloc.c        0x00000000   Lc  Abs  File  De 
    358  ../clib/signal.c           0x00000000   Lc  Abs  File  De 
    359  ../clib/signal.c           0x00000000   Lc  Abs  File  De 
    360  ../clib/libinit.s          0x00000000   Lc  Abs  File  De 
    361  .ARM.Collect$$libshutdown$$00000003
                                    0x00000116   Lc    1  Sect  De 
    362  .ARM.Collect$$libshutdown$$00000006
                                    0x00000116   Lc    1  Sect  De 
    363  .ARM.Collect$$libshutdown$$00000009
                                    0x00000116   Lc    1  Sect  De 
    364  .ARM.Collect$$libshutdown$$0000000B
                                    0x00000116   Lc    1  Sect  De 
    365  .ARM.Collect$$libshutdown$$0000000E
                                    0x00000116   Lc    1  Sect  De 
    366  .ARM.Collect$$libshutdown$$0000000F
                                    0x00000116   Lc    1  Sect  De   0x2
    367  ../clib/angel/rt.s         0x00000000   Lc  Abs  File  De 
    368  ../clib/signal.c           0x00000000   Lc  Abs  File  De 
    369  ../clib/signal.c           0x00000000   Lc  Abs  File  De 
    370  ../clib/signal.c           0x00000000   Lc  Abs  File  De 
    371  ../clib/signal.c           0x00000000   Lc  Abs  File  De 
    372  ../clib/angel/sysapp.c     0x00000000   Lc  Abs  File  De 
    373  ../clib/signal.s           0x00000000   Lc  Abs  File  De 
    374  ../clib/signal.c           0x00000000   Lc  Abs  File  De 
    375  ../clib/signal.c           0x00000000   Lc  Abs  File  De 
    376  ../clib/signal.c           0x00000000   Lc  Abs  File  De 
    377  ../clib/signal.c           0x00000000   Lc  Abs  File  De 
    378  ../clib/signal.c           0x00000000   Lc  Abs  File  De 
    379  ../clib/signal.c           0x00000000   Lc  Abs  File  De 
    380  ../clib/signal.c           0x00000000   Lc  Abs  File  De 
    381  ../clib/signal.c           0x00000000   Lc  Abs  File  De 
    382  ../clib/angel/scatter.s    0x00000000   Lc  Abs  File  De 
    383  !!!scatter                 0x000000a0   Lc    1  Sect  De   0x34
    384  ../clib/angel/handlers.s   0x00000000   Lc  Abs  File  De 
    385  !!handler_copy             0x000000d4   Lc    1  Sect  De   0x1a
    386  ../clib/angel/handlers.s   0x00000000   Lc  Abs  File  De 
    387  !!handler_zi               0x000000f0   Lc    1  Sect  De   0x1c
    388  BuildAttributes$$THM_ISAv4$E$P$D$K$B$S$7EM$VFPi3$EXTD16$VFPS$VFMA$PE$A:L22UL41UL21$X:L11$S22US41US21$IEEE1$IW$USESV6$~STKCKD$USESV7$~SHL$OTIME$ROPI$EBA8$UX$STANDARDLIB$REQ8$PRES8$EABIv2
                                    0x00000000   Gb  Abs   --   Hi 
    389  __ARM_use_no_argv          0x00000000   Gb  Abs   --   Hi 
    390  __Vectors                  0x00000000   Gb    1  Data  Hi 
    391  Reset_Handler              0x00000071   Wk    1  Code  Hi   0x14
    392  am_nmi_isr                 0x00000085   Wk    1  Code  Hi   0x2
    393  am_memmanage_isr           0x00000089   Wk    1  Code  Hi   0x2
    394  am_mpufault_isr            0x0000008b   Wk    1  Code  Hi   0x2
    395  am_busfault_isr            0x0000008d   Wk    1  Code  Hi   0x2
    396  am_usagefault_isr          0x0000008f   Wk    1  Code  Hi   0x2
    397  am_adc_isr                 0x00000091   Wk    1  Code  Hi 
    398  am_brownout_isr            0x00000091   Wk    1  Code  Hi 
    399  am_clkgen_isr              0x00000091   Wk    1  Code  Hi 
    400  am_ctimer_isr              0x00000091   Wk    1  Code  Hi 
    401  am_debugmon_isr            0x00000091   Wk    1  Code  Hi 
    402  am_iomaster0_isr           0x00000091   Wk    1  Code  Hi 
    403  am_iomaster1_isr           0x00000091   Wk    1  Code  Hi 
    404  am_ioslave_acc_isr         0x00000091   Wk    1  Code  Hi 
    405  am_ioslave_ios_isr         0x00000091   Wk    1  Code  Hi 
    406  am_pendsv_isr              0x00000091   Wk    1  Code  Hi 
    407  am_svcall_isr              0x00000091   Wk    1  Code  Hi 
    408  am_systick_isr             0x00000091   Wk    1  Code  Hi 
    409  am_uart_isr                0x00000091   Wk    1  Code  Hi 
    410  am_vcomp_isr               0x00000091   Wk    1  Code  Hi 
    411  am_watchdog_isr            0x00000091   Wk    1  Code  Hi 
    412  __main                     0x00000099   Gb    1  Code  Hi   0x8
    413  __scatterload              0x000000a1   Gb    1  Code  Hi 
    414  __scatterload_rt2          0x000000a1   Gb    1  Code  Hi   0x2c
    415  __scatterload_rt2_thumb_only
                                    0x000000a1   Gb    1  Code  Hi 
    416  __scatterload_null         0x000000af   Gb    1  Code  Hi 
    417  __scatterload_copy         0x000000d5   Gb    1  Code  Hi   0x1a
    418  __scatterload_zeroinit     0x000000f1   Gb    1  Code  Hi   0x1c
    419  __rt_lib_init              0x0000010d   Gb    1  Code  De 
    420  __rt_lib_init_fp_1         0x0000010f   Gb    1  Code  Hi 
    421  __rt_lib_init_alloca_1     0x00000113   Gb    1  Code  Hi 
    422  __rt_lib_init_argv_1       0x00000113   Gb    1  Code  Hi 
    423  __rt_lib_init_atexit_1     0x00000113   Gb    1  Code  Hi 
    424  __rt_lib_init_clock_1      0x00000113   Gb    1  Code  Hi 
    425  __rt_lib_init_cpp_1        0x00000113   Gb    1  Code  Hi 
    426  __rt_lib_init_exceptions_1 0x00000113   Gb    1  Code  Hi 
    427  __rt_lib_init_fp_trap_1    0x00000113   Gb    1  Code  Hi 
    428  __rt_lib_init_getenv_1     0x00000113   Gb    1  Code  Hi 
    429  __rt_lib_init_heap_1       0x00000113   Gb    1  Code  Hi 
    430  __rt_lib_init_lc_collate_1 0x00000113   Gb    1  Code  Hi 
    431  __rt_lib_init_lc_ctype_1   0x00000113   Gb    1  Code  Hi 
    432  __rt_lib_init_lc_monetary_1
                                    0x00000113   Gb    1  Code  Hi 
    433  __rt_lib_init_lc_numeric_1 0x00000113   Gb    1  Code  Hi 
    434  __rt_lib_init_lc_time_1    0x00000113   Gb    1  Code  Hi 
    435  __rt_lib_init_preinit_1    0x00000113   Gb    1  Code  Hi 
    436  __rt_lib_init_rand_1       0x00000113   Gb    1  Code  Hi 
    437  __rt_lib_init_return       0x00000113   Gb    1  Code  Hi 
    438  __rt_lib_init_signal_1     0x00000113   Gb    1  Code  Hi 
    439  __rt_lib_init_stdio_1      0x00000113   Gb    1  Code  Hi 
    440  __rt_lib_init_user_alloc_1 0x00000113   Gb    1  Code  Hi 
    441  __rt_lib_shutdown          0x00000115   Gb    1  Code  De 
    442  __rt_lib_shutdown_fp_trap_1
                                    0x00000117   Gb    1  Code  Hi 
    443  __rt_lib_shutdown_heap_1   0x00000117   Gb    1  Code  Hi 
    444  __rt_lib_shutdown_return   0x00000117   Gb    1  Code  Hi 
    445  __rt_lib_shutdown_signal_1 0x00000117   Gb    1  Code  Hi 
    446  __rt_lib_shutdown_stdio_1  0x00000117   Gb    1  Code  Hi 
    447  __rt_lib_shutdown_user_alloc_1
                                    0x00000117   Gb    1  Code  Hi 
    448  __rt_entry                 0x00000119   Gb    1  Code  Hi 
    449  __rt_entry_presh_1         0x00000119   Gb    1  Code  Hi 
    450  __rt_entry_sh              0x00000119   Gb    1  Code  Hi 
    451  __rt_entry_li              0x0000011f   Gb    1  Code  Hi 
    452  __rt_entry_postsh_1        0x0000011f   Gb    1  Code  Hi 
    453  __rt_entry_main            0x00000123   Gb    1  Code  Hi 
    454  __rt_entry_postli_1        0x00000123   Gb    1  Code  Hi 
    455  __rt_exit                  0x0000012b   Gb    1  Code  De 
    456  __rt_exit_ls               0x0000012d   Gb    1  Code  Hi 
    457  __rt_exit_prels_1          0x0000012d   Gb    1  Code  Hi 
    458  __rt_exit_exit             0x00000131   Gb    1  Code  Hi 
    459  am_util_delay_cycles       0x00000139   Gb    1  Code  Hi   0x6
    460  am_fault_isr               0x00000141   Gb    1  Code  Hi   0xc
    461  getStackedReg              0x0000014d   Gb    1  Code  Hi   0x8
    462  am_hal_interrupt_master_enable
                                    0x00000155   Gb    1  Code  Hi   0x8
    463  am_hal_interrupt_master_disable
                                    0x0000015d   Gb    1  Code  Hi   0x8
    464  am_hal_interrupt_master_set
                                    0x00000165   Gb    1  Code  Hi   0x6
    465  __asm___12_am_hal_itm_c_0782d9ac__am_itm_delay_cycles
                                    0x0000016d   Gb    1  Code  Hi   0x6
    466  __user_initial_stackheap   0x00000175   Gb    1  Code  Hi   0xa
    467  __use_two_region_memory    0x0000018d   Gb    1  Code  Hi   0x2
    468  __rt_heap_escrow$2region   0x0000018f   Gb    1  Code  De   0x2
    469  __rt_heap_expand$2region   0x00000191   Gb    1  Code  De   0x2
    470  __user_setup_stackheap     0x00000193   Gb    1  Code  De   0x4a
    471  exit                       0x000001dd   Gb    1  Code  De   0xc
    472  __user_libspace            0x000001e9   Wk    1  Code  De   0x8
    473  __user_perproc_libspace    0x000001e9   Wk    1  Code  De 
    474  __user_perthread_libspace  0x000001e9   Wk    1  Code  De 
    475  _sys_exit                  0x000001f1   Gb    1  Code  De   0x8
    476  __I$use$semihosting        0x000001fd   Gb    1  Code  Hi 
    477  __use_no_semihosting_swi   0x000001fd   Gb    1  Code  Hi   0x2
    478  __semihosting_library_function
                                    0x000001ff   Gb    1  Code  Hi 
    479  am_bsp_debug_printf_disable
                                    0x00000201   Gb    1  Code  Hi   0x3c
    480  am_bsp_debug_printf_enable 0x00000245   Gb    1  Code  Hi   0x32
    481  am_bsp_iom_i2c_pins_enable 0x00000281   Gb    1  Code  Hi   0x54
    482  am_bsp_low_power_init      0x000002d9   Gb    1  Code  Hi   0x28
    483  am_devices_amx8x5_countdown_set
                                    0x00000301   Gb    1  Code  Hi   0x1cc
    484  am_devices_amx8x5_reg_block_read
                                    0x000004d9   Gb    1  Code  Hi   0x80
    485  am_devices_amx8x5_reg_block_write
                                    0x00000559   Gb    1  Code  Hi   0x80
    486  am_devices_amx8x5_reg_clear
                                    0x000005d9   Gb    1  Code  Hi   0x24
    487  am_devices_amx8x5_reg_read 0x000005fd   Gb    1  Code  Hi   0x42
    488  am_devices_amx8x5_reg_set  0x0000063f   Gb    1  Code  Hi   0x24
    489  am_devices_amx8x5_reg_write
                                    0x00000663   Gb    1  Code  Hi   0x48
    490  am_devices_amx8x5_time_get 0x000006ad   Gb    1  Code  Hi   0xd0
    491  am_devices_amx8x5_time_set 0x00000781   Gb    1  Code  Hi   0x140
    492  am_gpio_isr                0x000008c5   Gb    1  Code  Hi   0x1c
    493  am_hal_clkgen_osc_stop     0x000008e5   Gb    1  Code  Hi   0xc
    494  am_hal_clkgen_sysclk_get   0x000008f1   Gb    1  Code  Hi   0x40
    495  am_hal_clkgen_sysclk_select
                                    0x00000951   Gb    1  Code  Hi   0x10
    496  am_hal_debug_error         0x00000961   Wk    1  Code  Hi   0x2
    497  am_hal_gpio_int_clear      0x00000965   Gb    1  Code  Hi   0xc
    498  am_hal_gpio_int_enable     0x00000975   Gb    1  Code  Hi   0x18
    499  am_hal_gpio_int_status_get 0x00000991   Gb    1  Code  Hi   0x34
    500  am_hal_i2c_bit_bang_receive
                                    0x000009c9   Gb    1  Code  Hi   0x1e4
    501  am_hal_i2c_bit_bang_send   0x00000bb1   Gb    1  Code  Hi   0x11a
    502  am_hal_interrupt_enable    0x00000cd1   Gb    1  Code  Hi   0x46
    503  am_hal_iom_config          0x00000d1d   Gb    1  Code  Hi   0x52
    504  am_hal_iom_disable         0x00000d75   Gb    1  Code  Hi   0x7e
    505  am_hal_iom_enable          0x00000dfd   Gb    1  Code  Hi   0x68
    506  am_hal_iom_fifo_read       0x00000e6d   Gb    1  Code  Hi   0x88
    507  am_hal_iom_fifo_write      0x00000f3d   Gb    1  Code  Hi   0x8c
    508  am_hal_iom_i2c_read        0x0000100d   Gb    1  Code  Hi   0xe2
    509  am_hal_iom_i2c_read_nb     0x0000111d   Gb    1  Code  Hi   0xac
    510  am_hal_iom_i2c_write       0x000011f9   Gb    1  Code  Hi   0xe0
    511  am_hal_iom_i2c_write_nb    0x00001305   Gb    1  Code  Hi   0xc4
    512  am_hal_iom_spi_read        0x000013f9   Gb    1  Code  Hi   0xb4
    513  am_hal_iom_spi_read_nb     0x000014d9   Gb    1  Code  Hi   0x76
    514  am_hal_iom_spi_write       0x00001581   Gb    1  Code  Hi   0xbc
    515  am_hal_iom_spi_write_nb    0x00001669   Gb    1  Code  Hi   0x92
    516  am_hal_itm_delay_us        0x0000172d   Gb    1  Code  Hi   0x18
    517  am_hal_itm_enable          0x00001749   Gb    1  Code  Hi   0x38
    518  am_hal_itm_not_busy        0x000017a1   Gb    1  Code  Hi   0x22
    519  am_hal_itm_print           0x000017cd   Gb    1  Code  Hi   0x56
    520  am_hal_mcuctrl_bandgap_disable
                                    0x00001829   Gb    1  Code  Hi   0xc
    521  am_hal_mcuctrl_bucks_enable
                                    0x00001839   Gb    1  Code  Hi   0x24
    522  am_hal_rtc_osc_disable     0x00001861   Gb    1  Code  Hi   0xe
    523  am_hal_rtc_osc_select      0x0000186f   Gb    1  Code  Hi   0x16
    524  am_hal_sysctrl_sleep       0x00001885   Gb    1  Code  Hi   0x2a
    525  am_hal_tpiu_disable        0x000018b9   Gb    1  Code  Hi   0xa
    526  am_hal_tpiu_enable         0x000018c9   Gb    1  Code  Hi   0x28
    527  am_hal_vcomp_disable       0x000018fd   Gb    1  Code  Hi   0x8
    528  am_util_delay_us           0x00001909   Gb    1  Code  Hi   0x1a
    529  am_util_faultisr_collect_data
                                    0x00001929   Gb    1  Code  Hi   0xa4
    530  am_util_math_bcd_to_dec    0x000019d1   Gb    1  Code  Hi   0x14
    531  am_util_math_dec_to_bcd    0x000019e5   Gb    1  Code  Hi   0x1a
    532  am_util_stdio_printf       0x00001a01   Gb    1  Code  Hi   0x28
    533  am_util_stdio_printf_init  0x00001a31   Gb    1  Code  Hi   0x6
    534  am_util_stdio_terminal_clear
                                    0x00001a3d   Gb    1  Code  Hi   0x10
    535  am_util_stdio_vsprintf     0x00001a75   Gb    1  Code  Hi   0x330
    536  am_util_string_strnicmp    0x00001db5   Gb    1  Code  Hi   0x4e
    537  am_util_time_computeDayofWeek
                                    0x00001e09   Gb    1  Code  Hi   0xd2
    538  configure_amx8x5_pins      0x00001edd   Gb    1  Code  Hi   0x8c
    539  countdown_start            0x00001f6d   Gb    1  Code  Hi   0x28
    540  main                       0x000022e5   Gb    1  Code  Hi   0x18e
    541  mthToIndex                 0x0000250d   Gb    1  Code  Hi   0x26
    542  mux_disable                0x00002539   Gb    1  Code  Hi   0xa
    543  mux_enable                 0x00002549   Gb    1  Code  Hi   0xa
    544  time_read                  0x000025ed   Gb    1  Code  Hi   0x24
    545  time_set                   0x00002619   Gb    1  Code  Hi   0x26
    546  toVal                      0x00002649   Gb    1  Code  Hi   0x22
    547  __aeabi_d2f                0x00002765   Gb    1  Code  Hi 
    548  _d2f                       0x00002765   Gb    1  Code  De   0x62
    549  __fpl_dnaninf              0x000027c7   Gb    1  Code  De   0x9c
    550  _fp_init                   0x00002863   Gb    1  Code  De   0xa
    551  __fplib_config_fpu_vfp     0x0000286b   Gb    1  Code  De 
    552  __fplib_config_pureend_doubles
                                    0x0000286b   Gb    1  Code  De 
    553  __fpl_fretinf              0x0000286d   Gb    1  Code  De   0xa
    554  __I$use$fp                 0x00002876   Gb    1   --   De 
    555  am_cattr                   0x00002876   Gb    1  Data  Hi   0x100
    556  Region$$Table$$Base        0x00002a28   Gb    1   --   Hi 
    557  Region$$Table$$Limit       0x00002a48   Gb    1   --   Hi 
    558  g_pcWeekday                0x10000000   Gb    2  Data  Hi   0x1c
    559  g_pcMonth                  0x1000001c   Gb    2  Data  Hi   0x30
    560  g_ui32State                0x1000004c   Gb    2  Data  Hi   0x4
    561  g_sIOMConfig               0x10000050   Gb    2  Data  Hi   0xc
    562  g_sAMx8x5                  0x1000005c   Gb    2  Data  Hi   0x10
    563  g_pfnCharPrint             0x1000006c   Gb    2  Data  Hi   0x4
    564  g_ui32HALflags             0x10000074   Gb    2  Data  Hi   0x4
    565  g_ui32Mod0Interface        0x10000078   Gb    2  Data  Hi   0x4
    566  g_ui32Mod1Interface        0x1000007c   Gb    2  Data  Hi   0x4
    567  g_am_hal_itm_print_registers
                                    0x10000080   Gb    2  Data  Hi   0x4
    568  g_pui32StimReg             0x10000084   Gb    2  Data  Hi   0x4
    569  g_psTimeRegs               0x10000188   Gb    3  Data  Hi   0xa
    570  g_psIOMBuffers             0x10000194   Gb    3  Data  Hi   0x20
    571  __libspace_start           0x100001c0   Gb    3  Data  De   0x60
    572  __temporary_stack_top$libspace
                                    0x10000220   Gb    3  Data  De 


** Section #12 '.strtab' (SHT_STRTAB)
    Size   : 8460 bytes

            #  Offset String
        ====================================

            1      1: $d
            2      4: $t
            3      7: $d.realdata
            4     19: ../src/am1805_time.c
            5     40: i.am_gpio_isr
            6     54: i.configure_amx8x5_pins
            7     78: i.countdown_start
            8     96: i.main
            9    103: i.mthToIndex
           10    116: i.mux_disable
           11    130: i.mux_enable
           12    143: i.time_read
           13    155: i.time_set
           14    166: i.toVal
           15    174: .conststring
           16    187: .data
           17    193: ..\..\..\..\..\utils\am_util_delay.c
           18    230: .emb_text
           19    240: $v0
           20    244: ../../../../../utils/am_util_delay.c
           21    281: i.am_util_delay_us
           22    300: ..\..\..\..\..\utils\am_util_faultisr.c
           23    340: ../../../../../utils/am_util_faultisr.c
           24    380: i.am_util_faultisr_collect_data
           25    412: ../../../../../utils/am_util_math.c
           26    448: i.am_util_math_bcd_to_dec
           27    474: i.am_util_math_dec_to_bcd
           28    500: ../../../../../utils/am_util_stdio.c
           29    537: i.am_util_stdio_printf
           30    560: i.am_util_stdio_printf_init
           31    588: i.am_util_stdio_terminal_clear
           32    619: i.am_util_stdio_vsprintf
           33    644: i.decstr_to_u
           34    658: decstr_to_u
           35    670: i.divu64_10
           36    682: divu64_10
           37    692: i.ftoa
           38    699: ftoa
           39    704: i.ndigits_in_hex
           40    721: ndigits_in_hex
           41    736: i.ndigits_in_i64
           42    753: ndigits_in_i64
           43    768: i.ndigits_in_u64
           44    785: ndigits_in_u64
           45    800: i.uint64_to_hexstr
           46    819: uint64_to_hexstr
           47    836: i.uint64_to_str
           48    852: uint64_to_str
           49    866: .bss
           50    871: g_prfbuf
           51    880: g_bTxtXlate
           52    892: ../../../../../utils/am_util_string.c
           53    930: i.am_util_string_strnicmp
           54    956: .constdata
           55    967: ../../../../../utils/am_util_time.c
           56   1003: i.am_util_time_computeDayofWeek
           57   1035: ../../../../../devices/am_devices_amx8x5.c
           58   1078: i.am_devices_amx8x5_countdown_set
           59   1112: i.am_devices_amx8x5_reg_block_read
           60   1147: i.am_devices_amx8x5_reg_block_write
           61   1183: i.am_devices_amx8x5_reg_clear
           62   1213: i.am_devices_amx8x5_reg_read
           63   1242: i.am_devices_amx8x5_reg_set
           64   1270: i.am_devices_amx8x5_reg_write
           65   1300: i.am_devices_amx8x5_time_get
           66   1329: i.am_devices_amx8x5_time_set
           67   1358: ../keil/startup_keil.s
           68   1381: STACK
           69   1387: StackMem
           70   1396: HEAP
           71   1401: HeapMem
           72   1409: RESET
           73   1415: .text
           74   1421: ../am_hal_global.c
           75   1440: ../am_hal_clkgen.c
           76   1459: i.am_hal_clkgen_osc_stop
           77   1484: i.am_hal_clkgen_sysclk_get
           78   1511: i.am_hal_clkgen_sysclk_select
           79   1541: ../am_hal_gpio.c
           80   1558: i.am_hal_gpio_int_clear
           81   1582: i.am_hal_gpio_int_enable
           82   1607: i.am_hal_gpio_int_status_get
           83   1636: ..\am_hal_interrupt.c
           84   1658: ../am_hal_interrupt.c
           85   1680: i.am_hal_interrupt_enable
           86   1706: ../am_hal_iom.c
           87   1722: i.am_hal_iom_config
           88   1742: i.am_hal_iom_disable
           89   1763: i.am_hal_iom_enable
           90   1783: i.am_hal_iom_fifo_read
           91   1806: i.am_hal_iom_fifo_write
           92   1830: i.am_hal_iom_i2c_read
           93   1852: i.am_hal_iom_i2c_read_nb
           94   1877: i.am_hal_iom_i2c_write
           95   1900: i.am_hal_iom_i2c_write_nb
           96   1926: i.am_hal_iom_spi_read
           97   1948: i.am_hal_iom_spi_read_nb
           98   1973: i.am_hal_iom_spi_write
           99   1996: i.am_hal_iom_spi_write_nb
          100   2022: ..\am_hal_itm.c
          101   2038: ../am_hal_itm.c
          102   2054: i.am_hal_itm_delay_us
          103   2076: i.am_hal_itm_enable
          104   2096: i.am_hal_itm_not_busy
          105   2118: i.am_hal_itm_print
          106   2137: ../am_hal_sysctrl.c
          107   2157: i.am_hal_sysctrl_sleep
          108   2180: ../am_bsp.c
          109   2192: i.am_bsp_debug_printf_disable
          110   2222: i.am_bsp_debug_printf_enable
          111   2251: i.am_bsp_iom_i2c_pins_enable
          112   2280: i.am_bsp_low_power_init
          113   2304: ../am_hal_debug.c
          114   2322: i.am_hal_debug_error
          115   2343: ../am_hal_i2c_bit_bang.c
          116   2368: i.am_hal_i2c_bit_bang_receive
          117   2398: i.am_hal_i2c_bit_bang_send
          118   2425: i.i2c_send_byte
          119   2441: i2c_send_byte
          120   2455: am_hal_i2c_bit_bang_priv
          121   2480: ../am_hal_mcuctrl.c
          122   2500: i.am_hal_mcuctrl_bandgap_disable
          123   2533: i.am_hal_mcuctrl_bucks_enable
          124   2563: ../am_hal_rtc.c
          125   2579: i.am_hal_rtc_osc_disable
          126   2604: i.am_hal_rtc_osc_select
          127   2628: ../am_hal_tpiu.c
          128   2645: i.am_hal_tpiu_disable
          129   2667: i.am_hal_tpiu_enable
          130   2688: ../am_hal_vcomp.c
          131   2706: i.am_hal_vcomp_disable
          132   2729: dc.s
          133   2734: ../clib/heapaux.c
          134   2752: ../clib/angel/startup.s
          135   2776: !!!main
          136   2784: ../fplib/d2f.s
          137   2799: x$fpl$d2f
          138   2809: ../clib/angel/kernel.s
          139   2832: .ARM.Collect$$rtentry$$00000000
          140   2864: ../fplib/dnaninf.s
          141   2883: x$fpl$dnaninf
          142   2897: ../fplib/fretinf.s
          143   2916: x$fpl$fretinf
          144   2930: ../fplib/usenofp.s
          145   2949: x$fpl$usenofp
          146   2963: .ARM.Collect$$rtentry$$00000002
          147   2995: .ARM.Collect$$rtentry$$00000009
          148   3027: .ARM.Collect$$rtentry$$0000000A
          149   3059: .ARM.Collect$$rtentry$$0000000C
          150   3091: .ARM.Collect$$rtentry$$0000000D
          151   3123: .ARM.Collect$$rtentry$$00000004
          152   3155: ../clib/angel/sys.s
          153   3175: ../clib/stdlib.c
          154   3192: ../clib/angel/boardlib.s
          155   3217: ../clib/libinit.s
          156   3235: .ARM.Collect$$libinit$$00000000
          157   3267: .ARM.Collect$$rtexit$$00000000
          158   3298: .ARM.Collect$$libinit$$00000001
          159   3330: .ARM.Collect$$libinit$$00000004
          160   3362: .ARM.Collect$$libinit$$0000000A
          161   3394: .ARM.Collect$$libinit$$0000000C
          162   3426: .ARM.Collect$$libinit$$0000000E
          163   3458: .ARM.Collect$$libinit$$00000011
          164   3490: .ARM.Collect$$libinit$$00000013
          165   3522: .ARM.Collect$$libinit$$00000015
          166   3554: .ARM.Collect$$libinit$$00000017
          167   3586: .ARM.Collect$$libinit$$00000019
          168   3618: .ARM.Collect$$libinit$$0000001B
          169   3650: .ARM.Collect$$libinit$$0000001D
          170   3682: .ARM.Collect$$libinit$$0000001F
          171   3714: .ARM.Collect$$libinit$$00000021
          172   3746: .ARM.Collect$$libinit$$00000023
          173   3778: .ARM.Collect$$libinit$$00000025
          174   3810: .ARM.Collect$$libinit$$0000002C
          175   3842: .ARM.Collect$$libinit$$0000002E
          176   3874: .ARM.Collect$$libinit$$00000030
          177   3906: .ARM.Collect$$libinit$$00000032
          178   3938: .ARM.Collect$$libinit$$00000033
          179   3970: .ARM.Collect$$rtexit$$00000002
          180   4001: .ARM.Collect$$rtexit$$00000003
          181   4032: .ARM.Collect$$rtexit$$00000004
          182   4063: ../clib/armsys.c
          183   4080: ../fplib/fpinit.s
          184   4098: x$fpl$fpinit
          185   4111: ../clib/angel/sysapp.c
          186   4134: .ARM.Collect$$libshutdown$$00000000
          187   4170: ../clib/heapalloc.c
          188   4190: ../clib/signal.c
          189   4207: .ARM.Collect$$libshutdown$$00000003
          190   4243: .ARM.Collect$$libshutdown$$00000006
          191   4279: .ARM.Collect$$libshutdown$$00000009
          192   4315: .ARM.Collect$$libshutdown$$0000000B
          193   4351: .ARM.Collect$$libshutdown$$0000000E
          194   4387: .ARM.Collect$$libshutdown$$0000000F
          195   4423: ../clib/angel/rt.s
          196   4442: ../clib/signal.s
          197   4459: ../clib/angel/scatter.s
          198   4483: !!!scatter
          199   4494: ../clib/angel/handlers.s
          200   4519: !!handler_copy
          201   4534: !!handler_zi
          202   4547: BuildAttributes$$THM_ISAv4$E$P$D$K$B$S$7EM$VFPi3$EXTD16$VFPS$VFMA$PE$A:L22UL41UL21$X:L11$S22US41US21$IEEE1$IW$USESV6$~STKCKD$USESV7$~SHL$OTIME$ROPI$EBA8$UX$STANDARDLIB$REQ8$PRES8$EABIv2
          203   4733: __ARM_use_no_argv
          204   4751: __Vectors
          205   4761: Reset_Handler
          206   4775: am_nmi_isr
          207   4786: am_memmanage_isr
          208   4803: am_mpufault_isr
          209   4819: am_busfault_isr
          210   4835: am_usagefault_isr
          211   4853: am_adc_isr
          212   4864: am_brownout_isr
          213   4880: am_clkgen_isr
          214   4894: am_ctimer_isr
          215   4908: am_debugmon_isr
          216   4924: am_iomaster0_isr
          217   4941: am_iomaster1_isr
          218   4958: am_ioslave_acc_isr
          219   4977: am_ioslave_ios_isr
          220   4996: am_pendsv_isr
          221   5010: am_svcall_isr
          222   5024: am_systick_isr
          223   5039: am_uart_isr
          224   5051: am_vcomp_isr
          225   5064: am_watchdog_isr
          226   5080: __main
          227   5087: __scatterload
          228   5101: __scatterload_rt2
          229   5119: __scatterload_rt2_thumb_only
          230   5148: __scatterload_null
          231   5167: __scatterload_copy
          232   5186: __scatterload_zeroinit
          233   5209: __rt_lib_init
          234   5223: __rt_lib_init_fp_1
          235   5242: __rt_lib_init_alloca_1
          236   5265: __rt_lib_init_argv_1
          237   5286: __rt_lib_init_atexit_1
          238   5309: __rt_lib_init_clock_1
          239   5331: __rt_lib_init_cpp_1
          240   5351: __rt_lib_init_exceptions_1
          241   5378: __rt_lib_init_fp_trap_1
          242   5402: __rt_lib_init_getenv_1
          243   5425: __rt_lib_init_heap_1
          244   5446: __rt_lib_init_lc_collate_1
          245   5473: __rt_lib_init_lc_ctype_1
          246   5498: __rt_lib_init_lc_monetary_1
          247   5526: __rt_lib_init_lc_numeric_1
          248   5553: __rt_lib_init_lc_time_1
          249   5577: __rt_lib_init_preinit_1
          250   5601: __rt_lib_init_rand_1
          251   5622: __rt_lib_init_return
          252   5643: __rt_lib_init_signal_1
          253   5666: __rt_lib_init_stdio_1
          254   5688: __rt_lib_init_user_alloc_1
          255   5715: __rt_lib_shutdown
          256   5733: __rt_lib_shutdown_fp_trap_1
          257   5761: __rt_lib_shutdown_heap_1
          258   5786: __rt_lib_shutdown_return
          259   5811: __rt_lib_shutdown_signal_1
          260   5838: __rt_lib_shutdown_stdio_1
          261   5864: __rt_lib_shutdown_user_alloc_1
          262   5895: __rt_entry
          263   5906: __rt_entry_presh_1
          264   5925: __rt_entry_sh
          265   5939: __rt_entry_li
          266   5953: __rt_entry_postsh_1
          267   5973: __rt_entry_main
          268   5989: __rt_entry_postli_1
          269   6009: __rt_exit
          270   6019: __rt_exit_ls
          271   6032: __rt_exit_prels_1
          272   6050: __rt_exit_exit
          273   6065: am_util_delay_cycles
          274   6086: am_fault_isr
          275   6099: getStackedReg
          276   6113: am_hal_interrupt_master_enable
          277   6144: am_hal_interrupt_master_disable
          278   6176: am_hal_interrupt_master_set
          279   6204: __asm___12_am_hal_itm_c_0782d9ac__am_itm_delay_cycles
          280   6258: __user_initial_stackheap
          281   6283: __use_two_region_memory
          282   6307: __rt_heap_escrow$2region
          283   6332: __rt_heap_expand$2region
          284   6357: __user_setup_stackheap
          285   6380: exit
          286   6385: __user_libspace
          287   6401: __user_perproc_libspace
          288   6425: __user_perthread_libspace
          289   6451: _sys_exit
          290   6461: __I$use$semihosting
          291   6481: __use_no_semihosting_swi
          292   6506: __semihosting_library_function
          293   6537: am_bsp_debug_printf_disable
          294   6565: am_bsp_debug_printf_enable
          295   6592: am_bsp_iom_i2c_pins_enable
          296   6619: am_bsp_low_power_init
          297   6641: am_devices_amx8x5_countdown_set
          298   6673: am_devices_amx8x5_reg_block_read
          299   6706: am_devices_amx8x5_reg_block_write
          300   6740: am_devices_amx8x5_reg_clear
          301   6768: am_devices_amx8x5_reg_read
          302   6795: am_devices_amx8x5_reg_set
          303   6821: am_devices_amx8x5_reg_write
          304   6849: am_devices_amx8x5_time_get
          305   6876: am_devices_amx8x5_time_set
          306   6903: am_gpio_isr
          307   6915: am_hal_clkgen_osc_stop
          308   6938: am_hal_clkgen_sysclk_get
          309   6963: am_hal_clkgen_sysclk_select
          310   6991: am_hal_debug_error
          311   7010: am_hal_gpio_int_clear
          312   7032: am_hal_gpio_int_enable
          313   7055: am_hal_gpio_int_status_get
          314   7082: am_hal_i2c_bit_bang_receive
          315   7110: am_hal_i2c_bit_bang_send
          316   7135: am_hal_interrupt_enable
          317   7159: am_hal_iom_config
          318   7177: am_hal_iom_disable
          319   7196: am_hal_iom_enable
          320   7214: am_hal_iom_fifo_read
          321   7235: am_hal_iom_fifo_write
          322   7257: am_hal_iom_i2c_read
          323   7277: am_hal_iom_i2c_read_nb
          324   7300: am_hal_iom_i2c_write
          325   7321: am_hal_iom_i2c_write_nb
          326   7345: am_hal_iom_spi_read
          327   7365: am_hal_iom_spi_read_nb
          328   7388: am_hal_iom_spi_write
          329   7409: am_hal_iom_spi_write_nb
          330   7433: am_hal_itm_delay_us
          331   7453: am_hal_itm_enable
          332   7471: am_hal_itm_not_busy
          333   7491: am_hal_itm_print
          334   7508: am_hal_mcuctrl_bandgap_disable
          335   7539: am_hal_mcuctrl_bucks_enable
          336   7567: am_hal_rtc_osc_disable
          337   7590: am_hal_rtc_osc_select
          338   7612: am_hal_sysctrl_sleep
          339   7633: am_hal_tpiu_disable
          340   7653: am_hal_tpiu_enable
          341   7672: am_hal_vcomp_disable
          342   7693: am_util_delay_us
          343   7710: am_util_faultisr_collect_data
          344   7740: am_util_math_bcd_to_dec
          345   7764: am_util_math_dec_to_bcd
          346   7788: am_util_stdio_printf
          347   7809: am_util_stdio_printf_init
          348   7835: am_util_stdio_terminal_clear
          349   7864: am_util_stdio_vsprintf
          350   7887: am_util_string_strnicmp
          351   7911: am_util_time_computeDayofWeek
          352   7941: configure_amx8x5_pins
          353   7963: countdown_start
          354   7979: main
          355   7984: mthToIndex
          356   7995: mux_disable
          357   8007: mux_enable
          358   8018: time_read
          359   8028: time_set
          360   8037: toVal
          361   8043: __aeabi_d2f
          362   8055: _d2f
          363   8060: __fpl_dnaninf
          364   8074: _fp_init
          365   8083: __fplib_config_fpu_vfp
          366   8106: __fplib_config_pureend_doubles
          367   8137: __fpl_fretinf
          368   8151: __I$use$fp
          369   8162: am_cattr
          370   8171: Region$$Table$$Base
          371   8191: Region$$Table$$Limit
          372   8212: g_pcWeekday
          373   8224: g_pcMonth
          374   8234: g_ui32State
          375   8246: g_sIOMConfig
          376   8259: g_sAMx8x5
          377   8269: g_pfnCharPrint
          378   8284: g_ui32HALflags
          379   8299: g_ui32Mod0Interface
          380   8319: g_ui32Mod1Interface
          381   8339: g_am_hal_itm_print_registers
          382   8368: g_pui32StimReg
          383   8383: g_psTimeRegs
          384   8396: g_psIOMBuffers
          385   8411: __libspace_start
          386   8428: __temporary_stack_top$libspace
          387   8459: 


** Section #13 '.note' (SHT_NOTE)
    Size   : 28 bytes (alignment 4)


** Section #14 '.comment' (SHT_PROGBITS)
    Size   : 16692 bytes


** Section #15 '.shstrtab' (SHT_STRTAB)
    Size   : 148 bytes

            #  Offset String
        ====================================

            1      1: FLASH
            2      7: SRAM
            3     12: .debug_abbrev
            4     26: .debug_frame
            5     39: .debug_info
            6     51: .debug_line
            7     63: .debug_loc
            8     74: .debug_macinfo
            9     89: .debug_pubnames
           10    105: .symtab
           11    113: .strtab
           12    121: .note
           13    127: .comment
           14    136: .shstrtab
           15    146: 
           16    147: 


