
========================================================================

** ELF Header Information

    File Name: bin\data_plot.axf

    Machine class: ELFCLASS32 (32-bit)
    Data encoding: ELFDATA2LSB (Little endian)
    Header version: EV_CURRENT (Current version)
    Operating System ABI: none
    ABI Version: 0
    File Type: ET_EXEC (Executable) (2)
    Machine: EM_ARM (ARM)

    Image Entry point: 0x00000099
    Flags: EF_ARM_HASENTRY (0x05000002)

    ARM ELF revision: 5 (ABI version 2)

    Built with
    Component: ARM Compiler 5.05 update 1 (build 106) Tool: armasm [4d0efa]
    Component: ARM Compiler 5.05 update 1 (build 106) Tool: armlink [4d0efa]

    Header size: 52 bytes (0x34)
    Program header entry size: 32 bytes (0x20)
    Section header entry size: 40 bytes (0x28)

    Program header entries: 1
    Section header entries: 16

    Program header offset: 187636 (0x0002dcf4)
    Section header offset: 187668 (0x0002dd14)

    Section header string table index: 15

========================================================================

** Program header #0 (PT_LOAD) [PF_X + PF_W + PF_R + PF_ARM_ENTRY]
    Size : 27544 bytes (13420 bytes in file)
    Virtual address: 0x00000000 (Alignment 8)


========================================================================

** Section #1 'FLASH' (SHT_PROGBITS) [SHF_ALLOC + SHF_EXECINSTR]
    Size   : 13216 bytes (alignment 4)
    Address: 0x00000000

    $d
    RESET
    __Vectors
        0x00000000:    100037f8    .7..    DCD    268449784
        0x00000004:    00000071    q...    DCD    113
        0x00000008:    00000085    ....    DCD    133
        0x0000000c:    00000141    A...    DCD    321
        0x00000010:    0000008b    ....    DCD    139
        0x00000014:    0000008d    ....    DCD    141
        0x00000018:    0000008f    ....    DCD    143
        0x0000001c:    00000000    ....    DCD    0
        0x00000020:    00000000    ....    DCD    0
        0x00000024:    00000000    ....    DCD    0
        0x00000028:    00000000    ....    DCD    0
        0x0000002c:    00000155    U...    DCD    341
        0x00000030:    00000091    ....    DCD    145
        0x00000034:    00000000    ....    DCD    0
        0x00000038:    000001a5    ....    DCD    421
        0x0000003c:    00000091    ....    DCD    145
        0x00000040:    00000091    ....    DCD    145
        0x00000044:    00000091    ....    DCD    145
        0x00000048:    00000091    ....    DCD    145
        0x0000004c:    00000091    ....    DCD    145
        0x00000050:    00000091    ....    DCD    145
        0x00000054:    00000091    ....    DCD    145
        0x00000058:    00001415    ....    DCD    5141
        0x0000005c:    00001433    3...    DCD    5171
        0x00000060:    00000091    ....    DCD    145
        0x00000064:    0000094d    M...    DCD    2381
        0x00000068:    00000741    A...    DCD    1857
        0x0000006c:    00000091    ....    DCD    145
    $t
    $v0
    Reset_Handler
        0x00000070:    f64e5088    N..P    MOV      r0,#0xed88
        0x00000074:    f2ce0000    ....    MOVT     r0,#0xe000
        0x00000078:    6801        .h      LDR      r1,[r0,#0]
        0x0000007a:    f4410170    A.p.    ORR      r1,r1,#0xf00000
        0x0000007e:    6001        .`      STR      r1,[r0,#0]
        0x00000080:    4804        .H      LDR      r0,[pc,#16] ; [0x94] = 0x99
        0x00000082:    4700        .G      BX       r0
    am_nmi_isr
        0x00000084:    e7fe        ..      B        am_nmi_isr ; 0x84
        0x00000086:    e7fe        ..      B        0x86 ; am_nmi_isr + 2
    am_memmanage_isr
        0x00000088:    e7fe        ..      B        am_memmanage_isr ; 0x88
    am_mpufault_isr
        0x0000008a:    e7fe        ..      B        am_mpufault_isr ; 0x8a
    am_busfault_isr
        0x0000008c:    e7fe        ..      B        am_busfault_isr ; 0x8c
    am_usagefault_isr
        0x0000008e:    e7fe        ..      B        am_usagefault_isr ; 0x8e
    am_adc_isr
    am_brownout_isr
    am_clkgen_isr
    am_debugmon_isr
    am_ioslave_acc_isr
    am_ioslave_ios_isr
    am_systick_isr
    am_uart_isr
    am_vcomp_isr
    am_watchdog_isr
        0x00000090:    e7fe        ..      B        am_adc_isr ; 0x90
    $d
        0x00000092:    0000        ..      DCW    0
        0x00000094:    00000099    ....    DCD    153
    $t
    !!!main
    __main
        0x00000098:    f000f802    ....    BL       __scatterload ; 0xa0
        0x0000009c:    f000f83c    ..<.    BL       __rt_entry ; 0x118
    !!!scatter
    __scatterload
    __scatterload_rt2
    __scatterload_rt2_thumb_only
        0x000000a0:    a00a        ..      ADR      r0,{pc}+0x2c ; 0xcc
        0x000000a2:    e8900c00    ....    LDM      r0,{r10,r11}
        0x000000a6:    4482        .D      ADD      r10,r10,r0
        0x000000a8:    4483        .D      ADD      r11,r11,r0
        0x000000aa:    f1aa0701    ....    SUB      r7,r10,#1
    __scatterload_null
        0x000000ae:    45da        .E      CMP      r10,r11
        0x000000b0:    d101        ..      BNE      0xb6 ; __scatterload_null + 8
        0x000000b2:    f000f831    ..1.    BL       __rt_entry ; 0x118
        0x000000b6:    f2af0e09    ....    ADR      lr,{pc}-7 ; 0xaf
        0x000000ba:    e8ba000f    ....    LDM      r10!,{r0-r3}
        0x000000be:    f0130f01    ....    TST      r3,#1
        0x000000c2:    bf18        ..      IT       NE
        0x000000c4:    1afb        ..      SUBNE    r3,r7,r3
        0x000000c6:    f0430301    C...    ORR      r3,r3,#1
        0x000000ca:    4718        .G      BX       r3
    $d
        0x000000cc:    000032b4    .2..    DCD    12980
        0x000000d0:    000032d4    .2..    DCD    13012
    $t
    !!handler_copy
    __scatterload_copy
        0x000000d4:    3a10        .:      SUBS     r2,r2,#0x10
        0x000000d6:    bf24        $.      ITT      CS
        0x000000d8:    c878        x.      LDMCS    r0!,{r3-r6}
        0x000000da:    c178        x.      STMCS    r1!,{r3-r6}
        0x000000dc:    d8fa        ..      BHI      __scatterload_copy ; 0xd4
        0x000000de:    0752        R.      LSLS     r2,r2,#29
        0x000000e0:    bf24        $.      ITT      CS
        0x000000e2:    c830        0.      LDMCS    r0!,{r4,r5}
        0x000000e4:    c130        0.      STMCS    r1!,{r4,r5}
        0x000000e6:    bf44        D.      ITT      MI
        0x000000e8:    6804        .h      LDRMI    r4,[r0,#0]
        0x000000ea:    600c        .`      STRMI    r4,[r1,#0]
        0x000000ec:    4770        pG      BX       lr
        0x000000ee:    0000        ..      MOVS     r0,r0
    !!handler_zi
    __scatterload_zeroinit
        0x000000f0:    2300        .#      MOVS     r3,#0
        0x000000f2:    2400        .$      MOVS     r4,#0
        0x000000f4:    2500        .%      MOVS     r5,#0
        0x000000f6:    2600        .&      MOVS     r6,#0
        0x000000f8:    3a10        .:      SUBS     r2,r2,#0x10
        0x000000fa:    bf28        (.      IT       CS
        0x000000fc:    c178        x.      STMCS    r1!,{r3-r6}
        0x000000fe:    d8fb        ..      BHI      0xf8 ; __scatterload_zeroinit + 8
        0x00000100:    0752        R.      LSLS     r2,r2,#29
        0x00000102:    bf28        (.      IT       CS
        0x00000104:    c130        0.      STMCS    r1!,{r4,r5}
        0x00000106:    bf48        H.      IT       MI
        0x00000108:    600b        .`      STRMI    r3,[r1,#0]
        0x0000010a:    4770        pG      BX       lr
    .ARM.Collect$$libinit$$00000000
    __rt_lib_init
        0x0000010c:    b51f        ..      PUSH     {r0-r4,lr}
    .ARM.Collect$$libinit$$00000001
    __rt_lib_init_fp_1
        0x0000010e:    f003f921    ..!.    BL       _fp_init ; 0x3354
    .ARM.Collect$$libinit$$00000004
    .ARM.Collect$$libinit$$0000000A
    .ARM.Collect$$libinit$$0000000C
    .ARM.Collect$$libinit$$0000000E
    .ARM.Collect$$libinit$$00000011
    .ARM.Collect$$libinit$$00000013
    .ARM.Collect$$libinit$$00000015
    .ARM.Collect$$libinit$$00000017
    .ARM.Collect$$libinit$$00000019
    .ARM.Collect$$libinit$$0000001B
    .ARM.Collect$$libinit$$0000001D
    .ARM.Collect$$libinit$$0000001F
    .ARM.Collect$$libinit$$00000021
    .ARM.Collect$$libinit$$00000023
    .ARM.Collect$$libinit$$00000025
    .ARM.Collect$$libinit$$0000002C
    .ARM.Collect$$libinit$$0000002E
    .ARM.Collect$$libinit$$00000030
    .ARM.Collect$$libinit$$00000032
    .ARM.Collect$$libinit$$00000033
    __rt_lib_init_alloca_1
    __rt_lib_init_argv_1
    __rt_lib_init_atexit_1
    __rt_lib_init_clock_1
    __rt_lib_init_cpp_1
    __rt_lib_init_exceptions_1
    __rt_lib_init_fp_trap_1
    __rt_lib_init_getenv_1
    __rt_lib_init_heap_1
    __rt_lib_init_lc_collate_1
    __rt_lib_init_lc_ctype_1
    __rt_lib_init_lc_monetary_1
    __rt_lib_init_lc_numeric_1
    __rt_lib_init_lc_time_1
    __rt_lib_init_preinit_1
    __rt_lib_init_rand_1
    __rt_lib_init_return
    __rt_lib_init_signal_1
    __rt_lib_init_stdio_1
    __rt_lib_init_user_alloc_1
        0x00000112:    bd1f        ..      POP      {r0-r4,pc}
    .ARM.Collect$$libshutdown$$00000000
    __rt_lib_shutdown
        0x00000114:    b510        ..      PUSH     {r4,lr}
    .ARM.Collect$$libshutdown$$00000003
    .ARM.Collect$$libshutdown$$00000006
    .ARM.Collect$$libshutdown$$00000009
    .ARM.Collect$$libshutdown$$0000000B
    .ARM.Collect$$libshutdown$$0000000E
    .ARM.Collect$$libshutdown$$0000000F
    __rt_lib_shutdown_fp_trap_1
    __rt_lib_shutdown_heap_1
    __rt_lib_shutdown_return
    __rt_lib_shutdown_signal_1
    __rt_lib_shutdown_stdio_1
    __rt_lib_shutdown_user_alloc_1
        0x00000116:    bd10        ..      POP      {r4,pc}
    .ARM.Collect$$rtentry$$00000000
    .ARM.Collect$$rtentry$$00000002
    .ARM.Collect$$rtentry$$00000004
    __rt_entry
    __rt_entry_presh_1
    __rt_entry_sh
        0x00000118:    f000f985    ....    BL       __user_setup_stackheap ; 0x426
        0x0000011c:    4611        .F      MOV      r1,r2
    .ARM.Collect$$rtentry$$00000009
    .ARM.Collect$$rtentry$$0000000A
    __rt_entry_li
    __rt_entry_postsh_1
        0x0000011e:    f7fffff5    ....    BL       __rt_lib_init ; 0x10c
    .ARM.Collect$$rtentry$$0000000C
    .ARM.Collect$$rtentry$$0000000D
    __rt_entry_main
    __rt_entry_postli_1
        0x00000122:    f001fa5f    .._.    BL       main ; 0x15e4
        0x00000126:    f000f9a3    ....    BL       exit ; 0x470
    .ARM.Collect$$rtexit$$00000000
    __rt_exit
        0x0000012a:    b403        ..      PUSH     {r0,r1}
    .ARM.Collect$$rtexit$$00000002
    .ARM.Collect$$rtexit$$00000003
    __rt_exit_ls
    __rt_exit_prels_1
        0x0000012c:    f7fffff2    ....    BL       __rt_lib_shutdown ; 0x114
    .ARM.Collect$$rtexit$$00000004
    __rt_exit_exit
        0x00000130:    bc03        ..      POP      {r0,r1}
        0x00000132:    f000f9a7    ....    BL       _sys_exit ; 0x484
        0x00000136:    0000        ..      MOVS     r0,r0
    .emb_text
    $v0
    am_util_delay_cycles
        0x00000138:    3801        .8      SUBS     r0,#1
        0x0000013a:    d1fd        ..      BNE      am_util_delay_cycles ; 0x138
        0x0000013c:    4770        pG      BX       lr
        0x0000013e:    0000        ..      MOVS     r0,r0
    .emb_text
    $v0
    am_fault_isr
        0x00000140:    b580        ..      PUSH     {r7,lr}
        0x00000142:    4668        hF      MOV      r0,sp
        0x00000144:    3008        .0      ADDS     r0,r0,#8
        0x00000146:    f001f991    ....    BL       am_util_faultisr_collect_data ; 0x146c
        0x0000014a:    bd01        ..      POP      {r0,pc}
    getStackedReg
        0x0000014c:    0080        ..      LSLS     r0,r0,#2
        0x0000014e:    1840        @.      ADDS     r0,r0,r1
        0x00000150:    6800        .h      LDR      r0,[r0,#0]
        0x00000152:    4770        pG      BX       lr
    .emb_text
    $v0
    am_svcall_isr
        0x00000154:    4b28        (K      LDR      r3,[pc,#160] ; [0x1f8] = 0x10000040
        0x00000156:    6819        .h      LDR      r1,[r3,#0]
        0x00000158:    6808        .h      LDR      r0,[r1,#0]
        0x0000015a:    e8b04ff0    ...O    LDM      r0!,{r4-r11,lr}
        0x0000015e:    f3808809    ....    MSR      PSP,r0
        0x00000162:    f3bf8f6f    ..o.    ISB      
        0x00000166:    f04f0000    O...    MOV      r0,#0
        0x0000016a:    f3808811    ....    MSR      BASEPRI,r0
        0x0000016e:    4770        pG      BX       lr
    $d
        0x00000170:    00000000    ....    DCD    0
    $t
    __asm___6_port_c_39a90d8d__prvStartFirstTask
        0x00000174:    4805        .H      LDR      r0,[pc,#20] ; [0x18c] = 0xe000ed08
        0x00000176:    6800        .h      LDR      r0,[r0,#0]
        0x00000178:    6800        .h      LDR      r0,[r0,#0]
        0x0000017a:    f3808808    ....    MSR      MSP,r0
        0x0000017e:    b662        b.      CPSIE    i
        0x00000180:    f3bf8f4f    ..O.    DSB      
        0x00000184:    f3bf8f6f    ..o.    ISB      
        0x00000188:    df00        ..      SVC      #0x0 ; formerly SWI
        0x0000018a:    bf00        ..      NOP      
    $d
        0x0000018c:    e000ed08    ....    DCD    3758157064
    $t
    __asm___6_port_c_39a90d8d__prvEnableVFP
        0x00000190:    f8df000c    ....    LDR.W    r0,[pc,#12] ; [0x1a0] = 0xe000ed88
        0x00000194:    6801        .h      LDR      r1,[r0,#0]
        0x00000196:    f4410170    A.p.    ORR      r1,r1,#0xf00000
        0x0000019a:    6001        .`      STR      r1,[r0,#0]
        0x0000019c:    4770        pG      BX       lr
        0x0000019e:    bf00        ..      NOP      
    $d
        0x000001a0:    e000ed88    ....    DCD    3758157192
    $t
    am_pendsv_isr
        0x000001a4:    f3ef8009    ....    MRS      r0,PSP
        0x000001a8:    f3bf8f6f    ..o.    ISB      
        0x000001ac:    4b12        .K      LDR      r3,[pc,#72] ; [0x1f8] = 0x10000040
        0x000001ae:    681a        .h      LDR      r2,[r3,#0]
        0x000001b0:    f01e0f10    ....    TST      lr,#0x10
        0x000001b4:    bf08        ..      IT       EQ
        0x000001b6:    ed208a10     ...    VSTMDBEQ r0!,{s16-s31}
        0x000001ba:    e9204ff0     ..O    STMDB    r0!,{r4-r11,lr}
        0x000001be:    6010        .`      STR      r0,[r2,#0]
        0x000001c0:    b408        ..      PUSH     {r3}
        0x000001c2:    f04f0080    O...    MOV      r0,#0x80
        0x000001c6:    f3808811    ....    MSR      BASEPRI,r0
        0x000001ca:    f002fa39    ..9.    BL       vTaskSwitchContext ; 0x2640
        0x000001ce:    f04f0000    O...    MOV      r0,#0
        0x000001d2:    f3808811    ....    MSR      BASEPRI,r0
        0x000001d6:    bc08        ..      POP      {r3}
        0x000001d8:    6819        .h      LDR      r1,[r3,#0]
        0x000001da:    6808        .h      LDR      r0,[r1,#0]
        0x000001dc:    e8b04ff0    ...O    LDM      r0!,{r4-r11,lr}
        0x000001e0:    f01e0f10    ....    TST      lr,#0x10
        0x000001e4:    bf08        ..      IT       EQ
        0x000001e6:    ecb08a10    ....    VLDMEQ   r0!,{s16-s31}
        0x000001ea:    f3808809    ....    MSR      PSP,r0
        0x000001ee:    f3bf8f6f    ..o.    ISB      
        0x000001f2:    4770        pG      BX       lr
        0x000001f4:    bf00        ..      NOP      
        0x000001f6:    bf00        ..      NOP      
    $d
        0x000001f8:    10000040    @...    DCD    268435520
    $t
    ulPortSetInterruptMask
        0x000001fc:    f3ef8011    ....    MRS      r0,BASEPRI
        0x00000200:    f04f0180    O...    MOV      r1,#0x80
        0x00000204:    f3818811    ....    MSR      BASEPRI,r1
        0x00000208:    4770        pG      BX       lr
    vPortClearInterruptMask
        0x0000020a:    f3808811    ....    MSR      BASEPRI,r0
        0x0000020e:    4770        pG      BX       lr
    vPortGetIPSR
        0x00000210:    f3ef8005    ....    MRS      r0,IPSR
        0x00000214:    4770        pG      BX       lr
        0x00000216:    0000        ..      MOVS     r0,r0
    .emb_text
    $v0
    __asm___12_am_hal_itm_c_0782d9ac__am_itm_delay_cycles
        0x00000218:    3801        .8      SUBS     r0,#1
        0x0000021a:    d1fd        ..      BNE      __asm___12_am_hal_itm_c_0782d9ac__am_itm_delay_cycles ; 0x218
        0x0000021c:    4770        pG      BX       lr
        0x0000021e:    0000        ..      MOVS     r0,r0
    .text
    $v0
    __user_initial_stackheap
        0x00000220:    4802        .H      LDR      r0,[pc,#8] ; [0x22c] = 0x100027f8
        0x00000222:    4903        .I      LDR      r1,[pc,#12] ; [0x230] = 0x100037f8
        0x00000224:    4a01        .J      LDR      r2,[pc,#4] ; [0x22c] = 0x100027f8
        0x00000226:    4b03        .K      LDR      r3,[pc,#12] ; [0x234] = 0x100027f8
        0x00000228:    4770        pG      BX       lr
    $d
        0x0000022a:    0000        ..      DCW    0
        0x0000022c:    100027f8    .'..    DCD    268445688
        0x00000230:    100037f8    .7..    DCD    268449784
        0x00000234:    100027f8    .'..    DCD    268445688
    $t
    .text
    memcmp
        0x00000238:    ea400301    @...    ORR      r3,r0,r1
        0x0000023c:    b510        ..      PUSH     {r4,lr}
        0x0000023e:    079b        ..      LSLS     r3,r3,#30
        0x00000240:    d10f        ..      BNE      0x262 ; memcmp + 42
        0x00000242:    2a04        .*      CMP      r2,#4
        0x00000244:    d30d        ..      BCC      0x262 ; memcmp + 42
        0x00000246:    c810        ..      LDM      r0!,{r4}
        0x00000248:    c908        ..      LDM      r1!,{r3}
        0x0000024a:    1f12        ..      SUBS     r2,r2,#4
        0x0000024c:    429c        .B      CMP      r4,r3
        0x0000024e:    d0f8        ..      BEQ      0x242 ; memcmp + 10
        0x00000250:    ba20         .      REV      r0,r4
        0x00000252:    ba19        ..      REV      r1,r3
        0x00000254:    4288        .B      CMP      r0,r1
        0x00000256:    d901        ..      BLS      0x25c ; memcmp + 36
        0x00000258:    2001        .       MOVS     r0,#1
        0x0000025a:    bd10        ..      POP      {r4,pc}
        0x0000025c:    f04f30ff    O..0    MOV      r0,#0xffffffff
        0x00000260:    bd10        ..      POP      {r4,pc}
        0x00000262:    b11a        ..      CBZ      r2,0x26c ; memcmp + 52
        0x00000264:    07d3        ..      LSLS     r3,r2,#31
        0x00000266:    d003        ..      BEQ      0x270 ; memcmp + 56
        0x00000268:    1c52        R.      ADDS     r2,r2,#1
        0x0000026a:    e007        ..      B        0x27c ; memcmp + 68
        0x0000026c:    2000        .       MOVS     r0,#0
        0x0000026e:    bd10        ..      POP      {r4,pc}
        0x00000270:    f8103b01    ...;    LDRB     r3,[r0],#1
        0x00000274:    f8114b01    ...K    LDRB     r4,[r1],#1
        0x00000278:    1b1b        ..      SUBS     r3,r3,r4
        0x0000027a:    d107        ..      BNE      0x28c ; memcmp + 84
        0x0000027c:    f8103b01    ...;    LDRB     r3,[r0],#1
        0x00000280:    f8114b01    ...K    LDRB     r4,[r1],#1
        0x00000284:    1b1b        ..      SUBS     r3,r3,r4
        0x00000286:    d101        ..      BNE      0x28c ; memcmp + 84
        0x00000288:    1e92        ..      SUBS     r2,r2,#2
        0x0000028a:    d1f1        ..      BNE      0x270 ; memcmp + 56
        0x0000028c:    4618        .F      MOV      r0,r3
        0x0000028e:    bd10        ..      POP      {r4,pc}
    .text
    __aeabi_memcpy
    __rt_memcpy
        0x00000290:    2a03        .*      CMP      r2,#3
        0x00000292:    f2408030    @.0.    BLS.W    _memcpy_lastbytes ; 0x2f6
        0x00000296:    f0100c03    ....    ANDS     r12,r0,#3
        0x0000029a:    f0008015    ....    BEQ.W    0x2c8 ; __aeabi_memcpy + 56
        0x0000029e:    f8113b01    ...;    LDRB     r3,[r1],#1
        0x000002a2:    f1bc0f02    ....    CMP      r12,#2
        0x000002a6:    4462        bD      ADD      r2,r2,r12
        0x000002a8:    bf98        ..      IT       LS
        0x000002aa:    f811cb01    ....    LDRBLS   r12,[r1],#1
        0x000002ae:    f8003b01    ...;    STRB     r3,[r0],#1
        0x000002b2:    bf38        8.      IT       CC
        0x000002b4:    f8113b01    ...;    LDRBCC   r3,[r1],#1
        0x000002b8:    f1a20204    ....    SUB      r2,r2,#4
        0x000002bc:    bf98        ..      IT       LS
        0x000002be:    f800cb01    ....    STRBLS   r12,[r0],#1
        0x000002c2:    bf38        8.      IT       CC
        0x000002c4:    f8003b01    ...;    STRBCC   r3,[r0],#1
        0x000002c8:    f0110303    ....    ANDS     r3,r1,#3
        0x000002cc:    f0008030    ..0.    BEQ.W    __aeabi_memcpy4 ; 0x330
        0x000002d0:    3a08        .:      SUBS     r2,r2,#8
        0x000002d2:    f0c08008    ....    BCC.W    0x2e6 ; __aeabi_memcpy + 86
        0x000002d6:    f8513b04    Q..;    LDR      r3,[r1],#4
        0x000002da:    3a08        .:      SUBS     r2,r2,#8
        0x000002dc:    f851cb04    Q...    LDR      r12,[r1],#4
        0x000002e0:    e8a01008    ....    STM      r0!,{r3,r12}
        0x000002e4:    e7f5        ..      B        0x2d2 ; __aeabi_memcpy + 66
        0x000002e6:    1d12        ..      ADDS     r2,r2,#4
        0x000002e8:    bf5c        \.      ITT      PL
        0x000002ea:    f8513b04    Q..;    LDRPL    r3,[r1],#4
        0x000002ee:    f8403b04    @..;    STRPL    r3,[r0],#4
        0x000002f2:    f3af8000    ....    NOP.W    
    _memcpy_lastbytes
        0x000002f6:    07d2        ..      LSLS     r2,r2,#31
        0x000002f8:    bf24        $.      ITT      CS
        0x000002fa:    f8113b01    ...;    LDRBCS   r3,[r1],#1
        0x000002fe:    f811cb01    ....    LDRBCS   r12,[r1],#1
        0x00000302:    bf48        H.      IT       MI
        0x00000304:    f8112b01    ...+    LDRBMI   r2,[r1],#1
        0x00000308:    bf24        $.      ITT      CS
        0x0000030a:    f8003b01    ...;    STRBCS   r3,[r0],#1
        0x0000030e:    f800cb01    ....    STRBCS   r12,[r0],#1
        0x00000312:    bf48        H.      IT       MI
        0x00000314:    f8002b01    ...+    STRBMI   r2,[r0],#1
        0x00000318:    4770        pG      BX       lr
    .text
    __aeabi_memset
        0x0000031a:    f00203ff    ....    AND      r3,r2,#0xff
        0x0000031e:    ea432203    C.."    ORR      r2,r3,r3,LSL #8
        0x00000322:    ea424202    B..B    ORR      r2,r2,r2,LSL #16
        0x00000326:    f000b837    ..7.    B.W      _memset ; 0x398
    .text
    __use_two_region_memory
        0x0000032a:    4770        pG      BX       lr
    __rt_heap_escrow$2region
        0x0000032c:    4770        pG      BX       lr
    __rt_heap_expand$2region
        0x0000032e:    4770        pG      BX       lr
    .text
    __aeabi_memcpy4
    __aeabi_memcpy8
    __rt_memcpy_w
        0x00000330:    b510        ..      PUSH     {r4,lr}
        0x00000332:    3a20         :      SUBS     r2,r2,#0x20
        0x00000334:    f0c0800b    ....    BCC.W    0x34e ; __aeabi_memcpy4 + 30
        0x00000338:    e8b15018    ...P    LDM      r1!,{r3,r4,r12,lr}
        0x0000033c:    3a20         :      SUBS     r2,r2,#0x20
        0x0000033e:    e8a05018    ...P    STM      r0!,{r3,r4,r12,lr}
        0x00000342:    e8b15018    ...P    LDM      r1!,{r3,r4,r12,lr}
        0x00000346:    e8a05018    ...P    STM      r0!,{r3,r4,r12,lr}
        0x0000034a:    f4bfaff5    ....    BCS.W    0x338 ; __aeabi_memcpy4 + 8
        0x0000034e:    ea5f7c02    _..|    LSLS     r12,r2,#28
        0x00000352:    bf24        $.      ITT      CS
        0x00000354:    e8b15018    ...P    LDMCS    r1!,{r3,r4,r12,lr}
        0x00000358:    e8a05018    ...P    STMCS    r0!,{r3,r4,r12,lr}
        0x0000035c:    bf44        D.      ITT      MI
        0x0000035e:    c918        ..      LDMMI    r1!,{r3,r4}
        0x00000360:    c018        ..      STMMI    r0!,{r3,r4}
        0x00000362:    e8bd4010    ...@    POP      {r4,lr}
        0x00000366:    ea5f7c82    _..|    LSLS     r12,r2,#30
        0x0000036a:    bf24        $.      ITT      CS
        0x0000036c:    f8513b04    Q..;    LDRCS    r3,[r1],#4
        0x00000370:    f8403b04    @..;    STRCS    r3,[r0],#4
        0x00000374:    bf08        ..      IT       EQ
        0x00000376:    4770        pG      BXEQ     lr
    _memcpy_lastbytes_aligned
        0x00000378:    07d2        ..      LSLS     r2,r2,#31
        0x0000037a:    bf28        (.      IT       CS
        0x0000037c:    f8313b02    1..;    LDRHCS   r3,[r1],#2
        0x00000380:    bf48        H.      IT       MI
        0x00000382:    f8112b01    ...+    LDRBMI   r2,[r1],#1
        0x00000386:    bf28        (.      IT       CS
        0x00000388:    f8203b02     ..;    STRHCS   r3,[r0],#2
        0x0000038c:    bf48        H.      IT       MI
        0x0000038e:    f8002b01    ...+    STRBMI   r2,[r0],#1
        0x00000392:    4770        pG      BX       lr
    .text
    __aeabi_memclr
    __rt_memclr
        0x00000394:    f04f0200    O...    MOV      r2,#0
    _memset
        0x00000398:    2904        .)      CMP      r1,#4
        0x0000039a:    f0c08012    ....    BCC.W    0x3c2 ; _memset + 42
        0x0000039e:    f0100c03    ....    ANDS     r12,r0,#3
        0x000003a2:    f000801b    ....    BEQ.W    _memset_w ; 0x3dc
        0x000003a6:    f1cc0c04    ....    RSB      r12,r12,#4
        0x000003aa:    f1bc0f02    ....    CMP      r12,#2
        0x000003ae:    bf18        ..      IT       NE
        0x000003b0:    f8002b01    ...+    STRBNE   r2,[r0],#1
        0x000003b4:    bfa8        ..      IT       GE
        0x000003b6:    f8202b02     ..+    STRHGE   r2,[r0],#2
        0x000003ba:    eba1010c    ....    SUB      r1,r1,r12
        0x000003be:    f000b80d    ....    B.W      _memset_w ; 0x3dc
        0x000003c2:    ea5f7cc1    _..|    LSLS     r12,r1,#31
        0x000003c6:    bf24        $.      ITT      CS
        0x000003c8:    f8002b01    ...+    STRBCS   r2,[r0],#1
        0x000003cc:    f8002b01    ...+    STRBCS   r2,[r0],#1
        0x000003d0:    bf48        H.      IT       MI
        0x000003d2:    f8002b01    ...+    STRBMI   r2,[r0],#1
        0x000003d6:    4770        pG      BX       lr
    .text
    __aeabi_memclr4
    __aeabi_memclr8
    __rt_memclr_w
        0x000003d8:    f04f0200    O...    MOV      r2,#0
    _memset_w
        0x000003dc:    b500        ..      PUSH     {lr}
        0x000003de:    4613        .F      MOV      r3,r2
        0x000003e0:    4694        .F      MOV      r12,r2
        0x000003e2:    4696        .F      MOV      lr,r2
        0x000003e4:    3920         9      SUBS     r1,r1,#0x20
        0x000003e6:    bf22        ".      ITTT     CS
        0x000003e8:    e8a0500c    ...P    STMCS    r0!,{r2,r3,r12,lr}
        0x000003ec:    e8a0500c    ...P    STMCS    r0!,{r2,r3,r12,lr}
        0x000003f0:    f1b10120    .. .    SUBSCS   r1,r1,#0x20
        0x000003f4:    f4bfaff7    ....    BCS.W    0x3e6 ; _memset_w + 10
        0x000003f8:    0709        ..      LSLS     r1,r1,#28
        0x000003fa:    bf28        (.      IT       CS
        0x000003fc:    e8a0500c    ...P    STMCS    r0!,{r2,r3,r12,lr}
        0x00000400:    bf48        H.      IT       MI
        0x00000402:    c00c        ..      STMMI    r0!,{r2,r3}
        0x00000404:    f85deb04    ]...    POP      {lr}
        0x00000408:    0089        ..      LSLS     r1,r1,#2
        0x0000040a:    bf28        (.      IT       CS
        0x0000040c:    f8402b04    @..+    STRCS    r2,[r0],#4
        0x00000410:    bf08        ..      IT       EQ
        0x00000412:    4770        pG      BXEQ     lr
        0x00000414:    bf48        H.      IT       MI
        0x00000416:    f8202b02     ..+    STRHMI   r2,[r0],#2
        0x0000041a:    f0114f80    ...O    TST      r1,#0x40000000
        0x0000041e:    bf18        ..      IT       NE
        0x00000420:    f8002b01    ...+    STRBNE   r2,[r0],#1
        0x00000424:    4770        pG      BX       lr
    .text
    __user_setup_stackheap
        0x00000426:    4675        uF      MOV      r5,lr
        0x00000428:    f000f828    ..(.    BL       __user_libspace ; 0x47c
        0x0000042c:    46ae        .F      MOV      lr,r5
        0x0000042e:    0005        ..      MOVS     r5,r0
        0x00000430:    4669        iF      MOV      r1,sp
        0x00000432:    4653        SF      MOV      r3,r10
        0x00000434:    f0200007     ...    BIC      r0,r0,#7
        0x00000438:    4685        .F      MOV      sp,r0
        0x0000043a:    b018        ..      ADD      sp,sp,#0x60
        0x0000043c:    b520         .      PUSH     {r5,lr}
        0x0000043e:    f7fffeef    ....    BL       __user_initial_stackheap ; 0x220
        0x00000442:    e8bd4020    .. @    POP      {r5,lr}
        0x00000446:    f04f0600    O...    MOV      r6,#0
        0x0000044a:    f04f0700    O...    MOV      r7,#0
        0x0000044e:    f04f0800    O...    MOV      r8,#0
        0x00000452:    f04f0b00    O...    MOV      r11,#0
        0x00000456:    f0210107    !...    BIC      r1,r1,#7
        0x0000045a:    46ac        .F      MOV      r12,r5
        0x0000045c:    e8ac09c0    ....    STM      r12!,{r6-r8,r11}
        0x00000460:    e8ac09c0    ....    STM      r12!,{r6-r8,r11}
        0x00000464:    e8ac09c0    ....    STM      r12!,{r6-r8,r11}
        0x00000468:    e8ac09c0    ....    STM      r12!,{r6-r8,r11}
        0x0000046c:    468d        .F      MOV      sp,r1
        0x0000046e:    4770        pG      BX       lr
    .text
    exit
        0x00000470:    4604        .F      MOV      r4,r0
        0x00000472:    f3af8000    ....    NOP.W    
        0x00000476:    4620         F      MOV      r0,r4
        0x00000478:    f7fffe57    ..W.    BL       __rt_exit ; 0x12a
    .text
    __user_libspace
    __user_perproc_libspace
    __user_perthread_libspace
        0x0000047c:    4800        .H      LDR      r0,[pc,#0] ; [0x480] = 0x10002798
        0x0000047e:    4770        pG      BX       lr
    $d
        0x00000480:    10002798    .'..    DCD    268445592
    $t
    .text
    _sys_exit
        0x00000484:    4901        .I      LDR      r1,[pc,#4] ; [0x48c] = 0x20026
        0x00000486:    2018        .       MOVS     r0,#0x18
        0x00000488:    beab        ..      BKPT     #0xab
        0x0000048a:    e7fe        ..      B        0x48a ; _sys_exit + 6
    $d
        0x0000048c:    00020026    &...    DCD    131110
    $t
    .text
    __I$use$semihosting
    __use_no_semihosting_swi
        0x00000490:    4770        pG      BX       lr
    .text
    __semihosting_library_function
        0x00000492:    0000        ..      MOVS     r0,r0
    i.adxl362_task
    adxl362_task
        0x00000494:    b51c        ..      PUSH     {r2-r4,lr}
        0x00000496:    f002f937    ..7.    BL       xEventGroupCreate ; 0x2708
        0x0000049a:    4955        UI      LDR      r1,[pc,#340] ; [0x5f0] = 0x10000004
        0x0000049c:    6008        .`      STR      r0,[r1,#0]
        0x0000049e:    4955        UI      LDR      r1,[pc,#340] ; [0x5f4] = 0x605
        0x000004a0:    201f        .       MOVS     r0,#0x1f
        0x000004a2:    f000fb0b    ....    BL       am_hal_gpio_int_register ; 0xabc
        0x000004a6:    f04f4000    O..@    MOV      r0,#0x80000000
        0x000004aa:    2100        .!      MOVS     r1,#0
        0x000004ac:    f000faf8    ....    BL       am_hal_gpio_int_enable ; 0xaa0
        0x000004b0:    bf00        ..      NOP      
        0x000004b2:    2073        s       MOVS     r0,#0x73
        0x000004b4:    4950        PI      LDR      r1,[pc,#320] ; [0x5f8] = 0x40010000
        0x000004b6:    6608        .f      STR      r0,[r1,#0x60]
        0x000004b8:    4608        .F      MOV      r0,r1
        0x000004ba:    6cc0        .l      LDR      r0,[r0,#0x4c]
        0x000004bc:    f02040e0     ..@    BIC      r0,r0,#0x70000000
        0x000004c0:    64c8        .d      STR      r0,[r1,#0x4c]
        0x000004c2:    4608        .F      MOV      r0,r1
        0x000004c4:    69c0        .i      LDR      r0,[r0,#0x1c]
        0x000004c6:    f020407f     ..@    BIC      r0,r0,#0xff000000
        0x000004ca:    f04050d0    @..P    ORR      r0,r0,#0x1a000000
        0x000004ce:    61c8        .a      STR      r0,[r1,#0x1c]
        0x000004d0:    2000        .       MOVS     r0,#0
        0x000004d2:    6608        .f      STR      r0,[r1,#0x60]
        0x000004d4:    bf00        ..      NOP      
        0x000004d6:    2001        .       MOVS     r0,#1
        0x000004d8:    f000fbce    ....    BL       am_hal_iom_enable ; 0xc78
        0x000004dc:    bf00        ..      NOP      
        0x000004de:    2073        s       MOVS     r0,#0x73
        0x000004e0:    4945        EI      LDR      r1,[pc,#276] ; [0x5f8] = 0x40010000
        0x000004e2:    6608        .f      STR      r0,[r1,#0x60]
        0x000004e4:    4608        .F      MOV      r0,r1
        0x000004e6:    6c40        @l      LDR      r0,[r0,#0x44]
        0x000004e8:    f42020e0     ..     BIC      r0,r0,#0x70000
        0x000004ec:    6448        Hd      STR      r0,[r1,#0x44]
        0x000004ee:    4608        .F      MOV      r0,r1
        0x000004f0:    68c0        .h      LDR      r0,[r0,#0xc]
        0x000004f2:    f02000ff     ...    BIC      r0,r0,#0xff
        0x000004f6:    f0400008    @...    ORR      r0,r0,#8
        0x000004fa:    60c8        .`      STR      r0,[r1,#0xc]
        0x000004fc:    2000        .       MOVS     r0,#0
        0x000004fe:    6608        .f      STR      r0,[r1,#0x60]
        0x00000500:    bf00        ..      NOP      
        0x00000502:    483e        >H      LDR      r0,[pc,#248] ; [0x5fc] = 0x10000008
        0x00000504:    f000f928    ..(.    BL       am_devices_adxl362_config ; 0x758
        0x00000508:    483c        <H      LDR      r0,[pc,#240] ; [0x5fc] = 0x10000008
        0x0000050a:    f000f9d3    ....    BL       am_devices_adxl362_measurement_mode_set ; 0x8b4
        0x0000050e:    a901        ..      ADD      r1,sp,#4
        0x00000510:    483a        :H      LDR      r0,[pc,#232] ; [0x5fc] = 0x10000008
        0x00000512:    f000f9b0    ....    BL       am_devices_adxl362_fifo_depth_get ; 0x876
        0x00000516:    f04f0800    O...    MOV      r8,#0
        0x0000051a:    2500        .%      MOVS     r5,#0
        0x0000051c:    2600        .&      MOVS     r6,#0
        0x0000051e:    2700        .'      MOVS     r7,#0
        0x00000520:    e065        e.      B        0x5ee ; adxl362_task + 346
        0x00000522:    f0080001    ....    AND      r0,r8,#1
        0x00000526:    b930        0.      CBNZ     r0,0x536 ; adxl362_task + 162
        0x00000528:    4833        3H      LDR      r0,[pc,#204] ; [0x5f8] = 0x40010000
        0x0000052a:    3080        .0      ADDS     r0,r0,#0x80
        0x0000052c:    6800        .h      LDR      r0,[r0,#0]
        0x0000052e:    f0004000    ...@    AND      r0,r0,#0x80000000
        0x00000532:    2800        .(      CMP      r0,#0
        0x00000534:    d051        Q.      BEQ      0x5da ; adxl362_task + 326
        0x00000536:    f04f0800    O...    MOV      r8,#0
        0x0000053a:    2300        .#      MOVS     r3,#0
        0x0000053c:    4a30        0J      LDR      r2,[pc,#192] ; [0x600] = 0x100000cc
        0x0000053e:    2115        .!      MOVS     r1,#0x15
        0x00000540:    482e        .H      LDR      r0,[pc,#184] ; [0x5fc] = 0x10000008
        0x00000542:    f000f9e2    ....    BL       am_devices_adxl362_sample_get ; 0x90a
        0x00000546:    f000f89b    ....    BL       am_bsp_debug_printf_enable ; 0x680
        0x0000054a:    2000        .       MOVS     r0,#0
        0x0000054c:    4604        .F      MOV      r4,r0
        0x0000054e:    e03f        ?.      B        0x5d0 ; adxl362_task + 316
        0x00000550:    492b        +I      LDR      r1,[pc,#172] ; [0x600] = 0x100000cc
        0x00000552:    f8311014    1...    LDRH     r1,[r1,r4,LSL #1]
        0x00000556:    b149        I.      CBZ      r1,0x56c ; adxl362_task + 216
        0x00000558:    4929        )I      LDR      r1,[pc,#164] ; [0x600] = 0x100000cc
        0x0000055a:    f8311014    1...    LDRH     r1,[r1,r4,LSL #1]
        0x0000055e:    0089        ..      LSLS     r1,r1,#2
        0x00000560:    b208        ..      SXTH     r0,r1
        0x00000562:    17c1        ..      ASRS     r1,r0,#31
        0x00000564:    eb007191    ...q    ADD      r1,r0,r1,LSR #30
        0x00000568:    1089        ..      ASRS     r1,r1,#2
        0x0000056a:    e000        ..      B        0x56e ; adxl362_task + 218
        0x0000056c:    2100        .!      MOVS     r1,#0
        0x0000056e:    b20d        ..      SXTH     r5,r1
        0x00000570:    4a23        #J      LDR      r2,[pc,#140] ; [0x600] = 0x100000cc
        0x00000572:    1c61        a.      ADDS     r1,r4,#1
        0x00000574:    f8321011    2...    LDRH     r1,[r2,r1,LSL #1]
        0x00000578:    b149        I.      CBZ      r1,0x58e ; adxl362_task + 250
        0x0000057a:    1c61        a.      ADDS     r1,r4,#1
        0x0000057c:    f8321011    2...    LDRH     r1,[r2,r1,LSL #1]
        0x00000580:    0089        ..      LSLS     r1,r1,#2
        0x00000582:    b208        ..      SXTH     r0,r1
        0x00000584:    17c1        ..      ASRS     r1,r0,#31
        0x00000586:    eb007191    ...q    ADD      r1,r0,r1,LSR #30
        0x0000058a:    1089        ..      ASRS     r1,r1,#2
        0x0000058c:    e000        ..      B        0x590 ; adxl362_task + 252
        0x0000058e:    2100        .!      MOVS     r1,#0
        0x00000590:    b20e        ..      SXTH     r6,r1
        0x00000592:    4a1b        .J      LDR      r2,[pc,#108] ; [0x600] = 0x100000cc
        0x00000594:    1ca1        ..      ADDS     r1,r4,#2
        0x00000596:    f8321011    2...    LDRH     r1,[r2,r1,LSL #1]
        0x0000059a:    b149        I.      CBZ      r1,0x5b0 ; adxl362_task + 284
        0x0000059c:    1ca1        ..      ADDS     r1,r4,#2
        0x0000059e:    f8321011    2...    LDRH     r1,[r2,r1,LSL #1]
        0x000005a2:    0089        ..      LSLS     r1,r1,#2
        0x000005a4:    b208        ..      SXTH     r0,r1
        0x000005a6:    17c1        ..      ASRS     r1,r0,#31
        0x000005a8:    eb007191    ...q    ADD      r1,r0,r1,LSR #30
        0x000005ac:    1089        ..      ASRS     r1,r1,#2
        0x000005ae:    e000        ..      B        0x5b2 ; adxl362_task + 286
        0x000005b0:    2100        .!      MOVS     r1,#0
        0x000005b2:    b20f        ..      SXTH     r7,r1
        0x000005b4:    4629        )F      MOV      r1,r5
        0x000005b6:    2018        .       MOVS     r0,#0x18
        0x000005b8:    f000ffb6    ....    BL       am_util_plot_int ; 0x1528
        0x000005bc:    4631        1F      MOV      r1,r6
        0x000005be:    2019        .       MOVS     r0,#0x19
        0x000005c0:    f000ffb2    ....    BL       am_util_plot_int ; 0x1528
        0x000005c4:    4639        9F      MOV      r1,r7
        0x000005c6:    201a        .       MOVS     r0,#0x1a
        0x000005c8:    f000ffae    ....    BL       am_util_plot_int ; 0x1528
        0x000005cc:    1ce0        ..      ADDS     r0,r4,#3
        0x000005ce:    4604        .F      MOV      r4,r0
        0x000005d0:    2c15        .,      CMP      r4,#0x15
        0x000005d2:    d3bd        ..      BCC      0x550 ; adxl362_task + 188
        0x000005d4:    f000f832    ..2.    BL       am_bsp_debug_printf_disable ; 0x63c
        0x000005d8:    e009        ..      B        0x5ee ; adxl362_task + 346
        0x000005da:    2064        d       MOVS     r0,#0x64
        0x000005dc:    2300        .#      MOVS     r3,#0
        0x000005de:    2201        ."      MOVS     r2,#1
        0x000005e0:    4611        .F      MOV      r1,r2
        0x000005e2:    9000        ..      STR      r0,[sp,#0]
        0x000005e4:    4802        .H      LDR      r0,[pc,#8] ; [0x5f0] = 0x10000004
        0x000005e6:    6800        .h      LDR      r0,[r0,#0]
        0x000005e8:    f002f8ea    ....    BL       xEventGroupWaitBits ; 0x27c0
        0x000005ec:    4680        .F      MOV      r8,r0
        0x000005ee:    e798        ..      B        0x522 ; adxl362_task + 142
    $d
        0x000005f0:    10000004    ....    DCD    268435460
        0x000005f4:    00000605    ....    DCD    1541
        0x000005f8:    40010000    ...@    DCD    1073807360
        0x000005fc:    10000008    ....    DCD    268435464
        0x00000600:    100000cc    ....    DCD    268435660
    $t
    i.adxl_handler
    adxl_handler
        0x00000604:    b538        8.      PUSH     {r3-r5,lr}
        0x00000606:    480a        .H      LDR      r0,[pc,#40] ; [0x630] = 0x10000004
        0x00000608:    6800        .h      LDR      r0,[r0,#0]
        0x0000060a:    b180        ..      CBZ      r0,0x62e ; adxl_handler + 42
        0x0000060c:    2000        .       MOVS     r0,#0
        0x0000060e:    9000        ..      STR      r0,[sp,#0]
        0x00000610:    466b        kF      MOV      r3,sp
        0x00000612:    2201        ."      MOVS     r2,#1
        0x00000614:    4806        .H      LDR      r0,[pc,#24] ; [0x630] = 0x10000004
        0x00000616:    6801        .h      LDR      r1,[r0,#0]
        0x00000618:    4806        .H      LDR      r0,[pc,#24] ; [0x634] = 0x1fa9
        0x0000061a:    f002fe81    ....    BL       xTimerPendFunctionCallFromISR ; 0x3320
        0x0000061e:    4604        .F      MOV      r4,r0
        0x00000620:    b12c        ,.      CBZ      r4,0x62e ; adxl_handler + 42
        0x00000622:    9800        ..      LDR      r0,[sp,#0]
        0x00000624:    b118        ..      CBZ      r0,0x62e ; adxl_handler + 42
        0x00000626:    f04f5080    O..P    MOV      r0,#0x10000000
        0x0000062a:    4903        .I      LDR      r1,[pc,#12] ; [0x638] = 0xe000ed04
        0x0000062c:    6008        .`      STR      r0,[r1,#0]
        0x0000062e:    bd38        8.      POP      {r3-r5,pc}
    $d
        0x00000630:    10000004    ....    DCD    268435460
        0x00000634:    00001fa9    ....    DCD    8105
        0x00000638:    e000ed04    ....    DCD    3758157060
    $t
    i.am_bsp_debug_printf_disable
    am_bsp_debug_printf_disable
        0x0000063c:    480e        .H      LDR      r0,[pc,#56] ; [0x678] = 0x100000b8
        0x0000063e:    6800        .h      LDR      r0,[r0,#0]
        0x00000640:    f0100f01    ....    TST      r0,#1
        0x00000644:    bf18        ..      IT       NE
        0x00000646:    4770        pG      BXNE     lr
        0x00000648:    b510        ..      PUSH     {r4,lr}
        0x0000064a:    f000fe1b    ....    BL       am_hal_itm_not_busy ; 0x1284
        0x0000064e:    480b        .H      LDR      r0,[pc,#44] ; [0x67c] = 0x40010000
        0x00000650:    2173        s!      MOVS     r1,#0x73
        0x00000652:    6601        .f      STR      r1,[r0,#0x60]
        0x00000654:    6d41        Am      LDR      r1,[r0,#0x54]
        0x00000656:    f0210170    !.p.    BIC      r1,r1,#0x70
        0x0000065a:    f0410120    A. .    ORR      r1,r1,#0x20
        0x0000065e:    6541        Ae      STR      r1,[r0,#0x54]
        0x00000660:    6a81        .j      LDR      r1,[r0,#0x28]
        0x00000662:    f421417f    !..A    BIC      r1,r1,#0xff00
        0x00000666:    f44151c0    A..Q    ORR      r1,r1,#0x1800
        0x0000066a:    6281        .b      STR      r1,[r0,#0x28]
        0x0000066c:    2100        .!      MOVS     r1,#0
        0x0000066e:    6601        .f      STR      r1,[r0,#0x60]
        0x00000670:    e8bd4010    ...@    POP      {r4,lr}
        0x00000674:    f000bea6    ....    B.W      am_hal_tpiu_disable ; 0x13c4
    $d
        0x00000678:    100000b8    ....    DCD    268435640
        0x0000067c:    40010000    ...@    DCD    1073807360
    $t
    i.am_bsp_debug_printf_enable
    am_bsp_debug_printf_enable
        0x00000680:    480c        .H      LDR      r0,[pc,#48] ; [0x6b4] = 0x100000b8
        0x00000682:    6800        .h      LDR      r0,[r0,#0]
        0x00000684:    f0100f01    ....    TST      r0,#1
        0x00000688:    bf18        ..      IT       NE
        0x0000068a:    4770        pG      BXNE     lr
        0x0000068c:    b510        ..      PUSH     {r4,lr}
        0x0000068e:    f000fea1    ....    BL       am_hal_tpiu_enable ; 0x13d4
        0x00000692:    4809        .H      LDR      r0,[pc,#36] ; [0x6b8] = 0x40010000
        0x00000694:    2173        s!      MOVS     r1,#0x73
        0x00000696:    6601        .f      STR      r1,[r0,#0x60]
        0x00000698:    6d41        Am      LDR      r1,[r0,#0x54]
        0x0000069a:    f0210170    !.p.    BIC      r1,r1,#0x70
        0x0000069e:    6541        Ae      STR      r1,[r0,#0x54]
        0x000006a0:    6a81        .j      LDR      r1,[r0,#0x28]
        0x000006a2:    f421417f    !..A    BIC      r1,r1,#0xff00
        0x000006a6:    f4415180    A..Q    ORR      r1,r1,#0x1000
        0x000006aa:    6281        .b      STR      r1,[r0,#0x28]
        0x000006ac:    2100        .!      MOVS     r1,#0
        0x000006ae:    6601        .f      STR      r1,[r0,#0x60]
        0x000006b0:    bd10        ..      POP      {r4,pc}
    $d
        0x000006b2:    0000        ..      DCW    0
        0x000006b4:    100000b8    ....    DCD    268435640
        0x000006b8:    40010000    ...@    DCD    1073807360
    $t
    i.am_bsp_iom_spi_pins_enable
    am_bsp_iom_spi_pins_enable
        0x000006bc:    2801        .(      CMP      r0,#1
        0x000006be:    d000        ..      BEQ      0x6c2 ; am_bsp_iom_spi_pins_enable + 6
        0x000006c0:    e7fe        ..      B        0x6c0 ; am_bsp_iom_spi_pins_enable + 4
        0x000006c2:    4814        .H      LDR      r0,[pc,#80] ; [0x714] = 0x40010000
        0x000006c4:    2173        s!      MOVS     r1,#0x73
        0x000006c6:    6601        .f      STR      r1,[r0,#0x60]
        0x000006c8:    6c42        Bl      LDR      r2,[r0,#0x44]
        0x000006ca:    f0220207    "...    BIC      r2,r2,#7
        0x000006ce:    6442        Bd      STR      r2,[r0,#0x44]
        0x000006d0:    6882        .h      LDR      r2,[r0,#8]
        0x000006d2:    f02202ff    "...    BIC      r2,r2,#0xff
        0x000006d6:    f042020e    B...    ORR      r2,r2,#0xe
        0x000006da:    6082        .`      STR      r2,[r0,#8]
        0x000006dc:    2200        ."      MOVS     r2,#0
        0x000006de:    6602        .f      STR      r2,[r0,#0x60]
        0x000006e0:    6601        .f      STR      r1,[r0,#0x60]
        0x000006e2:    6c43        Cl      LDR      r3,[r0,#0x44]
        0x000006e4:    f0230370    #.p.    BIC      r3,r3,#0x70
        0x000006e8:    6443        Cd      STR      r3,[r0,#0x44]
        0x000006ea:    6883        .h      LDR      r3,[r0,#8]
        0x000006ec:    f423437f    #..C    BIC      r3,r3,#0xff00
        0x000006f0:    f4436320    C. c    ORR      r3,r3,#0xa00
        0x000006f4:    6083        .`      STR      r3,[r0,#8]
        0x000006f6:    6602        .f      STR      r2,[r0,#0x60]
        0x000006f8:    6601        .f      STR      r1,[r0,#0x60]
        0x000006fa:    6c41        Al      LDR      r1,[r0,#0x44]
        0x000006fc:    f42161e0    !..a    BIC      r1,r1,#0x700
        0x00000700:    6441        Ad      STR      r1,[r0,#0x44]
        0x00000702:    6881        .h      LDR      r1,[r0,#8]
        0x00000704:    f421017f    !...    BIC      r1,r1,#0xff0000
        0x00000708:    f4412100    A..!    ORR      r1,r1,#0x80000
        0x0000070c:    6081        .`      STR      r1,[r0,#8]
        0x0000070e:    6602        .f      STR      r2,[r0,#0x60]
        0x00000710:    4770        pG      BX       lr
    $d
        0x00000712:    0000        ..      DCW    0
        0x00000714:    40010000    ...@    DCD    1073807360
    $t
    i.am_bsp_low_power_init
    am_bsp_low_power_init
        0x00000718:    b510        ..      PUSH     {r4,lr}
        0x0000071a:    f000fe13    ....    BL       am_hal_mcuctrl_bucks_enable ; 0x1344
        0x0000071e:    f000fe73    ..s.    BL       am_hal_vcomp_disable ; 0x1408
        0x00000722:    2001        .       MOVS     r0,#1
        0x00000724:    f000fe29    ..).    BL       am_hal_rtc_osc_select ; 0x137a
        0x00000728:    2001        .       MOVS     r0,#1
        0x0000072a:    f000f91e    ....    BL       am_hal_clkgen_osc_stop ; 0x96a
        0x0000072e:    2002        .       MOVS     r0,#2
        0x00000730:    f000f91b    ....    BL       am_hal_clkgen_osc_stop ; 0x96a
        0x00000734:    f000fe1a    ....    BL       am_hal_rtc_osc_disable ; 0x136c
        0x00000738:    e8bd4010    ...@    POP      {r4,lr}
        0x0000073c:    f000bdfa    ....    B.W      am_hal_mcuctrl_bandgap_disable ; 0x1334
    i.am_ctimer_isr
    am_ctimer_isr
        0x00000740:    b510        ..      PUSH     {r4,lr}
        0x00000742:    2000        .       MOVS     r0,#0
        0x00000744:    f000f988    ....    BL       am_hal_ctimer_int_status_get ; 0xa58
        0x00000748:    4604        .F      MOV      r4,r0
        0x0000074a:    4620         F      MOV      r0,r4
        0x0000074c:    f000f974    ..t.    BL       am_hal_ctimer_int_clear ; 0xa38
        0x00000750:    4620         F      MOV      r0,r4
        0x00000752:    f001fbfc    ....    BL       timer_a0_handler ; 0x1f4e
        0x00000756:    bd10        ..      POP      {r4,pc}
    i.am_devices_adxl362_config
    am_devices_adxl362_config
        0x00000758:    b510        ..      PUSH     {r4,lr}
        0x0000075a:    b086        ..      SUB      sp,sp,#0x18
        0x0000075c:    4604        .F      MOV      r4,r0
        0x0000075e:    4620         F      MOV      r0,r4
        0x00000760:    f000f8bc    ....    BL       am_devices_adxl362_reset ; 0x8dc
        0x00000764:    2013        .       MOVS     r0,#0x13
        0x00000766:    f88d0016    ....    STRB     r0,[sp,#0x16]
        0x0000076a:    2002        .       MOVS     r0,#2
        0x0000076c:    f88d0015    ....    STRB     r0,[sp,#0x15]
        0x00000770:    2004        .       MOVS     r0,#4
        0x00000772:    f88d0014    ....    STRB     r0,[sp,#0x14]
        0x00000776:    2086        .       MOVS     r0,#0x86
        0x00000778:    f88d0013    ....    STRB     r0,[sp,#0x13]
        0x0000077c:    200a        .       MOVS     r0,#0xa
        0x0000077e:    f88d0012    ....    STRB     r0,[sp,#0x12]
        0x00000782:    2000        .       MOVS     r0,#0
        0x00000784:    f88d0011    ....    STRB     r0,[sp,#0x11]
        0x00000788:    2002        .       MOVS     r0,#2
        0x0000078a:    f88d0010    ....    STRB     r0,[sp,#0x10]
        0x0000078e:    2000        .       MOVS     r0,#0
        0x00000790:    f88d000f    ....    STRB     r0,[sp,#0xf]
        0x00000794:    f88d000e    ....    STRB     r0,[sp,#0xe]
        0x00000798:    2080        .       MOVS     r0,#0x80
        0x0000079a:    f88d000d    ....    STRB     r0,[sp,#0xd]
        0x0000079e:    2020                MOVS     r0,#0x20
        0x000007a0:    f88d000c    ....    STRB     r0,[sp,#0xc]
        0x000007a4:    2002        .       MOVS     r0,#2
        0x000007a6:    f88d000b    ....    STRB     r0,[sp,#0xb]
        0x000007aa:    2000        .       MOVS     r0,#0
        0x000007ac:    f88d000a    ....    STRB     r0,[sp,#0xa]
        0x000007b0:    2020                MOVS     r0,#0x20
        0x000007b2:    f88d0009    ....    STRB     r0,[sp,#9]
        0x000007b6:    200a        .       MOVS     r0,#0xa
        0x000007b8:    f88d0008    ....    STRB     r0,[sp,#8]
        0x000007bc:    7b60        `{      LDRB     r0,[r4,#0xd]
        0x000007be:    b120         .      CBZ      r0,0x7ca ; am_devices_adxl362_config + 114
        0x000007c0:    2801        .(      CMP      r0,#1
        0x000007c2:    d006        ..      BEQ      0x7d2 ; am_devices_adxl362_config + 122
        0x000007c4:    2802        .(      CMP      r0,#2
        0x000007c6:    d10c        ..      BNE      0x7e2 ; am_devices_adxl362_config + 138
        0x000007c8:    e007        ..      B        0x7da ; am_devices_adxl362_config + 130
        0x000007ca:    2000        .       MOVS     r0,#0
        0x000007cc:    f88d0016    ....    STRB     r0,[sp,#0x16]
        0x000007d0:    e008        ..      B        0x7e4 ; am_devices_adxl362_config + 140
        0x000007d2:    2040        @       MOVS     r0,#0x40
        0x000007d4:    f88d0016    ....    STRB     r0,[sp,#0x16]
        0x000007d8:    e004        ..      B        0x7e4 ; am_devices_adxl362_config + 140
        0x000007da:    2080        .       MOVS     r0,#0x80
        0x000007dc:    f88d0016    ....    STRB     r0,[sp,#0x16]
        0x000007e0:    e000        ..      B        0x7e4 ; am_devices_adxl362_config + 140
        0x000007e2:    bf00        ..      NOP      
        0x000007e4:    bf00        ..      NOP      
        0x000007e6:    7b20         {      LDRB     r0,[r4,#0xc]
        0x000007e8:    b120         .      CBZ      r0,0x7f4 ; am_devices_adxl362_config + 156
        0x000007ea:    2801        .(      CMP      r0,#1
        0x000007ec:    d009        ..      BEQ      0x802 ; am_devices_adxl362_config + 170
        0x000007ee:    2802        .(      CMP      r0,#2
        0x000007f0:    d115        ..      BNE      0x81e ; am_devices_adxl362_config + 198
        0x000007f2:    e00d        ..      B        0x810 ; am_devices_adxl362_config + 184
        0x000007f4:    f89d0016    ....    LDRB     r0,[sp,#0x16]
        0x000007f8:    f0400005    @...    ORR      r0,r0,#5
        0x000007fc:    f88d0016    ....    STRB     r0,[sp,#0x16]
        0x00000800:    e00e        ..      B        0x820 ; am_devices_adxl362_config + 200
        0x00000802:    f89d0016    ....    LDRB     r0,[sp,#0x16]
        0x00000806:    f0400004    @...    ORR      r0,r0,#4
        0x0000080a:    f88d0016    ....    STRB     r0,[sp,#0x16]
        0x0000080e:    e007        ..      B        0x820 ; am_devices_adxl362_config + 200
        0x00000810:    f89d0016    ....    LDRB     r0,[sp,#0x16]
        0x00000814:    f0400003    @...    ORR      r0,r0,#3
        0x00000818:    f88d0016    ....    STRB     r0,[sp,#0x16]
        0x0000081c:    e000        ..      B        0x820 ; am_devices_adxl362_config + 200
        0x0000081e:    bf00        ..      NOP      
        0x00000820:    bf00        ..      NOP      
        0x00000822:    7ba0        .{      LDRB     r0,[r4,#0xe]
        0x00000824:    b128        (.      CBZ      r0,0x832 ; am_devices_adxl362_config + 218
        0x00000826:    f89d0016    ....    LDRB     r0,[sp,#0x16]
        0x0000082a:    f0200010     ...    BIC      r0,r0,#0x10
        0x0000082e:    f88d0016    ....    STRB     r0,[sp,#0x16]
        0x00000832:    7be0        .{      LDRB     r0,[r4,#0xf]
        0x00000834:    b128        (.      CBZ      r0,0x842 ; am_devices_adxl362_config + 234
        0x00000836:    2009        .       MOVS     r0,#9
        0x00000838:    f88d0016    ....    STRB     r0,[sp,#0x16]
        0x0000083c:    2000        .       MOVS     r0,#0
        0x0000083e:    f88d0015    ....    STRB     r0,[sp,#0x15]
        0x00000842:    7a20         z      LDRB     r0,[r4,#8]
        0x00000844:    f88d0013    ....    STRB     r0,[sp,#0x13]
        0x00000848:    f89d0012    ....    LDRB     r0,[sp,#0x12]
        0x0000084c:    8921        !.      LDRH     r1,[r4,#8]
        0x0000084e:    f4017180    ...q    AND      r1,r1,#0x100
        0x00000852:    b109        ..      CBZ      r1,0x858 ; am_devices_adxl362_config + 256
        0x00000854:    2108        .!      MOVS     r1,#8
        0x00000856:    e000        ..      B        0x85a ; am_devices_adxl362_config + 258
        0x00000858:    2100        .!      MOVS     r1,#0
        0x0000085a:    4308        .C      ORRS     r0,r0,r1
        0x0000085c:    f88d0012    ....    STRB     r0,[sp,#0x12]
        0x00000860:    f04f4080    O..@    MOV      r0,#0x40000000
        0x00000864:    9000        ..      STR      r0,[sp,#0]
        0x00000866:    230f        .#      MOVS     r3,#0xf
        0x00000868:    aa02        ..      ADD      r2,sp,#8
        0x0000086a:    e9d40100    ....    LDRD     r0,r1,[r4,#0]
        0x0000086e:    f000fc5b    ..[.    BL       am_hal_iom_spi_write ; 0x1128
        0x00000872:    b006        ..      ADD      sp,sp,#0x18
        0x00000874:    bd10        ..      POP      {r4,pc}
    i.am_devices_adxl362_fifo_depth_get
    am_devices_adxl362_fifo_depth_get
        0x00000876:    b57c        |.      PUSH     {r2-r6,lr}
        0x00000878:    4604        .F      MOV      r4,r0
        0x0000087a:    460d        .F      MOV      r5,r1
        0x0000087c:    200c        .       MOVS     r0,#0xc
        0x0000087e:    f88d0005    ....    STRB     r0,[sp,#5]
        0x00000882:    200b        .       MOVS     r0,#0xb
        0x00000884:    f88d0004    ....    STRB     r0,[sp,#4]
        0x00000888:    f04f40a0    O..@    MOV      r0,#0x50000000
        0x0000088c:    9000        ..      STR      r0,[sp,#0]
        0x0000088e:    2302        .#      MOVS     r3,#2
        0x00000890:    aa01        ..      ADD      r2,sp,#4
        0x00000892:    e9d40100    ....    LDRD     r0,r1,[r4,#0]
        0x00000896:    f000fc47    ..G.    BL       am_hal_iom_spi_write ; 0x1128
        0x0000089a:    f04f4080    O..@    MOV      r0,#0x40000000
        0x0000089e:    9000        ..      STR      r0,[sp,#0]
        0x000008a0:    2302        .#      MOVS     r3,#2
        0x000008a2:    462a        *F      MOV      r2,r5
        0x000008a4:    e9d40100    ....    LDRD     r0,r1,[r4,#0]
        0x000008a8:    f000fb7a    ..z.    BL       am_hal_iom_spi_read ; 0xfa0
        0x000008ac:    8828        (.      LDRH     r0,[r5,#0]
        0x000008ae:    b280        ..      UXTH     r0,r0
        0x000008b0:    6028        (`      STR      r0,[r5,#0]
        0x000008b2:    bd7c        |.      POP      {r2-r6,pc}
    i.am_devices_adxl362_measurement_mode_set
    am_devices_adxl362_measurement_mode_set
        0x000008b4:    b51c        ..      PUSH     {r2-r4,lr}
        0x000008b6:    4604        .F      MOV      r4,r0
        0x000008b8:    2002        .       MOVS     r0,#2
        0x000008ba:    f88d0006    ....    STRB     r0,[sp,#6]
        0x000008be:    202d        -       MOVS     r0,#0x2d
        0x000008c0:    f88d0005    ....    STRB     r0,[sp,#5]
        0x000008c4:    200a        .       MOVS     r0,#0xa
        0x000008c6:    f88d0004    ....    STRB     r0,[sp,#4]
        0x000008ca:    0740        @.      LSLS     r0,r0,#29
        0x000008cc:    9000        ..      STR      r0,[sp,#0]
        0x000008ce:    2303        .#      MOVS     r3,#3
        0x000008d0:    aa01        ..      ADD      r2,sp,#4
        0x000008d2:    e9d40100    ....    LDRD     r0,r1,[r4,#0]
        0x000008d6:    f000fc27    ..'.    BL       am_hal_iom_spi_write ; 0x1128
        0x000008da:    bd1c        ..      POP      {r2-r4,pc}
    i.am_devices_adxl362_reset
    am_devices_adxl362_reset
        0x000008dc:    b51c        ..      PUSH     {r2-r4,lr}
        0x000008de:    4604        .F      MOV      r4,r0
        0x000008e0:    2052        R       MOVS     r0,#0x52
        0x000008e2:    f88d0006    ....    STRB     r0,[sp,#6]
        0x000008e6:    201f        .       MOVS     r0,#0x1f
        0x000008e8:    f88d0005    ....    STRB     r0,[sp,#5]
        0x000008ec:    200a        .       MOVS     r0,#0xa
        0x000008ee:    f88d0004    ....    STRB     r0,[sp,#4]
        0x000008f2:    0740        @.      LSLS     r0,r0,#29
        0x000008f4:    9000        ..      STR      r0,[sp,#0]
        0x000008f6:    2303        .#      MOVS     r3,#3
        0x000008f8:    aa01        ..      ADD      r2,sp,#4
        0x000008fa:    e9d40100    ....    LDRD     r0,r1,[r4,#0]
        0x000008fe:    f000fc13    ....    BL       am_hal_iom_spi_write ; 0x1128
        0x00000902:    2032        2       MOVS     r0,#0x32
        0x00000904:    f000fda4    ....    BL       am_util_delay_ms ; 0x1450
        0x00000908:    bd1c        ..      POP      {r2-r4,pc}
    i.am_devices_adxl362_sample_get
    am_devices_adxl362_sample_get
        0x0000090a:    e92d41fc    -..A    PUSH     {r2-r8,lr}
        0x0000090e:    4604        .F      MOV      r4,r0
        0x00000910:    460d        .F      MOV      r5,r1
        0x00000912:    4617        .F      MOV      r7,r2
        0x00000914:    461e        .F      MOV      r6,r3
        0x00000916:    b166        f.      CBZ      r6,0x932 ; am_devices_adxl362_sample_get + 40
        0x00000918:    f44f6050    O.P`    MOV      r0,#0xd00
        0x0000091c:    eb050245    ..E.    ADD      r2,r5,r5,LSL #1
        0x00000920:    0053        S.      LSLS     r3,r2,#1
        0x00000922:    e9cd0600    ....    STRD     r0,r6,[sp,#0]
        0x00000926:    463a        :F      MOV      r2,r7
        0x00000928:    e9d40100    ....    LDRD     r0,r1,[r4,#0]
        0x0000092c:    f000fba8    ....    BL       am_hal_iom_spi_read_nb ; 0x1080
        0x00000930:    e00a        ..      B        0x948 ; am_devices_adxl362_sample_get + 62
        0x00000932:    f44f6050    O.P`    MOV      r0,#0xd00
        0x00000936:    eb050245    ..E.    ADD      r2,r5,r5,LSL #1
        0x0000093a:    0053        S.      LSLS     r3,r2,#1
        0x0000093c:    9000        ..      STR      r0,[sp,#0]
        0x0000093e:    463a        :F      MOV      r2,r7
        0x00000940:    e9d40100    ....    LDRD     r0,r1,[r4,#0]
        0x00000944:    f000fb2c    ..,.    BL       am_hal_iom_spi_read ; 0xfa0
        0x00000948:    e8bd81fc    ....    POP      {r2-r8,pc}
    i.am_gpio_isr
    am_gpio_isr
        0x0000094c:    b570        p.      PUSH     {r4-r6,lr}
        0x0000094e:    2000        .       MOVS     r0,#0
        0x00000950:    f000f90a    ....    BL       am_hal_gpio_int_status_get ; 0xb68
        0x00000954:    4604        .F      MOV      r4,r0
        0x00000956:    460d        .F      MOV      r5,r1
        0x00000958:    4620         F      MOV      r0,r4
        0x0000095a:    4629        )F      MOV      r1,r5
        0x0000095c:    f000f898    ....    BL       am_hal_gpio_int_clear ; 0xa90
        0x00000960:    4620         F      MOV      r0,r4
        0x00000962:    4629        )F      MOV      r1,r5
        0x00000964:    f000f8d4    ....    BL       am_hal_gpio_int_service ; 0xb10
        0x00000968:    bd70        p.      POP      {r4-r6,pc}
    i.am_hal_clkgen_osc_stop
    am_hal_clkgen_osc_stop
        0x0000096a:    f04f2140    O.@!    MOV      r1,#0x40004000
        0x0000096e:    68ca        .h      LDR      r2,[r1,#0xc]
        0x00000970:    4310        .C      ORRS     r0,r0,r2
        0x00000972:    60c8        .`      STR      r0,[r1,#0xc]
        0x00000974:    4770        pG      BX       lr
        0x00000976:    0000        ..      MOVS     r0,r0
    i.am_hal_clkgen_sysclk_get
    am_hal_clkgen_sysclk_get
        0x00000978:    f04f2040    O.@     MOV      r0,#0x40004000
        0x0000097c:    6980        .i      LDR      r0,[r0,#0x18]
        0x0000097e:    f0000007    ....    AND      r0,r0,#7
        0x00000982:    2808        .(      CMP      r0,#8
        0x00000984:    d215        ..      BCS      0x9b2 ; am_hal_clkgen_sysclk_get + 58
        0x00000986:    e8dff000    ....    TBB      [pc,r0]
    $d
        0x0000098a:    0604        ..      DCW    1540
        0x0000098c:    0e0c0a08    ....    DCD    235670024
        0x00000990:    1210        ..      DCW    4624
    $t
        0x00000992:    4809        .H      LDR      r0,[pc,#36] ; [0x9b8] = 0x16e3600
        0x00000994:    4770        pG      BX       lr
        0x00000996:    4809        .H      LDR      r0,[pc,#36] ; [0x9bc] = 0xb71b00
        0x00000998:    4770        pG      BX       lr
        0x0000099a:    4809        .H      LDR      r0,[pc,#36] ; [0x9c0] = 0x7a1200
        0x0000099c:    4770        pG      BX       lr
        0x0000099e:    4809        .H      LDR      r0,[pc,#36] ; [0x9c4] = 0x5b8d80
        0x000009a0:    4770        pG      BX       lr
        0x000009a2:    4809        .H      LDR      r0,[pc,#36] ; [0x9c8] = 0x493e00
        0x000009a4:    4770        pG      BX       lr
        0x000009a6:    4809        .H      LDR      r0,[pc,#36] ; [0x9cc] = 0x3d0900
        0x000009a8:    4770        pG      BX       lr
        0x000009aa:    4809        .H      LDR      r0,[pc,#36] ; [0x9d0] = 0x3450db
        0x000009ac:    4770        pG      BX       lr
        0x000009ae:    4809        .H      LDR      r0,[pc,#36] ; [0x9d4] = 0x2dc6c0
        0x000009b0:    4770        pG      BX       lr
        0x000009b2:    f04f30ff    O..0    MOV      r0,#0xffffffff
        0x000009b6:    4770        pG      BX       lr
    $d
        0x000009b8:    016e3600    .6n.    DCD    24000000
        0x000009bc:    00b71b00    ....    DCD    12000000
        0x000009c0:    007a1200    ..z.    DCD    8000000
        0x000009c4:    005b8d80    ..[.    DCD    6000000
        0x000009c8:    00493e00    .>I.    DCD    4800000
        0x000009cc:    003d0900    ..=.    DCD    4000000
        0x000009d0:    003450db    .P4.    DCD    3428571
        0x000009d4:    002dc6c0    ..-.    DCD    3000000
    $t
    i.am_hal_clkgen_sysclk_select
    am_hal_clkgen_sysclk_select
        0x000009d8:    f04f2140    O.@!    MOV      r1,#0x40004000
        0x000009dc:    2247        G"      MOVS     r2,#0x47
        0x000009de:    614a        Ja      STR      r2,[r1,#0x14]
        0x000009e0:    6188        .a      STR      r0,[r1,#0x18]
        0x000009e2:    2000        .       MOVS     r0,#0
        0x000009e4:    6148        Ha      STR      r0,[r1,#0x14]
        0x000009e6:    4770        pG      BX       lr
    i.am_hal_ctimer_compare_set
    am_hal_ctimer_compare_set
        0x000009e8:    f5113f80    ...?    CMN      r1,#0x10000
        0x000009ec:    bf0c        ..      ITE      EQ
        0x000009ee:    4907        .I      LDREQ    r1,[pc,#28] ; [0xa0c] = 0x40008008
        0x000009f0:    4907        .I      LDRNE    r1,[pc,#28] ; [0xa10] = 0x40008004
        0x000009f2:    eb011000    ....    ADD      r0,r1,r0,LSL #4
        0x000009f6:    2a01        .*      CMP      r2,#1
        0x000009f8:    6802        .h      LDR      r2,[r0,#0]
        0x000009fa:    b299        ..      UXTH     r1,r3
        0x000009fc:    bf0c        ..      ITE      EQ
        0x000009fe:    eac24101    ...A    PKHBTEQ  r1,r2,r1,LSL #16
        0x00000a02:    eac10102    ....    PKHBTNE  r1,r1,r2
        0x00000a06:    6001        .`      STR      r1,[r0,#0]
        0x00000a08:    4770        pG      BX       lr
    $d
        0x00000a0a:    0000        ..      DCW    0
        0x00000a0c:    40008008    ...@    DCD    1073774600
        0x00000a10:    40008004    ...@    DCD    1073774596
    $t
    i.am_hal_ctimer_config
    am_hal_ctimer_config
        0x00000a14:    890b        ..      LDRH     r3,[r1,#8]
        0x00000a16:    684a        Jh      LDR      r2,[r1,#4]
        0x00000a18:    6809        .h      LDR      r1,[r1,#0]
        0x00000a1a:    ea424203    B..B    ORR      r2,r2,r3,LSL #16
        0x00000a1e:    2900        .)      CMP      r1,#0
        0x00000a20:    bf18        ..      IT       NE
        0x00000a22:    f04f4100    O..A    MOVNE    r1,#0x80000000
        0x00000a26:    4311        .C      ORRS     r1,r1,r2
        0x00000a28:    4a02        .J      LDR      r2,[pc,#8] ; [0xa34] = 0x4000800c
        0x00000a2a:    eb021000    ....    ADD      r0,r2,r0,LSL #4
        0x00000a2e:    6001        .`      STR      r1,[r0,#0]
        0x00000a30:    4770        pG      BX       lr
    $d
        0x00000a32:    0000        ..      DCW    0
        0x00000a34:    4000800c    ...@    DCD    1073774604
    $t
    i.am_hal_ctimer_int_clear
    am_hal_ctimer_int_clear
        0x00000a38:    4901        .I      LDR      r1,[pc,#4] ; [0xa40] = 0x40008000
        0x00000a3a:    f8c10208    ....    STR      r0,[r1,#0x208]
        0x00000a3e:    4770        pG      BX       lr
    $d
        0x00000a40:    40008000    ...@    DCD    1073774592
    $t
    i.am_hal_ctimer_int_enable
    am_hal_ctimer_int_enable
        0x00000a44:    4903        .I      LDR      r1,[pc,#12] ; [0xa54] = 0x40008000
        0x00000a46:    f8d12200    ..."    LDR      r2,[r1,#0x200]
        0x00000a4a:    4310        .C      ORRS     r0,r0,r2
        0x00000a4c:    f8c10200    ....    STR      r0,[r1,#0x200]
        0x00000a50:    4770        pG      BX       lr
    $d
        0x00000a52:    0000        ..      DCW    0
        0x00000a54:    40008000    ...@    DCD    1073774592
    $t
    i.am_hal_ctimer_int_status_get
    am_hal_ctimer_int_status_get
        0x00000a58:    4904        .I      LDR      r1,[pc,#16] ; [0xa6c] = 0x40008000
        0x00000a5a:    2800        .(      CMP      r0,#0
        0x00000a5c:    f8d10204    ....    LDR      r0,[r1,#0x204]
        0x00000a60:    bf1c        ..      ITT      NE
        0x00000a62:    f8d11200    ....    LDRNE    r1,[r1,#0x200]
        0x00000a66:    4008        .@      ANDNE    r0,r0,r1
        0x00000a68:    4770        pG      BX       lr
    $d
        0x00000a6a:    0000        ..      DCW    0
        0x00000a6c:    40008000    ...@    DCD    1073774592
    $t
    i.am_hal_ctimer_start
    am_hal_ctimer_start
        0x00000a70:    4a05        .J      LDR      r2,[pc,#20] ; [0xa88] = 0x4000800c
        0x00000a72:    eb021000    ....    ADD      r0,r2,r0,LSL #4
        0x00000a76:    6802        .h      LDR      r2,[r0,#0]
        0x00000a78:    f0012308    ...#    AND      r3,r1,#0x8000800
        0x00000a7c:    439a        .C      BICS     r2,r2,r3
        0x00000a7e:    f0011101    ....    AND      r1,r1,#0x10001
        0x00000a82:    4311        .C      ORRS     r1,r1,r2
        0x00000a84:    6001        .`      STR      r1,[r0,#0]
        0x00000a86:    4770        pG      BX       lr
    $d
        0x00000a88:    4000800c    ...@    DCD    1073774604
    $t
    i.am_hal_debug_error
    am_hal_debug_error
        0x00000a8c:    e7fe        ..      B        am_hal_debug_error ; 0xa8c
        0x00000a8e:    0000        ..      MOVS     r0,r0
    i.am_hal_gpio_int_clear
    am_hal_gpio_int_clear
        0x00000a90:    4a02        .J      LDR      r2,[pc,#8] ; [0xa9c] = 0x40010000
        0x00000a92:    f8c21218    ....    STR      r1,[r2,#0x218]
        0x00000a96:    f8c20208    ....    STR      r0,[r2,#0x208]
        0x00000a9a:    4770        pG      BX       lr
    $d
        0x00000a9c:    40010000    ...@    DCD    1073807360
    $t
    i.am_hal_gpio_int_enable
    am_hal_gpio_int_enable
        0x00000aa0:    4a05        .J      LDR      r2,[pc,#20] ; [0xab8] = 0x40010000
        0x00000aa2:    f8d23210    ...2    LDR      r3,[r2,#0x210]
        0x00000aa6:    4319        .C      ORRS     r1,r1,r3
        0x00000aa8:    f8c21210    ....    STR      r1,[r2,#0x210]
        0x00000aac:    f8d21200    ....    LDR      r1,[r2,#0x200]
        0x00000ab0:    4308        .C      ORRS     r0,r0,r1
        0x00000ab2:    f8c20200    ....    STR      r0,[r2,#0x200]
        0x00000ab6:    4770        pG      BX       lr
    $d
        0x00000ab8:    40010000    ...@    DCD    1073807360
    $t
    i.am_hal_gpio_int_register
    am_hal_gpio_int_register
        0x00000abc:    b570        p.      PUSH     {r4-r6,lr}
        0x00000abe:    460d        .F      MOV      r5,r1
        0x00000ac0:    4604        .F      MOV      r4,r0
        0x00000ac2:    2840        @(      CMP      r0,#0x40
        0x00000ac4:    d905        ..      BLS      0xad2 ; am_hal_gpio_int_register + 22
        0x00000ac6:    a205        ..      ADR      r2,{pc}+0x16 ; 0xadc
        0x00000ac8:    f24011ab    @...    MOV      r1,#0x1ab
        0x00000acc:    a00a        ..      ADR      r0,{pc}+0x2c ; 0xaf8
        0x00000ace:    f7ffffdd    ....    BL       am_hal_debug_error ; 0xa8c
        0x00000ad2:    480e        .H      LDR      r0,[pc,#56] ; [0xb0c] = 0x10002678
        0x00000ad4:    f8405024    @.$P    STR      r5,[r0,r4,LSL #2]
        0x00000ad8:    bd70        p.      POP      {r4-r6,pc}
    $d
        0x00000ada:    0000        ..      DCW    0
        0x00000adc:    4f495047    GPIO    DCD    1330204743
        0x00000ae0:    6d756e20     num    DCD    1836412448
        0x00000ae4:    20726562    ber     DCD    544367970
        0x00000ae8:    2074756f    out     DCD    544503151
        0x00000aec:    7220666f    of r    DCD    1914725999
        0x00000af0:    65676e61    ange    DCD    1701277281
        0x00000af4:    0000002e    ....    DCD    46
        0x00000af8:    612f2e2e    ../a    DCD    1630481966
        0x00000afc:    61685f6d    m_ha    DCD    1634230125
        0x00000b00:    70675f6c    l_gp    DCD    1885822828
        0x00000b04:    632e6f69    io.c    DCD    1663987561
        0x00000b08:    00000000    ....    DCD    0
        0x00000b0c:    10002678    x&..    DCD    268445304
    $t
    i.am_hal_gpio_int_service
    am_hal_gpio_int_service
        0x00000b10:    e92d41f0    -..A    PUSH     {r4-r8,lr}
        0x00000b14:    4f13        .O      LDR      r7,[pc,#76] ; [0xb64] = 0x10002678
        0x00000b16:    460d        .F      MOV      r5,r1
        0x00000b18:    0004        ..      MOVS     r4,r0
        0x00000b1a:    f04f4600    O..F    MOV      r6,#0x80000000
        0x00000b1e:    d00d        ..      BEQ      0xb3c ; am_hal_gpio_int_service + 44
        0x00000b20:    fab4f084    ....    CLZ      r0,r4
        0x00000b24:    fa26f100    &...    LSR      r1,r6,r0
        0x00000b28:    f1c0001f    ....    RSB      r0,r0,#0x1f
        0x00000b2c:    438c        .C      BICS     r4,r4,r1
        0x00000b2e:    f8570020    W. .    LDR      r0,[r7,r0,LSL #2]
        0x00000b32:    2800        .(      CMP      r0,#0
        0x00000b34:    bf18        ..      IT       NE
        0x00000b36:    4780        .G      BLXNE    r0
        0x00000b38:    2c00        .,      CMP      r4,#0
        0x00000b3a:    d1f1        ..      BNE      0xb20 ; am_hal_gpio_int_service + 16
        0x00000b3c:    2d00        .-      CMP      r5,#0
        0x00000b3e:    bf08        ..      IT       EQ
        0x00000b40:    e8bd81f0    ....    POPEQ    {r4-r8,pc}
        0x00000b44:    fab5f085    ....    CLZ      r0,r5
        0x00000b48:    fa26f100    &...    LSR      r1,r6,r0
        0x00000b4c:    f1c0003f    ..?.    RSB      r0,r0,#0x3f
        0x00000b50:    438d        .C      BICS     r5,r5,r1
        0x00000b52:    f8570020    W. .    LDR      r0,[r7,r0,LSL #2]
        0x00000b56:    2800        .(      CMP      r0,#0
        0x00000b58:    bf18        ..      IT       NE
        0x00000b5a:    4780        .G      BLXNE    r0
        0x00000b5c:    2d00        .-      CMP      r5,#0
        0x00000b5e:    d1f1        ..      BNE      0xb44 ; am_hal_gpio_int_service + 52
        0x00000b60:    e8bd81f0    ....    POP      {r4-r8,pc}
    $d
        0x00000b64:    10002678    x&..    DCD    268445304
    $t
    i.am_hal_gpio_int_status_get
    am_hal_gpio_int_status_get
        0x00000b68:    4a0c        .J      LDR      r2,[pc,#48] ; [0xb9c] = 0x40010000
        0x00000b6a:    2100        .!      MOVS     r1,#0
        0x00000b6c:    b178        x.      CBZ      r0,0xb8e ; am_hal_gpio_int_status_get + 38
        0x00000b6e:    f8d23210    ...2    LDR      r3,[r2,#0x210]
        0x00000b72:    f8d20200    ....    LDR      r0,[r2,#0x200]
        0x00000b76:    f8d2c214    ....    LDR      r12,[r2,#0x214]
        0x00000b7a:    4308        .C      ORRS     r0,r0,r1
        0x00000b7c:    430b        .C      ORRS     r3,r3,r1
        0x00000b7e:    f8d22204    ..."    LDR      r2,[r2,#0x204]
        0x00000b82:    430a        .C      ORRS     r2,r2,r1
        0x00000b84:    ea41010c    A...    ORR      r1,r1,r12
        0x00000b88:    4010        .@      ANDS     r0,r0,r2
        0x00000b8a:    4019        .@      ANDS     r1,r1,r3
        0x00000b8c:    4770        pG      BX       lr
        0x00000b8e:    f8d23214    ...2    LDR      r3,[r2,#0x214]
        0x00000b92:    f8d20204    ....    LDR      r0,[r2,#0x204]
        0x00000b96:    4308        .C      ORRS     r0,r0,r1
        0x00000b98:    4319        .C      ORRS     r1,r1,r3
        0x00000b9a:    4770        pG      BX       lr
    $d
        0x00000b9c:    40010000    ...@    DCD    1073807360
    $t
    i.am_hal_interrupt_enable
    am_hal_interrupt_enable
        0x00000ba0:    280f        .(      CMP      r0,#0xf
        0x00000ba2:    d90a        ..      BLS      0xbba ; am_hal_interrupt_enable + 26
        0x00000ba4:    3810        .8      SUBS     r0,r0,#0x10
        0x00000ba6:    f000001f    ....    AND      r0,r0,#0x1f
        0x00000baa:    2101        .!      MOVS     r1,#1
        0x00000bac:    fa01f000    ....    LSL      r0,r1,r0
        0x00000bb0:    f04f21e0    O..!    MOV      r1,#0xe000e000
        0x00000bb4:    f8c10100    ....    STR      r0,[r1,#0x100]
        0x00000bb8:    4770        pG      BX       lr
        0x00000bba:    490b        .I      LDR      r1,[pc,#44] ; [0xbe8] = 0xe000ed24
        0x00000bbc:    2804        .(      CMP      r0,#4
        0x00000bbe:    d00d        ..      BEQ      0xbdc ; am_hal_interrupt_enable + 60
        0x00000bc0:    2805        .(      CMP      r0,#5
        0x00000bc2:    bf04        ..      ITT      EQ
        0x00000bc4:    6808        .h      LDREQ    r0,[r1,#0]
        0x00000bc6:    f4403000    @..0    ORREQ    r0,r0,#0x20000
        0x00000bca:    d005        ..      BEQ      0xbd8 ; am_hal_interrupt_enable + 56
        0x00000bcc:    2806        .(      CMP      r0,#6
        0x00000bce:    bf06        ..      ITTE     EQ
        0x00000bd0:    6808        .h      LDREQ    r0,[r1,#0]
        0x00000bd2:    f4402080    @..     ORREQ    r0,r0,#0x40000
        0x00000bd6:    4770        pG      BXNE     lr
        0x00000bd8:    6008        .`      STR      r0,[r1,#0]
        0x00000bda:    4770        pG      BX       lr
        0x00000bdc:    6808        .h      LDR      r0,[r1,#0]
        0x00000bde:    f4403080    @..0    ORR      r0,r0,#0x10000
        0x00000be2:    6008        .`      STR      r0,[r1,#0]
        0x00000be4:    4770        pG      BX       lr
    $d
        0x00000be6:    0000        ..      DCW    0
        0x00000be8:    e000ed24    $...    DCD    3758157092
    $t
    i.am_hal_interrupt_priority_set
    am_hal_interrupt_priority_set
        0x00000bec:    4b0b        .K      LDR      r3,[pc,#44] ; [0xc1c] = 0xe000e400
        0x00000bee:    f1a00210    ....    SUB      r2,r0,#0x10
        0x00000bf2:    f0220003    "...    BIC      r0,r2,#3
        0x00000bf6:    4418        .D      ADD      r0,r0,r3
        0x00000bf8:    0792        ..      LSLS     r2,r2,#30
        0x00000bfa:    6803        .h      LDR      r3,[r0,#0]
        0x00000bfc:    b081        ..      SUB      sp,sp,#4
        0x00000bfe:    0ed2        ..      LSRS     r2,r2,#27
        0x00000c00:    9300        ..      STR      r3,[sp,#0]
        0x00000c02:    23ff        .#      MOVS     r3,#0xff
        0x00000c04:    f8ddc000    ....    LDR      r12,[sp,#0]
        0x00000c08:    4093        .@      LSLS     r3,r3,r2
        0x00000c0a:    ea2c0303    ,...    BIC      r3,r12,r3
        0x00000c0e:    9300        ..      STR      r3,[sp,#0]
        0x00000c10:    6803        .h      LDR      r3,[r0,#0]
        0x00000c12:    4091        .@      LSLS     r1,r1,r2
        0x00000c14:    4319        .C      ORRS     r1,r1,r3
        0x00000c16:    6001        .`      STR      r1,[r0,#0]
        0x00000c18:    b001        ..      ADD      sp,sp,#4
        0x00000c1a:    4770        pG      BX       lr
    $d
        0x00000c1c:    e000e400    ....    DCD    3758154752
    $t
    i.am_hal_iom_config
    am_hal_iom_config
        0x00000c20:    680a        .h      LDR      r2,[r1,#0]
        0x00000c22:    4b14        .K      LDR      r3,[pc,#80] ; [0xc74] = 0x100000bc
        0x00000c24:    2800        .(      CMP      r0,#0
        0x00000c26:    4694        .F      MOV      r12,r2
        0x00000c28:    bf0c        ..      ITE      EQ
        0x00000c2a:    f8c3c000    ....    STREQ    r12,[r3,#0]
        0x00000c2e:    f8c3c004    ....    STRNE    r12,[r3,#4]
        0x00000c32:    7a0b        .z      LDRB     r3,[r1,#8]
        0x00000c34:    2b00        .+      CMP      r3,#0
        0x00000c36:    bf18        ..      IT       NE
        0x00000c38:    f0420204    B...    ORRNE    r2,r2,#4
        0x00000c3c:    7a4b        Kz      LDRB     r3,[r1,#9]
        0x00000c3e:    2b00        .+      CMP      r3,#0
        0x00000c40:    bf18        ..      IT       NE
        0x00000c42:    f0420202    B...    ORRNE    r2,r2,#2
        0x00000c46:    0300        ..      LSLS     r0,r0,#12
        0x00000c48:    f10040a0    ...@    ADD      r0,r0,#0x50000000
        0x00000c4c:    f5004080    ...@    ADD      r0,r0,#0x4000
        0x00000c50:    f8c0211c    ...!    STR      r2,[r0,#0x11c]
        0x00000c54:    7a8a        .z      LDRB     r2,[r1,#0xa]
        0x00000c56:    f44f537c    O.|S    MOV      r3,#0x3f00
        0x00000c5a:    ea032202    ..."    AND      r2,r3,r2,LSL #8
        0x00000c5e:    7acb        .z      LDRB     r3,[r1,#0xb]
        0x00000c60:    f003033f    ..?.    AND      r3,r3,#0x3f
        0x00000c64:    431a        .C      ORRS     r2,r2,r3
        0x00000c66:    f8c02108    ...!    STR      r2,[r0,#0x108]
        0x00000c6a:    6849        Ih      LDR      r1,[r1,#4]
        0x00000c6c:    f8c0110c    ....    STR      r1,[r0,#0x10c]
        0x00000c70:    4770        pG      BX       lr
    $d
        0x00000c72:    0000        ..      DCW    0
        0x00000c74:    100000bc    ....    DCD    268435644
    $t
    i.am_hal_iom_enable
    am_hal_iom_enable
        0x00000c78:    0301        ..      LSLS     r1,r0,#12
        0x00000c7a:    f10141a0    ...A    ADD      r1,r1,#0x50000000
        0x00000c7e:    f5014180    ...A    ADD      r1,r1,#0x4000
        0x00000c82:    f8d1211c    ...!    LDR      r2,[r1,#0x11c]
        0x00000c86:    f0424200    B..B    ORR      r2,r2,#0x80000000
        0x00000c8a:    f8c1211c    ...!    STR      r2,[r1,#0x11c]
        0x00000c8e:    2200        ."      MOVS     r2,#0
        0x00000c90:    4913        .I      LDR      r1,[pc,#76] ; [0xce0] = 0x40010000
        0x00000c92:    f8dfc050    ..P.    LDR      r12,[pc,#80] ; [0xce4] = 0x100000bc
        0x00000c96:    2373        s#      MOVS     r3,#0x73
        0x00000c98:    b188        ..      CBZ      r0,0xcbe ; am_hal_iom_enable + 70
        0x00000c9a:    f8dc0004    ....    LDR      r0,[r12,#4]
        0x00000c9e:    2801        .(      CMP      r0,#1
        0x00000ca0:    bf18        ..      IT       NE
        0x00000ca2:    4770        pG      BXNE     lr
        0x00000ca4:    660b        .f      STR      r3,[r1,#0x60]
        0x00000ca6:    6c48        Hl      LDR      r0,[r1,#0x44]
        0x00000ca8:    f0200070     .p.    BIC      r0,r0,#0x70
        0x00000cac:    6448        Hd      STR      r0,[r1,#0x44]
        0x00000cae:    6888        .h      LDR      r0,[r1,#8]
        0x00000cb0:    f420407f     ..@    BIC      r0,r0,#0xff00
        0x00000cb4:    f4406020    @. `    ORR      r0,r0,#0xa00
        0x00000cb8:    6088        .`      STR      r0,[r1,#8]
        0x00000cba:    660a        .f      STR      r2,[r1,#0x60]
        0x00000cbc:    4770        pG      BX       lr
        0x00000cbe:    f8dc0000    ....    LDR      r0,[r12,#0]
        0x00000cc2:    2801        .(      CMP      r0,#1
        0x00000cc4:    bf18        ..      IT       NE
        0x00000cc6:    4770        pG      BXNE     lr
        0x00000cc8:    660b        .f      STR      r3,[r1,#0x60]
        0x00000cca:    6c08        .l      LDR      r0,[r1,#0x40]
        0x00000ccc:    f02060e0     ..`    BIC      r0,r0,#0x7000000
        0x00000cd0:    6408        .d      STR      r0,[r1,#0x40]
        0x00000cd2:    6848        Hh      LDR      r0,[r1,#4]
        0x00000cd4:    f420007f     ...    BIC      r0,r0,#0xff0000
        0x00000cd8:    f4402020    @.      ORR      r0,r0,#0xa0000
        0x00000cdc:    6048        H`      STR      r0,[r1,#4]
        0x00000cde:    e7ec        ..      B        0xcba ; am_hal_iom_enable + 66
    $d
        0x00000ce0:    40010000    ...@    DCD    1073807360
        0x00000ce4:    100000bc    ....    DCD    268435644
    $t
    i.am_hal_iom_fifo_read
    am_hal_iom_fifo_read
        0x00000ce8:    b570        p.      PUSH     {r4-r6,lr}
        0x00000cea:    0300        ..      LSLS     r0,r0,#12
        0x00000cec:    f10045a0    ...E    ADD      r5,r0,#0x50000000
        0x00000cf0:    f5054580    ...E    ADD      r5,r5,#0x4000
        0x00000cf4:    4614        .F      MOV      r4,r2
        0x00000cf6:    f8d50100    ....    LDR      r0,[r5,#0x100]
        0x00000cfa:    460e        .F      MOV      r6,r1
        0x00000cfc:    f000007f    ....    AND      r0,r0,#0x7f
        0x00000d00:    42a0        .B      CMP      r0,r4
        0x00000d02:    d205        ..      BCS      0xd10 ; am_hal_iom_fifo_read + 40
        0x00000d04:    a21a        ..      ADR      r2,{pc}+0x6c ; 0xd70
        0x00000d06:    f44f6199    O..a    MOV      r1,#0x4c8
        0x00000d0a:    a027        '.      ADR      r0,{pc}+0x9e ; 0xda8
        0x00000d0c:    f7fffebe    ....    BL       am_hal_debug_error ; 0xa8c
        0x00000d10:    2300        .#      MOVS     r3,#0
        0x00000d12:    1ce2        ..      ADDS     r2,r4,#3
        0x00000d14:    2a03        .*      CMP      r2,#3
        0x00000d16:    d921        !.      BLS      0xd5c ; am_hal_iom_fifo_read + 116
        0x00000d18:    f1b44f00    ...O    CMP      r4,#0x80000000
        0x00000d1c:    d21e        ..      BCS      0xd5c ; am_hal_iom_fifo_read + 116
        0x00000d1e:    17d1        ..      ASRS     r1,r2,#31
        0x00000d20:    eb027191    ...q    ADD      r1,r2,r1,LSR #30
        0x00000d24:    2a03        .*      CMP      r2,#3
        0x00000d26:    bfd8        ..      IT       LE
        0x00000d28:    2000        .       MOVLE    r0,#0
        0x00000d2a:    dd05        ..      BLE      0xd38 ; am_hal_iom_fifo_read + 80
        0x00000d2c:    f3c10080    ....    UBFX     r0,r1,#2,#1
        0x00000d30:    b110        ..      CBZ      r0,0xd38 ; am_hal_iom_fifo_read + 80
        0x00000d32:    682a        *h      LDR      r2,[r5,#0]
        0x00000d34:    2301        .#      MOVS     r3,#1
        0x00000d36:    6032        2`      STR      r2,[r6,#0]
        0x00000d38:    2201        ."      MOVS     r2,#1
        0x00000d3a:    eb0202a1    ....    ADD      r2,r2,r1,ASR #2
        0x00000d3e:    1c40        @.      ADDS     r0,r0,#1
        0x00000d40:    e008        ..      B        0xd54 ; am_hal_iom_fifo_read + 108
        0x00000d42:    6829        )h      LDR      r1,[r5,#0]
        0x00000d44:    f8461023    F.#.    STR      r1,[r6,r3,LSL #2]
        0x00000d48:    1c59        Y.      ADDS     r1,r3,#1
        0x00000d4a:    682b        +h      LDR      r3,[r5,#0]
        0x00000d4c:    f8463021    F.!0    STR      r3,[r6,r1,LSL #2]
        0x00000d50:    1c4b        K.      ADDS     r3,r1,#1
        0x00000d52:    1c80        ..      ADDS     r0,r0,#2
        0x00000d54:    4282        .B      CMP      r2,r0
        0x00000d56:    dcf4        ..      BGT      0xd42 ; am_hal_iom_fifo_read + 90
        0x00000d58:    4620         F      MOV      r0,r4
        0x00000d5a:    bd70        p.      POP      {r4-r6,pc}
        0x00000d5c:    2c00        .,      CMP      r4,#0
        0x00000d5e:    d9fb        ..      BLS      0xd58 ; am_hal_iom_fifo_read + 112
        0x00000d60:    6828        (h      LDR      r0,[r5,#0]
        0x00000d62:    f8460023    F.#.    STR      r0,[r6,r3,LSL #2]
        0x00000d66:    1c5b        [.      ADDS     r3,r3,#1
        0x00000d68:    ebb40f83    ....    CMP      r4,r3,LSL #2
        0x00000d6c:    d8f8        ..      BHI      0xd60 ; am_hal_iom_fifo_read + 120
        0x00000d6e:    e7f3        ..      B        0xd58 ; am_hal_iom_fifo_read + 112
    $d
        0x00000d70:    20656854    The     DCD    543516756
        0x00000d74:    6f666966    fifo    DCD    1868982630
        0x00000d78:    656f6420     doe    DCD    1701798944
        0x00000d7c:    74276e73    sn't    DCD    1948741235
        0x00000d80:    6e6f6320     con    DCD    1852793632
        0x00000d84:    6e696174    tain    DCD    1852399988
        0x00000d88:    65687420     the    DCD    1701344288
        0x00000d8c:    71657220     req    DCD    1902473760
        0x00000d90:    74736575    uest    DCD    1953719669
        0x00000d94:    6e206465    ed n    DCD    1847616613
        0x00000d98:    65626d75    umbe    DCD    1700949365
        0x00000d9c:    666f2072    r of    DCD    1718558834
        0x00000da0:    74796220     byt    DCD    1954112032
        0x00000da4:    002e7365    es..    DCD    3044197
        0x00000da8:    612f2e2e    ../a    DCD    1630481966
        0x00000dac:    61685f6d    m_ha    DCD    1634230125
        0x00000db0:    6f695f6c    l_io    DCD    1869176684
        0x00000db4:    00632e6d    m.c.    DCD    6499949
    $t
    i.am_hal_iom_fifo_write
    am_hal_iom_fifo_write
        0x00000db8:    b570        p.      PUSH     {r4-r6,lr}
        0x00000dba:    0300        ..      LSLS     r0,r0,#12
        0x00000dbc:    f10045a0    ...E    ADD      r5,r0,#0x50000000
        0x00000dc0:    f5054580    ...E    ADD      r5,r5,#0x4000
        0x00000dc4:    4614        .F      MOV      r4,r2
        0x00000dc6:    f8d50100    ....    LDR      r0,[r5,#0x100]
        0x00000dca:    460e        .F      MOV      r6,r1
        0x00000dcc:    f3c04006    ...@    UBFX     r0,r0,#16,#7
        0x00000dd0:    42a0        .B      CMP      r0,r4
        0x00000dd2:    d205        ..      BCS      0xde0 ; am_hal_iom_fifo_write + 40
        0x00000dd4:    a21b        ..      ADR      r2,{pc}+0x70 ; 0xe44
        0x00000dd6:    f240419a    @..A    MOV      r1,#0x49a
        0x00000dda:    a027        '.      ADR      r0,{pc}+0x9e ; 0xe78
        0x00000ddc:    f7fffe56    ..V.    BL       am_hal_debug_error ; 0xa8c
        0x00000de0:    2300        .#      MOVS     r3,#0
        0x00000de2:    1ce0        ..      ADDS     r0,r4,#3
        0x00000de4:    2803        .(      CMP      r0,#3
        0x00000de6:    d922        ".      BLS      0xe2e ; am_hal_iom_fifo_write + 118
        0x00000de8:    f1b44f00    ...O    CMP      r4,#0x80000000
        0x00000dec:    d21f        ..      BCS      0xe2e ; am_hal_iom_fifo_write + 118
        0x00000dee:    17c2        ..      ASRS     r2,r0,#31
        0x00000df0:    eb007292    ...r    ADD      r2,r0,r2,LSR #30
        0x00000df4:    2803        .(      CMP      r0,#3
        0x00000df6:    bfd8        ..      IT       LE
        0x00000df8:    2000        .       MOVLE    r0,#0
        0x00000dfa:    dd05        ..      BLE      0xe08 ; am_hal_iom_fifo_write + 80
        0x00000dfc:    f3c20080    ....    UBFX     r0,r2,#2,#1
        0x00000e00:    b110        ..      CBZ      r0,0xe08 ; am_hal_iom_fifo_write + 80
        0x00000e02:    6831        1h      LDR      r1,[r6,#0]
        0x00000e04:    6029        )`      STR      r1,[r5,#0]
        0x00000e06:    2301        .#      MOVS     r3,#1
        0x00000e08:    2101        .!      MOVS     r1,#1
        0x00000e0a:    eb0102a2    ....    ADD      r2,r1,r2,ASR #2
        0x00000e0e:    1c40        @.      ADDS     r0,r0,#1
        0x00000e10:    e009        ..      B        0xe26 ; am_hal_iom_fifo_write + 110
        0x00000e12:    bf00        ..      NOP      
        0x00000e14:    f8561023    V.#.    LDR      r1,[r6,r3,LSL #2]
        0x00000e18:    6029        )`      STR      r1,[r5,#0]
        0x00000e1a:    1c59        Y.      ADDS     r1,r3,#1
        0x00000e1c:    f8563021    V.!0    LDR      r3,[r6,r1,LSL #2]
        0x00000e20:    602b        +`      STR      r3,[r5,#0]
        0x00000e22:    1c4b        K.      ADDS     r3,r1,#1
        0x00000e24:    1c80        ..      ADDS     r0,r0,#2
        0x00000e26:    4282        .B      CMP      r2,r0
        0x00000e28:    dcf4        ..      BGT      0xe14 ; am_hal_iom_fifo_write + 92
        0x00000e2a:    4620         F      MOV      r0,r4
        0x00000e2c:    bd70        p.      POP      {r4-r6,pc}
        0x00000e2e:    2c00        .,      CMP      r4,#0
        0x00000e30:    d9fb        ..      BLS      0xe2a ; am_hal_iom_fifo_write + 114
        0x00000e32:    bf00        ..      NOP      
        0x00000e34:    f8560023    V.#.    LDR      r0,[r6,r3,LSL #2]
        0x00000e38:    6028        (`      STR      r0,[r5,#0]
        0x00000e3a:    1c5b        [.      ADDS     r3,r3,#1
        0x00000e3c:    ebb40f83    ....    CMP      r4,r3,LSL #2
        0x00000e40:    d8f8        ..      BHI      0xe34 ; am_hal_iom_fifo_write + 124
        0x00000e42:    e7f2        ..      B        0xe2a ; am_hal_iom_fifo_write + 114
    $d
        0x00000e44:    20656854    The     DCD    543516756
        0x00000e48:    6f666966    fifo    DCD    1868982630
        0x00000e4c:    756f6320     cou    DCD    1970234144
        0x00000e50:    276e646c    ldn'    DCD    661546092
        0x00000e54:    69662074    t fi    DCD    1768300660
        0x00000e58:    68742074    t th    DCD    1752440948
        0x00000e5c:    65722065    e re    DCD    1701978213
        0x00000e60:    73657571    ques    DCD    1936029041
        0x00000e64:    20646574    ted     DCD    543450484
        0x00000e68:    626d756e    numb    DCD    1651340654
        0x00000e6c:    6f207265    er o    DCD    1864397413
        0x00000e70:    79622066    f by    DCD    2036473958
        0x00000e74:    00736574    tes.    DCD    7562612
        0x00000e78:    612f2e2e    ../a    DCD    1630481966
        0x00000e7c:    61685f6d    m_ha    DCD    1634230125
        0x00000e80:    6f695f6c    l_io    DCD    1869176684
        0x00000e84:    00632e6d    m.c.    DCD    6499949
    $t
    i.am_hal_iom_int_clear
    am_hal_iom_int_clear
        0x00000e88:    0300        ..      LSLS     r0,r0,#12
        0x00000e8a:    f10040a0    ...@    ADD      r0,r0,#0x50000000
        0x00000e8e:    f5004080    ...@    ADD      r0,r0,#0x4000
        0x00000e92:    f8c01208    ....    STR      r1,[r0,#0x208]
        0x00000e96:    4770        pG      BX       lr
    i.am_hal_iom_int_enable
    am_hal_iom_int_enable
        0x00000e98:    0300        ..      LSLS     r0,r0,#12
        0x00000e9a:    f10040a0    ...@    ADD      r0,r0,#0x50000000
        0x00000e9e:    f5004080    ...@    ADD      r0,r0,#0x4000
        0x00000ea2:    f8d02200    ..."    LDR      r2,[r0,#0x200]
        0x00000ea6:    4311        .C      ORRS     r1,r1,r2
        0x00000ea8:    f8c01200    ....    STR      r1,[r0,#0x200]
        0x00000eac:    4770        pG      BX       lr
        0x00000eae:    0000        ..      MOVS     r0,r0
    i.am_hal_iom_int_service
    am_hal_iom_int_service
        0x00000eb0:    b570        p.      PUSH     {r4-r6,lr}
        0x00000eb2:    4a32        2J      LDR      r2,[pc,#200] ; [0xf7c] = 0x10002778
        0x00000eb4:    eb021400    ....    ADD      r4,r2,r0,LSL #4
        0x00000eb8:    6822        "h      LDR      r2,[r4,#0]
        0x00000eba:    2a00        .*      CMP      r2,#0
        0x00000ebc:    bf08        ..      IT       EQ
        0x00000ebe:    bd70        p.      POPEQ    {r4-r6,pc}
        0x00000ec0:    f0110f01    ....    TST      r1,#1
        0x00000ec4:    ea4f3300    O..3    LSL      r3,r0,#12
        0x00000ec8:    f10343a0    ...C    ADD      r3,r3,#0x50000000
        0x00000ecc:    f5034380    ...C    ADD      r3,r3,#0x4000
        0x00000ed0:    d011        ..      BEQ      0xef6 ; am_hal_iom_int_service + 70
        0x00000ed2:    2a02        .*      CMP      r2,#2
        0x00000ed4:    d106        ..      BNE      0xee4 ; am_hal_iom_int_service + 52
        0x00000ed6:    f8d31100    ....    LDR      r1,[r3,#0x100]
        0x00000eda:    f001027f    ....    AND      r2,r1,#0x7f
        0x00000ede:    6861        ah      LDR      r1,[r4,#4]
        0x00000ee0:    f7ffff02    ....    BL       am_hal_iom_fifo_read ; 0xce8
        0x00000ee4:    2000        .       MOVS     r0,#0
        0x00000ee6:    6020         `      STR      r0,[r4,#0]
        0x00000ee8:    68e0        .h      LDR      r0,[r4,#0xc]
        0x00000eea:    2800        .(      CMP      r0,#0
        0x00000eec:    bf08        ..      IT       EQ
        0x00000eee:    bd70        p.      POPEQ    {r4-r6,pc}
        0x00000ef0:    e8bd4070    ..p@    POP      {r4-r6,lr}
        0x00000ef4:    4700        .G      BX       r0
        0x00000ef6:    f0110f02    ....    TST      r1,#2
        0x00000efa:    bf08        ..      IT       EQ
        0x00000efc:    bd70        p.      POPEQ    {r4-r6,pc}
        0x00000efe:    2a01        .*      CMP      r2,#1
        0x00000f00:    f8d31100    ....    LDR      r1,[r3,#0x100]
        0x00000f04:    d009        ..      BEQ      0xf1a ; am_hal_iom_int_service + 106
        0x00000f06:    68a2        .h      LDR      r2,[r4,#8]
        0x00000f08:    f001017f    ....    AND      r1,r1,#0x7f
        0x00000f0c:    4291        .B      CMP      r1,r2
        0x00000f0e:    d11c        ..      BNE      0xf4a ; am_hal_iom_int_service + 154
        0x00000f10:    6861        ah      LDR      r1,[r4,#4]
        0x00000f12:    e8bd4070    ..p@    POP      {r4-r6,lr}
        0x00000f16:    f7ffbee7    ....    B.W      am_hal_iom_fifo_read ; 0xce8
        0x00000f1a:    68a5        .h      LDR      r5,[r4,#8]
        0x00000f1c:    f3c14106    ...A    UBFX     r1,r1,#16,#7
        0x00000f20:    42a9        .B      CMP      r1,r5
        0x00000f22:    d205        ..      BCS      0xf30 ; am_hal_iom_int_service + 128
        0x00000f24:    f8d31100    ....    LDR      r1,[r3,#0x100]
        0x00000f28:    f3c14106    ...A    UBFX     r1,r1,#16,#7
        0x00000f2c:    f0210503    !...    BIC      r5,r1,#3
        0x00000f30:    462a        *F      MOV      r2,r5
        0x00000f32:    6861        ah      LDR      r1,[r4,#4]
        0x00000f34:    f7ffff40    ..@.    BL       am_hal_iom_fifo_write ; 0xdb8
        0x00000f38:    68a0        .h      LDR      r0,[r4,#8]
        0x00000f3a:    f0250103    %...    BIC      r1,r5,#3
        0x00000f3e:    1b40        @.      SUBS     r0,r0,r5
        0x00000f40:    60a0        .`      STR      r0,[r4,#8]
        0x00000f42:    6860        `h      LDR      r0,[r4,#4]
        0x00000f44:    4408        .D      ADD      r0,r0,r1
        0x00000f46:    6060        ``      STR      r0,[r4,#4]
        0x00000f48:    bd70        p.      POP      {r4-r6,pc}
        0x00000f4a:    f8d31100    ....    LDR      r1,[r3,#0x100]
        0x00000f4e:    f001017f    ....    AND      r1,r1,#0x7f
        0x00000f52:    2904        .)      CMP      r1,#4
        0x00000f54:    bf38        8.      IT       CC
        0x00000f56:    bd70        p.      POPCC    {r4-r6,pc}
        0x00000f58:    f8d31100    ....    LDR      r1,[r3,#0x100]
        0x00000f5c:    f001057c    ..|.    AND      r5,r1,#0x7c
        0x00000f60:    462a        *F      MOV      r2,r5
        0x00000f62:    6861        ah      LDR      r1,[r4,#4]
        0x00000f64:    f7fffec0    ....    BL       am_hal_iom_fifo_read ; 0xce8
        0x00000f68:    68a0        .h      LDR      r0,[r4,#8]
        0x00000f6a:    f0250103    %...    BIC      r1,r5,#3
        0x00000f6e:    1b40        @.      SUBS     r0,r0,r5
        0x00000f70:    60a0        .`      STR      r0,[r4,#8]
        0x00000f72:    6860        `h      LDR      r0,[r4,#4]
        0x00000f74:    4408        .D      ADD      r0,r0,r1
        0x00000f76:    6060        ``      STR      r0,[r4,#4]
        0x00000f78:    bd70        p.      POP      {r4-r6,pc}
    $d
        0x00000f7a:    0000        ..      DCW    0
        0x00000f7c:    10002778    x'..    DCD    268445560
    $t
    i.am_hal_iom_int_status_get
    am_hal_iom_int_status_get
        0x00000f80:    0300        ..      LSLS     r0,r0,#12
        0x00000f82:    f10040a0    ...@    ADD      r0,r0,#0x50000000
        0x00000f86:    f5004080    ...@    ADD      r0,r0,#0x4000
        0x00000f8a:    2900        .)      CMP      r1,#0
        0x00000f8c:    bf04        ..      ITT      EQ
        0x00000f8e:    f8d00204    ....    LDREQ    r0,[r0,#0x204]
        0x00000f92:    4770        pG      BXEQ     lr
        0x00000f94:    f8d01204    ....    LDR      r1,[r0,#0x204]
        0x00000f98:    f8d00200    ....    LDR      r0,[r0,#0x200]
        0x00000f9c:    4008        .@      ANDS     r0,r0,r1
        0x00000f9e:    4770        pG      BX       lr
    i.am_hal_iom_spi_read
    am_hal_iom_spi_read
        0x00000fa0:    e92d41f0    -..A    PUSH     {r4-r8,lr}
        0x00000fa4:    461c        .F      MOV      r4,r3
        0x00000fa6:    f8dd8018    ....    LDR      r8,[sp,#0x18]
        0x00000faa:    4616        .F      MOV      r6,r2
        0x00000fac:    460d        .F      MOV      r5,r1
        0x00000fae:    4607        .F      MOV      r7,r0
        0x00000fb0:    f5b35f80    ..._    CMP      r3,#0x1000
        0x00000fb4:    d305        ..      BCC      0xfc2 ; am_hal_iom_spi_read + 34
        0x00000fb6:    a227        '.      ADR      r2,{pc}+0x9e ; 0x1054
        0x00000fb8:    f240117b    @.{.    MOV      r1,#0x17b
        0x00000fbc:    a02b        +.      ADR      r0,{pc}+0xb0 ; 0x106c
        0x00000fbe:    f7fffd65    ..e.    BL       am_hal_debug_error ; 0xa8c
        0x00000fc2:    0338        8.      LSLS     r0,r7,#12
        0x00000fc4:    f10041a0    ...A    ADD      r1,r0,#0x50000000
        0x00000fc8:    f5014180    ...A    ADD      r1,r1,#0x4000
        0x00000fcc:    f8d10118    ....    LDR      r0,[r1,#0x118]
        0x00000fd0:    f0100f04    ....    TST      r0,#4
        0x00000fd4:    d0fa        ..      BEQ      0xfcc ; am_hal_iom_spi_read + 44
        0x00000fd6:    f04f4000    O..@    MOV      r0,#0x80000000
        0x00000fda:    f4046170    ..pa    AND      r1,r4,#0xf00
        0x00000fde:    ea4030c1    @..0    ORR      r0,r0,r1,LSL #15
        0x00000fe2:    b2e1        ..      UXTB     r1,r4
        0x00000fe4:    4308        .C      ORRS     r0,r0,r1
        0x00000fe6:    f44f21e0    O..!    MOV      r1,#0x70000
        0x00000fea:    ea014105    ...A    AND      r1,r1,r5,LSL #16
        0x00000fee:    4308        .C      ORRS     r0,r0,r1
        0x00000ff0:    4922        "I      LDR      r1,[pc,#136] ; [0x107c] = 0x5c00ff00
        0x00000ff2:    ea080101    ....    AND      r1,r8,r1
        0x00000ff6:    4308        .C      ORRS     r0,r0,r1
        0x00000ff8:    0339        9.      LSLS     r1,r7,#12
        0x00000ffa:    f10145a0    ...E    ADD      r5,r1,#0x50000000
        0x00000ffe:    f5054580    ...E    ADD      r5,r5,#0x4000
        0x00001002:    f8c50110    ....    STR      r0,[r5,#0x110]
        0x00001006:    f8d50118    ....    LDR      r0,[r5,#0x118]
        0x0000100a:    f0100f04    ....    TST      r0,#4
        0x0000100e:    bf18        ..      IT       NE
        0x00001010:    e8bd81f0    ....    POPNE    {r4-r8,pc}
        0x00001014:    f8d50100    ....    LDR      r0,[r5,#0x100]
        0x00001018:    f000017f    ....    AND      r1,r0,#0x7f
        0x0000101c:    42a1        .B      CMP      r1,r4
        0x0000101e:    d105        ..      BNE      0x102c ; am_hal_iom_spi_read + 140
        0x00001020:    4622        "F      MOV      r2,r4
        0x00001022:    4631        1F      MOV      r1,r6
        0x00001024:    4638        8F      MOV      r0,r7
        0x00001026:    f7fffe5f    .._.    BL       am_hal_iom_fifo_read ; 0xce8
        0x0000102a:    e00c        ..      B        0x1046 ; am_hal_iom_spi_read + 166
        0x0000102c:    f8d50100    ....    LDR      r0,[r5,#0x100]
        0x00001030:    f000007f    ....    AND      r0,r0,#0x7f
        0x00001034:    2804        .(      CMP      r0,#4
        0x00001036:    d306        ..      BCC      0x1046 ; am_hal_iom_spi_read + 166
        0x00001038:    2204        ."      MOVS     r2,#4
        0x0000103a:    4631        1F      MOV      r1,r6
        0x0000103c:    4638        8F      MOV      r0,r7
        0x0000103e:    f7fffe53    ..S.    BL       am_hal_iom_fifo_read ; 0xce8
        0x00001042:    1f24        $.      SUBS     r4,r4,#4
        0x00001044:    1d36        6.      ADDS     r6,r6,#4
        0x00001046:    f8d50118    ....    LDR      r0,[r5,#0x118]
        0x0000104a:    f0100f04    ....    TST      r0,#4
        0x0000104e:    d0e1        ..      BEQ      0x1014 ; am_hal_iom_spi_read + 116
        0x00001050:    e8bd81f0    ....    POP      {r4-r8,pc}
    $d
        0x00001054:    20495053    SPI     DCD    541675603
        0x00001058:    6e617274    tran    DCD    1851880052
        0x0000105c:    72656673    sfer    DCD    1919247987
        0x00001060:    6f6f7420     too    DCD    1869575200
        0x00001064:    67696220     big    DCD    1734959648
        0x00001068:    0000002e    ....    DCD    46
        0x0000106c:    612f2e2e    ../a    DCD    1630481966
        0x00001070:    61685f6d    m_ha    DCD    1634230125
        0x00001074:    6f695f6c    l_io    DCD    1869176684
        0x00001078:    00632e6d    m.c.    DCD    6499949
        0x0000107c:    5c00ff00    ...\    DCD    1543569152
    $t
    i.am_hal_iom_spi_read_nb
    am_hal_iom_spi_read_nb
        0x00001080:    e92d47f0    -..G    PUSH     {r4-r10,lr}
        0x00001084:    461d        .F      MOV      r5,r3
        0x00001086:    e9dd7908    ...y    LDRD     r7,r9,[sp,#0x20]
        0x0000108a:    4690        .F      MOV      r8,r2
        0x0000108c:    460e        .F      MOV      r6,r1
        0x0000108e:    4604        .F      MOV      r4,r0
        0x00001090:    f5b35f80    ..._    CMP      r3,#0x1000
        0x00001094:    d305        ..      BCC      0x10a2 ; am_hal_iom_spi_read_nb + 34
        0x00001096:    a218        ..      ADR      r2,{pc}+0x62 ; 0x10f8
        0x00001098:    f44f7106    O..q    MOV      r1,#0x218
        0x0000109c:    a01c        ..      ADR      r0,{pc}+0x74 ; 0x1110
        0x0000109e:    f7fffcf5    ....    BL       am_hal_debug_error ; 0xa8c
        0x000010a2:    0320         .      LSLS     r0,r4,#12
        0x000010a4:    f10040a0    ...@    ADD      r0,r0,#0x50000000
        0x000010a8:    f5004080    ...@    ADD      r0,r0,#0x4000
        0x000010ac:    f8d01118    ....    LDR      r1,[r0,#0x118]
        0x000010b0:    f0110f04    ....    TST      r1,#4
        0x000010b4:    d0fa        ..      BEQ      0x10ac ; am_hal_iom_spi_read_nb + 44
        0x000010b6:    481a        .H      LDR      r0,[pc,#104] ; [0x1120] = 0x10002778
        0x000010b8:    2102        .!      MOVS     r1,#2
        0x000010ba:    eb001004    ....    ADD      r0,r0,r4,LSL #4
        0x000010be:    e9c01800    ....    STRD     r1,r8,[r0,#0]
        0x000010c2:    e9c05902    ...Y    STRD     r5,r9,[r0,#8]
        0x000010c6:    0788        ..      LSLS     r0,r1,#30
        0x000010c8:    f4056170    ..pa    AND      r1,r5,#0xf00
        0x000010cc:    ea4030c1    @..0    ORR      r0,r0,r1,LSL #15
        0x000010d0:    b2e9        ..      UXTB     r1,r5
        0x000010d2:    4308        .C      ORRS     r0,r0,r1
        0x000010d4:    f44f21e0    O..!    MOV      r1,#0x70000
        0x000010d8:    ea014106    ...A    AND      r1,r1,r6,LSL #16
        0x000010dc:    4308        .C      ORRS     r0,r0,r1
        0x000010de:    4911        .I      LDR      r1,[pc,#68] ; [0x1124] = 0x5c00ff00
        0x000010e0:    4039        9@      ANDS     r1,r1,r7
        0x000010e2:    4308        .C      ORRS     r0,r0,r1
        0x000010e4:    0321        !.      LSLS     r1,r4,#12
        0x000010e6:    f10141a0    ...A    ADD      r1,r1,#0x50000000
        0x000010ea:    f5014180    ...A    ADD      r1,r1,#0x4000
        0x000010ee:    f8c10110    ....    STR      r0,[r1,#0x110]
        0x000010f2:    e8bd87f0    ....    POP      {r4-r10,pc}
    $d
        0x000010f6:    0000        ..      DCW    0
        0x000010f8:    20495053    SPI     DCD    541675603
        0x000010fc:    6e617274    tran    DCD    1851880052
        0x00001100:    72656673    sfer    DCD    1919247987
        0x00001104:    6f6f7420     too    DCD    1869575200
        0x00001108:    67696220     big    DCD    1734959648
        0x0000110c:    0000002e    ....    DCD    46
        0x00001110:    612f2e2e    ../a    DCD    1630481966
        0x00001114:    61685f6d    m_ha    DCD    1634230125
        0x00001118:    6f695f6c    l_io    DCD    1869176684
        0x0000111c:    00632e6d    m.c.    DCD    6499949
        0x00001120:    10002778    x'..    DCD    268445560
        0x00001124:    5c00ff00    ...\    DCD    1543569152
    $t
    i.am_hal_iom_spi_write
    am_hal_iom_spi_write
        0x00001128:    e92d47f0    -..G    PUSH     {r4-r10,lr}
        0x0000112c:    461c        .F      MOV      r4,r3
        0x0000112e:    9f08        ..      LDR      r7,[sp,#0x20]
        0x00001130:    4691        .F      MOV      r9,r2
        0x00001132:    460e        .F      MOV      r6,r1
        0x00001134:    4680        .F      MOV      r8,r0
        0x00001136:    f5b35f80    ..._    CMP      r3,#0x1000
        0x0000113a:    d305        ..      BCC      0x1148 ; am_hal_iom_spi_write + 32
        0x0000113c:    a229        ).      ADR      r2,{pc}+0xa8 ; 0x11e4
        0x0000113e:    f44f718f    O..q    MOV      r1,#0x11e
        0x00001142:    a02e        ..      ADR      r0,{pc}+0xba ; 0x11fc
        0x00001144:    f7fffca2    ....    BL       am_hal_debug_error ; 0xa8c
        0x00001148:    2c40        @,      CMP      r4,#0x40
        0x0000114a:    bf94        ..      ITE      LS
        0x0000114c:    4625        %F      MOVLS    r5,r4
        0x0000114e:    2540        @%      MOVHI    r5,#0x40
        0x00001150:    ea4f3008    O..0    LSL      r0,r8,#12
        0x00001154:    f10040a0    ...@    ADD      r0,r0,#0x50000000
        0x00001158:    f5004080    ...@    ADD      r0,r0,#0x4000
        0x0000115c:    f8d01118    ....    LDR      r1,[r0,#0x118]
        0x00001160:    f0110f04    ....    TST      r1,#4
        0x00001164:    d0fa        ..      BEQ      0x115c ; am_hal_iom_spi_write + 52
        0x00001166:    462a        *F      MOV      r2,r5
        0x00001168:    4649        IF      MOV      r1,r9
        0x0000116a:    4640        @F      MOV      r0,r8
        0x0000116c:    f7fffe24    ..$.    BL       am_hal_iom_fifo_write ; 0xdb8
        0x00001170:    2000        .       MOVS     r0,#0
        0x00001172:    f4046170    ..pa    AND      r1,r4,#0xf00
        0x00001176:    ea4030c1    @..0    ORR      r0,r0,r1,LSL #15
        0x0000117a:    b2e1        ..      UXTB     r1,r4
        0x0000117c:    4308        .C      ORRS     r0,r0,r1
        0x0000117e:    f44f21e0    O..!    MOV      r1,#0x70000
        0x00001182:    ea014106    ...A    AND      r1,r1,r6,LSL #16
        0x00001186:    4308        .C      ORRS     r0,r0,r1
        0x00001188:    4920         I      LDR      r1,[pc,#128] ; [0x120c] = 0x5c00ff00
        0x0000118a:    4039        9@      ANDS     r1,r1,r7
        0x0000118c:    4308        .C      ORRS     r0,r0,r1
        0x0000118e:    ea4f3108    O..1    LSL      r1,r8,#12
        0x00001192:    f10147a0    ...G    ADD      r7,r1,#0x50000000
        0x00001196:    f5074780    ...G    ADD      r7,r7,#0x4000
        0x0000119a:    f8c70110    ....    STR      r0,[r7,#0x110]
        0x0000119e:    f0250003    %...    BIC      r0,r5,#3
        0x000011a2:    1b64        d.      SUBS     r4,r4,r5
        0x000011a4:    eb000609    ....    ADD      r6,r0,r9
        0x000011a8:    bf08        ..      IT       EQ
        0x000011aa:    e8bd87f0    ....    POPEQ    {r4-r10,pc}
        0x000011ae:    bf00        ..      NOP      
        0x000011b0:    f8d70100    ....    LDR      r0,[r7,#0x100]
        0x000011b4:    f3c04006    ...@    UBFX     r0,r0,#16,#7
        0x000011b8:    42a0        .B      CMP      r0,r4
        0x000011ba:    bf28        (.      IT       CS
        0x000011bc:    4625        %F      MOVCS    r5,r4
        0x000011be:    d205        ..      BCS      0x11cc ; am_hal_iom_spi_write + 164
        0x000011c0:    f8d70100    ....    LDR      r0,[r7,#0x100]
        0x000011c4:    f3c04006    ...@    UBFX     r0,r0,#16,#7
        0x000011c8:    f0200503     ...    BIC      r5,r0,#3
        0x000011cc:    462a        *F      MOV      r2,r5
        0x000011ce:    4631        1F      MOV      r1,r6
        0x000011d0:    4640        @F      MOV      r0,r8
        0x000011d2:    f7fffdf1    ....    BL       am_hal_iom_fifo_write ; 0xdb8
        0x000011d6:    f0250003    %...    BIC      r0,r5,#3
        0x000011da:    1b64        d.      SUBS     r4,r4,r5
        0x000011dc:    4406        .D      ADD      r6,r6,r0
        0x000011de:    d1e7        ..      BNE      0x11b0 ; am_hal_iom_spi_write + 136
        0x000011e0:    e8bd87f0    ....    POP      {r4-r10,pc}
    $d
        0x000011e4:    20495053    SPI     DCD    541675603
        0x000011e8:    6e617274    tran    DCD    1851880052
        0x000011ec:    72656673    sfer    DCD    1919247987
        0x000011f0:    6f6f7420     too    DCD    1869575200
        0x000011f4:    67696220     big    DCD    1734959648
        0x000011f8:    0000002e    ....    DCD    46
        0x000011fc:    612f2e2e    ../a    DCD    1630481966
        0x00001200:    61685f6d    m_ha    DCD    1634230125
        0x00001204:    6f695f6c    l_io    DCD    1869176684
        0x00001208:    00632e6d    m.c.    DCD    6499949
        0x0000120c:    5c00ff00    ...\    DCD    1543569152
    $t
    i.am_hal_itm_delay_us
    am_hal_itm_delay_us
        0x00001210:    b510        ..      PUSH     {r4,lr}
        0x00001212:    4604        .F      MOV      r4,r0
        0x00001214:    f7fffbb0    ....    BL       am_hal_clkgen_sysclk_get ; 0x978
        0x00001218:    4903        .I      LDR      r1,[pc,#12] ; [0x1228] = 0x2dc6c0
        0x0000121a:    fbb0f0f1    ....    UDIV     r0,r0,r1
        0x0000121e:    4360        `C      MULS     r0,r4,r0
        0x00001220:    e8bd4010    ...@    POP      {r4,lr}
        0x00001224:    f7febff8    ....    B        __asm___12_am_hal_itm_c_0782d9ac__am_itm_delay_cycles ; 0x218
    $d
        0x00001228:    002dc6c0    ..-.    DCD    3000000
    $t
    i.am_hal_itm_enable
    am_hal_itm_enable
        0x0000122c:    480d        .H      LDR      r0,[pc,#52] ; [0x1264] = 0x100000b8
        0x0000122e:    6800        .h      LDR      r0,[r0,#0]
        0x00001230:    f0100f01    ....    TST      r0,#1
        0x00001234:    bf18        ..      IT       NE
        0x00001236:    4770        pG      BXNE     lr
        0x00001238:    480b        .H      LDR      r0,[pc,#44] ; [0x1268] = 0xe000edfc
        0x0000123a:    6801        .h      LDR      r1,[r0,#0]
        0x0000123c:    f0417180    A..q    ORR      r1,r1,#0x1000000
        0x00001240:    6001        .`      STR      r1,[r0,#0]
        0x00001242:    6801        .h      LDR      r1,[r0,#0]
        0x00001244:    f0117f80    ....    TST      r1,#0x1000000
        0x00001248:    d0fb        ..      BEQ      0x1242 ; am_hal_itm_enable + 22
        0x0000124a:    4909        .I      LDR      r1,[pc,#36] ; [0x1270] = 0xe0000fb0
        0x0000124c:    4807        .H      LDR      r0,[pc,#28] ; [0x126c] = 0xc5acce55
        0x0000124e:    6008        .`      STR      r0,[r1,#0]
        0x00001250:    4908        .I      LDR      r1,[pc,#32] ; [0x1274] = 0xe0000e40
        0x00001252:    200f        .       MOVS     r0,#0xf
        0x00001254:    6008        .`      STR      r0,[r1,#0]
        0x00001256:    1748        H.      ASRS     r0,r1,#29
        0x00001258:    4907        .I      LDR      r1,[pc,#28] ; [0x1278] = 0xe0000e00
        0x0000125a:    6008        .`      STR      r0,[r1,#0]
        0x0000125c:    4908        .I      LDR      r1,[pc,#32] ; [0x1280] = 0xe0000e80
        0x0000125e:    4807        .H      LDR      r0,[pc,#28] ; [0x127c] = 0x150511
        0x00001260:    6008        .`      STR      r0,[r1,#0]
        0x00001262:    4770        pG      BX       lr
    $d
        0x00001264:    100000b8    ....    DCD    268435640
        0x00001268:    e000edfc    ....    DCD    3758157308
        0x0000126c:    c5acce55    U...    DCD    3316436565
        0x00001270:    e0000fb0    ....    DCD    3758100400
        0x00001274:    e0000e40    @...    DCD    3758100032
        0x00001278:    e0000e00    ....    DCD    3758099968
        0x0000127c:    00150511    ....    DCD    1377553
        0x00001280:    e0000e80    ....    DCD    3758100096
    $t
    i.am_hal_itm_not_busy
    am_hal_itm_not_busy
        0x00001284:    b510        ..      PUSH     {r4,lr}
        0x00001286:    4808        .H      LDR      r0,[pc,#32] ; [0x12a8] = 0xe0000e80
        0x00001288:    6801        .h      LDR      r1,[r0,#0]
        0x0000128a:    f4110f00    ....    TST      r1,#0x800000
        0x0000128e:    d1fb        ..      BNE      0x1288 ; am_hal_itm_not_busy + 4
        0x00001290:    f7fffb72    ..r.    BL       am_hal_clkgen_sysclk_get ; 0x978
        0x00001294:    4905        .I      LDR      r1,[pc,#20] ; [0x12ac] = 0x2dc6c0
        0x00001296:    e8bd4010    ...@    POP      {r4,lr}
        0x0000129a:    fbb0f0f1    ....    UDIV     r0,r0,r1
        0x0000129e:    2132        2!      MOVS     r1,#0x32
        0x000012a0:    4348        HC      MULS     r0,r1,r0
        0x000012a2:    f7febfb9    ....    B        __asm___12_am_hal_itm_c_0782d9ac__am_itm_delay_cycles ; 0x218
    $d
        0x000012a6:    0000        ..      DCW    0
        0x000012a8:    e0000e80    ....    DCD    3758100096
        0x000012ac:    002dc6c0    ..-.    DCD    3000000
    $t
    i.am_hal_itm_print
    am_hal_itm_print
        0x000012b0:    7802        .x      LDRB     r2,[r0,#0]
        0x000012b2:    2100        .!      MOVS     r1,#0
        0x000012b4:    2a00        .*      CMP      r2,#0
        0x000012b6:    bf08        ..      IT       EQ
        0x000012b8:    4770        pG      BXEQ     lr
        0x000012ba:    1c49        I.      ADDS     r1,r1,#1
        0x000012bc:    5c42        B\      LDRB     r2,[r0,r1]
        0x000012be:    2a00        .*      CMP      r2,#0
        0x000012c0:    d1fb        ..      BNE      0x12ba ; am_hal_itm_print + 10
        0x000012c2:    2900        .)      CMP      r1,#0
        0x000012c4:    bf08        ..      IT       EQ
        0x000012c6:    4770        pG      BXEQ     lr
        0x000012c8:    b4f0        ..      PUSH     {r4-r7}
        0x000012ca:    4e0f        .N      LDR      r6,[pc,#60] ; [0x1308] = 0x100000c4
        0x000012cc:    f04f4760    O.`G    MOV      r7,#0xe0000000
        0x000012d0:    1d34        4.      ADDS     r4,r6,#4
        0x000012d2:    46b4        .F      MOV      r12,r6
        0x000012d4:    f8dc2004    ...     LDR      r2,[r12,#4]
        0x000012d8:    f8523b04    R..;    LDR      r3,[r2],#4
        0x000012dc:    f8cc2004    ...     STR      r2,[r12,#4]
        0x000012e0:    f8105b01    ...[    LDRB     r5,[r0],#1
        0x000012e4:    eb070283    ....    ADD      r2,r7,r3,LSL #2
        0x000012e8:    6813        .h      LDR      r3,[r2,#0]
        0x000012ea:    2b00        .+      CMP      r3,#0
        0x000012ec:    d0fc        ..      BEQ      0x12e8 ; am_hal_itm_print + 56
        0x000012ee:    7015        .p      STRB     r5,[r2,#0]
        0x000012f0:    f8dc2004    ...     LDR      r2,[r12,#4]
        0x000012f4:    1e49        I.      SUBS     r1,r1,#1
        0x000012f6:    42a2        .B      CMP      r2,r4
        0x000012f8:    bf28        (.      IT       CS
        0x000012fa:    f8cc6004    ...`    STRCS    r6,[r12,#4]
        0x000012fe:    2900        .)      CMP      r1,#0
        0x00001300:    d1e8        ..      BNE      0x12d4 ; am_hal_itm_print + 36
        0x00001302:    bcf0        ..      POP      {r4-r7}
        0x00001304:    4770        pG      BX       lr
    $d
        0x00001306:    0000        ..      DCW    0
        0x00001308:    100000c4    ....    DCD    268435652
    $t
    i.am_hal_itm_stimulus_reg_word_write
    am_hal_itm_stimulus_reg_word_write
        0x0000130c:    f04f4260    O.`B    MOV      r2,#0xe0000000
        0x00001310:    eb020080    ....    ADD      r0,r2,r0,LSL #2
        0x00001314:    6802        .h      LDR      r2,[r0,#0]
        0x00001316:    2a00        .*      CMP      r2,#0
        0x00001318:    d0fc        ..      BEQ      0x1314 ; am_hal_itm_stimulus_reg_word_write + 8
        0x0000131a:    6001        .`      STR      r1,[r0,#0]
        0x0000131c:    4770        pG      BX       lr
        0x0000131e:    0000        ..      MOVS     r0,r0
    i.am_hal_itm_sync_send
    am_hal_itm_sync_send
        0x00001320:    4803        .H      LDR      r0,[pc,#12] ; [0x1330] = 0xe000005c
        0x00001322:    f04f32f8    O..2    MOV      r2,#0xf8f8f8f8
        0x00001326:    6801        .h      LDR      r1,[r0,#0]
        0x00001328:    2900        .)      CMP      r1,#0
        0x0000132a:    d0fc        ..      BEQ      0x1326 ; am_hal_itm_sync_send + 6
        0x0000132c:    6002        .`      STR      r2,[r0,#0]
        0x0000132e:    4770        pG      BX       lr
    $d
        0x00001330:    e000005c    \...    DCD    3758096476
    $t
    i.am_hal_mcuctrl_bandgap_disable
    am_hal_mcuctrl_bandgap_disable
        0x00001334:    4902        .I      LDR      r1,[pc,#8] ; [0x1340] = 0x40020000
        0x00001336:    f06f0001    o...    MVN      r0,#1
        0x0000133a:    f8c100fc    ....    STR      r0,[r1,#0xfc]
        0x0000133e:    4770        pG      BX       lr
    $d
        0x00001340:    40020000    ...@    DCD    1073872896
    $t
    i.am_hal_mcuctrl_bucks_enable
    am_hal_mcuctrl_bucks_enable
        0x00001344:    4808        .H      LDR      r0,[pc,#32] ; [0x1368] = 0x40020000
        0x00001346:    6901        .i      LDR      r1,[r0,#0x10]
        0x00001348:    f0410102    A...    ORR      r1,r1,#2
        0x0000134c:    6101        .a      STR      r1,[r0,#0x10]
        0x0000134e:    6901        .i      LDR      r1,[r0,#0x10]
        0x00001350:    f0410101    A...    ORR      r1,r1,#1
        0x00001354:    6101        .a      STR      r1,[r0,#0x10]
        0x00001356:    6941        Ai      LDR      r1,[r0,#0x14]
        0x00001358:    f0110f02    ....    TST      r1,#2
        0x0000135c:    d0fb        ..      BEQ      0x1356 ; am_hal_mcuctrl_bucks_enable + 18
        0x0000135e:    6941        Ai      LDR      r1,[r0,#0x14]
        0x00001360:    f0110f01    ....    TST      r1,#1
        0x00001364:    d0fb        ..      BEQ      0x135e ; am_hal_mcuctrl_bucks_enable + 26
        0x00001366:    4770        pG      BX       lr
    $d
        0x00001368:    40020000    ...@    DCD    1073872896
    $t
    i.am_hal_rtc_osc_disable
    am_hal_rtc_osc_disable
        0x0000136c:    f04f2040    O.@     MOV      r0,#0x40004000
        0x00001370:    6d01        .m      LDR      r1,[r0,#0x50]
        0x00001372:    f0410110    A...    ORR      r1,r1,#0x10
        0x00001376:    6501        .e      STR      r1,[r0,#0x50]
        0x00001378:    4770        pG      BX       lr
    i.am_hal_rtc_osc_select
    am_hal_rtc_osc_select
        0x0000137a:    f04f2140    O.@!    MOV      r1,#0x40004000
        0x0000137e:    2800        .(      CMP      r0,#0
        0x00001380:    68c8        .h      LDR      r0,[r1,#0xc]
        0x00001382:    bf14        ..      ITE      NE
        0x00001384:    f0400080    @...    ORRNE    r0,r0,#0x80
        0x00001388:    f0200080     ...    BICEQ    r0,r0,#0x80
        0x0000138c:    60c8        .`      STR      r0,[r1,#0xc]
        0x0000138e:    4770        pG      BX       lr
    i.am_hal_sysctrl_sleep
    am_hal_sysctrl_sleep
        0x00001390:    490a        .I      LDR      r1,[pc,#40] ; [0x13bc] = 0xe000ed10
        0x00001392:    b160        `.      CBZ      r0,0x13ae ; am_hal_sysctrl_sleep + 30
        0x00001394:    480a        .H      LDR      r0,[pc,#40] ; [0x13c0] = 0x40020000
        0x00001396:    f8d00250    ..P.    LDR      r0,[r0,#0x250]
        0x0000139a:    f0300001    0...    BICS     r0,r0,#1
        0x0000139e:    6808        .h      LDR      r0,[r1,#0]
        0x000013a0:    bf0c        ..      ITE      EQ
        0x000013a2:    f0400004    @...    ORREQ    r0,r0,#4
        0x000013a6:    f0200004     ...    BICNE    r0,r0,#4
        0x000013aa:    6008        .`      STR      r0,[r1,#0]
        0x000013ac:    e003        ..      B        0x13b6 ; am_hal_sysctrl_sleep + 38
        0x000013ae:    6808        .h      LDR      r0,[r1,#0]
        0x000013b0:    f0200004     ...    BIC      r0,r0,#4
        0x000013b4:    6008        .`      STR      r0,[r1,#0]
        0x000013b6:    bf30        0.      WFI      
        0x000013b8:    4770        pG      BX       lr
    $d
        0x000013ba:    0000        ..      DCW    0
        0x000013bc:    e000ed10    ....    DCD    3758157072
        0x000013c0:    40020000    ...@    DCD    1073872896
    $t
    i.am_hal_tpiu_disable
    am_hal_tpiu_disable
        0x000013c4:    4902        .I      LDR      r1,[pc,#8] ; [0x13d0] = 0x40020000
        0x000013c6:    2000        .       MOVS     r0,#0
        0x000013c8:    f8c10250    ..P.    STR      r0,[r1,#0x250]
        0x000013cc:    4770        pG      BX       lr
    $d
        0x000013ce:    0000        ..      DCW    0
        0x000013d0:    40020000    ...@    DCD    1073872896
    $t
    i.am_hal_tpiu_enable
    am_hal_tpiu_enable
        0x000013d4:    4809        .H      LDR      r0,[pc,#36] ; [0x13fc] = 0xe0040000
        0x000013d6:    2100        .!      MOVS     r1,#0
        0x000013d8:    f8c01304    ....    STR      r1,[r0,#0x304]
        0x000013dc:    2201        ."      MOVS     r2,#1
        0x000013de:    6042        B`      STR      r2,[r0,#4]
        0x000013e0:    2202        ."      MOVS     r2,#2
        0x000013e2:    6102        .a      STR      r2,[r0,#0x10]
        0x000013e4:    f8c020f0    ...     STR      r2,[r0,#0xf0]
        0x000013e8:    4805        .H      LDR      r0,[pc,#20] ; [0x1400] = 0xe0040f00
        0x000013ea:    6001        .`      STR      r1,[r0,#0]
        0x000013ec:    4905        .I      LDR      r1,[pc,#20] ; [0x1404] = 0x40020000
        0x000013ee:    f2402001    @..     MOV      r0,#0x201
        0x000013f2:    f8c10250    ..P.    STR      r0,[r1,#0x250]
        0x000013f6:    2032        2       MOVS     r0,#0x32
        0x000013f8:    f7ffbf0a    ....    B.W      am_hal_itm_delay_us ; 0x1210
    $d
        0x000013fc:    e0040000    ....    DCD    3758358528
        0x00001400:    e0040f00    ....    DCD    3758362368
        0x00001404:    40020000    ...@    DCD    1073872896
    $t
    i.am_hal_vcomp_disable
    am_hal_vcomp_disable
        0x00001408:    4901        .I      LDR      r1,[pc,#4] ; [0x1410] = 0x4000c000
        0x0000140a:    2037        7       MOVS     r0,#0x37
        0x0000140c:    6088        .`      STR      r0,[r1,#8]
        0x0000140e:    4770        pG      BX       lr
    $d
        0x00001410:    4000c000    ...@    DCD    1073790976
    $t
    i.am_iomaster0_isr
    am_iomaster0_isr
        0x00001414:    b510        ..      PUSH     {r4,lr}
        0x00001416:    2100        .!      MOVS     r1,#0
        0x00001418:    4608        .F      MOV      r0,r1
        0x0000141a:    f7fffdb1    ....    BL       am_hal_iom_int_status_get ; 0xf80
        0x0000141e:    4604        .F      MOV      r4,r0
        0x00001420:    4621        !F      MOV      r1,r4
        0x00001422:    2000        .       MOVS     r0,#0
        0x00001424:    f7fffd30    ..0.    BL       am_hal_iom_int_clear ; 0xe88
        0x00001428:    4621        !F      MOV      r1,r4
        0x0000142a:    2000        .       MOVS     r0,#0
        0x0000142c:    f7fffd40    ..@.    BL       am_hal_iom_int_service ; 0xeb0
        0x00001430:    bd10        ..      POP      {r4,pc}
    i.am_iomaster1_isr
    am_iomaster1_isr
        0x00001432:    b510        ..      PUSH     {r4,lr}
        0x00001434:    2100        .!      MOVS     r1,#0
        0x00001436:    2001        .       MOVS     r0,#1
        0x00001438:    f7fffda2    ....    BL       am_hal_iom_int_status_get ; 0xf80
        0x0000143c:    4604        .F      MOV      r4,r0
        0x0000143e:    4621        !F      MOV      r1,r4
        0x00001440:    2001        .       MOVS     r0,#1
        0x00001442:    f7fffd21    ..!.    BL       am_hal_iom_int_clear ; 0xe88
        0x00001446:    4621        !F      MOV      r1,r4
        0x00001448:    2001        .       MOVS     r0,#1
        0x0000144a:    f7fffd31    ..1.    BL       am_hal_iom_int_service ; 0xeb0
        0x0000144e:    bd10        ..      POP      {r4,pc}
    i.am_util_delay_ms
    am_util_delay_ms
        0x00001450:    b570        p.      PUSH     {r4-r6,lr}
        0x00001452:    4604        .F      MOV      r4,r0
        0x00001454:    f7fffa90    ....    BL       am_hal_clkgen_sysclk_get ; 0x978
        0x00001458:    f64031b8    @..1    MOV      r1,#0xbb8
        0x0000145c:    fbb0f0f1    ....    UDIV     r0,r0,r1
        0x00001460:    fb00f504    ....    MUL      r5,r0,r4
        0x00001464:    4628        (F      MOV      r0,r5
        0x00001466:    f7fefe67    ..g.    BL       am_util_delay_cycles ; 0x138
        0x0000146a:    bd70        p.      POP      {r4-r6,pc}
    i.am_util_faultisr_collect_data
    am_util_faultisr_collect_data
        0x0000146c:    b08c        ..      SUB      sp,sp,#0x30
        0x0000146e:    4604        .F      MOV      r4,r0
        0x00001470:    2500        .%      MOVS     r5,#0
        0x00001472:    950a        ..      STR      r5,[sp,#0x28]
        0x00001474:    4826        &H      LDR      r0,[pc,#152] ; [0x1510] = 0xe000ed28
        0x00001476:    6800        .h      LDR      r0,[r0,#0]
        0x00001478:    900a        ..      STR      r0,[sp,#0x28]
        0x0000147a:    980a        ..      LDR      r0,[sp,#0x28]
        0x0000147c:    b2c0        ..      UXTB     r0,r0
        0x0000147e:    f88d002c    ..,.    STRB     r0,[sp,#0x2c]
        0x00001482:    980a        ..      LDR      r0,[sp,#0x28]
        0x00001484:    0a00        ..      LSRS     r0,r0,#8
        0x00001486:    f88d002d    ..-.    STRB     r0,[sp,#0x2d]
        0x0000148a:    980a        ..      LDR      r0,[sp,#0x28]
        0x0000148c:    f64f71ff    O..q    MOV      r1,#0xffff
        0x00001490:    ea014010    ...@    AND      r0,r1,r0,LSR #16
        0x00001494:    f8ad002e    ....    STRH     r0,[sp,#0x2e]
        0x00001498:    481d        .H      LDR      r0,[pc,#116] ; [0x1510] = 0xe000ed28
        0x0000149a:    3010        .0      ADDS     r0,r0,#0x10
        0x0000149c:    6800        .h      LDR      r0,[r0,#0]
        0x0000149e:    9009        ..      STR      r0,[sp,#0x24]
        0x000014a0:    f89d002d    ..-.    LDRB     r0,[sp,#0x2d]
        0x000014a4:    f0000002    ....    AND      r0,r0,#2
        0x000014a8:    b120         .      CBZ      r0,0x14b4 ; am_util_faultisr_collect_data + 72
        0x000014aa:    4621        !F      MOV      r1,r4
        0x000014ac:    2006        .       MOVS     r0,#6
        0x000014ae:    f7fefe4d    ..M.    BL       getStackedReg ; 0x14c
        0x000014b2:    e001        ..      B        0x14b8 ; am_util_faultisr_collect_data + 76
        0x000014b4:    f04f30ff    O..0    MOV      r0,#0xffffffff
        0x000014b8:    9008        ..      STR      r0,[sp,#0x20]
        0x000014ba:    4621        !F      MOV      r1,r4
        0x000014bc:    2000        .       MOVS     r0,#0
        0x000014be:    f7fefe45    ..E.    BL       getStackedReg ; 0x14c
        0x000014c2:    9000        ..      STR      r0,[sp,#0]
        0x000014c4:    4621        !F      MOV      r1,r4
        0x000014c6:    2001        .       MOVS     r0,#1
        0x000014c8:    f7fefe40    ..@.    BL       getStackedReg ; 0x14c
        0x000014cc:    9001        ..      STR      r0,[sp,#4]
        0x000014ce:    4621        !F      MOV      r1,r4
        0x000014d0:    2002        .       MOVS     r0,#2
        0x000014d2:    f7fefe3b    ..;.    BL       getStackedReg ; 0x14c
        0x000014d6:    9002        ..      STR      r0,[sp,#8]
        0x000014d8:    4621        !F      MOV      r1,r4
        0x000014da:    2003        .       MOVS     r0,#3
        0x000014dc:    f7fefe36    ..6.    BL       getStackedReg ; 0x14c
        0x000014e0:    9003        ..      STR      r0,[sp,#0xc]
        0x000014e2:    4621        !F      MOV      r1,r4
        0x000014e4:    2004        .       MOVS     r0,#4
        0x000014e6:    f7fefe31    ..1.    BL       getStackedReg ; 0x14c
        0x000014ea:    9004        ..      STR      r0,[sp,#0x10]
        0x000014ec:    4621        !F      MOV      r1,r4
        0x000014ee:    2005        .       MOVS     r0,#5
        0x000014f0:    f7fefe2c    ..,.    BL       getStackedReg ; 0x14c
        0x000014f4:    9005        ..      STR      r0,[sp,#0x14]
        0x000014f6:    4621        !F      MOV      r1,r4
        0x000014f8:    2006        .       MOVS     r0,#6
        0x000014fa:    f7fefe27    ..'.    BL       getStackedReg ; 0x14c
        0x000014fe:    9006        ..      STR      r0,[sp,#0x18]
        0x00001500:    4621        !F      MOV      r1,r4
        0x00001502:    2007        .       MOVS     r0,#7
        0x00001504:    f7fefe22    ..".    BL       getStackedReg ; 0x14c
        0x00001508:    9007        ..      STR      r0,[sp,#0x1c]
        0x0000150a:    bf00        ..      NOP      
        0x0000150c:    bf00        ..      NOP      
        0x0000150e:    e7fe        ..      B        0x150e ; am_util_faultisr_collect_data + 162
    $d
        0x00001510:    e000ed28    (...    DCD    3758157096
    $t
    i.am_util_plot_init
    am_util_plot_init
        0x00001514:    b510        ..      PUSH     {r4,lr}
        0x00001516:    f7fffe89    ....    BL       am_hal_itm_enable ; 0x122c
        0x0000151a:    4802        .H      LDR      r0,[pc,#8] ; [0x1524] = 0x12b1
        0x0000151c:    f000f81c    ....    BL       am_util_stdio_printf_init ; 0x1558
        0x00001520:    bd10        ..      POP      {r4,pc}
    $d
        0x00001522:    0000        ..      DCW    0
        0x00001524:    000012b1    ....    DCD    4785
    $t
    i.am_util_plot_int
    am_util_plot_int
        0x00001528:    b570        p.      PUSH     {r4-r6,lr}
        0x0000152a:    4604        .F      MOV      r4,r0
        0x0000152c:    460d        .F      MOV      r5,r1
        0x0000152e:    4809        .H      LDR      r0,[pc,#36] ; [0x1554] = 0x10000034
        0x00001530:    6800        .h      LDR      r0,[r0,#0]
        0x00001532:    b928        (.      CBNZ     r0,0x1540 ; am_util_plot_int + 24
        0x00001534:    f7fffef4    ....    BL       am_hal_itm_sync_send ; 0x1320
        0x00001538:    2040        @       MOVS     r0,#0x40
        0x0000153a:    4906        .I      LDR      r1,[pc,#24] ; [0x1554] = 0x10000034
        0x0000153c:    6008        .`      STR      r0,[r1,#0]
        0x0000153e:    e004        ..      B        0x154a ; am_util_plot_int + 34
        0x00001540:    4804        .H      LDR      r0,[pc,#16] ; [0x1554] = 0x10000034
        0x00001542:    6800        .h      LDR      r0,[r0,#0]
        0x00001544:    1e40        @.      SUBS     r0,r0,#1
        0x00001546:    4903        .I      LDR      r1,[pc,#12] ; [0x1554] = 0x10000034
        0x00001548:    6008        .`      STR      r0,[r1,#0]
        0x0000154a:    4629        )F      MOV      r1,r5
        0x0000154c:    4620         F      MOV      r0,r4
        0x0000154e:    f7fffedd    ....    BL       am_hal_itm_stimulus_reg_word_write ; 0x130c
        0x00001552:    bd70        p.      POP      {r4-r6,pc}
    $d
        0x00001554:    10000034    4...    DCD    268435508
    $t
    i.am_util_stdio_printf_init
    am_util_stdio_printf_init
        0x00001558:    4901        .I      LDR      r1,[pc,#4] ; [0x1560] = 0x10000038
        0x0000155a:    6008        .`      STR      r0,[r1,#0]
        0x0000155c:    4770        pG      BX       lr
    $d
        0x0000155e:    0000        ..      DCW    0
        0x00001560:    10000038    8...    DCD    268435512
    $t
    i.eTaskConfirmSleepModeStatus
    eTaskConfirmSleepModeStatus
        0x00001564:    2001        .       MOVS     r0,#1
        0x00001566:    4905        .I      LDR      r1,[pc,#20] ; [0x157c] = 0x10000214
        0x00001568:    6809        .h      LDR      r1,[r1,#0]
        0x0000156a:    b109        ..      CBZ      r1,0x1570 ; eTaskConfirmSleepModeStatus + 12
        0x0000156c:    2000        .       MOVS     r0,#0
        0x0000156e:    e003        ..      B        0x1578 ; eTaskConfirmSleepModeStatus + 20
        0x00001570:    4903        .I      LDR      r1,[pc,#12] ; [0x1580] = 0x10000064
        0x00001572:    6809        .h      LDR      r1,[r1,#0]
        0x00001574:    b101        ..      CBZ      r1,0x1578 ; eTaskConfirmSleepModeStatus + 20
        0x00001576:    2000        .       MOVS     r0,#0
        0x00001578:    4770        pG      BX       lr
    $d
        0x0000157a:    0000        ..      DCW    0
        0x0000157c:    10000214    ....    DCD    268435988
        0x00001580:    10000064    d...    DCD    268435556
    $t
    i.iom_ctl_init
    iom_ctl_init
        0x00001584:    b510        ..      PUSH     {r4,lr}
        0x00001586:    2001        .       MOVS     r0,#1
        0x00001588:    f001f9ee    ....    BL       xQueueCreateMutex ; 0x2968
        0x0000158c:    4912        .I      LDR      r1,[pc,#72] ; [0x15d8] = 0x1000001c
        0x0000158e:    6008        .`      STR      r0,[r1,#0]
        0x00001590:    2001        .       MOVS     r0,#1
        0x00001592:    f001f9e9    ....    BL       xQueueCreateMutex ; 0x2968
        0x00001596:    4911        .I      LDR      r1,[pc,#68] ; [0x15dc] = 0x10000020
        0x00001598:    6008        .`      STR      r0,[r1,#0]
        0x0000159a:    2001        .       MOVS     r0,#1
        0x0000159c:    f7fff88e    ....    BL       am_bsp_iom_spi_pins_enable ; 0x6bc
        0x000015a0:    490f        .I      LDR      r1,[pc,#60] ; [0x15e0] = 0x10000024
        0x000015a2:    2001        .       MOVS     r0,#1
        0x000015a4:    f7fffb3c    ..<.    BL       am_hal_iom_config ; 0xc20
        0x000015a8:    2103        .!      MOVS     r1,#3
        0x000015aa:    2000        .       MOVS     r0,#0
        0x000015ac:    f7fffc74    ..t.    BL       am_hal_iom_int_enable ; 0xe98
        0x000015b0:    2103        .!      MOVS     r1,#3
        0x000015b2:    2001        .       MOVS     r0,#1
        0x000015b4:    f7fffc70    ..p.    BL       am_hal_iom_int_enable ; 0xe98
        0x000015b8:    2180        .!      MOVS     r1,#0x80
        0x000015ba:    2016        .       MOVS     r0,#0x16
        0x000015bc:    f7fffb16    ....    BL       am_hal_interrupt_priority_set ; 0xbec
        0x000015c0:    2180        .!      MOVS     r1,#0x80
        0x000015c2:    2017        .       MOVS     r0,#0x17
        0x000015c4:    f7fffb12    ....    BL       am_hal_interrupt_priority_set ; 0xbec
        0x000015c8:    2016        .       MOVS     r0,#0x16
        0x000015ca:    f7fffae9    ....    BL       am_hal_interrupt_enable ; 0xba0
        0x000015ce:    2017        .       MOVS     r0,#0x17
        0x000015d0:    f7fffae6    ....    BL       am_hal_interrupt_enable ; 0xba0
        0x000015d4:    bd10        ..      POP      {r4,pc}
    $d
        0x000015d6:    0000        ..      DCW    0
        0x000015d8:    1000001c    ....    DCD    268435484
        0x000015dc:    10000020     ...    DCD    268435488
        0x000015e0:    10000024    $...    DCD    268435492
    $t
    i.main
    main
        0x000015e4:    2000        .       MOVS     r0,#0
        0x000015e6:    f7fff9f7    ....    BL       am_hal_clkgen_sysclk_select ; 0x9d8
        0x000015ea:    f7fff895    ....    BL       am_bsp_low_power_init ; 0x718
        0x000015ee:    f7fffe1d    ....    BL       am_hal_itm_enable ; 0x122c
        0x000015f2:    f7fff845    ..E.    BL       am_bsp_debug_printf_enable ; 0x680
        0x000015f6:    f7ffff8d    ....    BL       am_util_plot_init ; 0x1514
        0x000015fa:    f000fc57    ..W.    BL       run_tasks ; 0x1eac
        0x000015fe:    bf00        ..      NOP      
        0x00001600:    e7fe        ..      B        0x1600 ; main + 28
        0x00001602:    0000        ..      MOVS     r0,r0
    i.prvAddCurrentTaskToDelayedList
    prvAddCurrentTaskToDelayedList
        0x00001604:    b510        ..      PUSH     {r4,lr}
        0x00001606:    4604        .F      MOV      r4,r0
        0x00001608:    480e        .H      LDR      r0,[pc,#56] ; [0x1644] = 0x10000040
        0x0000160a:    6800        .h      LDR      r0,[r0,#0]
        0x0000160c:    6044        D`      STR      r4,[r0,#4]
        0x0000160e:    480e        .H      LDR      r0,[pc,#56] ; [0x1648] = 0x10000054
        0x00001610:    6800        .h      LDR      r0,[r0,#0]
        0x00001612:    4284        .B      CMP      r4,r0
        0x00001614:    d207        ..      BCS      0x1626 ; prvAddCurrentTaskToDelayedList + 34
        0x00001616:    480b        .H      LDR      r0,[pc,#44] ; [0x1644] = 0x10000040
        0x00001618:    6801        .h      LDR      r1,[r0,#0]
        0x0000161a:    1d09        ..      ADDS     r1,r1,#4
        0x0000161c:    480b        .H      LDR      r0,[pc,#44] ; [0x164c] = 0x10000048
        0x0000161e:    6800        .h      LDR      r0,[r0,#0]
        0x00001620:    f000fcda    ....    BL       vListInsert ; 0x1fd8
        0x00001624:    e00c        ..      B        0x1640 ; prvAddCurrentTaskToDelayedList + 60
        0x00001626:    4807        .H      LDR      r0,[pc,#28] ; [0x1644] = 0x10000040
        0x00001628:    6801        .h      LDR      r1,[r0,#0]
        0x0000162a:    1d09        ..      ADDS     r1,r1,#4
        0x0000162c:    4808        .H      LDR      r0,[pc,#32] ; [0x1650] = 0x10000044
        0x0000162e:    6800        .h      LDR      r0,[r0,#0]
        0x00001630:    f000fcd2    ....    BL       vListInsert ; 0x1fd8
        0x00001634:    4807        .H      LDR      r0,[pc,#28] ; [0x1654] = 0x10000070
        0x00001636:    6800        .h      LDR      r0,[r0,#0]
        0x00001638:    4284        .B      CMP      r4,r0
        0x0000163a:    d201        ..      BCS      0x1640 ; prvAddCurrentTaskToDelayedList + 60
        0x0000163c:    4805        .H      LDR      r0,[pc,#20] ; [0x1654] = 0x10000070
        0x0000163e:    6004        .`      STR      r4,[r0,#0]
        0x00001640:    bd10        ..      POP      {r4,pc}
    $d
        0x00001642:    0000        ..      DCW    0
        0x00001644:    10000040    @...    DCD    268435520
        0x00001648:    10000054    T...    DCD    268435540
        0x0000164c:    10000048    H...    DCD    268435528
        0x00001650:    10000044    D...    DCD    268435524
        0x00001654:    10000070    p...    DCD    268435568
    $t
    i.prvAllocateTCBAndStack
    prvAllocateTCBAndStack
        0x00001658:    b570        p.      PUSH     {r4-r6,lr}
        0x0000165a:    4605        .F      MOV      r5,r0
        0x0000165c:    460e        .F      MOV      r6,r1
        0x0000165e:    2048        H       MOVS     r0,#0x48
        0x00001660:    f000fba4    ....    BL       pvPortMalloc ; 0x1dac
        0x00001664:    4604        .F      MOV      r4,r0
        0x00001666:    b194        ..      CBZ      r4,0x168e ; prvAllocateTCBAndStack + 54
        0x00001668:    b91e        ..      CBNZ     r6,0x1672 ; prvAllocateTCBAndStack + 26
        0x0000166a:    00a8        ..      LSLS     r0,r5,#2
        0x0000166c:    f000fb9e    ....    BL       pvPortMalloc ; 0x1dac
        0x00001670:    e000        ..      B        0x1674 ; prvAllocateTCBAndStack + 28
        0x00001672:    4630        0F      MOV      r0,r6
        0x00001674:    6320         c      STR      r0,[r4,#0x30]
        0x00001676:    6b20         k      LDR      r0,[r4,#0x30]
        0x00001678:    b920         .      CBNZ     r0,0x1684 ; prvAllocateTCBAndStack + 44
        0x0000167a:    4620         F      MOV      r0,r4
        0x0000167c:    f000fcf6    ....    BL       vPortFree ; 0x206c
        0x00001680:    2400        .$      MOVS     r4,#0
        0x00001682:    e004        ..      B        0x168e ; prvAllocateTCBAndStack + 54
        0x00001684:    00a9        ..      LSLS     r1,r5,#2
        0x00001686:    22a5        ."      MOVS     r2,#0xa5
        0x00001688:    6b20         k      LDR      r0,[r4,#0x30]
        0x0000168a:    f7fefe46    ..F.    BL       __aeabi_memset ; 0x31a
        0x0000168e:    4620         F      MOV      r0,r4
        0x00001690:    bd70        p.      POP      {r4-r6,pc}
        0x00001692:    0000        ..      MOVS     r0,r0
    i.prvCheckForValidListAndQueue
    prvCheckForValidListAndQueue
        0x00001694:    b510        ..      PUSH     {r4,lr}
        0x00001696:    f000fcc5    ....    BL       vPortEnterCritical ; 0x2024
        0x0000169a:    4813        .H      LDR      r0,[pc,#76] ; [0x16e8] = 0x10000080
        0x0000169c:    6800        .h      LDR      r0,[r0,#0]
        0x0000169e:    b9f8        ..      CBNZ     r0,0x16e0 ; prvCheckForValidListAndQueue + 76
        0x000016a0:    4812        .H      LDR      r0,[pc,#72] ; [0x16ec] = 0x10000250
        0x000016a2:    f000fc89    ....    BL       vListInitialise ; 0x1fb8
        0x000016a6:    4812        .H      LDR      r0,[pc,#72] ; [0x16f0] = 0x10000264
        0x000016a8:    f000fc86    ....    BL       vListInitialise ; 0x1fb8
        0x000016ac:    480f        .H      LDR      r0,[pc,#60] ; [0x16ec] = 0x10000250
        0x000016ae:    4911        .I      LDR      r1,[pc,#68] ; [0x16f4] = 0x10000078
        0x000016b0:    6008        .`      STR      r0,[r1,#0]
        0x000016b2:    480f        .H      LDR      r0,[pc,#60] ; [0x16f0] = 0x10000264
        0x000016b4:    4910        .I      LDR      r1,[pc,#64] ; [0x16f8] = 0x1000007c
        0x000016b6:    6008        .`      STR      r0,[r1,#0]
        0x000016b8:    2200        ."      MOVS     r2,#0
        0x000016ba:    2110        .!      MOVS     r1,#0x10
        0x000016bc:    2005        .       MOVS     r0,#5
        0x000016be:    f001f97a    ..z.    BL       xQueueGenericCreate ; 0x29b6
        0x000016c2:    4909        .I      LDR      r1,[pc,#36] ; [0x16e8] = 0x10000080
        0x000016c4:    6008        .`      STR      r0,[r1,#0]
        0x000016c6:    4608        .F      MOV      r0,r1
        0x000016c8:    6800        .h      LDR      r0,[r0,#0]
        0x000016ca:    b908        ..      CBNZ     r0,0x16d0 ; prvCheckForValidListAndQueue + 60
        0x000016cc:    bf00        ..      NOP      
        0x000016ce:    e7fe        ..      B        0x16ce ; prvCheckForValidListAndQueue + 58
        0x000016d0:    4805        .H      LDR      r0,[pc,#20] ; [0x16e8] = 0x10000080
        0x000016d2:    6800        .h      LDR      r0,[r0,#0]
        0x000016d4:    b120         .      CBZ      r0,0x16e0 ; prvCheckForValidListAndQueue + 76
        0x000016d6:    a109        ..      ADR      r1,{pc}+0x26 ; 0x16fc
        0x000016d8:    4803        .H      LDR      r0,[pc,#12] ; [0x16e8] = 0x10000080
        0x000016da:    6800        .h      LDR      r0,[r0,#0]
        0x000016dc:    f000fde0    ....    BL       vQueueAddToRegistry ; 0x22a0
        0x000016e0:    f000fcb0    ....    BL       vPortExitCritical ; 0x2044
        0x000016e4:    bd10        ..      POP      {r4,pc}
    $d
        0x000016e6:    0000        ..      DCW    0
        0x000016e8:    10000080    ....    DCD    268435584
        0x000016ec:    10000250    P...    DCD    268436048
        0x000016f0:    10000264    d...    DCD    268436068
        0x000016f4:    10000078    x...    DCD    268435576
        0x000016f8:    1000007c    |...    DCD    268435580
        0x000016fc:    51726d54    TmrQ    DCD    1366453588
        0x00001700:    00000000    ....    DCD    0
    $t
    i.prvCheckTasksWaitingTermination
    prvCheckTasksWaitingTermination
        0x00001704:    b570        p.      PUSH     {r4-r6,lr}
        0x00001706:    e023        #.      B        0x1750 ; prvCheckTasksWaitingTermination + 76
        0x00001708:    f000ff92    ....    BL       vTaskSuspendAll ; 0x2630
        0x0000170c:    4813        .H      LDR      r0,[pc,#76] ; [0x175c] = 0x10000228
        0x0000170e:    6800        .h      LDR      r0,[r0,#0]
        0x00001710:    b908        ..      CBNZ     r0,0x1716 ; prvCheckTasksWaitingTermination + 18
        0x00001712:    2001        .       MOVS     r0,#1
        0x00001714:    e000        ..      B        0x1718 ; prvCheckTasksWaitingTermination + 20
        0x00001716:    2000        .       MOVS     r0,#0
        0x00001718:    4605        .F      MOV      r5,r0
        0x0000171a:    f001fd35    ..5.    BL       xTaskResumeAll ; 0x3188
        0x0000171e:    b9bd        ..      CBNZ     r5,0x1750 ; prvCheckTasksWaitingTermination + 76
        0x00001720:    f000fc80    ....    BL       vPortEnterCritical ; 0x2024
        0x00001724:    480d        .H      LDR      r0,[pc,#52] ; [0x175c] = 0x10000228
        0x00001726:    68c0        .h      LDR      r0,[r0,#0xc]
        0x00001728:    68c4        .h      LDR      r4,[r0,#0xc]
        0x0000172a:    1d20         .      ADDS     r0,r4,#4
        0x0000172c:    f000fc17    ....    BL       uxListRemove ; 0x1f5e
        0x00001730:    480b        .H      LDR      r0,[pc,#44] ; [0x1760] = 0x10000050
        0x00001732:    6800        .h      LDR      r0,[r0,#0]
        0x00001734:    1e40        @.      SUBS     r0,r0,#1
        0x00001736:    490a        .I      LDR      r1,[pc,#40] ; [0x1760] = 0x10000050
        0x00001738:    6008        .`      STR      r0,[r1,#0]
        0x0000173a:    480a        .H      LDR      r0,[pc,#40] ; [0x1764] = 0x1000004c
        0x0000173c:    6800        .h      LDR      r0,[r0,#0]
        0x0000173e:    1e40        @.      SUBS     r0,r0,#1
        0x00001740:    4908        .I      LDR      r1,[pc,#32] ; [0x1764] = 0x1000004c
        0x00001742:    6008        .`      STR      r0,[r1,#0]
        0x00001744:    f000fc7e    ..~.    BL       vPortExitCritical ; 0x2044
        0x00001748:    4620         F      MOV      r0,r4
        0x0000174a:    f000f85d    ..].    BL       prvDeleteTCB ; 0x1808
        0x0000174e:    bf00        ..      NOP      
        0x00001750:    4804        .H      LDR      r0,[pc,#16] ; [0x1764] = 0x1000004c
        0x00001752:    6800        .h      LDR      r0,[r0,#0]
        0x00001754:    2800        .(      CMP      r0,#0
        0x00001756:    d1d7        ..      BNE      0x1708 ; prvCheckTasksWaitingTermination + 4
        0x00001758:    bd70        p.      POP      {r4-r6,pc}
    $d
        0x0000175a:    0000        ..      DCW    0
        0x0000175c:    10000228    (...    DCD    268436008
        0x00001760:    10000050    P...    DCD    268435536
        0x00001764:    1000004c    L...    DCD    268435532
    $t
    i.prvCopyDataFromQueue
    prvCopyDataFromQueue
        0x00001768:    b570        p.      PUSH     {r4-r6,lr}
        0x0000176a:    4604        .F      MOV      r4,r0
        0x0000176c:    460d        .F      MOV      r5,r1
        0x0000176e:    6820         h      LDR      r0,[r4,#0]
        0x00001770:    b170        p.      CBZ      r0,0x1790 ; prvCopyDataFromQueue + 40
        0x00001772:    6c21        !l      LDR      r1,[r4,#0x40]
        0x00001774:    68e0        .h      LDR      r0,[r4,#0xc]
        0x00001776:    4408        .D      ADD      r0,r0,r1
        0x00001778:    60e0        .`      STR      r0,[r4,#0xc]
        0x0000177a:    6861        ah      LDR      r1,[r4,#4]
        0x0000177c:    68e0        .h      LDR      r0,[r4,#0xc]
        0x0000177e:    4288        .B      CMP      r0,r1
        0x00001780:    d301        ..      BCC      0x1786 ; prvCopyDataFromQueue + 30
        0x00001782:    6820         h      LDR      r0,[r4,#0]
        0x00001784:    60e0        .`      STR      r0,[r4,#0xc]
        0x00001786:    4628        (F      MOV      r0,r5
        0x00001788:    6c22        "l      LDR      r2,[r4,#0x40]
        0x0000178a:    68e1        .h      LDR      r1,[r4,#0xc]
        0x0000178c:    f7fefd80    ....    BL       __aeabi_memcpy ; 0x290
        0x00001790:    bd70        p.      POP      {r4-r6,pc}
    i.prvCopyDataToQueue
    prvCopyDataToQueue
        0x00001792:    b570        p.      PUSH     {r4-r6,lr}
        0x00001794:    4604        .F      MOV      r4,r0
        0x00001796:    460e        .F      MOV      r6,r1
        0x00001798:    4615        .F      MOV      r5,r2
        0x0000179a:    6c20         l      LDR      r0,[r4,#0x40]
        0x0000179c:    b938        8.      CBNZ     r0,0x17ae ; prvCopyDataToQueue + 28
        0x0000179e:    6820         h      LDR      r0,[r4,#0]
        0x000017a0:    bb70        p.      CBNZ     r0,0x1800 ; prvCopyDataToQueue + 110
        0x000017a2:    6860        `h      LDR      r0,[r4,#4]
        0x000017a4:    f000fe34    ..4.    BL       vTaskPriorityDisinherit ; 0x2410
        0x000017a8:    2000        .       MOVS     r0,#0
        0x000017aa:    6060        ``      STR      r0,[r4,#4]
        0x000017ac:    e028        (.      B        0x1800 ; prvCopyDataToQueue + 110
        0x000017ae:    b97d        }.      CBNZ     r5,0x17d0 ; prvCopyDataToQueue + 62
        0x000017b0:    4631        1F      MOV      r1,r6
        0x000017b2:    6c22        "l      LDR      r2,[r4,#0x40]
        0x000017b4:    68a0        .h      LDR      r0,[r4,#8]
        0x000017b6:    f7fefd6b    ..k.    BL       __aeabi_memcpy ; 0x290
        0x000017ba:    6c21        !l      LDR      r1,[r4,#0x40]
        0x000017bc:    68a0        .h      LDR      r0,[r4,#8]
        0x000017be:    4408        .D      ADD      r0,r0,r1
        0x000017c0:    60a0        .`      STR      r0,[r4,#8]
        0x000017c2:    e9d41001    ....    LDRD     r1,r0,[r4,#4]
        0x000017c6:    4288        .B      CMP      r0,r1
        0x000017c8:    d31a        ..      BCC      0x1800 ; prvCopyDataToQueue + 110
        0x000017ca:    6820         h      LDR      r0,[r4,#0]
        0x000017cc:    60a0        .`      STR      r0,[r4,#8]
        0x000017ce:    e017        ..      B        0x1800 ; prvCopyDataToQueue + 110
        0x000017d0:    4631        1F      MOV      r1,r6
        0x000017d2:    6c22        "l      LDR      r2,[r4,#0x40]
        0x000017d4:    68e0        .h      LDR      r0,[r4,#0xc]
        0x000017d6:    f7fefd5b    ..[.    BL       __aeabi_memcpy ; 0x290
        0x000017da:    6c21        !l      LDR      r1,[r4,#0x40]
        0x000017dc:    68e0        .h      LDR      r0,[r4,#0xc]
        0x000017de:    1a40        @.      SUBS     r0,r0,r1
        0x000017e0:    60e0        .`      STR      r0,[r4,#0xc]
        0x000017e2:    6821        !h      LDR      r1,[r4,#0]
        0x000017e4:    68e0        .h      LDR      r0,[r4,#0xc]
        0x000017e6:    4288        .B      CMP      r0,r1
        0x000017e8:    d203        ..      BCS      0x17f2 ; prvCopyDataToQueue + 96
        0x000017ea:    6c21        !l      LDR      r1,[r4,#0x40]
        0x000017ec:    6860        `h      LDR      r0,[r4,#4]
        0x000017ee:    1a40        @.      SUBS     r0,r0,r1
        0x000017f0:    60e0        .`      STR      r0,[r4,#0xc]
        0x000017f2:    2d02        .-      CMP      r5,#2
        0x000017f4:    d104        ..      BNE      0x1800 ; prvCopyDataToQueue + 110
        0x000017f6:    6ba0        .k      LDR      r0,[r4,#0x38]
        0x000017f8:    b110        ..      CBZ      r0,0x1800 ; prvCopyDataToQueue + 110
        0x000017fa:    6ba0        .k      LDR      r0,[r4,#0x38]
        0x000017fc:    1e40        @.      SUBS     r0,r0,#1
        0x000017fe:    63a0        .c      STR      r0,[r4,#0x38]
        0x00001800:    6ba0        .k      LDR      r0,[r4,#0x38]
        0x00001802:    1c40        @.      ADDS     r0,r0,#1
        0x00001804:    63a0        .c      STR      r0,[r4,#0x38]
        0x00001806:    bd70        p.      POP      {r4-r6,pc}
    i.prvDeleteTCB
    prvDeleteTCB
        0x00001808:    b510        ..      PUSH     {r4,lr}
        0x0000180a:    4604        .F      MOV      r4,r0
        0x0000180c:    6b20         k      LDR      r0,[r4,#0x30]
        0x0000180e:    f000fc2d    ..-.    BL       vPortFree ; 0x206c
        0x00001812:    4620         F      MOV      r0,r4
        0x00001814:    f000fc2a    ..*.    BL       vPortFree ; 0x206c
        0x00001818:    bd10        ..      POP      {r4,pc}
        0x0000181a:    0000        ..      MOVS     r0,r0
    i.prvGetExpectedIdleTime
    prvGetExpectedIdleTime
        0x0000181c:    4908        .I      LDR      r1,[pc,#32] ; [0x1840] = 0x10000040
        0x0000181e:    6809        .h      LDR      r1,[r1,#0]
        0x00001820:    6ac9        .j      LDR      r1,[r1,#0x2c]
        0x00001822:    b109        ..      CBZ      r1,0x1828 ; prvGetExpectedIdleTime + 12
        0x00001824:    2000        .       MOVS     r0,#0
        0x00001826:    e00a        ..      B        0x183e ; prvGetExpectedIdleTime + 34
        0x00001828:    4906        .I      LDR      r1,[pc,#24] ; [0x1844] = 0x1000019c
        0x0000182a:    6809        .h      LDR      r1,[r1,#0]
        0x0000182c:    2901        .)      CMP      r1,#1
        0x0000182e:    d901        ..      BLS      0x1834 ; prvGetExpectedIdleTime + 24
        0x00001830:    2000        .       MOVS     r0,#0
        0x00001832:    e004        ..      B        0x183e ; prvGetExpectedIdleTime + 34
        0x00001834:    4904        .I      LDR      r1,[pc,#16] ; [0x1848] = 0x10000070
        0x00001836:    6809        .h      LDR      r1,[r1,#0]
        0x00001838:    4a04        .J      LDR      r2,[pc,#16] ; [0x184c] = 0x10000054
        0x0000183a:    6812        .h      LDR      r2,[r2,#0]
        0x0000183c:    1a88        ..      SUBS     r0,r1,r2
        0x0000183e:    4770        pG      BX       lr
    $d
        0x00001840:    10000040    @...    DCD    268435520
        0x00001844:    1000019c    ....    DCD    268435868
        0x00001848:    10000070    p...    DCD    268435568
        0x0000184c:    10000054    T...    DCD    268435540
    $t
    i.prvGetNextExpireTime
    prvGetNextExpireTime
        0x00001850:    4601        .F      MOV      r1,r0
        0x00001852:    4a08        .J      LDR      r2,[pc,#32] ; [0x1874] = 0x10000078
        0x00001854:    6812        .h      LDR      r2,[r2,#0]
        0x00001856:    6812        .h      LDR      r2,[r2,#0]
        0x00001858:    b90a        ..      CBNZ     r2,0x185e ; prvGetNextExpireTime + 14
        0x0000185a:    2201        ."      MOVS     r2,#1
        0x0000185c:    e000        ..      B        0x1860 ; prvGetNextExpireTime + 16
        0x0000185e:    2200        ."      MOVS     r2,#0
        0x00001860:    600a        .`      STR      r2,[r1,#0]
        0x00001862:    680a        .h      LDR      r2,[r1,#0]
        0x00001864:    b922        ".      CBNZ     r2,0x1870 ; prvGetNextExpireTime + 32
        0x00001866:    4a03        .J      LDR      r2,[pc,#12] ; [0x1874] = 0x10000078
        0x00001868:    6812        .h      LDR      r2,[r2,#0]
        0x0000186a:    68d2        .h      LDR      r2,[r2,#0xc]
        0x0000186c:    6810        .h      LDR      r0,[r2,#0]
        0x0000186e:    e000        ..      B        0x1872 ; prvGetNextExpireTime + 34
        0x00001870:    2000        .       MOVS     r0,#0
        0x00001872:    4770        pG      BX       lr
    $d
        0x00001874:    10000078    x...    DCD    268435576
    $t
    i.prvHeapInit
    prvHeapInit
        0x00001878:    4a0a        .J      LDR      r2,[pc,#40] ; [0x18a4] = 0x10000280
        0x0000187a:    f0220007    "...    BIC      r0,r2,#7
        0x0000187e:    4a0a        .J      LDR      r2,[pc,#40] ; [0x18a8] = 0x100000a0
        0x00001880:    6010        .`      STR      r0,[r2,#0]
        0x00001882:    2200        ."      MOVS     r2,#0
        0x00001884:    4b08        .K      LDR      r3,[pc,#32] ; [0x18a8] = 0x100000a0
        0x00001886:    605a        Z`      STR      r2,[r3,#4]
        0x00001888:    f24232f8    B..2    MOV      r2,#0x23f8
        0x0000188c:    4b07        .K      LDR      r3,[pc,#28] ; [0x18ac] = 0x100000a8
        0x0000188e:    605a        Z`      STR      r2,[r3,#4]
        0x00001890:    2200        ."      MOVS     r2,#0
        0x00001892:    601a        .`      STR      r2,[r3,#0]
        0x00001894:    4601        .F      MOV      r1,r0
        0x00001896:    f24232f8    B..2    MOV      r2,#0x23f8
        0x0000189a:    604a        J`      STR      r2,[r1,#4]
        0x0000189c:    461a        .F      MOV      r2,r3
        0x0000189e:    600a        .`      STR      r2,[r1,#0]
        0x000018a0:    4770        pG      BX       lr
    $d
        0x000018a2:    0000        ..      DCW    0
        0x000018a4:    10000280    ....    DCD    268436096
        0x000018a8:    100000a0    ....    DCD    268435616
        0x000018ac:    100000a8    ....    DCD    268435624
    $t
    i.prvIdleTask
    prvIdleTask
        0x000018b0:    bf00        ..      NOP      
        0x000018b2:    f7ffff27    ..'.    BL       prvCheckTasksWaitingTermination ; 0x1704
        0x000018b6:    4812        .H      LDR      r0,[pc,#72] ; [0x1900] = 0x1000019c
        0x000018b8:    6800        .h      LDR      r0,[r0,#0]
        0x000018ba:    2801        .(      CMP      r0,#1
        0x000018bc:    d901        ..      BLS      0x18c2 ; prvIdleTask + 18
        0x000018be:    f000fce3    ....    BL       vPortYield ; 0x2288
        0x000018c2:    f7ffffab    ....    BL       prvGetExpectedIdleTime ; 0x181c
        0x000018c6:    4604        .F      MOV      r4,r0
        0x000018c8:    2c02        .,      CMP      r4,#2
        0x000018ca:    d317        ..      BCC      0x18fc ; prvIdleTask + 76
        0x000018cc:    f000feb0    ....    BL       vTaskSuspendAll ; 0x2630
        0x000018d0:    480c        .H      LDR      r0,[pc,#48] ; [0x1904] = 0x10000070
        0x000018d2:    6800        .h      LDR      r0,[r0,#0]
        0x000018d4:    490c        .I      LDR      r1,[pc,#48] ; [0x1908] = 0x10000054
        0x000018d6:    6809        .h      LDR      r1,[r1,#0]
        0x000018d8:    4288        .B      CMP      r0,r1
        0x000018da:    d301        ..      BCC      0x18e0 ; prvIdleTask + 48
        0x000018dc:    2001        .       MOVS     r0,#1
        0x000018de:    e000        ..      B        0x18e2 ; prvIdleTask + 50
        0x000018e0:    2000        .       MOVS     r0,#0
        0x000018e2:    b908        ..      CBNZ     r0,0x18e8 ; prvIdleTask + 56
        0x000018e4:    bf00        ..      NOP      
        0x000018e6:    e7fe        ..      B        0x18e6 ; prvIdleTask + 54
        0x000018e8:    f7ffff98    ....    BL       prvGetExpectedIdleTime ; 0x181c
        0x000018ec:    4604        .F      MOV      r4,r0
        0x000018ee:    2c02        .,      CMP      r4,#2
        0x000018f0:    d302        ..      BCC      0x18f8 ; prvIdleTask + 72
        0x000018f2:    4620         F      MOV      r0,r4
        0x000018f4:    f000fbfc    ....    BL       vPortSuppressTicksAndSleep ; 0x20f0
        0x000018f8:    f001fc46    ..F.    BL       xTaskResumeAll ; 0x3188
        0x000018fc:    e7d9        ..      B        0x18b2 ; prvIdleTask + 2
    $d
        0x000018fe:    0000        ..      DCW    0
        0x00001900:    1000019c    ....    DCD    268435868
        0x00001904:    10000070    p...    DCD    268435568
        0x00001908:    10000054    T...    DCD    268435540
    $t
    i.prvInitialiseTCBVariables
    prvInitialiseTCBVariables
        0x0000190c:    e92d47f0    -..G    PUSH     {r4-r10,lr}
        0x00001910:    4604        .F      MOV      r4,r0
        0x00001912:    460f        .F      MOV      r7,r1
        0x00001914:    4615        .F      MOV      r5,r2
        0x00001916:    4699        .F      MOV      r9,r3
        0x00001918:    f8dd8020    .. .    LDR      r8,[sp,#0x20]
        0x0000191c:    2600        .&      MOVS     r6,#0
        0x0000191e:    e007        ..      B        0x1930 ; prvInitialiseTCBVariables + 36
        0x00001920:    5db9        .]      LDRB     r1,[r7,r6]
        0x00001922:    f1040034    ..4.    ADD      r0,r4,#0x34
        0x00001926:    5581        .U      STRB     r1,[r0,r6]
        0x00001928:    5db8        .]      LDRB     r0,[r7,r6]
        0x0000192a:    b900        ..      CBNZ     r0,0x192e ; prvInitialiseTCBVariables + 34
        0x0000192c:    e002        ..      B        0x1934 ; prvInitialiseTCBVariables + 40
        0x0000192e:    1c76        v.      ADDS     r6,r6,#1
        0x00001930:    2e10        ..      CMP      r6,#0x10
        0x00001932:    d3f5        ..      BCC      0x1920 ; prvInitialiseTCBVariables + 20
        0x00001934:    bf00        ..      NOP      
        0x00001936:    2100        .!      MOVS     r1,#0
        0x00001938:    2043        C       MOVS     r0,#0x43
        0x0000193a:    5501        .U      STRB     r1,[r0,r4]
        0x0000193c:    2d04        .-      CMP      r5,#4
        0x0000193e:    d300        ..      BCC      0x1942 ; prvInitialiseTCBVariables + 54
        0x00001940:    2503        .%      MOVS     r5,#3
        0x00001942:    62e5        .b      STR      r5,[r4,#0x2c]
        0x00001944:    6465        ed      STR      r5,[r4,#0x44]
        0x00001946:    1d20         .      ADDS     r0,r4,#4
        0x00001948:    f000fb43    ..C.    BL       vListInitialiseItem ; 0x1fd2
        0x0000194c:    f1040018    ....    ADD      r0,r4,#0x18
        0x00001950:    f000fb3f    ..?.    BL       vListInitialiseItem ; 0x1fd2
        0x00001954:    6124        $a      STR      r4,[r4,#0x10]
        0x00001956:    f1c50004    ....    RSB      r0,r5,#4
        0x0000195a:    61a0        .a      STR      r0,[r4,#0x18]
        0x0000195c:    6264        db      STR      r4,[r4,#0x24]
        0x0000195e:    e8bd87f0    ....    POP      {r4-r10,pc}
        0x00001962:    0000        ..      MOVS     r0,r0
    i.prvInitialiseTaskLists
    prvInitialiseTaskLists
        0x00001964:    b510        ..      PUSH     {r4,lr}
        0x00001966:    2400        .$      MOVS     r4,#0
        0x00001968:    e007        ..      B        0x197a ; prvInitialiseTaskLists + 22
        0x0000196a:    eb040184    ....    ADD      r1,r4,r4,LSL #2
        0x0000196e:    4a0f        .J      LDR      r2,[pc,#60] ; [0x19ac] = 0x1000019c
        0x00001970:    eb020081    ....    ADD      r0,r2,r1,LSL #2
        0x00001974:    f000fb20    .. .    BL       vListInitialise ; 0x1fb8
        0x00001978:    1c64        d.      ADDS     r4,r4,#1
        0x0000197a:    2c04        .,      CMP      r4,#4
        0x0000197c:    d3f5        ..      BCC      0x196a ; prvInitialiseTaskLists + 6
        0x0000197e:    480c        .H      LDR      r0,[pc,#48] ; [0x19b0] = 0x100001ec
        0x00001980:    f000fb1a    ....    BL       vListInitialise ; 0x1fb8
        0x00001984:    480b        .H      LDR      r0,[pc,#44] ; [0x19b4] = 0x10000200
        0x00001986:    f000fb17    ....    BL       vListInitialise ; 0x1fb8
        0x0000198a:    480b        .H      LDR      r0,[pc,#44] ; [0x19b8] = 0x10000214
        0x0000198c:    f000fb14    ....    BL       vListInitialise ; 0x1fb8
        0x00001990:    480a        .H      LDR      r0,[pc,#40] ; [0x19bc] = 0x10000228
        0x00001992:    f000fb11    ....    BL       vListInitialise ; 0x1fb8
        0x00001996:    480a        .H      LDR      r0,[pc,#40] ; [0x19c0] = 0x1000023c
        0x00001998:    f000fb0e    ....    BL       vListInitialise ; 0x1fb8
        0x0000199c:    4804        .H      LDR      r0,[pc,#16] ; [0x19b0] = 0x100001ec
        0x0000199e:    4909        .I      LDR      r1,[pc,#36] ; [0x19c4] = 0x10000044
        0x000019a0:    6008        .`      STR      r0,[r1,#0]
        0x000019a2:    4804        .H      LDR      r0,[pc,#16] ; [0x19b4] = 0x10000200
        0x000019a4:    4908        .I      LDR      r1,[pc,#32] ; [0x19c8] = 0x10000048
        0x000019a6:    6008        .`      STR      r0,[r1,#0]
        0x000019a8:    bd10        ..      POP      {r4,pc}
    $d
        0x000019aa:    0000        ..      DCW    0
        0x000019ac:    1000019c    ....    DCD    268435868
        0x000019b0:    100001ec    ....    DCD    268435948
        0x000019b4:    10000200    ....    DCD    268435968
        0x000019b8:    10000214    ....    DCD    268435988
        0x000019bc:    10000228    (...    DCD    268436008
        0x000019c0:    1000023c    <...    DCD    268436028
        0x000019c4:    10000044    D...    DCD    268435524
        0x000019c8:    10000048    H...    DCD    268435528
    $t
    i.prvInsertTimerInActiveList
    prvInsertTimerInActiveList
        0x000019cc:    e92d41f0    -..A    PUSH     {r4-r8,lr}
        0x000019d0:    4604        .F      MOV      r4,r0
        0x000019d2:    460d        .F      MOV      r5,r1
        0x000019d4:    4616        .F      MOV      r6,r2
        0x000019d6:    461f        .F      MOV      r7,r3
        0x000019d8:    f04f0800    O...    MOV      r8,#0
        0x000019dc:    6065        e`      STR      r5,[r4,#4]
        0x000019de:    6124        $a      STR      r4,[r4,#0x10]
        0x000019e0:    42b5        .B      CMP      r5,r6
        0x000019e2:    d80c        ..      BHI      0x19fe ; prvInsertTimerInActiveList + 50
        0x000019e4:    1bf0        ..      SUBS     r0,r6,r7
        0x000019e6:    69a1        .i      LDR      r1,[r4,#0x18]
        0x000019e8:    4288        .B      CMP      r0,r1
        0x000019ea:    d302        ..      BCC      0x19f2 ; prvInsertTimerInActiveList + 38
        0x000019ec:    f04f0801    O...    MOV      r8,#1
        0x000019f0:    e011        ..      B        0x1a16 ; prvInsertTimerInActiveList + 74
        0x000019f2:    1d21        !.      ADDS     r1,r4,#4
        0x000019f4:    4809        .H      LDR      r0,[pc,#36] ; [0x1a1c] = 0x1000007c
        0x000019f6:    6800        .h      LDR      r0,[r0,#0]
        0x000019f8:    f000faee    ....    BL       vListInsert ; 0x1fd8
        0x000019fc:    e00b        ..      B        0x1a16 ; prvInsertTimerInActiveList + 74
        0x000019fe:    42be        .B      CMP      r6,r7
        0x00001a00:    d204        ..      BCS      0x1a0c ; prvInsertTimerInActiveList + 64
        0x00001a02:    42bd        .B      CMP      r5,r7
        0x00001a04:    d302        ..      BCC      0x1a0c ; prvInsertTimerInActiveList + 64
        0x00001a06:    f04f0801    O...    MOV      r8,#1
        0x00001a0a:    e004        ..      B        0x1a16 ; prvInsertTimerInActiveList + 74
        0x00001a0c:    1d21        !.      ADDS     r1,r4,#4
        0x00001a0e:    4804        .H      LDR      r0,[pc,#16] ; [0x1a20] = 0x10000078
        0x00001a10:    6800        .h      LDR      r0,[r0,#0]
        0x00001a12:    f000fae1    ....    BL       vListInsert ; 0x1fd8
        0x00001a16:    4640        @F      MOV      r0,r8
        0x00001a18:    e8bd81f0    ....    POP      {r4-r8,pc}
    $d
        0x00001a1c:    1000007c    |...    DCD    268435580
        0x00001a20:    10000078    x...    DCD    268435576
    $t
    i.prvIsQueueEmpty
    prvIsQueueEmpty
        0x00001a24:    b570        p.      PUSH     {r4-r6,lr}
        0x00001a26:    4605        .F      MOV      r5,r0
        0x00001a28:    f000fafc    ....    BL       vPortEnterCritical ; 0x2024
        0x00001a2c:    6ba8        .k      LDR      r0,[r5,#0x38]
        0x00001a2e:    b908        ..      CBNZ     r0,0x1a34 ; prvIsQueueEmpty + 16
        0x00001a30:    2401        .$      MOVS     r4,#1
        0x00001a32:    e000        ..      B        0x1a36 ; prvIsQueueEmpty + 18
        0x00001a34:    2400        .$      MOVS     r4,#0
        0x00001a36:    f000fb05    ....    BL       vPortExitCritical ; 0x2044
        0x00001a3a:    4620         F      MOV      r0,r4
        0x00001a3c:    bd70        p.      POP      {r4-r6,pc}
    i.prvIsQueueFull
    prvIsQueueFull
        0x00001a3e:    b570        p.      PUSH     {r4-r6,lr}
        0x00001a40:    4605        .F      MOV      r5,r0
        0x00001a42:    f000faef    ....    BL       vPortEnterCritical ; 0x2024
        0x00001a46:    6ba8        .k      LDR      r0,[r5,#0x38]
        0x00001a48:    6be9        .k      LDR      r1,[r5,#0x3c]
        0x00001a4a:    4288        .B      CMP      r0,r1
        0x00001a4c:    d101        ..      BNE      0x1a52 ; prvIsQueueFull + 20
        0x00001a4e:    2401        .$      MOVS     r4,#1
        0x00001a50:    e000        ..      B        0x1a54 ; prvIsQueueFull + 22
        0x00001a52:    2400        .$      MOVS     r4,#0
        0x00001a54:    f000faf6    ....    BL       vPortExitCritical ; 0x2044
        0x00001a58:    4620         F      MOV      r0,r4
        0x00001a5a:    bd70        p.      POP      {r4-r6,pc}
    i.prvProcessExpiredTimer
    prvProcessExpiredTimer
        0x00001a5c:    b5f8        ..      PUSH     {r3-r7,lr}
        0x00001a5e:    4605        .F      MOV      r5,r0
        0x00001a60:    460f        .F      MOV      r7,r1
        0x00001a62:    4812        .H      LDR      r0,[pc,#72] ; [0x1aac] = 0x10000078
        0x00001a64:    6800        .h      LDR      r0,[r0,#0]
        0x00001a66:    68c0        .h      LDR      r0,[r0,#0xc]
        0x00001a68:    68c4        .h      LDR      r4,[r0,#0xc]
        0x00001a6a:    1d20         .      ADDS     r0,r4,#4
        0x00001a6c:    f000fa77    ..w.    BL       uxListRemove ; 0x1f5e
        0x00001a70:    69e0        .i      LDR      r0,[r4,#0x1c]
        0x00001a72:    2801        .(      CMP      r0,#1
        0x00001a74:    d115        ..      BNE      0x1aa2 ; prvProcessExpiredTimer + 70
        0x00001a76:    69a0        .i      LDR      r0,[r4,#0x18]
        0x00001a78:    1941        A.      ADDS     r1,r0,r5
        0x00001a7a:    462b        +F      MOV      r3,r5
        0x00001a7c:    463a        :F      MOV      r2,r7
        0x00001a7e:    4620         F      MOV      r0,r4
        0x00001a80:    f7ffffa4    ....    BL       prvInsertTimerInActiveList ; 0x19cc
        0x00001a84:    2801        .(      CMP      r0,#1
        0x00001a86:    d10c        ..      BNE      0x1aa2 ; prvProcessExpiredTimer + 70
        0x00001a88:    2000        .       MOVS     r0,#0
        0x00001a8a:    4603        .F      MOV      r3,r0
        0x00001a8c:    462a        *F      MOV      r2,r5
        0x00001a8e:    4601        .F      MOV      r1,r0
        0x00001a90:    9000        ..      STR      r0,[sp,#0]
        0x00001a92:    4620         F      MOV      r0,r4
        0x00001a94:    f001fc0e    ....    BL       xTimerGenericCommand ; 0x32b4
        0x00001a98:    4606        .F      MOV      r6,r0
        0x00001a9a:    b90e        ..      CBNZ     r6,0x1aa0 ; prvProcessExpiredTimer + 68
        0x00001a9c:    bf00        ..      NOP      
        0x00001a9e:    e7fe        ..      B        0x1a9e ; prvProcessExpiredTimer + 66
        0x00001aa0:    bf00        ..      NOP      
        0x00001aa2:    4620         F      MOV      r0,r4
        0x00001aa4:    6a61        aj      LDR      r1,[r4,#0x24]
        0x00001aa6:    4788        .G      BLX      r1
        0x00001aa8:    bdf8        ..      POP      {r3-r7,pc}
    $d
        0x00001aaa:    0000        ..      DCW    0
        0x00001aac:    10000078    x...    DCD    268435576
    $t
    i.prvProcessReceivedCommands
    prvProcessReceivedCommands
        0x00001ab0:    b5f0        ..      PUSH     {r4-r7,lr}
        0x00001ab2:    b087        ..      SUB      sp,sp,#0x1c
        0x00001ab4:    e065        e.      B        0x1b82 ; prvProcessReceivedCommands + 210
        0x00001ab6:    9803        ..      LDR      r0,[sp,#0xc]
        0x00001ab8:    2800        .(      CMP      r0,#0
        0x00001aba:    da08        ..      BGE      0x1ace ; prvProcessReceivedCommands + 30
        0x00001abc:    ae04        ..      ADD      r6,sp,#0x10
        0x00001abe:    b90e        ..      CBNZ     r6,0x1ac4 ; prvProcessReceivedCommands + 20
        0x00001ac0:    bf00        ..      NOP      
        0x00001ac2:    e7fe        ..      B        0x1ac2 ; prvProcessReceivedCommands + 18
        0x00001ac4:    e9d62000    ...     LDRD     r2,r0,[r6,#0]
        0x00001ac8:    68b1        .h      LDR      r1,[r6,#8]
        0x00001aca:    4790        .G      BLX      r2
        0x00001acc:    bf00        ..      NOP      
        0x00001ace:    9803        ..      LDR      r0,[sp,#0xc]
        0x00001ad0:    2800        .(      CMP      r0,#0
        0x00001ad2:    db56        V.      BLT      0x1b82 ; prvProcessReceivedCommands + 210
        0x00001ad4:    9c05        ..      LDR      r4,[sp,#0x14]
        0x00001ad6:    6960        `i      LDR      r0,[r4,#0x14]
        0x00001ad8:    b908        ..      CBNZ     r0,0x1ade ; prvProcessReceivedCommands + 46
        0x00001ada:    2001        .       MOVS     r0,#1
        0x00001adc:    e000        ..      B        0x1ae0 ; prvProcessReceivedCommands + 48
        0x00001ade:    2000        .       MOVS     r0,#0
        0x00001ae0:    b910        ..      CBNZ     r0,0x1ae8 ; prvProcessReceivedCommands + 56
        0x00001ae2:    1d20         .      ADDS     r0,r4,#4
        0x00001ae4:    f000fa3b    ..;.    BL       uxListRemove ; 0x1f5e
        0x00001ae8:    a802        ..      ADD      r0,sp,#8
        0x00001aea:    f000f897    ....    BL       prvSampleTimeNow ; 0x1c1c
        0x00001aee:    4605        .F      MOV      r5,r0
        0x00001af0:    9803        ..      LDR      r0,[sp,#0xc]
        0x00001af2:    280a        .(      CMP      r0,#0xa
        0x00001af4:    d243        C.      BCS      0x1b7e ; prvProcessReceivedCommands + 206
        0x00001af6:    e8dff000    ....    TBB      [pc,r0]
    $d
        0x00001afa:    0509        ..      DCW    1289
        0x00001afc:    3e2b2907    .)+>    DCD    1043015943
        0x00001b00:    2c2a0806    ..*,    DCD    740952070
    $t
        0x00001b04:    bf00        ..      NOP      
        0x00001b06:    bf00        ..      NOP      
        0x00001b08:    bf00        ..      NOP      
        0x00001b0a:    bf00        ..      NOP      
        0x00001b0c:    9804        ..      LDR      r0,[sp,#0x10]
        0x00001b0e:    69a2        .i      LDR      r2,[r4,#0x18]
        0x00001b10:    1881        ..      ADDS     r1,r0,r2
        0x00001b12:    4603        .F      MOV      r3,r0
        0x00001b14:    462a        *F      MOV      r2,r5
        0x00001b16:    4620         F      MOV      r0,r4
        0x00001b18:    f7ffff58    ..X.    BL       prvInsertTimerInActiveList ; 0x19cc
        0x00001b1c:    2801        .(      CMP      r0,#1
        0x00001b1e:    d114        ..      BNE      0x1b4a ; prvProcessReceivedCommands + 154
        0x00001b20:    4620         F      MOV      r0,r4
        0x00001b22:    6a61        aj      LDR      r1,[r4,#0x24]
        0x00001b24:    4788        .G      BLX      r1
        0x00001b26:    69e0        .i      LDR      r0,[r4,#0x1c]
        0x00001b28:    2801        .(      CMP      r0,#1
        0x00001b2a:    d10e        ..      BNE      0x1b4a ; prvProcessReceivedCommands + 154
        0x00001b2c:    2000        .       MOVS     r0,#0
        0x00001b2e:    9000        ..      STR      r0,[sp,#0]
        0x00001b30:    9804        ..      LDR      r0,[sp,#0x10]
        0x00001b32:    69a1        .i      LDR      r1,[r4,#0x18]
        0x00001b34:    1842        B.      ADDS     r2,r0,r1
        0x00001b36:    2300        .#      MOVS     r3,#0
        0x00001b38:    4619        .F      MOV      r1,r3
        0x00001b3a:    4620         F      MOV      r0,r4
        0x00001b3c:    f001fbba    ....    BL       xTimerGenericCommand ; 0x32b4
        0x00001b40:    4607        .F      MOV      r7,r0
        0x00001b42:    b90f        ..      CBNZ     r7,0x1b48 ; prvProcessReceivedCommands + 152
        0x00001b44:    bf00        ..      NOP      
        0x00001b46:    e7fe        ..      B        0x1b46 ; prvProcessReceivedCommands + 150
        0x00001b48:    bf00        ..      NOP      
        0x00001b4a:    e019        ..      B        0x1b80 ; prvProcessReceivedCommands + 208
        0x00001b4c:    bf00        ..      NOP      
        0x00001b4e:    e017        ..      B        0x1b80 ; prvProcessReceivedCommands + 208
        0x00001b50:    bf00        ..      NOP      
        0x00001b52:    9804        ..      LDR      r0,[sp,#0x10]
        0x00001b54:    61a0        .a      STR      r0,[r4,#0x18]
        0x00001b56:    69a0        .i      LDR      r0,[r4,#0x18]
        0x00001b58:    b108        ..      CBZ      r0,0x1b5e ; prvProcessReceivedCommands + 174
        0x00001b5a:    2001        .       MOVS     r0,#1
        0x00001b5c:    e000        ..      B        0x1b60 ; prvProcessReceivedCommands + 176
        0x00001b5e:    2000        .       MOVS     r0,#0
        0x00001b60:    b908        ..      CBNZ     r0,0x1b66 ; prvProcessReceivedCommands + 182
        0x00001b62:    bf00        ..      NOP      
        0x00001b64:    e7fe        ..      B        0x1b64 ; prvProcessReceivedCommands + 180
        0x00001b66:    69a0        .i      LDR      r0,[r4,#0x18]
        0x00001b68:    1941        A.      ADDS     r1,r0,r5
        0x00001b6a:    462b        +F      MOV      r3,r5
        0x00001b6c:    462a        *F      MOV      r2,r5
        0x00001b6e:    4620         F      MOV      r0,r4
        0x00001b70:    f7ffff2c    ..,.    BL       prvInsertTimerInActiveList ; 0x19cc
        0x00001b74:    e004        ..      B        0x1b80 ; prvProcessReceivedCommands + 208
        0x00001b76:    4620         F      MOV      r0,r4
        0x00001b78:    f000fa78    ..x.    BL       vPortFree ; 0x206c
        0x00001b7c:    e000        ..      B        0x1b80 ; prvProcessReceivedCommands + 208
        0x00001b7e:    bf00        ..      NOP      
        0x00001b80:    bf00        ..      NOP      
        0x00001b82:    2300        .#      MOVS     r3,#0
        0x00001b84:    461a        .F      MOV      r2,r3
        0x00001b86:    a903        ..      ADD      r1,sp,#0xc
        0x00001b88:    4803        .H      LDR      r0,[pc,#12] ; [0x1b98] = 0x10000080
        0x00001b8a:    6800        .h      LDR      r0,[r0,#0]
        0x00001b8c:    f000ff3c    ..<.    BL       xQueueGenericReceive ; 0x2a08
        0x00001b90:    2800        .(      CMP      r0,#0
        0x00001b92:    d190        ..      BNE      0x1ab6 ; prvProcessReceivedCommands + 6
        0x00001b94:    b007        ..      ADD      sp,sp,#0x1c
        0x00001b96:    bdf0        ..      POP      {r4-r7,pc}
    $d
        0x00001b98:    10000080    ....    DCD    268435584
    $t
    i.prvProcessTimerOrBlockTask
    prvProcessTimerOrBlockTask
        0x00001b9c:    b5f8        ..      PUSH     {r3-r7,lr}
        0x00001b9e:    4604        .F      MOV      r4,r0
        0x00001ba0:    460e        .F      MOV      r6,r1
        0x00001ba2:    f000fd45    ..E.    BL       vTaskSuspendAll ; 0x2630
        0x00001ba6:    4668        hF      MOV      r0,sp
        0x00001ba8:    f000f838    ..8.    BL       prvSampleTimeNow ; 0x1c1c
        0x00001bac:    4605        .F      MOV      r5,r0
        0x00001bae:    9800        ..      LDR      r0,[sp,#0]
        0x00001bb0:    b9a0        ..      CBNZ     r0,0x1bdc ; prvProcessTimerOrBlockTask + 64
        0x00001bb2:    b946        F.      CBNZ     r6,0x1bc6 ; prvProcessTimerOrBlockTask + 42
        0x00001bb4:    42ac        .B      CMP      r4,r5
        0x00001bb6:    d806        ..      BHI      0x1bc6 ; prvProcessTimerOrBlockTask + 42
        0x00001bb8:    f001fae6    ....    BL       xTaskResumeAll ; 0x3188
        0x00001bbc:    4629        )F      MOV      r1,r5
        0x00001bbe:    4620         F      MOV      r0,r4
        0x00001bc0:    f7ffff4c    ..L.    BL       prvProcessExpiredTimer ; 0x1a5c
        0x00001bc4:    e00c        ..      B        0x1be0 ; prvProcessTimerOrBlockTask + 68
        0x00001bc6:    1b61        a.      SUBS     r1,r4,r5
        0x00001bc8:    4806        .H      LDR      r0,[pc,#24] ; [0x1be4] = 0x10000080
        0x00001bca:    6800        .h      LDR      r0,[r0,#0]
        0x00001bcc:    f000fb7e    ..~.    BL       vQueueWaitForMessageRestricted ; 0x22cc
        0x00001bd0:    f001fada    ....    BL       xTaskResumeAll ; 0x3188
        0x00001bd4:    b920         .      CBNZ     r0,0x1be0 ; prvProcessTimerOrBlockTask + 68
        0x00001bd6:    f000fb57    ..W.    BL       vPortYield ; 0x2288
        0x00001bda:    e001        ..      B        0x1be0 ; prvProcessTimerOrBlockTask + 68
        0x00001bdc:    f001fad4    ....    BL       xTaskResumeAll ; 0x3188
        0x00001be0:    bdf8        ..      POP      {r3-r7,pc}
    $d
        0x00001be2:    0000        ..      DCW    0
        0x00001be4:    10000080    ....    DCD    268435584
    $t
    i.prvResetNextTaskUnblockTime
    prvResetNextTaskUnblockTime
        0x00001be8:    490a        .I      LDR      r1,[pc,#40] ; [0x1c14] = 0x10000044
        0x00001bea:    6809        .h      LDR      r1,[r1,#0]
        0x00001bec:    6809        .h      LDR      r1,[r1,#0]
        0x00001bee:    b909        ..      CBNZ     r1,0x1bf4 ; prvResetNextTaskUnblockTime + 12
        0x00001bf0:    2101        .!      MOVS     r1,#1
        0x00001bf2:    e000        ..      B        0x1bf6 ; prvResetNextTaskUnblockTime + 14
        0x00001bf4:    2100        .!      MOVS     r1,#0
        0x00001bf6:    b121        !.      CBZ      r1,0x1c02 ; prvResetNextTaskUnblockTime + 26
        0x00001bf8:    f04f31ff    O..1    MOV      r1,#0xffffffff
        0x00001bfc:    4a06        .J      LDR      r2,[pc,#24] ; [0x1c18] = 0x10000070
        0x00001bfe:    6011        .`      STR      r1,[r2,#0]
        0x00001c00:    e006        ..      B        0x1c10 ; prvResetNextTaskUnblockTime + 40
        0x00001c02:    4904        .I      LDR      r1,[pc,#16] ; [0x1c14] = 0x10000044
        0x00001c04:    6809        .h      LDR      r1,[r1,#0]
        0x00001c06:    68c9        .h      LDR      r1,[r1,#0xc]
        0x00001c08:    68c8        .h      LDR      r0,[r1,#0xc]
        0x00001c0a:    4a03        .J      LDR      r2,[pc,#12] ; [0x1c18] = 0x10000070
        0x00001c0c:    6841        Ah      LDR      r1,[r0,#4]
        0x00001c0e:    6011        .`      STR      r1,[r2,#0]
        0x00001c10:    4770        pG      BX       lr
    $d
        0x00001c12:    0000        ..      DCW    0
        0x00001c14:    10000044    D...    DCD    268435524
        0x00001c18:    10000070    p...    DCD    268435568
    $t
    i.prvSampleTimeNow
    prvSampleTimeNow
        0x00001c1c:    b570        p.      PUSH     {r4-r6,lr}
        0x00001c1e:    4604        .F      MOV      r4,r0
        0x00001c20:    f001f992    ....    BL       xTaskGetTickCount ; 0x2f48
        0x00001c24:    4605        .F      MOV      r5,r0
        0x00001c26:    4807        .H      LDR      r0,[pc,#28] ; [0x1c44] = 0x10000084
        0x00001c28:    6800        .h      LDR      r0,[r0,#0]
        0x00001c2a:    4285        .B      CMP      r5,r0
        0x00001c2c:    d204        ..      BCS      0x1c38 ; prvSampleTimeNow + 28
        0x00001c2e:    f000f80b    ....    BL       prvSwitchTimerLists ; 0x1c48
        0x00001c32:    2001        .       MOVS     r0,#1
        0x00001c34:    6020         `      STR      r0,[r4,#0]
        0x00001c36:    e001        ..      B        0x1c3c ; prvSampleTimeNow + 32
        0x00001c38:    2000        .       MOVS     r0,#0
        0x00001c3a:    6020         `      STR      r0,[r4,#0]
        0x00001c3c:    4801        .H      LDR      r0,[pc,#4] ; [0x1c44] = 0x10000084
        0x00001c3e:    6005        .`      STR      r5,[r0,#0]
        0x00001c40:    4628        (F      MOV      r0,r5
        0x00001c42:    bd70        p.      POP      {r4-r6,pc}
    $d
        0x00001c44:    10000084    ....    DCD    268435588
    $t
    i.prvSwitchTimerLists
    prvSwitchTimerLists
        0x00001c48:    e92d43f8    -..C    PUSH     {r3-r9,lr}
        0x00001c4c:    e029        ).      B        0x1ca2 ; prvSwitchTimerLists + 90
        0x00001c4e:    481f        .H      LDR      r0,[pc,#124] ; [0x1ccc] = 0x10000078
        0x00001c50:    6800        .h      LDR      r0,[r0,#0]
        0x00001c52:    68c0        .h      LDR      r0,[r0,#0xc]
        0x00001c54:    6805        .h      LDR      r5,[r0,#0]
        0x00001c56:    481d        .H      LDR      r0,[pc,#116] ; [0x1ccc] = 0x10000078
        0x00001c58:    6800        .h      LDR      r0,[r0,#0]
        0x00001c5a:    68c0        .h      LDR      r0,[r0,#0xc]
        0x00001c5c:    68c4        .h      LDR      r4,[r0,#0xc]
        0x00001c5e:    1d20         .      ADDS     r0,r4,#4
        0x00001c60:    f000f97d    ..}.    BL       uxListRemove ; 0x1f5e
        0x00001c64:    4620         F      MOV      r0,r4
        0x00001c66:    6a61        aj      LDR      r1,[r4,#0x24]
        0x00001c68:    4788        .G      BLX      r1
        0x00001c6a:    69e0        .i      LDR      r0,[r4,#0x1c]
        0x00001c6c:    2801        .(      CMP      r0,#1
        0x00001c6e:    d118        ..      BNE      0x1ca2 ; prvSwitchTimerLists + 90
        0x00001c70:    69a0        .i      LDR      r0,[r4,#0x18]
        0x00001c72:    1946        F.      ADDS     r6,r0,r5
        0x00001c74:    42ae        .B      CMP      r6,r5
        0x00001c76:    d907        ..      BLS      0x1c88 ; prvSwitchTimerLists + 64
        0x00001c78:    6066        f`      STR      r6,[r4,#4]
        0x00001c7a:    6124        $a      STR      r4,[r4,#0x10]
        0x00001c7c:    1d21        !.      ADDS     r1,r4,#4
        0x00001c7e:    4813        .H      LDR      r0,[pc,#76] ; [0x1ccc] = 0x10000078
        0x00001c80:    6800        .h      LDR      r0,[r0,#0]
        0x00001c82:    f000f9a9    ....    BL       vListInsert ; 0x1fd8
        0x00001c86:    e00c        ..      B        0x1ca2 ; prvSwitchTimerLists + 90
        0x00001c88:    2000        .       MOVS     r0,#0
        0x00001c8a:    4603        .F      MOV      r3,r0
        0x00001c8c:    462a        *F      MOV      r2,r5
        0x00001c8e:    4601        .F      MOV      r1,r0
        0x00001c90:    9000        ..      STR      r0,[sp,#0]
        0x00001c92:    4620         F      MOV      r0,r4
        0x00001c94:    f001fb0e    ....    BL       xTimerGenericCommand ; 0x32b4
        0x00001c98:    4607        .F      MOV      r7,r0
        0x00001c9a:    b90f        ..      CBNZ     r7,0x1ca0 ; prvSwitchTimerLists + 88
        0x00001c9c:    bf00        ..      NOP      
        0x00001c9e:    e7fe        ..      B        0x1c9e ; prvSwitchTimerLists + 86
        0x00001ca0:    bf00        ..      NOP      
        0x00001ca2:    480a        .H      LDR      r0,[pc,#40] ; [0x1ccc] = 0x10000078
        0x00001ca4:    6800        .h      LDR      r0,[r0,#0]
        0x00001ca6:    6800        .h      LDR      r0,[r0,#0]
        0x00001ca8:    b908        ..      CBNZ     r0,0x1cae ; prvSwitchTimerLists + 102
        0x00001caa:    2001        .       MOVS     r0,#1
        0x00001cac:    e000        ..      B        0x1cb0 ; prvSwitchTimerLists + 104
        0x00001cae:    2000        .       MOVS     r0,#0
        0x00001cb0:    2800        .(      CMP      r0,#0
        0x00001cb2:    d0cc        ..      BEQ      0x1c4e ; prvSwitchTimerLists + 6
        0x00001cb4:    4805        .H      LDR      r0,[pc,#20] ; [0x1ccc] = 0x10000078
        0x00001cb6:    f8d08000    ....    LDR      r8,[r0,#0]
        0x00001cba:    4805        .H      LDR      r0,[pc,#20] ; [0x1cd0] = 0x1000007c
        0x00001cbc:    6800        .h      LDR      r0,[r0,#0]
        0x00001cbe:    4903        .I      LDR      r1,[pc,#12] ; [0x1ccc] = 0x10000078
        0x00001cc0:    6008        .`      STR      r0,[r1,#0]
        0x00001cc2:    4803        .H      LDR      r0,[pc,#12] ; [0x1cd0] = 0x1000007c
        0x00001cc4:    f8c08000    ....    STR      r8,[r0,#0]
        0x00001cc8:    e8bd83f8    ....    POP      {r3-r9,pc}
    $d
        0x00001ccc:    10000078    x...    DCD    268435576
        0x00001cd0:    1000007c    |...    DCD    268435580
    $t
    i.prvTaskExitError
    prvTaskExitError
        0x00001cd4:    4806        .H      LDR      r0,[pc,#24] ; [0x1cf0] = 0x10000088
        0x00001cd6:    6800        .h      LDR      r0,[r0,#0]
        0x00001cd8:    1c40        @.      ADDS     r0,r0,#1
        0x00001cda:    b908        ..      CBNZ     r0,0x1ce0 ; prvTaskExitError + 12
        0x00001cdc:    2001        .       MOVS     r0,#1
        0x00001cde:    e000        ..      B        0x1ce2 ; prvTaskExitError + 14
        0x00001ce0:    2000        .       MOVS     r0,#0
        0x00001ce2:    b908        ..      CBNZ     r0,0x1ce8 ; prvTaskExitError + 20
        0x00001ce4:    bf00        ..      NOP      
        0x00001ce6:    e7fe        ..      B        0x1ce6 ; prvTaskExitError + 18
        0x00001ce8:    f7fefa88    ....    BL       ulPortSetInterruptMask ; 0x1fc
        0x00001cec:    bf00        ..      NOP      
        0x00001cee:    e7fe        ..      B        0x1cee ; prvTaskExitError + 26
    $d
        0x00001cf0:    10000088    ....    DCD    268435592
    $t
    i.prvTestWaitCondition
    prvTestWaitCondition
        0x00001cf4:    b510        ..      PUSH     {r4,lr}
        0x00001cf6:    4603        .F      MOV      r3,r0
        0x00001cf8:    2000        .       MOVS     r0,#0
        0x00001cfa:    b922        ".      CBNZ     r2,0x1d06 ; prvTestWaitCondition + 18
        0x00001cfc:    ea030401    ....    AND      r4,r3,r1
        0x00001d00:    b134        4.      CBZ      r4,0x1d10 ; prvTestWaitCondition + 28
        0x00001d02:    2001        .       MOVS     r0,#1
        0x00001d04:    e004        ..      B        0x1d10 ; prvTestWaitCondition + 28
        0x00001d06:    ea030401    ....    AND      r4,r3,r1
        0x00001d0a:    428c        .B      CMP      r4,r1
        0x00001d0c:    d100        ..      BNE      0x1d10 ; prvTestWaitCondition + 28
        0x00001d0e:    2001        .       MOVS     r0,#1
        0x00001d10:    bd10        ..      POP      {r4,pc}
    i.prvTimerTask
    prvTimerTask
        0x00001d12:    b508        ..      PUSH     {r3,lr}
        0x00001d14:    bf00        ..      NOP      
        0x00001d16:    4668        hF      MOV      r0,sp
        0x00001d18:    f7fffd9a    ....    BL       prvGetNextExpireTime ; 0x1850
        0x00001d1c:    4604        .F      MOV      r4,r0
        0x00001d1e:    4620         F      MOV      r0,r4
        0x00001d20:    9900        ..      LDR      r1,[sp,#0]
        0x00001d22:    f7ffff3b    ..;.    BL       prvProcessTimerOrBlockTask ; 0x1b9c
        0x00001d26:    f7fffec3    ....    BL       prvProcessReceivedCommands ; 0x1ab0
        0x00001d2a:    e7f4        ..      B        0x1d16 ; prvTimerTask + 4
    i.prvUnlockQueue
    prvUnlockQueue
        0x00001d2c:    b510        ..      PUSH     {r4,lr}
        0x00001d2e:    4604        .F      MOV      r4,r0
        0x00001d30:    f000f978    ..x.    BL       vPortEnterCritical ; 0x2024
        0x00001d34:    e011        ..      B        0x1d5a ; prvUnlockQueue + 46
        0x00001d36:    6a60        `j      LDR      r0,[r4,#0x24]
        0x00001d38:    b908        ..      CBNZ     r0,0x1d3e ; prvUnlockQueue + 18
        0x00001d3a:    2001        .       MOVS     r0,#1
        0x00001d3c:    e000        ..      B        0x1d40 ; prvUnlockQueue + 20
        0x00001d3e:    2000        .       MOVS     r0,#0
        0x00001d40:    b938        8.      CBNZ     r0,0x1d52 ; prvUnlockQueue + 38
        0x00001d42:    f1040024    ..$.    ADD      r0,r4,#0x24
        0x00001d46:    f001f999    ....    BL       xTaskRemoveFromEventList ; 0x307c
        0x00001d4a:    b118        ..      CBZ      r0,0x1d54 ; prvUnlockQueue + 40
        0x00001d4c:    f000fadc    ....    BL       vTaskMissedYield ; 0x2308
        0x00001d50:    e000        ..      B        0x1d54 ; prvUnlockQueue + 40
        0x00001d52:    e005        ..      B        0x1d60 ; prvUnlockQueue + 52
        0x00001d54:    6ca0        .l      LDR      r0,[r4,#0x48]
        0x00001d56:    1e40        @.      SUBS     r0,r0,#1
        0x00001d58:    64a0        .d      STR      r0,[r4,#0x48]
        0x00001d5a:    6ca0        .l      LDR      r0,[r4,#0x48]
        0x00001d5c:    2800        .(      CMP      r0,#0
        0x00001d5e:    dcea        ..      BGT      0x1d36 ; prvUnlockQueue + 10
        0x00001d60:    bf00        ..      NOP      
        0x00001d62:    f04f30ff    O..0    MOV      r0,#0xffffffff
        0x00001d66:    64a0        .d      STR      r0,[r4,#0x48]
        0x00001d68:    f000f96c    ..l.    BL       vPortExitCritical ; 0x2044
        0x00001d6c:    f000f95a    ..Z.    BL       vPortEnterCritical ; 0x2024
        0x00001d70:    e011        ..      B        0x1d96 ; prvUnlockQueue + 106
        0x00001d72:    6920         i      LDR      r0,[r4,#0x10]
        0x00001d74:    b908        ..      CBNZ     r0,0x1d7a ; prvUnlockQueue + 78
        0x00001d76:    2001        .       MOVS     r0,#1
        0x00001d78:    e000        ..      B        0x1d7c ; prvUnlockQueue + 80
        0x00001d7a:    2000        .       MOVS     r0,#0
        0x00001d7c:    b950        P.      CBNZ     r0,0x1d94 ; prvUnlockQueue + 104
        0x00001d7e:    f1040010    ....    ADD      r0,r4,#0x10
        0x00001d82:    f001f97b    ..{.    BL       xTaskRemoveFromEventList ; 0x307c
        0x00001d86:    b108        ..      CBZ      r0,0x1d8c ; prvUnlockQueue + 96
        0x00001d88:    f000fabe    ....    BL       vTaskMissedYield ; 0x2308
        0x00001d8c:    6c60        `l      LDR      r0,[r4,#0x44]
        0x00001d8e:    1e40        @.      SUBS     r0,r0,#1
        0x00001d90:    6460        `d      STR      r0,[r4,#0x44]
        0x00001d92:    e000        ..      B        0x1d96 ; prvUnlockQueue + 106
        0x00001d94:    e002        ..      B        0x1d9c ; prvUnlockQueue + 112
        0x00001d96:    6c60        `l      LDR      r0,[r4,#0x44]
        0x00001d98:    2800        .(      CMP      r0,#0
        0x00001d9a:    dcea        ..      BGT      0x1d72 ; prvUnlockQueue + 70
        0x00001d9c:    bf00        ..      NOP      
        0x00001d9e:    f04f30ff    O..0    MOV      r0,#0xffffffff
        0x00001da2:    6460        `d      STR      r0,[r4,#0x44]
        0x00001da4:    f000f94e    ..N.    BL       vPortExitCritical ; 0x2044
        0x00001da8:    bd10        ..      POP      {r4,pc}
        0x00001daa:    0000        ..      MOVS     r0,r0
    i.pvPortMalloc
    pvPortMalloc
        0x00001dac:    e92d41f0    -..A    PUSH     {r4-r8,lr}
        0x00001db0:    4604        .F      MOV      r4,r0
        0x00001db2:    f04f0800    O...    MOV      r8,#0
        0x00001db6:    f000fc3b    ..;.    BL       vTaskSuspendAll ; 0x2630
        0x00001dba:    4826        &H      LDR      r0,[pc,#152] ; [0x1e54] = 0x100000b4
        0x00001dbc:    6800        .h      LDR      r0,[r0,#0]
        0x00001dbe:    b920         .      CBNZ     r0,0x1dca ; pvPortMalloc + 30
        0x00001dc0:    f7fffd5a    ..Z.    BL       prvHeapInit ; 0x1878
        0x00001dc4:    2001        .       MOVS     r0,#1
        0x00001dc6:    4923        #I      LDR      r1,[pc,#140] ; [0x1e54] = 0x100000b4
        0x00001dc8:    6008        .`      STR      r0,[r1,#0]
        0x00001dca:    b144        D.      CBZ      r4,0x1dde ; pvPortMalloc + 50
        0x00001dcc:    3408        .4      ADDS     r4,r4,#8
        0x00001dce:    f0040007    ....    AND      r0,r4,#7
        0x00001dd2:    b120         .      CBZ      r0,0x1dde ; pvPortMalloc + 50
        0x00001dd4:    f0040007    ....    AND      r0,r4,#7
        0x00001dd8:    f1c00008    ....    RSB      r0,r0,#8
        0x00001ddc:    4404        .D      ADD      r4,r4,r0
        0x00001dde:    2c00        .,      CMP      r4,#0
        0x00001de0:    d032        2.      BEQ      0x1e48 ; pvPortMalloc + 156
        0x00001de2:    f24230f8    B..0    MOV      r0,#0x23f8
        0x00001de6:    4284        .B      CMP      r4,r0
        0x00001de8:    d22e        ..      BCS      0x1e48 ; pvPortMalloc + 156
        0x00001dea:    4f1b        .O      LDR      r7,[pc,#108] ; [0x1e58] = 0x100000a0
        0x00001dec:    4638        8F      MOV      r0,r7
        0x00001dee:    6805        .h      LDR      r5,[r0,#0]
        0x00001df0:    e001        ..      B        0x1df6 ; pvPortMalloc + 74
        0x00001df2:    462f        /F      MOV      r7,r5
        0x00001df4:    682d        -h      LDR      r5,[r5,#0]
        0x00001df6:    6868        hh      LDR      r0,[r5,#4]
        0x00001df8:    42a0        .B      CMP      r0,r4
        0x00001dfa:    d202        ..      BCS      0x1e02 ; pvPortMalloc + 86
        0x00001dfc:    6828        (h      LDR      r0,[r5,#0]
        0x00001dfe:    2800        .(      CMP      r0,#0
        0x00001e00:    d1f7        ..      BNE      0x1df2 ; pvPortMalloc + 70
        0x00001e02:    4816        .H      LDR      r0,[pc,#88] ; [0x1e5c] = 0x100000a8
        0x00001e04:    4285        .B      CMP      r5,r0
        0x00001e06:    d01f        ..      BEQ      0x1e48 ; pvPortMalloc + 156
        0x00001e08:    6838        8h      LDR      r0,[r7,#0]
        0x00001e0a:    f1000808    ....    ADD      r8,r0,#8
        0x00001e0e:    6828        (h      LDR      r0,[r5,#0]
        0x00001e10:    6038        8`      STR      r0,[r7,#0]
        0x00001e12:    6868        hh      LDR      r0,[r5,#4]
        0x00001e14:    1b00        ..      SUBS     r0,r0,r4
        0x00001e16:    2810        .(      CMP      r0,#0x10
        0x00001e18:    d910        ..      BLS      0x1e3c ; pvPortMalloc + 144
        0x00001e1a:    192e        ..      ADDS     r6,r5,r4
        0x00001e1c:    6868        hh      LDR      r0,[r5,#4]
        0x00001e1e:    1b00        ..      SUBS     r0,r0,r4
        0x00001e20:    6070        p`      STR      r0,[r6,#4]
        0x00001e22:    606c        l`      STR      r4,[r5,#4]
        0x00001e24:    6871        qh      LDR      r1,[r6,#4]
        0x00001e26:    480c        .H      LDR      r0,[pc,#48] ; [0x1e58] = 0x100000a0
        0x00001e28:    e000        ..      B        0x1e2c ; pvPortMalloc + 128
        0x00001e2a:    6800        .h      LDR      r0,[r0,#0]
        0x00001e2c:    6802        .h      LDR      r2,[r0,#0]
        0x00001e2e:    6852        Rh      LDR      r2,[r2,#4]
        0x00001e30:    428a        .B      CMP      r2,r1
        0x00001e32:    d3fa        ..      BCC      0x1e2a ; pvPortMalloc + 126
        0x00001e34:    6802        .h      LDR      r2,[r0,#0]
        0x00001e36:    6032        2`      STR      r2,[r6,#0]
        0x00001e38:    6006        .`      STR      r6,[r0,#0]
        0x00001e3a:    bf00        ..      NOP      
        0x00001e3c:    4908        .I      LDR      r1,[pc,#32] ; [0x1e60] = 0x100000b0
        0x00001e3e:    6868        hh      LDR      r0,[r5,#4]
        0x00001e40:    6809        .h      LDR      r1,[r1,#0]
        0x00001e42:    1a08        ..      SUBS     r0,r1,r0
        0x00001e44:    4906        .I      LDR      r1,[pc,#24] ; [0x1e60] = 0x100000b0
        0x00001e46:    6008        .`      STR      r0,[r1,#0]
        0x00001e48:    f001f99e    ....    BL       xTaskResumeAll ; 0x3188
        0x00001e4c:    4640        @F      MOV      r0,r8
        0x00001e4e:    e8bd81f0    ....    POP      {r4-r8,pc}
    $d
        0x00001e52:    0000        ..      DCW    0
        0x00001e54:    100000b4    ....    DCD    268435636
        0x00001e58:    100000a0    ....    DCD    268435616
        0x00001e5c:    100000a8    ....    DCD    268435624
        0x00001e60:    100000b0    ....    DCD    268435632
    $t
    i.pxPortInitialiseStack
    pxPortInitialiseStack
        0x00001e64:    1f00        ..      SUBS     r0,r0,#4
        0x00001e66:    f04f7380    O..s    MOV      r3,#0x1000000
        0x00001e6a:    6003        .`      STR      r3,[r0,#0]
        0x00001e6c:    1f00        ..      SUBS     r0,r0,#4
        0x00001e6e:    6001        .`      STR      r1,[r0,#0]
        0x00001e70:    1f00        ..      SUBS     r0,r0,#4
        0x00001e72:    4b05        .K      LDR      r3,[pc,#20] ; [0x1e88] = 0x1cd5
        0x00001e74:    6003        .`      STR      r3,[r0,#0]
        0x00001e76:    3814        .8      SUBS     r0,r0,#0x14
        0x00001e78:    6002        .`      STR      r2,[r0,#0]
        0x00001e7a:    1f00        ..      SUBS     r0,r0,#4
        0x00001e7c:    f06f0302    o...    MVN      r3,#2
        0x00001e80:    6003        .`      STR      r3,[r0,#0]
        0x00001e82:    3820         8      SUBS     r0,r0,#0x20
        0x00001e84:    4770        pG      BX       lr
    $d
        0x00001e86:    0000        ..      DCW    0
        0x00001e88:    00001cd5    ....    DCD    7381
    $t
    i.rtos_tick
    rtos_tick
        0x00001e8c:    b510        ..      PUSH     {r4,lr}
        0x00001e8e:    f7fef9b5    ....    BL       ulPortSetInterruptMask ; 0x1fc
        0x00001e92:    f001f865    ..e.    BL       xTaskIncrementTick ; 0x2f60
        0x00001e96:    b118        ..      CBZ      r0,0x1ea0 ; rtos_tick + 20
        0x00001e98:    f04f5080    O..P    MOV      r0,#0x10000000
        0x00001e9c:    4902        .I      LDR      r1,[pc,#8] ; [0x1ea8] = 0xe000ed04
        0x00001e9e:    6008        .`      STR      r0,[r1,#0]
        0x00001ea0:    2000        .       MOVS     r0,#0
        0x00001ea2:    f7fef9b2    ....    BL       vPortClearInterruptMask ; 0x20a
        0x00001ea6:    bd10        ..      POP      {r4,pc}
    $d
        0x00001ea8:    e000ed04    ....    DCD    3758157060
    $t
    i.run_tasks
    run_tasks
        0x00001eac:    b51f        ..      PUSH     {r0-r4,lr}
        0x00001eae:    2000        .       MOVS     r0,#0
        0x00001eb0:    4a0d        .J      LDR      r2,[pc,#52] ; [0x1ee8] = 0x10000030
        0x00001eb2:    e9cd0200    ....    STRD     r0,r2,[sp,#0]
        0x00001eb6:    9002        ..      STR      r0,[sp,#8]
        0x00001eb8:    4603        .F      MOV      r3,r0
        0x00001eba:    2240        @"      MOVS     r2,#0x40
        0x00001ebc:    a10b        ..      ADR      r1,{pc}+0x30 ; 0x1eec
        0x00001ebe:    9003        ..      STR      r0,[sp,#0xc]
        0x00001ec0:    480c        .H      LDR      r0,[pc,#48] ; [0x1ef4] = 0x1f45
        0x00001ec2:    f000ff99    ....    BL       xTaskGenericCreate ; 0x2df8
        0x00001ec6:    2000        .       MOVS     r0,#0
        0x00001ec8:    4a0b        .J      LDR      r2,[pc,#44] ; [0x1ef8] = 0x10000018
        0x00001eca:    2303        .#      MOVS     r3,#3
        0x00001ecc:    e9cd2001    ...     STRD     r2,r0,[sp,#4]
        0x00001ed0:    9300        ..      STR      r3,[sp,#0]
        0x00001ed2:    9003        ..      STR      r0,[sp,#0xc]
        0x00001ed4:    4603        .F      MOV      r3,r0
        0x00001ed6:    2240        @"      MOVS     r2,#0x40
        0x00001ed8:    a108        ..      ADR      r1,{pc}+0x24 ; 0x1efc
        0x00001eda:    480a        .H      LDR      r0,[pc,#40] ; [0x1f04] = 0x1f09
        0x00001edc:    f000ff8c    ....    BL       xTaskGenericCreate ; 0x2df8
        0x00001ee0:    f000fb16    ....    BL       vTaskStartScheduler ; 0x2510
        0x00001ee4:    bd1f        ..      POP      {r0-r4,pc}
    $d
        0x00001ee6:    0000        ..      DCW    0
        0x00001ee8:    10000030    0...    DCD    268435504
        0x00001eec:    65656c53    Slee    DCD    1701145683
        0x00001ef0:    00000070    p...    DCD    112
        0x00001ef4:    00001f45    E...    DCD    8005
        0x00001ef8:    10000018    ....    DCD    268435480
        0x00001efc:    75746553    Setu    DCD    1970562387
        0x00001f00:    00000070    p...    DCD    112
        0x00001f04:    00001f09    ....    DCD    7945
    $t
    i.setup_task
    setup_task
        0x00001f08:    b51f        ..      PUSH     {r0-r4,lr}
        0x00001f0a:    f7fffb3b    ..;.    BL       iom_ctl_init ; 0x1584
        0x00001f0e:    2000        .       MOVS     r0,#0
        0x00001f10:    4a08        .J      LDR      r2,[pc,#32] ; [0x1f34] = 0x10000000
        0x00001f12:    2302        .#      MOVS     r3,#2
        0x00001f14:    e9cd2001    ...     STRD     r2,r0,[sp,#4]
        0x00001f18:    9300        ..      STR      r3,[sp,#0]
        0x00001f1a:    9003        ..      STR      r0,[sp,#0xc]
        0x00001f1c:    4603        .F      MOV      r3,r0
        0x00001f1e:    2280        ."      MOVS     r2,#0x80
        0x00001f20:    a105        ..      ADR      r1,{pc}+0x18 ; 0x1f38
        0x00001f22:    4807        .H      LDR      r0,[pc,#28] ; [0x1f40] = 0x495
        0x00001f24:    f000ff68    ..h.    BL       xTaskGenericCreate ; 0x2df8
        0x00001f28:    2000        .       MOVS     r0,#0
        0x00001f2a:    f000fb37    ..7.    BL       vTaskSuspend ; 0x259c
        0x00001f2e:    bf00        ..      NOP      
        0x00001f30:    e7fe        ..      B        0x1f30 ; setup_task + 40
    $d
        0x00001f32:    0000        ..      DCW    0
        0x00001f34:    10000000    ....    DCD    268435456
        0x00001f38:    4c584441    ADXL    DCD    1280853057
        0x00001f3c:    00000000    ....    DCD    0
        0x00001f40:    00000495    ....    DCD    1173
    $t
    i.sleep_task
    sleep_task
        0x00001f44:    e002        ..      B        0x1f4c ; sleep_task + 8
        0x00001f46:    2001        .       MOVS     r0,#1
        0x00001f48:    f7fffa22    ..".    BL       am_hal_sysctrl_sleep ; 0x1390
        0x00001f4c:    e7fb        ..      B        0x1f46 ; sleep_task + 2
    i.timer_a0_handler
    timer_a0_handler
        0x00001f4e:    b510        ..      PUSH     {r4,lr}
        0x00001f50:    4604        .F      MOV      r4,r0
        0x00001f52:    f0040001    ....    AND      r0,r4,#1
        0x00001f56:    b108        ..      CBZ      r0,0x1f5c ; timer_a0_handler + 14
        0x00001f58:    f7ffff98    ....    BL       rtos_tick ; 0x1e8c
        0x00001f5c:    bd10        ..      POP      {r4,pc}
    i.uxListRemove
    uxListRemove
        0x00001f5e:    4601        .F      MOV      r1,r0
        0x00001f60:    690a        .i      LDR      r2,[r1,#0x10]
        0x00001f62:    e9d13001    ...0    LDRD     r3,r0,[r1,#4]
        0x00001f66:    6098        .`      STR      r0,[r3,#8]
        0x00001f68:    e9d10301    ....    LDRD     r0,r3,[r1,#4]
        0x00001f6c:    6058        X`      STR      r0,[r3,#4]
        0x00001f6e:    6850        Ph      LDR      r0,[r2,#4]
        0x00001f70:    4288        .B      CMP      r0,r1
        0x00001f72:    d101        ..      BNE      0x1f78 ; uxListRemove + 26
        0x00001f74:    6888        .h      LDR      r0,[r1,#8]
        0x00001f76:    6050        P`      STR      r0,[r2,#4]
        0x00001f78:    2000        .       MOVS     r0,#0
        0x00001f7a:    6108        .a      STR      r0,[r1,#0x10]
        0x00001f7c:    6810        .h      LDR      r0,[r2,#0]
        0x00001f7e:    1e40        @.      SUBS     r0,r0,#1
        0x00001f80:    6010        .`      STR      r0,[r2,#0]
        0x00001f82:    6810        .h      LDR      r0,[r2,#0]
        0x00001f84:    4770        pG      BX       lr
        0x00001f86:    0000        ..      MOVS     r0,r0
    i.uxTaskResetEventItemValue
    uxTaskResetEventItemValue
        0x00001f88:    4905        .I      LDR      r1,[pc,#20] ; [0x1fa0] = 0x10000040
        0x00001f8a:    6809        .h      LDR      r1,[r1,#0]
        0x00001f8c:    6988        .i      LDR      r0,[r1,#0x18]
        0x00001f8e:    4904        .I      LDR      r1,[pc,#16] ; [0x1fa0] = 0x10000040
        0x00001f90:    6809        .h      LDR      r1,[r1,#0]
        0x00001f92:    6ac9        .j      LDR      r1,[r1,#0x2c]
        0x00001f94:    f1c10104    ....    RSB      r1,r1,#4
        0x00001f98:    4a01        .J      LDR      r2,[pc,#4] ; [0x1fa0] = 0x10000040
        0x00001f9a:    6812        .h      LDR      r2,[r2,#0]
        0x00001f9c:    6191        .a      STR      r1,[r2,#0x18]
        0x00001f9e:    4770        pG      BX       lr
    $d
        0x00001fa0:    10000040    @...    DCD    268435520
    $t
    i.vApplicationStackOverflowHook
    vApplicationStackOverflowHook
        0x00001fa4:    bf00        ..      NOP      
        0x00001fa6:    e7fe        ..      B        0x1fa6 ; vApplicationStackOverflowHook + 2
    i.vEventGroupSetBitsCallback
    vEventGroupSetBitsCallback
        0x00001fa8:    b570        p.      PUSH     {r4-r6,lr}
        0x00001faa:    4604        .F      MOV      r4,r0
        0x00001fac:    460d        .F      MOV      r5,r1
        0x00001fae:    4629        )F      MOV      r1,r5
        0x00001fb0:    4620         F      MOV      r0,r4
        0x00001fb2:    f000fbb6    ....    BL       xEventGroupSetBits ; 0x2722
        0x00001fb6:    bd70        p.      POP      {r4-r6,pc}
    i.vListInitialise
    vListInitialise
        0x00001fb8:    f1000108    ....    ADD      r1,r0,#8
        0x00001fbc:    6041        A`      STR      r1,[r0,#4]
        0x00001fbe:    f04f31ff    O..1    MOV      r1,#0xffffffff
        0x00001fc2:    6081        .`      STR      r1,[r0,#8]
        0x00001fc4:    f1000108    ....    ADD      r1,r0,#8
        0x00001fc8:    60c1        .`      STR      r1,[r0,#0xc]
        0x00001fca:    6101        .a      STR      r1,[r0,#0x10]
        0x00001fcc:    2100        .!      MOVS     r1,#0
        0x00001fce:    6001        .`      STR      r1,[r0,#0]
        0x00001fd0:    4770        pG      BX       lr
    i.vListInitialiseItem
    vListInitialiseItem
        0x00001fd2:    2100        .!      MOVS     r1,#0
        0x00001fd4:    6101        .a      STR      r1,[r0,#0x10]
        0x00001fd6:    4770        pG      BX       lr
    i.vListInsert
    vListInsert
        0x00001fd8:    b510        ..      PUSH     {r4,lr}
        0x00001fda:    4602        .F      MOV      r2,r0
        0x00001fdc:    680b        .h      LDR      r3,[r1,#0]
        0x00001fde:    1c5c        \.      ADDS     r4,r3,#1
        0x00001fe0:    b90c        ..      CBNZ     r4,0x1fe6 ; vListInsert + 14
        0x00001fe2:    6910        .i      LDR      r0,[r2,#0x10]
        0x00001fe4:    e007        ..      B        0x1ff6 ; vListInsert + 30
        0x00001fe6:    f1020008    ....    ADD      r0,r2,#8
        0x00001fea:    e000        ..      B        0x1fee ; vListInsert + 22
        0x00001fec:    6840        @h      LDR      r0,[r0,#4]
        0x00001fee:    6844        Dh      LDR      r4,[r0,#4]
        0x00001ff0:    6824        $h      LDR      r4,[r4,#0]
        0x00001ff2:    429c        .B      CMP      r4,r3
        0x00001ff4:    d9fa        ..      BLS      0x1fec ; vListInsert + 20
        0x00001ff6:    6844        Dh      LDR      r4,[r0,#4]
        0x00001ff8:    604c        L`      STR      r4,[r1,#4]
        0x00001ffa:    684c        Lh      LDR      r4,[r1,#4]
        0x00001ffc:    60a1        .`      STR      r1,[r4,#8]
        0x00001ffe:    6088        .`      STR      r0,[r1,#8]
        0x00002000:    6041        A`      STR      r1,[r0,#4]
        0x00002002:    610a        .a      STR      r2,[r1,#0x10]
        0x00002004:    6814        .h      LDR      r4,[r2,#0]
        0x00002006:    1c64        d.      ADDS     r4,r4,#1
        0x00002008:    6014        .`      STR      r4,[r2,#0]
        0x0000200a:    bd10        ..      POP      {r4,pc}
    i.vListInsertEnd
    vListInsertEnd
        0x0000200c:    6842        Bh      LDR      r2,[r0,#4]
        0x0000200e:    604a        J`      STR      r2,[r1,#4]
        0x00002010:    6893        .h      LDR      r3,[r2,#8]
        0x00002012:    608b        .`      STR      r3,[r1,#8]
        0x00002014:    6893        .h      LDR      r3,[r2,#8]
        0x00002016:    6059        Y`      STR      r1,[r3,#4]
        0x00002018:    6091        .`      STR      r1,[r2,#8]
        0x0000201a:    6108        .a      STR      r0,[r1,#0x10]
        0x0000201c:    6803        .h      LDR      r3,[r0,#0]
        0x0000201e:    1c5b        [.      ADDS     r3,r3,#1
        0x00002020:    6003        .`      STR      r3,[r0,#0]
        0x00002022:    4770        pG      BX       lr
    i.vPortEnterCritical
    vPortEnterCritical
        0x00002024:    b510        ..      PUSH     {r4,lr}
        0x00002026:    f7fef8e9    ....    BL       ulPortSetInterruptMask ; 0x1fc
        0x0000202a:    4805        .H      LDR      r0,[pc,#20] ; [0x2040] = 0x10000088
        0x0000202c:    6800        .h      LDR      r0,[r0,#0]
        0x0000202e:    1c40        @.      ADDS     r0,r0,#1
        0x00002030:    4903        .I      LDR      r1,[pc,#12] ; [0x2040] = 0x10000088
        0x00002032:    6008        .`      STR      r0,[r1,#0]
        0x00002034:    f3bf8f4f    ..O.    DSB      
        0x00002038:    f3bf8f6f    ..o.    ISB      
        0x0000203c:    bd10        ..      POP      {r4,pc}
    $d
        0x0000203e:    0000        ..      DCW    0
        0x00002040:    10000088    ....    DCD    268435592
    $t
    i.vPortExitCritical
    vPortExitCritical
        0x00002044:    b510        ..      PUSH     {r4,lr}
        0x00002046:    4808        .H      LDR      r0,[pc,#32] ; [0x2068] = 0x10000088
        0x00002048:    6800        .h      LDR      r0,[r0,#0]
        0x0000204a:    b908        ..      CBNZ     r0,0x2050 ; vPortExitCritical + 12
        0x0000204c:    bf00        ..      NOP      
        0x0000204e:    e7fe        ..      B        0x204e ; vPortExitCritical + 10
        0x00002050:    4805        .H      LDR      r0,[pc,#20] ; [0x2068] = 0x10000088
        0x00002052:    6800        .h      LDR      r0,[r0,#0]
        0x00002054:    1e40        @.      SUBS     r0,r0,#1
        0x00002056:    4904        .I      LDR      r1,[pc,#16] ; [0x2068] = 0x10000088
        0x00002058:    6008        .`      STR      r0,[r1,#0]
        0x0000205a:    4608        .F      MOV      r0,r1
        0x0000205c:    6800        .h      LDR      r0,[r0,#0]
        0x0000205e:    b910        ..      CBNZ     r0,0x2066 ; vPortExitCritical + 34
        0x00002060:    2000        .       MOVS     r0,#0
        0x00002062:    f7fef8d2    ....    BL       vPortClearInterruptMask ; 0x20a
        0x00002066:    bd10        ..      POP      {r4,pc}
    $d
        0x00002068:    10000088    ....    DCD    268435592
    $t
    i.vPortFree
    vPortFree
        0x0000206c:    b570        p.      PUSH     {r4-r6,lr}
        0x0000206e:    4606        .F      MOV      r6,r0
        0x00002070:    4635        5F      MOV      r5,r6
        0x00002072:    b1b6        ..      CBZ      r6,0x20a2 ; vPortFree + 54
        0x00002074:    3d08        .=      SUBS     r5,r5,#8
        0x00002076:    462c        ,F      MOV      r4,r5
        0x00002078:    f000fada    ....    BL       vTaskSuspendAll ; 0x2630
        0x0000207c:    6861        ah      LDR      r1,[r4,#4]
        0x0000207e:    4809        .H      LDR      r0,[pc,#36] ; [0x20a4] = 0x100000a0
        0x00002080:    e000        ..      B        0x2084 ; vPortFree + 24
        0x00002082:    6800        .h      LDR      r0,[r0,#0]
        0x00002084:    6802        .h      LDR      r2,[r0,#0]
        0x00002086:    6852        Rh      LDR      r2,[r2,#4]
        0x00002088:    428a        .B      CMP      r2,r1
        0x0000208a:    d3fa        ..      BCC      0x2082 ; vPortFree + 22
        0x0000208c:    6802        .h      LDR      r2,[r0,#0]
        0x0000208e:    6022        "`      STR      r2,[r4,#0]
        0x00002090:    6004        .`      STR      r4,[r0,#0]
        0x00002092:    4905        .I      LDR      r1,[pc,#20] ; [0x20a8] = 0x100000b0
        0x00002094:    6860        `h      LDR      r0,[r4,#4]
        0x00002096:    6809        .h      LDR      r1,[r1,#0]
        0x00002098:    4408        .D      ADD      r0,r0,r1
        0x0000209a:    4903        .I      LDR      r1,[pc,#12] ; [0x20a8] = 0x100000b0
        0x0000209c:    6008        .`      STR      r0,[r1,#0]
        0x0000209e:    f001f873    ..s.    BL       xTaskResumeAll ; 0x3188
        0x000020a2:    bd70        p.      POP      {r4-r6,pc}
    $d
        0x000020a4:    100000a0    ....    DCD    268435616
        0x000020a8:    100000b0    ....    DCD    268435632
    $t
    i.vPortSetupTimerInterrupt
    vPortSetupTimerInterrupt
        0x000020ac:    b50e        ..      PUSH     {r1-r3,lr}
        0x000020ae:    4a0f        .J      LDR      r2,[pc,#60] ; [0x20ec] = 0x3360
        0x000020b0:    ca07        ..      LDM      r2,{r0-r2}
        0x000020b2:    e88d0007    ....    STM      sp,{r0-r2}
        0x000020b6:    4669        iF      MOV      r1,sp
        0x000020b8:    2000        .       MOVS     r0,#0
        0x000020ba:    f7fefcab    ....    BL       am_hal_ctimer_config ; 0xa14
        0x000020be:    230c        .#      MOVS     r3,#0xc
        0x000020c0:    2200        ."      MOVS     r2,#0
        0x000020c2:    f64f71ff    O..q    MOV      r1,#0xffff
        0x000020c6:    4610        .F      MOV      r0,r2
        0x000020c8:    f7fefc8e    ....    BL       am_hal_ctimer_compare_set ; 0x9e8
        0x000020cc:    2001        .       MOVS     r0,#1
        0x000020ce:    f7fefcb9    ....    BL       am_hal_ctimer_int_enable ; 0xa44
        0x000020d2:    21e0        .!      MOVS     r1,#0xe0
        0x000020d4:    201a        .       MOVS     r0,#0x1a
        0x000020d6:    f7fefd89    ....    BL       am_hal_interrupt_priority_set ; 0xbec
        0x000020da:    201a        .       MOVS     r0,#0x1a
        0x000020dc:    f7fefd60    ..`.    BL       am_hal_interrupt_enable ; 0xba0
        0x000020e0:    f64f71ff    O..q    MOV      r1,#0xffff
        0x000020e4:    2000        .       MOVS     r0,#0
        0x000020e6:    f7fefcc3    ....    BL       am_hal_ctimer_start ; 0xa70
        0x000020ea:    bd0e        ..      POP      {r1-r3,pc}
    $d
        0x000020ec:    00003360    `3..    DCD    13152
    $t
    i.vPortSuppressTicksAndSleep
    vPortSuppressTicksAndSleep
        0x000020f0:    e92d47f0    -..G    PUSH     {r4-r10,lr}
        0x000020f4:    4604        .F      MOV      r4,r0
        0x000020f6:    484c        LH      LDR      r0,[pc,#304] ; [0x2228] = 0x10000090
        0x000020f8:    6800        .h      LDR      r0,[r0,#0]
        0x000020fa:    4284        .B      CMP      r4,r0
        0x000020fc:    d901        ..      BLS      0x2102 ; vPortSuppressTicksAndSleep + 18
        0x000020fe:    484a        JH      LDR      r0,[pc,#296] ; [0x2228] = 0x10000090
        0x00002100:    6804        .h      LDR      r4,[r0,#0]
        0x00002102:    f04f20e0    O..     MOV      r0,#0xe000e000
        0x00002106:    6900        .i      LDR      r0,[r0,#0x10]
        0x00002108:    f0200001     ...    BIC      r0,r0,#1
        0x0000210c:    f04f21e0    O..!    MOV      r1,#0xe000e000
        0x00002110:    6108        .a      STR      r0,[r1,#0x10]
        0x00002112:    4608        .F      MOV      r0,r1
        0x00002114:    6981        .i      LDR      r1,[r0,#0x18]
        0x00002116:    1e60        `.      SUBS     r0,r4,#1
        0x00002118:    4a44        DJ      LDR      r2,[pc,#272] ; [0x222c] = 0x1000008c
        0x0000211a:    6812        .h      LDR      r2,[r2,#0]
        0x0000211c:    fb021500    ....    MLA      r5,r2,r0,r1
        0x00002120:    4843        CH      LDR      r0,[pc,#268] ; [0x2230] = 0x10000094
        0x00002122:    6800        .h      LDR      r0,[r0,#0]
        0x00002124:    4285        .B      CMP      r5,r0
        0x00002126:    d902        ..      BLS      0x212e ; vPortSuppressTicksAndSleep + 62
        0x00002128:    4841        AH      LDR      r0,[pc,#260] ; [0x2230] = 0x10000094
        0x0000212a:    6800        .h      LDR      r0,[r0,#0]
        0x0000212c:    1a2d        -.      SUBS     r5,r5,r0
        0x0000212e:    b672        r.      CPSID    i
        0x00002130:    f7fffa18    ....    BL       eTaskConfirmSleepModeStatus ; 0x1564
        0x00002134:    b980        ..      CBNZ     r0,0x2158 ; vPortSuppressTicksAndSleep + 104
        0x00002136:    f04f20e0    O..     MOV      r0,#0xe000e000
        0x0000213a:    6980        .i      LDR      r0,[r0,#0x18]
        0x0000213c:    f04f21e0    O..!    MOV      r1,#0xe000e000
        0x00002140:    6148        Ha      STR      r0,[r1,#0x14]
        0x00002142:    4608        .F      MOV      r0,r1
        0x00002144:    6900        .i      LDR      r0,[r0,#0x10]
        0x00002146:    f0400001    @...    ORR      r0,r0,#1
        0x0000214a:    6108        .a      STR      r0,[r1,#0x10]
        0x0000214c:    4837        7H      LDR      r0,[pc,#220] ; [0x222c] = 0x1000008c
        0x0000214e:    6800        .h      LDR      r0,[r0,#0]
        0x00002150:    1e40        @.      SUBS     r0,r0,#1
        0x00002152:    6148        Ha      STR      r0,[r1,#0x14]
        0x00002154:    b662        b.      CPSIE    i
        0x00002156:    e065        e.      B        0x2224 ; vPortSuppressTicksAndSleep + 308
        0x00002158:    f04f20e0    O..     MOV      r0,#0xe000e000
        0x0000215c:    6145        Ea      STR      r5,[r0,#0x14]
        0x0000215e:    2000        .       MOVS     r0,#0
        0x00002160:    f04f21e0    O..!    MOV      r1,#0xe000e000
        0x00002164:    6188        .a      STR      r0,[r1,#0x18]
        0x00002166:    4608        .F      MOV      r0,r1
        0x00002168:    6900        .i      LDR      r0,[r0,#0x10]
        0x0000216a:    f0400001    @...    ORR      r0,r0,#1
        0x0000216e:    6108        .a      STR      r0,[r1,#0x10]
        0x00002170:    46a1        .F      MOV      r9,r4
        0x00002172:    ea5f0409    _...    MOVS     r4,r9
        0x00002176:    d004        ..      BEQ      0x2182 ; vPortSuppressTicksAndSleep + 146
        0x00002178:    f3bf8f4f    ..O.    DSB      
        0x0000217c:    bf30        0.      WFI      
        0x0000217e:    f3bf8f6f    ..o.    ISB      
        0x00002182:    f04f20e0    O..     MOV      r0,#0xe000e000
        0x00002186:    f8d08010    ....    LDR      r8,[r0,#0x10]
        0x0000218a:    f0280001    (...    BIC      r0,r8,#1
        0x0000218e:    f04f21e0    O..!    MOV      r1,#0xe000e000
        0x00002192:    6108        .a      STR      r0,[r1,#0x10]
        0x00002194:    b662        b.      CPSIE    i
        0x00002196:    f4083080    ...0    AND      r0,r8,#0x10000
        0x0000219a:    b1b8        ..      CBZ      r0,0x21cc ; vPortSuppressTicksAndSleep + 220
        0x0000219c:    4923        #I      LDR      r1,[pc,#140] ; [0x222c] = 0x1000008c
        0x0000219e:    6809        .h      LDR      r1,[r1,#0]
        0x000021a0:    1e49        I.      SUBS     r1,r1,#1
        0x000021a2:    f04f22e0    O.."    MOV      r2,#0xe000e000
        0x000021a6:    6992        .i      LDR      r2,[r2,#0x18]
        0x000021a8:    1aaa        ..      SUBS     r2,r5,r2
        0x000021aa:    1a88        ..      SUBS     r0,r1,r2
        0x000021ac:    4920         I      LDR      r1,[pc,#128] ; [0x2230] = 0x10000094
        0x000021ae:    6809        .h      LDR      r1,[r1,#0]
        0x000021b0:    4288        .B      CMP      r0,r1
        0x000021b2:    d303        ..      BCC      0x21bc ; vPortSuppressTicksAndSleep + 204
        0x000021b4:    491d        .I      LDR      r1,[pc,#116] ; [0x222c] = 0x1000008c
        0x000021b6:    6809        .h      LDR      r1,[r1,#0]
        0x000021b8:    4288        .B      CMP      r0,r1
        0x000021ba:    d902        ..      BLS      0x21c2 ; vPortSuppressTicksAndSleep + 210
        0x000021bc:    491b        .I      LDR      r1,[pc,#108] ; [0x222c] = 0x1000008c
        0x000021be:    6809        .h      LDR      r1,[r1,#0]
        0x000021c0:    1e48        H.      SUBS     r0,r1,#1
        0x000021c2:    f04f21e0    O..!    MOV      r1,#0xe000e000
        0x000021c6:    6148        Ha      STR      r0,[r1,#0x14]
        0x000021c8:    1e66        f.      SUBS     r6,r4,#1
        0x000021ca:    e012        ..      B        0x21f2 ; vPortSuppressTicksAndSleep + 258
        0x000021cc:    4817        .H      LDR      r0,[pc,#92] ; [0x222c] = 0x1000008c
        0x000021ce:    6800        .h      LDR      r0,[r0,#0]
        0x000021d0:    4360        `C      MULS     r0,r4,r0
        0x000021d2:    f04f21e0    O..!    MOV      r1,#0xe000e000
        0x000021d6:    6989        .i      LDR      r1,[r1,#0x18]
        0x000021d8:    1a47        G.      SUBS     r7,r0,r1
        0x000021da:    4814        .H      LDR      r0,[pc,#80] ; [0x222c] = 0x1000008c
        0x000021dc:    6800        .h      LDR      r0,[r0,#0]
        0x000021de:    fbb7f6f0    ....    UDIV     r6,r7,r0
        0x000021e2:    1c70        p.      ADDS     r0,r6,#1
        0x000021e4:    4911        .I      LDR      r1,[pc,#68] ; [0x222c] = 0x1000008c
        0x000021e6:    6809        .h      LDR      r1,[r1,#0]
        0x000021e8:    4348        HC      MULS     r0,r1,r0
        0x000021ea:    1bc0        ..      SUBS     r0,r0,r7
        0x000021ec:    f04f21e0    O..!    MOV      r1,#0xe000e000
        0x000021f0:    6148        Ha      STR      r0,[r1,#0x14]
        0x000021f2:    2000        .       MOVS     r0,#0
        0x000021f4:    f04f21e0    O..!    MOV      r1,#0xe000e000
        0x000021f8:    6188        .a      STR      r0,[r1,#0x18]
        0x000021fa:    f7ffff13    ....    BL       vPortEnterCritical ; 0x2024
        0x000021fe:    f04f20e0    O..     MOV      r0,#0xe000e000
        0x00002202:    6900        .i      LDR      r0,[r0,#0x10]
        0x00002204:    f0400001    @...    ORR      r0,r0,#1
        0x00002208:    f04f21e0    O..!    MOV      r1,#0xe000e000
        0x0000220c:    6108        .a      STR      r0,[r1,#0x10]
        0x0000220e:    4630        0F      MOV      r0,r6
        0x00002210:    f000f9ac    ....    BL       vTaskStepTick ; 0x256c
        0x00002214:    4805        .H      LDR      r0,[pc,#20] ; [0x222c] = 0x1000008c
        0x00002216:    6800        .h      LDR      r0,[r0,#0]
        0x00002218:    1e40        @.      SUBS     r0,r0,#1
        0x0000221a:    f04f21e0    O..!    MOV      r1,#0xe000e000
        0x0000221e:    6148        Ha      STR      r0,[r1,#0x14]
        0x00002220:    f7ffff10    ....    BL       vPortExitCritical ; 0x2044
        0x00002224:    e8bd87f0    ....    POP      {r4-r10,pc}
    $d
        0x00002228:    10000090    ....    DCD    268435600
        0x0000222c:    1000008c    ....    DCD    268435596
        0x00002230:    10000094    ....    DCD    268435604
    $t
    i.vPortValidateInterruptPriority
    vPortValidateInterruptPriority
        0x00002234:    b570        p.      PUSH     {r4-r6,lr}
        0x00002236:    f7fdffeb    ....    BL       vPortGetIPSR ; 0x210
        0x0000223a:    4605        .F      MOV      r5,r0
        0x0000223c:    2d10        .-      CMP      r5,#0x10
        0x0000223e:    d30d        ..      BCC      0x225c ; vPortValidateInterruptPriority + 40
        0x00002240:    f10520e0    ...     ADD      r0,r5,#0xe000e000
        0x00002244:    f89043f0    ...C    LDRB     r4,[r0,#0x3f0]
        0x00002248:    480c        .H      LDR      r0,[pc,#48] ; [0x227c] = 0x10000098
        0x0000224a:    7800        .x      LDRB     r0,[r0,#0]
        0x0000224c:    4284        .B      CMP      r4,r0
        0x0000224e:    db01        ..      BLT      0x2254 ; vPortValidateInterruptPriority + 32
        0x00002250:    2001        .       MOVS     r0,#1
        0x00002252:    e000        ..      B        0x2256 ; vPortValidateInterruptPriority + 34
        0x00002254:    2000        .       MOVS     r0,#0
        0x00002256:    b908        ..      CBNZ     r0,0x225c ; vPortValidateInterruptPriority + 40
        0x00002258:    bf00        ..      NOP      
        0x0000225a:    e7fe        ..      B        0x225a ; vPortValidateInterruptPriority + 38
        0x0000225c:    4808        .H      LDR      r0,[pc,#32] ; [0x2280] = 0xe000ed0c
        0x0000225e:    6800        .h      LDR      r0,[r0,#0]
        0x00002260:    f40060e0    ...`    AND      r0,r0,#0x700
        0x00002264:    4907        .I      LDR      r1,[pc,#28] ; [0x2284] = 0x1000009c
        0x00002266:    6809        .h      LDR      r1,[r1,#0]
        0x00002268:    4288        .B      CMP      r0,r1
        0x0000226a:    d801        ..      BHI      0x2270 ; vPortValidateInterruptPriority + 60
        0x0000226c:    2001        .       MOVS     r0,#1
        0x0000226e:    e000        ..      B        0x2272 ; vPortValidateInterruptPriority + 62
        0x00002270:    2000        .       MOVS     r0,#0
        0x00002272:    b908        ..      CBNZ     r0,0x2278 ; vPortValidateInterruptPriority + 68
        0x00002274:    bf00        ..      NOP      
        0x00002276:    e7fe        ..      B        0x2276 ; vPortValidateInterruptPriority + 66
        0x00002278:    bd70        p.      POP      {r4-r6,pc}
    $d
        0x0000227a:    0000        ..      DCW    0
        0x0000227c:    10000098    ....    DCD    268435608
        0x00002280:    e000ed0c    ....    DCD    3758157068
        0x00002284:    1000009c    ....    DCD    268435612
    $t
    i.vPortYield
    vPortYield
        0x00002288:    f04f5080    O..P    MOV      r0,#0x10000000
        0x0000228c:    4903        .I      LDR      r1,[pc,#12] ; [0x229c] = 0xe000ed04
        0x0000228e:    6008        .`      STR      r0,[r1,#0]
        0x00002290:    f3bf8f4f    ..O.    DSB      
        0x00002294:    f3bf8f6f    ..o.    ISB      
        0x00002298:    4770        pG      BX       lr
    $d
        0x0000229a:    0000        ..      DCW    0
        0x0000229c:    e000ed04    ....    DCD    3758157060
    $t
    i.vQueueAddToRegistry
    vQueueAddToRegistry
        0x000022a0:    4602        .F      MOV      r2,r0
        0x000022a2:    2000        .       MOVS     r0,#0
        0x000022a4:    e00b        ..      B        0x22be ; vQueueAddToRegistry + 30
        0x000022a6:    4b08        .K      LDR      r3,[pc,#32] ; [0x22c8] = 0x1000014c
        0x000022a8:    f8533030    S.00    LDR      r3,[r3,r0,LSL #3]
        0x000022ac:    b933        3.      CBNZ     r3,0x22bc ; vQueueAddToRegistry + 28
        0x000022ae:    4b06        .K      LDR      r3,[pc,#24] ; [0x22c8] = 0x1000014c
        0x000022b0:    f8431030    C.0.    STR      r1,[r3,r0,LSL #3]
        0x000022b4:    eb0303c0    ....    ADD      r3,r3,r0,LSL #3
        0x000022b8:    605a        Z`      STR      r2,[r3,#4]
        0x000022ba:    e002        ..      B        0x22c2 ; vQueueAddToRegistry + 34
        0x000022bc:    1c40        @.      ADDS     r0,r0,#1
        0x000022be:    280a        .(      CMP      r0,#0xa
        0x000022c0:    d3f1        ..      BCC      0x22a6 ; vQueueAddToRegistry + 6
        0x000022c2:    bf00        ..      NOP      
        0x000022c4:    4770        pG      BX       lr
    $d
        0x000022c6:    0000        ..      DCW    0
        0x000022c8:    1000014c    L...    DCD    268435788
    $t
    i.vQueueWaitForMessageRestricted
    vQueueWaitForMessageRestricted
        0x000022cc:    b570        p.      PUSH     {r4-r6,lr}
        0x000022ce:    4605        .F      MOV      r5,r0
        0x000022d0:    460e        .F      MOV      r6,r1
        0x000022d2:    462c        ,F      MOV      r4,r5
        0x000022d4:    f7fffea6    ....    BL       vPortEnterCritical ; 0x2024
        0x000022d8:    6c60        `l      LDR      r0,[r4,#0x44]
        0x000022da:    1c40        @.      ADDS     r0,r0,#1
        0x000022dc:    b908        ..      CBNZ     r0,0x22e2 ; vQueueWaitForMessageRestricted + 22
        0x000022de:    2000        .       MOVS     r0,#0
        0x000022e0:    6460        `d      STR      r0,[r4,#0x44]
        0x000022e2:    6ca0        .l      LDR      r0,[r4,#0x48]
        0x000022e4:    1c40        @.      ADDS     r0,r0,#1
        0x000022e6:    b908        ..      CBNZ     r0,0x22ec ; vQueueWaitForMessageRestricted + 32
        0x000022e8:    2000        .       MOVS     r0,#0
        0x000022ea:    64a0        .d      STR      r0,[r4,#0x48]
        0x000022ec:    f7fffeaa    ....    BL       vPortExitCritical ; 0x2044
        0x000022f0:    6ba0        .k      LDR      r0,[r4,#0x38]
        0x000022f2:    b920         .      CBNZ     r0,0x22fe ; vQueueWaitForMessageRestricted + 50
        0x000022f4:    4631        1F      MOV      r1,r6
        0x000022f6:    f1040024    ..$.    ADD      r0,r4,#0x24
        0x000022fa:    f000f833    ..3.    BL       vTaskPlaceOnEventListRestricted ; 0x2364
        0x000022fe:    4620         F      MOV      r0,r4
        0x00002300:    f7fffd14    ....    BL       prvUnlockQueue ; 0x1d2c
        0x00002304:    bd70        p.      POP      {r4-r6,pc}
        0x00002306:    0000        ..      MOVS     r0,r0
    i.vTaskMissedYield
    vTaskMissedYield
        0x00002308:    2001        .       MOVS     r0,#1
        0x0000230a:    4901        .I      LDR      r1,[pc,#4] ; [0x2310] = 0x10000064
        0x0000230c:    6008        .`      STR      r0,[r1,#0]
        0x0000230e:    4770        pG      BX       lr
    $d
        0x00002310:    10000064    d...    DCD    268435556
    $t
    i.vTaskPlaceOnEventList
    vTaskPlaceOnEventList
        0x00002314:    b570        p.      PUSH     {r4-r6,lr}
        0x00002316:    4605        .F      MOV      r5,r0
        0x00002318:    460c        .F      MOV      r4,r1
        0x0000231a:    b90d        ..      CBNZ     r5,0x2320 ; vTaskPlaceOnEventList + 12
        0x0000231c:    bf00        ..      NOP      
        0x0000231e:    e7fe        ..      B        0x231e ; vTaskPlaceOnEventList + 10
        0x00002320:    480d        .H      LDR      r0,[pc,#52] ; [0x2358] = 0x10000040
        0x00002322:    6801        .h      LDR      r1,[r0,#0]
        0x00002324:    3118        .1      ADDS     r1,r1,#0x18
        0x00002326:    4628        (F      MOV      r0,r5
        0x00002328:    f7fffe56    ..V.    BL       vListInsert ; 0x1fd8
        0x0000232c:    480a        .H      LDR      r0,[pc,#40] ; [0x2358] = 0x10000040
        0x0000232e:    6800        .h      LDR      r0,[r0,#0]
        0x00002330:    1d00        ..      ADDS     r0,r0,#4
        0x00002332:    f7fffe14    ....    BL       uxListRemove ; 0x1f5e
        0x00002336:    1c60        `.      ADDS     r0,r4,#1
        0x00002338:    b930        0.      CBNZ     r0,0x2348 ; vTaskPlaceOnEventList + 52
        0x0000233a:    4807        .H      LDR      r0,[pc,#28] ; [0x2358] = 0x10000040
        0x0000233c:    6801        .h      LDR      r1,[r0,#0]
        0x0000233e:    1d09        ..      ADDS     r1,r1,#4
        0x00002340:    4806        .H      LDR      r0,[pc,#24] ; [0x235c] = 0x1000023c
        0x00002342:    f7fffe63    ..c.    BL       vListInsertEnd ; 0x200c
        0x00002346:    e005        ..      B        0x2354 ; vTaskPlaceOnEventList + 64
        0x00002348:    4805        .H      LDR      r0,[pc,#20] ; [0x2360] = 0x10000054
        0x0000234a:    6800        .h      LDR      r0,[r0,#0]
        0x0000234c:    1906        ..      ADDS     r6,r0,r4
        0x0000234e:    4630        0F      MOV      r0,r6
        0x00002350:    f7fff958    ..X.    BL       prvAddCurrentTaskToDelayedList ; 0x1604
        0x00002354:    bd70        p.      POP      {r4-r6,pc}
    $d
        0x00002356:    0000        ..      DCW    0
        0x00002358:    10000040    @...    DCD    268435520
        0x0000235c:    1000023c    <...    DCD    268436028
        0x00002360:    10000054    T...    DCD    268435540
    $t
    i.vTaskPlaceOnEventListRestricted
    vTaskPlaceOnEventListRestricted
        0x00002364:    b570        p.      PUSH     {r4-r6,lr}
        0x00002366:    4604        .F      MOV      r4,r0
        0x00002368:    460d        .F      MOV      r5,r1
        0x0000236a:    b90c        ..      CBNZ     r4,0x2370 ; vTaskPlaceOnEventListRestricted + 12
        0x0000236c:    bf00        ..      NOP      
        0x0000236e:    e7fe        ..      B        0x236e ; vTaskPlaceOnEventListRestricted + 10
        0x00002370:    4808        .H      LDR      r0,[pc,#32] ; [0x2394] = 0x10000040
        0x00002372:    6801        .h      LDR      r1,[r0,#0]
        0x00002374:    3118        .1      ADDS     r1,r1,#0x18
        0x00002376:    4620         F      MOV      r0,r4
        0x00002378:    f7fffe48    ..H.    BL       vListInsertEnd ; 0x200c
        0x0000237c:    4805        .H      LDR      r0,[pc,#20] ; [0x2394] = 0x10000040
        0x0000237e:    6800        .h      LDR      r0,[r0,#0]
        0x00002380:    1d00        ..      ADDS     r0,r0,#4
        0x00002382:    f7fffdec    ....    BL       uxListRemove ; 0x1f5e
        0x00002386:    4804        .H      LDR      r0,[pc,#16] ; [0x2398] = 0x10000054
        0x00002388:    6800        .h      LDR      r0,[r0,#0]
        0x0000238a:    1946        F.      ADDS     r6,r0,r5
        0x0000238c:    4630        0F      MOV      r0,r6
        0x0000238e:    f7fff939    ..9.    BL       prvAddCurrentTaskToDelayedList ; 0x1604
        0x00002392:    bd70        p.      POP      {r4-r6,pc}
    $d
        0x00002394:    10000040    @...    DCD    268435520
        0x00002398:    10000054    T...    DCD    268435540
    $t
    i.vTaskPlaceOnUnorderedEventList
    vTaskPlaceOnUnorderedEventList
        0x0000239c:    e92d41f0    -..A    PUSH     {r4-r8,lr}
        0x000023a0:    4605        .F      MOV      r5,r0
        0x000023a2:    460e        .F      MOV      r6,r1
        0x000023a4:    4614        .F      MOV      r4,r2
        0x000023a6:    b90d        ..      CBNZ     r5,0x23ac ; vTaskPlaceOnUnorderedEventList + 16
        0x000023a8:    bf00        ..      NOP      
        0x000023aa:    e7fe        ..      B        0x23aa ; vTaskPlaceOnUnorderedEventList + 14
        0x000023ac:    4814        .H      LDR      r0,[pc,#80] ; [0x2400] = 0x10000074
        0x000023ae:    6800        .h      LDR      r0,[r0,#0]
        0x000023b0:    b108        ..      CBZ      r0,0x23b6 ; vTaskPlaceOnUnorderedEventList + 26
        0x000023b2:    2001        .       MOVS     r0,#1
        0x000023b4:    e000        ..      B        0x23b8 ; vTaskPlaceOnUnorderedEventList + 28
        0x000023b6:    2000        .       MOVS     r0,#0
        0x000023b8:    b908        ..      CBNZ     r0,0x23be ; vTaskPlaceOnUnorderedEventList + 34
        0x000023ba:    bf00        ..      NOP      
        0x000023bc:    e7fe        ..      B        0x23bc ; vTaskPlaceOnUnorderedEventList + 32
        0x000023be:    f0464000    F..@    ORR      r0,r6,#0x80000000
        0x000023c2:    4910        .I      LDR      r1,[pc,#64] ; [0x2404] = 0x10000040
        0x000023c4:    6809        .h      LDR      r1,[r1,#0]
        0x000023c6:    6188        .a      STR      r0,[r1,#0x18]
        0x000023c8:    480e        .H      LDR      r0,[pc,#56] ; [0x2404] = 0x10000040
        0x000023ca:    6801        .h      LDR      r1,[r0,#0]
        0x000023cc:    3118        .1      ADDS     r1,r1,#0x18
        0x000023ce:    4628        (F      MOV      r0,r5
        0x000023d0:    f7fffe1c    ....    BL       vListInsertEnd ; 0x200c
        0x000023d4:    480b        .H      LDR      r0,[pc,#44] ; [0x2404] = 0x10000040
        0x000023d6:    6800        .h      LDR      r0,[r0,#0]
        0x000023d8:    1d00        ..      ADDS     r0,r0,#4
        0x000023da:    f7fffdc0    ....    BL       uxListRemove ; 0x1f5e
        0x000023de:    1c60        `.      ADDS     r0,r4,#1
        0x000023e0:    b930        0.      CBNZ     r0,0x23f0 ; vTaskPlaceOnUnorderedEventList + 84
        0x000023e2:    4808        .H      LDR      r0,[pc,#32] ; [0x2404] = 0x10000040
        0x000023e4:    6801        .h      LDR      r1,[r0,#0]
        0x000023e6:    1d09        ..      ADDS     r1,r1,#4
        0x000023e8:    4807        .H      LDR      r0,[pc,#28] ; [0x2408] = 0x1000023c
        0x000023ea:    f7fffe0f    ....    BL       vListInsertEnd ; 0x200c
        0x000023ee:    e005        ..      B        0x23fc ; vTaskPlaceOnUnorderedEventList + 96
        0x000023f0:    4806        .H      LDR      r0,[pc,#24] ; [0x240c] = 0x10000054
        0x000023f2:    6800        .h      LDR      r0,[r0,#0]
        0x000023f4:    1907        ..      ADDS     r7,r0,r4
        0x000023f6:    4638        8F      MOV      r0,r7
        0x000023f8:    f7fff904    ....    BL       prvAddCurrentTaskToDelayedList ; 0x1604
        0x000023fc:    e8bd81f0    ....    POP      {r4-r8,pc}
    $d
        0x00002400:    10000074    t...    DCD    268435572
        0x00002404:    10000040    @...    DCD    268435520
        0x00002408:    1000023c    <...    DCD    268436028
        0x0000240c:    10000054    T...    DCD    268435540
    $t
    i.vTaskPriorityDisinherit
    vTaskPriorityDisinherit
        0x00002410:    b570        p.      PUSH     {r4-r6,lr}
        0x00002412:    4605        .F      MOV      r5,r0
        0x00002414:    462c        ,F      MOV      r4,r5
        0x00002416:    b30d        ..      CBZ      r5,0x245c ; vTaskPriorityDisinherit + 76
        0x00002418:    6c61        al      LDR      r1,[r4,#0x44]
        0x0000241a:    6ae0        .j      LDR      r0,[r4,#0x2c]
        0x0000241c:    4288        .B      CMP      r0,r1
        0x0000241e:    d01d        ..      BEQ      0x245c ; vTaskPriorityDisinherit + 76
        0x00002420:    1d20         .      ADDS     r0,r4,#4
        0x00002422:    f7fffd9c    ....    BL       uxListRemove ; 0x1f5e
        0x00002426:    6c60        `l      LDR      r0,[r4,#0x44]
        0x00002428:    62e0        .b      STR      r0,[r4,#0x2c]
        0x0000242a:    69a0        .i      LDR      r0,[r4,#0x18]
        0x0000242c:    f0004000    ...@    AND      r0,r0,#0x80000000
        0x00002430:    b918        ..      CBNZ     r0,0x243a ; vTaskPriorityDisinherit + 42
        0x00002432:    6ae0        .j      LDR      r0,[r4,#0x2c]
        0x00002434:    f1c00004    ....    RSB      r0,r0,#4
        0x00002438:    61a0        .a      STR      r0,[r4,#0x18]
        0x0000243a:    4909        .I      LDR      r1,[pc,#36] ; [0x2460] = 0x10000058
        0x0000243c:    6ae0        .j      LDR      r0,[r4,#0x2c]
        0x0000243e:    6809        .h      LDR      r1,[r1,#0]
        0x00002440:    4288        .B      CMP      r0,r1
        0x00002442:    d902        ..      BLS      0x244a ; vTaskPriorityDisinherit + 58
        0x00002444:    4906        .I      LDR      r1,[pc,#24] ; [0x2460] = 0x10000058
        0x00002446:    6ae0        .j      LDR      r0,[r4,#0x2c]
        0x00002448:    6008        .`      STR      r0,[r1,#0]
        0x0000244a:    6ae1        .j      LDR      r1,[r4,#0x2c]
        0x0000244c:    eb010181    ....    ADD      r1,r1,r1,LSL #2
        0x00002450:    4a04        .J      LDR      r2,[pc,#16] ; [0x2464] = 0x1000019c
        0x00002452:    eb020081    ....    ADD      r0,r2,r1,LSL #2
        0x00002456:    1d21        !.      ADDS     r1,r4,#4
        0x00002458:    f7fffdd8    ....    BL       vListInsertEnd ; 0x200c
        0x0000245c:    bd70        p.      POP      {r4-r6,pc}
    $d
        0x0000245e:    0000        ..      DCW    0
        0x00002460:    10000058    X...    DCD    268435544
        0x00002464:    1000019c    ....    DCD    268435868
    $t
    i.vTaskPriorityInherit
    vTaskPriorityInherit
        0x00002468:    b570        p.      PUSH     {r4-r6,lr}
        0x0000246a:    4605        .F      MOV      r5,r0
        0x0000246c:    462c        ,F      MOV      r4,r5
        0x0000246e:    2d00        .-      CMP      r5,#0
        0x00002470:    d039        9.      BEQ      0x24e6 ; vTaskPriorityInherit + 126
        0x00002472:    491d        .I      LDR      r1,[pc,#116] ; [0x24e8] = 0x10000040
        0x00002474:    6ae0        .j      LDR      r0,[r4,#0x2c]
        0x00002476:    6809        .h      LDR      r1,[r1,#0]
        0x00002478:    6ac9        .j      LDR      r1,[r1,#0x2c]
        0x0000247a:    4288        .B      CMP      r0,r1
        0x0000247c:    d233        3.      BCS      0x24e6 ; vTaskPriorityInherit + 126
        0x0000247e:    69a0        .i      LDR      r0,[r4,#0x18]
        0x00002480:    f0004000    ...@    AND      r0,r0,#0x80000000
        0x00002484:    b928        (.      CBNZ     r0,0x2492 ; vTaskPriorityInherit + 42
        0x00002486:    4818        .H      LDR      r0,[pc,#96] ; [0x24e8] = 0x10000040
        0x00002488:    6800        .h      LDR      r0,[r0,#0]
        0x0000248a:    6ac0        .j      LDR      r0,[r0,#0x2c]
        0x0000248c:    f1c00004    ....    RSB      r0,r0,#4
        0x00002490:    61a0        .a      STR      r0,[r4,#0x18]
        0x00002492:    6ae1        .j      LDR      r1,[r4,#0x2c]
        0x00002494:    eb010181    ....    ADD      r1,r1,r1,LSL #2
        0x00002498:    4a14        .J      LDR      r2,[pc,#80] ; [0x24ec] = 0x1000019c
        0x0000249a:    eb020181    ....    ADD      r1,r2,r1,LSL #2
        0x0000249e:    6960        `i      LDR      r0,[r4,#0x14]
        0x000024a0:    4288        .B      CMP      r0,r1
        0x000024a2:    d101        ..      BNE      0x24a8 ; vTaskPriorityInherit + 64
        0x000024a4:    2001        .       MOVS     r0,#1
        0x000024a6:    e000        ..      B        0x24aa ; vTaskPriorityInherit + 66
        0x000024a8:    2000        .       MOVS     r0,#0
        0x000024aa:    b1c0        ..      CBZ      r0,0x24de ; vTaskPriorityInherit + 118
        0x000024ac:    1d20         .      ADDS     r0,r4,#4
        0x000024ae:    f7fffd56    ..V.    BL       uxListRemove ; 0x1f5e
        0x000024b2:    480d        .H      LDR      r0,[pc,#52] ; [0x24e8] = 0x10000040
        0x000024b4:    6800        .h      LDR      r0,[r0,#0]
        0x000024b6:    6ac0        .j      LDR      r0,[r0,#0x2c]
        0x000024b8:    62e0        .b      STR      r0,[r4,#0x2c]
        0x000024ba:    490d        .I      LDR      r1,[pc,#52] ; [0x24f0] = 0x10000058
        0x000024bc:    6ae0        .j      LDR      r0,[r4,#0x2c]
        0x000024be:    6809        .h      LDR      r1,[r1,#0]
        0x000024c0:    4288        .B      CMP      r0,r1
        0x000024c2:    d902        ..      BLS      0x24ca ; vTaskPriorityInherit + 98
        0x000024c4:    490a        .I      LDR      r1,[pc,#40] ; [0x24f0] = 0x10000058
        0x000024c6:    6ae0        .j      LDR      r0,[r4,#0x2c]
        0x000024c8:    6008        .`      STR      r0,[r1,#0]
        0x000024ca:    6ae1        .j      LDR      r1,[r4,#0x2c]
        0x000024cc:    eb010181    ....    ADD      r1,r1,r1,LSL #2
        0x000024d0:    4a06        .J      LDR      r2,[pc,#24] ; [0x24ec] = 0x1000019c
        0x000024d2:    eb020081    ....    ADD      r0,r2,r1,LSL #2
        0x000024d6:    1d21        !.      ADDS     r1,r4,#4
        0x000024d8:    f7fffd98    ....    BL       vListInsertEnd ; 0x200c
        0x000024dc:    e003        ..      B        0x24e6 ; vTaskPriorityInherit + 126
        0x000024de:    4802        .H      LDR      r0,[pc,#8] ; [0x24e8] = 0x10000040
        0x000024e0:    6800        .h      LDR      r0,[r0,#0]
        0x000024e2:    6ac0        .j      LDR      r0,[r0,#0x2c]
        0x000024e4:    62e0        .b      STR      r0,[r4,#0x2c]
        0x000024e6:    bd70        p.      POP      {r4-r6,pc}
    $d
        0x000024e8:    10000040    @...    DCD    268435520
        0x000024ec:    1000019c    ....    DCD    268435868
        0x000024f0:    10000058    X...    DCD    268435544
    $t
    i.vTaskSetTimeOutState
    vTaskSetTimeOutState
        0x000024f4:    b908        ..      CBNZ     r0,0x24fa ; vTaskSetTimeOutState + 6
        0x000024f6:    bf00        ..      NOP      
        0x000024f8:    e7fe        ..      B        0x24f8 ; vTaskSetTimeOutState + 4
        0x000024fa:    4903        .I      LDR      r1,[pc,#12] ; [0x2508] = 0x10000068
        0x000024fc:    6809        .h      LDR      r1,[r1,#0]
        0x000024fe:    6001        .`      STR      r1,[r0,#0]
        0x00002500:    4902        .I      LDR      r1,[pc,#8] ; [0x250c] = 0x10000054
        0x00002502:    6809        .h      LDR      r1,[r1,#0]
        0x00002504:    6041        A`      STR      r1,[r0,#4]
        0x00002506:    4770        pG      BX       lr
    $d
        0x00002508:    10000068    h...    DCD    268435560
        0x0000250c:    10000054    T...    DCD    268435540
    $t
    i.vTaskStartScheduler
    vTaskStartScheduler
        0x00002510:    b51f        ..      PUSH     {r0-r4,lr}
        0x00002512:    2000        .       MOVS     r0,#0
        0x00002514:    9000        ..      STR      r0,[sp,#0]
        0x00002516:    9001        ..      STR      r0,[sp,#4]
        0x00002518:    9002        ..      STR      r0,[sp,#8]
        0x0000251a:    4603        .F      MOV      r3,r0
        0x0000251c:    f44f7280    O..r    MOV      r2,#0x100
        0x00002520:    a10d        ..      ADR      r1,{pc}+0x38 ; 0x2558
        0x00002522:    9003        ..      STR      r0,[sp,#0xc]
        0x00002524:    480e        .H      LDR      r0,[pc,#56] ; [0x2560] = 0x18b1
        0x00002526:    f000fc67    ..g.    BL       xTaskGenericCreate ; 0x2df8
        0x0000252a:    4604        .F      MOV      r4,r0
        0x0000252c:    2c01        .,      CMP      r4,#1
        0x0000252e:    d102        ..      BNE      0x2536 ; vTaskStartScheduler + 38
        0x00002530:    f000fe9c    ....    BL       xTimerCreateTimerTask ; 0x326c
        0x00002534:    4604        .F      MOV      r4,r0
        0x00002536:    2c01        .,      CMP      r4,#1
        0x00002538:    d10a        ..      BNE      0x2550 ; vTaskStartScheduler + 64
        0x0000253a:    f7fdfe5f    .._.    BL       ulPortSetInterruptMask ; 0x1fc
        0x0000253e:    2001        .       MOVS     r0,#1
        0x00002540:    4908        .I      LDR      r1,[pc,#32] ; [0x2564] = 0x1000005c
        0x00002542:    6008        .`      STR      r0,[r1,#0]
        0x00002544:    2000        .       MOVS     r0,#0
        0x00002546:    4908        .I      LDR      r1,[pc,#32] ; [0x2568] = 0x10000054
        0x00002548:    6008        .`      STR      r0,[r1,#0]
        0x0000254a:    f000f9b3    ....    BL       xPortStartScheduler ; 0x28b4
        0x0000254e:    e002        ..      B        0x2556 ; vTaskStartScheduler + 70
        0x00002550:    b90c        ..      CBNZ     r4,0x2556 ; vTaskStartScheduler + 70
        0x00002552:    bf00        ..      NOP      
        0x00002554:    e7fe        ..      B        0x2554 ; vTaskStartScheduler + 68
        0x00002556:    bd1f        ..      POP      {r0-r4,pc}
    $d
        0x00002558:    454c4449    IDLE    DCD    1162626121
        0x0000255c:    00000000    ....    DCD    0
        0x00002560:    000018b1    ....    DCD    6321
        0x00002564:    1000005c    \...    DCD    268435548
        0x00002568:    10000054    T...    DCD    268435540
    $t
    i.vTaskStepTick
    vTaskStepTick
        0x0000256c:    4909        .I      LDR      r1,[pc,#36] ; [0x2594] = 0x10000054
        0x0000256e:    6809        .h      LDR      r1,[r1,#0]
        0x00002570:    4401        .D      ADD      r1,r1,r0
        0x00002572:    4a09        .J      LDR      r2,[pc,#36] ; [0x2598] = 0x10000070
        0x00002574:    6812        .h      LDR      r2,[r2,#0]
        0x00002576:    4291        .B      CMP      r1,r2
        0x00002578:    d801        ..      BHI      0x257e ; vTaskStepTick + 18
        0x0000257a:    2101        .!      MOVS     r1,#1
        0x0000257c:    e000        ..      B        0x2580 ; vTaskStepTick + 20
        0x0000257e:    2100        .!      MOVS     r1,#0
        0x00002580:    b909        ..      CBNZ     r1,0x2586 ; vTaskStepTick + 26
        0x00002582:    bf00        ..      NOP      
        0x00002584:    e7fe        ..      B        0x2584 ; vTaskStepTick + 24
        0x00002586:    4903        .I      LDR      r1,[pc,#12] ; [0x2594] = 0x10000054
        0x00002588:    6809        .h      LDR      r1,[r1,#0]
        0x0000258a:    4401        .D      ADD      r1,r1,r0
        0x0000258c:    4a01        .J      LDR      r2,[pc,#4] ; [0x2594] = 0x10000054
        0x0000258e:    6011        .`      STR      r1,[r2,#0]
        0x00002590:    4770        pG      BX       lr
    $d
        0x00002592:    0000        ..      DCW    0
        0x00002594:    10000054    T...    DCD    268435540
        0x00002598:    10000070    p...    DCD    268435568
    $t
    i.vTaskSuspend
    vTaskSuspend
        0x0000259c:    b570        p.      PUSH     {r4-r6,lr}
        0x0000259e:    4605        .F      MOV      r5,r0
        0x000025a0:    f7fffd40    ..@.    BL       vPortEnterCritical ; 0x2024
        0x000025a4:    b915        ..      CBNZ     r5,0x25ac ; vTaskSuspend + 16
        0x000025a6:    481d        .H      LDR      r0,[pc,#116] ; [0x261c] = 0x10000040
        0x000025a8:    6800        .h      LDR      r0,[r0,#0]
        0x000025aa:    e000        ..      B        0x25ae ; vTaskSuspend + 18
        0x000025ac:    4628        (F      MOV      r0,r5
        0x000025ae:    4604        .F      MOV      r4,r0
        0x000025b0:    1d20         .      ADDS     r0,r4,#4
        0x000025b2:    f7fffcd4    ....    BL       uxListRemove ; 0x1f5e
        0x000025b6:    6aa0        .j      LDR      r0,[r4,#0x28]
        0x000025b8:    b118        ..      CBZ      r0,0x25c2 ; vTaskSuspend + 38
        0x000025ba:    f1040018    ....    ADD      r0,r4,#0x18
        0x000025be:    f7fffcce    ....    BL       uxListRemove ; 0x1f5e
        0x000025c2:    1d21        !.      ADDS     r1,r4,#4
        0x000025c4:    4816        .H      LDR      r0,[pc,#88] ; [0x2620] = 0x1000023c
        0x000025c6:    f7fffd21    ..!.    BL       vListInsertEnd ; 0x200c
        0x000025ca:    f7fffd3b    ..;.    BL       vPortExitCritical ; 0x2044
        0x000025ce:    4813        .H      LDR      r0,[pc,#76] ; [0x261c] = 0x10000040
        0x000025d0:    6800        .h      LDR      r0,[r0,#0]
        0x000025d2:    4284        .B      CMP      r4,r0
        0x000025d4:    d11b        ..      BNE      0x260e ; vTaskSuspend + 114
        0x000025d6:    4813        .H      LDR      r0,[pc,#76] ; [0x2624] = 0x1000005c
        0x000025d8:    6800        .h      LDR      r0,[r0,#0]
        0x000025da:    b158        X.      CBZ      r0,0x25f4 ; vTaskSuspend + 88
        0x000025dc:    4812        .H      LDR      r0,[pc,#72] ; [0x2628] = 0x10000074
        0x000025de:    6800        .h      LDR      r0,[r0,#0]
        0x000025e0:    b908        ..      CBNZ     r0,0x25e6 ; vTaskSuspend + 74
        0x000025e2:    2001        .       MOVS     r0,#1
        0x000025e4:    e000        ..      B        0x25e8 ; vTaskSuspend + 76
        0x000025e6:    2000        .       MOVS     r0,#0
        0x000025e8:    b908        ..      CBNZ     r0,0x25ee ; vTaskSuspend + 82
        0x000025ea:    bf00        ..      NOP      
        0x000025ec:    e7fe        ..      B        0x25ec ; vTaskSuspend + 80
        0x000025ee:    f7fffe4b    ..K.    BL       vPortYield ; 0x2288
        0x000025f2:    e011        ..      B        0x2618 ; vTaskSuspend + 124
        0x000025f4:    480a        .H      LDR      r0,[pc,#40] ; [0x2620] = 0x1000023c
        0x000025f6:    6800        .h      LDR      r0,[r0,#0]
        0x000025f8:    490c        .I      LDR      r1,[pc,#48] ; [0x262c] = 0x10000050
        0x000025fa:    6809        .h      LDR      r1,[r1,#0]
        0x000025fc:    4288        .B      CMP      r0,r1
        0x000025fe:    d103        ..      BNE      0x2608 ; vTaskSuspend + 108
        0x00002600:    2000        .       MOVS     r0,#0
        0x00002602:    4906        .I      LDR      r1,[pc,#24] ; [0x261c] = 0x10000040
        0x00002604:    6008        .`      STR      r0,[r1,#0]
        0x00002606:    e007        ..      B        0x2618 ; vTaskSuspend + 124
        0x00002608:    f000f81a    ....    BL       vTaskSwitchContext ; 0x2640
        0x0000260c:    e004        ..      B        0x2618 ; vTaskSuspend + 124
        0x0000260e:    4805        .H      LDR      r0,[pc,#20] ; [0x2624] = 0x1000005c
        0x00002610:    6800        .h      LDR      r0,[r0,#0]
        0x00002612:    b108        ..      CBZ      r0,0x2618 ; vTaskSuspend + 124
        0x00002614:    f7fffae8    ....    BL       prvResetNextTaskUnblockTime ; 0x1be8
        0x00002618:    bd70        p.      POP      {r4-r6,pc}
    $d
        0x0000261a:    0000        ..      DCW    0
        0x0000261c:    10000040    @...    DCD    268435520
        0x00002620:    1000023c    <...    DCD    268436028
        0x00002624:    1000005c    \...    DCD    268435548
        0x00002628:    10000074    t...    DCD    268435572
        0x0000262c:    10000050    P...    DCD    268435536
    $t
    i.vTaskSuspendAll
    vTaskSuspendAll
        0x00002630:    4802        .H      LDR      r0,[pc,#8] ; [0x263c] = 0x10000074
        0x00002632:    6800        .h      LDR      r0,[r0,#0]
        0x00002634:    1c40        @.      ADDS     r0,r0,#1
        0x00002636:    4901        .I      LDR      r1,[pc,#4] ; [0x263c] = 0x10000074
        0x00002638:    6008        .`      STR      r0,[r1,#0]
        0x0000263a:    4770        pG      BX       lr
    $d
        0x0000263c:    10000074    t...    DCD    268435572
    $t
    i.vTaskSwitchContext
    vTaskSwitchContext
        0x00002640:    b510        ..      PUSH     {r4,lr}
        0x00002642:    482b        +H      LDR      r0,[pc,#172] ; [0x26f0] = 0x10000074
        0x00002644:    6800        .h      LDR      r0,[r0,#0]
        0x00002646:    b118        ..      CBZ      r0,0x2650 ; vTaskSwitchContext + 16
        0x00002648:    2001        .       MOVS     r0,#1
        0x0000264a:    492a        *I      LDR      r1,[pc,#168] ; [0x26f4] = 0x10000064
        0x0000264c:    6008        .`      STR      r0,[r1,#0]
        0x0000264e:    e04d        M.      B        0x26ec ; vTaskSwitchContext + 172
        0x00002650:    2000        .       MOVS     r0,#0
        0x00002652:    4928        (I      LDR      r1,[pc,#160] ; [0x26f4] = 0x10000064
        0x00002654:    6008        .`      STR      r0,[r1,#0]
        0x00002656:    4828        (H      LDR      r0,[pc,#160] ; [0x26f8] = 0x10000040
        0x00002658:    6800        .h      LDR      r0,[r0,#0]
        0x0000265a:    6800        .h      LDR      r0,[r0,#0]
        0x0000265c:    4926        &I      LDR      r1,[pc,#152] ; [0x26f8] = 0x10000040
        0x0000265e:    6809        .h      LDR      r1,[r1,#0]
        0x00002660:    6b09        .k      LDR      r1,[r1,#0x30]
        0x00002662:    4288        .B      CMP      r0,r1
        0x00002664:    d805        ..      BHI      0x2672 ; vTaskSwitchContext + 50
        0x00002666:    4824        $H      LDR      r0,[pc,#144] ; [0x26f8] = 0x10000040
        0x00002668:    6801        .h      LDR      r1,[r0,#0]
        0x0000266a:    3134        41      ADDS     r1,r1,#0x34
        0x0000266c:    6800        .h      LDR      r0,[r0,#0]
        0x0000266e:    f7fffc99    ....    BL       vApplicationStackOverflowHook ; 0x1fa4
        0x00002672:    4921        !I      LDR      r1,[pc,#132] ; [0x26f8] = 0x10000040
        0x00002674:    6809        .h      LDR      r1,[r1,#0]
        0x00002676:    2214        ."      MOVS     r2,#0x14
        0x00002678:    6b08        .k      LDR      r0,[r1,#0x30]
        0x0000267a:    4920         I      LDR      r1,[pc,#128] ; [0x26fc] = 0x336c
        0x0000267c:    f7fdfddc    ....    BL       memcmp ; 0x238
        0x00002680:    b128        (.      CBZ      r0,0x268e ; vTaskSwitchContext + 78
        0x00002682:    481d        .H      LDR      r0,[pc,#116] ; [0x26f8] = 0x10000040
        0x00002684:    6801        .h      LDR      r1,[r0,#0]
        0x00002686:    3134        41      ADDS     r1,r1,#0x34
        0x00002688:    6800        .h      LDR      r0,[r0,#0]
        0x0000268a:    f7fffc8b    ....    BL       vApplicationStackOverflowHook ; 0x1fa4
        0x0000268e:    e009        ..      B        0x26a4 ; vTaskSwitchContext + 100
        0x00002690:    481b        .H      LDR      r0,[pc,#108] ; [0x2700] = 0x10000058
        0x00002692:    6800        .h      LDR      r0,[r0,#0]
        0x00002694:    b908        ..      CBNZ     r0,0x269a ; vTaskSwitchContext + 90
        0x00002696:    bf00        ..      NOP      
        0x00002698:    e7fe        ..      B        0x2698 ; vTaskSwitchContext + 88
        0x0000269a:    4819        .H      LDR      r0,[pc,#100] ; [0x2700] = 0x10000058
        0x0000269c:    6800        .h      LDR      r0,[r0,#0]
        0x0000269e:    1e40        @.      SUBS     r0,r0,#1
        0x000026a0:    4917        .I      LDR      r1,[pc,#92] ; [0x2700] = 0x10000058
        0x000026a2:    6008        .`      STR      r0,[r1,#0]
        0x000026a4:    4816        .H      LDR      r0,[pc,#88] ; [0x2700] = 0x10000058
        0x000026a6:    6800        .h      LDR      r0,[r0,#0]
        0x000026a8:    eb000080    ....    ADD      r0,r0,r0,LSL #2
        0x000026ac:    4915        .I      LDR      r1,[pc,#84] ; [0x2704] = 0x1000019c
        0x000026ae:    f8510020    Q. .    LDR      r0,[r1,r0,LSL #2]
        0x000026b2:    b908        ..      CBNZ     r0,0x26b8 ; vTaskSwitchContext + 120
        0x000026b4:    2001        .       MOVS     r0,#1
        0x000026b6:    e000        ..      B        0x26ba ; vTaskSwitchContext + 122
        0x000026b8:    2000        .       MOVS     r0,#0
        0x000026ba:    2800        .(      CMP      r0,#0
        0x000026bc:    d1e8        ..      BNE      0x2690 ; vTaskSwitchContext + 80
        0x000026be:    4910        .I      LDR      r1,[pc,#64] ; [0x2700] = 0x10000058
        0x000026c0:    6809        .h      LDR      r1,[r1,#0]
        0x000026c2:    eb010181    ....    ADD      r1,r1,r1,LSL #2
        0x000026c6:    4a0f        .J      LDR      r2,[pc,#60] ; [0x2704] = 0x1000019c
        0x000026c8:    eb020081    ....    ADD      r0,r2,r1,LSL #2
        0x000026cc:    6841        Ah      LDR      r1,[r0,#4]
        0x000026ce:    6849        Ih      LDR      r1,[r1,#4]
        0x000026d0:    6041        A`      STR      r1,[r0,#4]
        0x000026d2:    f1000108    ....    ADD      r1,r0,#8
        0x000026d6:    6842        Bh      LDR      r2,[r0,#4]
        0x000026d8:    428a        .B      CMP      r2,r1
        0x000026da:    d102        ..      BNE      0x26e2 ; vTaskSwitchContext + 162
        0x000026dc:    6841        Ah      LDR      r1,[r0,#4]
        0x000026de:    6849        Ih      LDR      r1,[r1,#4]
        0x000026e0:    6041        A`      STR      r1,[r0,#4]
        0x000026e2:    6841        Ah      LDR      r1,[r0,#4]
        0x000026e4:    68c9        .h      LDR      r1,[r1,#0xc]
        0x000026e6:    4a04        .J      LDR      r2,[pc,#16] ; [0x26f8] = 0x10000040
        0x000026e8:    6011        .`      STR      r1,[r2,#0]
        0x000026ea:    bf00        ..      NOP      
        0x000026ec:    bd10        ..      POP      {r4,pc}
    $d
        0x000026ee:    0000        ..      DCW    0
        0x000026f0:    10000074    t...    DCD    268435572
        0x000026f4:    10000064    d...    DCD    268435556
        0x000026f8:    10000040    @...    DCD    268435520
        0x000026fc:    0000336c    l3..    DCD    13164
        0x00002700:    10000058    X...    DCD    268435544
        0x00002704:    1000019c    ....    DCD    268435868
    $t
    i.xEventGroupCreate
    xEventGroupCreate
        0x00002708:    b510        ..      PUSH     {r4,lr}
        0x0000270a:    2018        .       MOVS     r0,#0x18
        0x0000270c:    f7fffb4e    ..N.    BL       pvPortMalloc ; 0x1dac
        0x00002710:    4604        .F      MOV      r4,r0
        0x00002712:    b124        $.      CBZ      r4,0x271e ; xEventGroupCreate + 22
        0x00002714:    2000        .       MOVS     r0,#0
        0x00002716:    6020         `      STR      r0,[r4,#0]
        0x00002718:    1d20         .      ADDS     r0,r4,#4
        0x0000271a:    f7fffc4d    ..M.    BL       vListInitialise ; 0x1fb8
        0x0000271e:    4620         F      MOV      r0,r4
        0x00002720:    bd10        ..      POP      {r4,pc}
    i.xEventGroupSetBits
    xEventGroupSetBits
        0x00002722:    e92d4ffe    -..O    PUSH     {r1-r11,lr}
        0x00002726:    4682        .F      MOV      r10,r0
        0x00002728:    460f        .F      MOV      r7,r1
        0x0000272a:    2000        .       MOVS     r0,#0
        0x0000272c:    9001        ..      STR      r0,[sp,#4]
        0x0000272e:    4654        TF      MOV      r4,r10
        0x00002730:    9000        ..      STR      r0,[sp,#0]
        0x00002732:    f007407f    ...@    AND      r0,r7,#0xff000000
        0x00002736:    b908        ..      CBNZ     r0,0x273c ; xEventGroupSetBits + 26
        0x00002738:    2001        .       MOVS     r0,#1
        0x0000273a:    e000        ..      B        0x273e ; xEventGroupSetBits + 28
        0x0000273c:    2000        .       MOVS     r0,#0
        0x0000273e:    b908        ..      CBNZ     r0,0x2744 ; xEventGroupSetBits + 34
        0x00002740:    bf00        ..      NOP      
        0x00002742:    e7fe        ..      B        0x2742 ; xEventGroupSetBits + 32
        0x00002744:    f1040804    ....    ADD      r8,r4,#4
        0x00002748:    f1080b08    ....    ADD      r11,r8,#8
        0x0000274c:    f7ffff70    ..p.    BL       vTaskSuspendAll ; 0x2630
        0x00002750:    f8d8600c    ...`    LDR      r6,[r8,#0xc]
        0x00002754:    6820         h      LDR      r0,[r4,#0]
        0x00002756:    4338        8C      ORRS     r0,r0,r7
        0x00002758:    6020         `      STR      r0,[r4,#0]
        0x0000275a:    e026        &.      B        0x27aa ; xEventGroupSetBits + 136
        0x0000275c:    6870        ph      LDR      r0,[r6,#4]
        0x0000275e:    9002        ..      STR      r0,[sp,#8]
        0x00002760:    6835        5h      LDR      r5,[r6,#0]
        0x00002762:    2000        .       MOVS     r0,#0
        0x00002764:    9000        ..      STR      r0,[sp,#0]
        0x00002766:    f005497f    ...I    AND      r9,r5,#0xff000000
        0x0000276a:    f025457f    %..E    BIC      r5,r5,#0xff000000
        0x0000276e:    f0096080    ...`    AND      r0,r9,#0x4000000
        0x00002772:    b928        (.      CBNZ     r0,0x2780 ; xEventGroupSetBits + 94
        0x00002774:    6820         h      LDR      r0,[r4,#0]
        0x00002776:    4028        (@      ANDS     r0,r0,r5
        0x00002778:    b140        @.      CBZ      r0,0x278c ; xEventGroupSetBits + 106
        0x0000277a:    2001        .       MOVS     r0,#1
        0x0000277c:    9000        ..      STR      r0,[sp,#0]
        0x0000277e:    e005        ..      B        0x278c ; xEventGroupSetBits + 106
        0x00002780:    6820         h      LDR      r0,[r4,#0]
        0x00002782:    4028        (@      ANDS     r0,r0,r5
        0x00002784:    42a8        .B      CMP      r0,r5
        0x00002786:    d101        ..      BNE      0x278c ; xEventGroupSetBits + 106
        0x00002788:    2001        .       MOVS     r0,#1
        0x0000278a:    9000        ..      STR      r0,[sp,#0]
        0x0000278c:    9800        ..      LDR      r0,[sp,#0]
        0x0000278e:    b158        X.      CBZ      r0,0x27a8 ; xEventGroupSetBits + 134
        0x00002790:    f0097080    ...p    AND      r0,r9,#0x1000000
        0x00002794:    b110        ..      CBZ      r0,0x279c ; xEventGroupSetBits + 122
        0x00002796:    9801        ..      LDR      r0,[sp,#4]
        0x00002798:    4328        (C      ORRS     r0,r0,r5
        0x0000279a:    9001        ..      STR      r0,[sp,#4]
        0x0000279c:    6820         h      LDR      r0,[r4,#0]
        0x0000279e:    f0407100    @..q    ORR      r1,r0,#0x2000000
        0x000027a2:    4630        0F      MOV      r0,r6
        0x000027a4:    f000fcac    ....    BL       xTaskRemoveFromUnorderedEventList ; 0x3100
        0x000027a8:    9e02        ..      LDR      r6,[sp,#8]
        0x000027aa:    455e        ^E      CMP      r6,r11
        0x000027ac:    d1d6        ..      BNE      0x275c ; xEventGroupSetBits + 58
        0x000027ae:    6820         h      LDR      r0,[r4,#0]
        0x000027b0:    9901        ..      LDR      r1,[sp,#4]
        0x000027b2:    4388        .C      BICS     r0,r0,r1
        0x000027b4:    6020         `      STR      r0,[r4,#0]
        0x000027b6:    f000fce7    ....    BL       xTaskResumeAll ; 0x3188
        0x000027ba:    6820         h      LDR      r0,[r4,#0]
        0x000027bc:    e8bd8ffe    ....    POP      {r1-r11,pc}
    i.xEventGroupWaitBits
    xEventGroupWaitBits
        0x000027c0:    e92d4fff    -..O    PUSH     {r0-r11,lr}
        0x000027c4:    b083        ..      SUB      sp,sp,#0xc
        0x000027c6:    460d        .F      MOV      r5,r1
        0x000027c8:    4617        .F      MOV      r7,r2
        0x000027ca:    4699        .F      MOV      r9,r3
        0x000027cc:    f8dd8040    ..@.    LDR      r8,[sp,#0x40]
        0x000027d0:    9c03        ..      LDR      r4,[sp,#0xc]
        0x000027d2:    f04f0a00    O...    MOV      r10,#0
        0x000027d6:    2000        .       MOVS     r0,#0
        0x000027d8:    9001        ..      STR      r0,[sp,#4]
        0x000027da:    f005407f    ...@    AND      r0,r5,#0xff000000
        0x000027de:    b908        ..      CBNZ     r0,0x27e4 ; xEventGroupWaitBits + 36
        0x000027e0:    2001        .       MOVS     r0,#1
        0x000027e2:    e000        ..      B        0x27e6 ; xEventGroupWaitBits + 38
        0x000027e4:    2000        .       MOVS     r0,#0
        0x000027e6:    b908        ..      CBNZ     r0,0x27ec ; xEventGroupWaitBits + 44
        0x000027e8:    bf00        ..      NOP      
        0x000027ea:    e7fe        ..      B        0x27ea ; xEventGroupWaitBits + 42
        0x000027ec:    b10d        ..      CBZ      r5,0x27f2 ; xEventGroupWaitBits + 50
        0x000027ee:    2001        .       MOVS     r0,#1
        0x000027f0:    e000        ..      B        0x27f4 ; xEventGroupWaitBits + 52
        0x000027f2:    2000        .       MOVS     r0,#0
        0x000027f4:    b908        ..      CBNZ     r0,0x27fa ; xEventGroupWaitBits + 58
        0x000027f6:    bf00        ..      NOP      
        0x000027f8:    e7fe        ..      B        0x27f8 ; xEventGroupWaitBits + 56
        0x000027fa:    f000fb95    ....    BL       xTaskGetSchedulerState ; 0x2f28
        0x000027fe:    b910        ..      CBNZ     r0,0x2806 ; xEventGroupWaitBits + 70
        0x00002800:    f1b80f00    ....    CMP      r8,#0
        0x00002804:    d101        ..      BNE      0x280a ; xEventGroupWaitBits + 74
        0x00002806:    2001        .       MOVS     r0,#1
        0x00002808:    e000        ..      B        0x280c ; xEventGroupWaitBits + 76
        0x0000280a:    2000        .       MOVS     r0,#0
        0x0000280c:    b908        ..      CBNZ     r0,0x2812 ; xEventGroupWaitBits + 82
        0x0000280e:    bf00        ..      NOP      
        0x00002810:    e7fe        ..      B        0x2810 ; xEventGroupWaitBits + 80
        0x00002812:    f7ffff0d    ....    BL       vTaskSuspendAll ; 0x2630
        0x00002816:    6820         h      LDR      r0,[r4,#0]
        0x00002818:    9000        ..      STR      r0,[sp,#0]
        0x0000281a:    464a        JF      MOV      r2,r9
        0x0000281c:    4629        )F      MOV      r1,r5
        0x0000281e:    9800        ..      LDR      r0,[sp,#0]
        0x00002820:    f7fffa68    ..h.    BL       prvTestWaitCondition ; 0x1cf4
        0x00002824:    4683        .F      MOV      r11,r0
        0x00002826:    f1bb0f00    ....    CMP      r11,#0
        0x0000282a:    d007        ..      BEQ      0x283c ; xEventGroupWaitBits + 124
        0x0000282c:    9e00        ..      LDR      r6,[sp,#0]
        0x0000282e:    f04f0800    O...    MOV      r8,#0
        0x00002832:    b1bf        ..      CBZ      r7,0x2864 ; xEventGroupWaitBits + 164
        0x00002834:    6820         h      LDR      r0,[r4,#0]
        0x00002836:    43a8        .C      BICS     r0,r0,r5
        0x00002838:    6020         `      STR      r0,[r4,#0]
        0x0000283a:    e013        ..      B        0x2864 ; xEventGroupWaitBits + 164
        0x0000283c:    f1b80f00    ....    CMP      r8,#0
        0x00002840:    d101        ..      BNE      0x2846 ; xEventGroupWaitBits + 134
        0x00002842:    9e00        ..      LDR      r6,[sp,#0]
        0x00002844:    e00e        ..      B        0x2864 ; xEventGroupWaitBits + 164
        0x00002846:    b10f        ..      CBZ      r7,0x284c ; xEventGroupWaitBits + 140
        0x00002848:    f04a7a80    J..z    ORR      r10,r10,#0x1000000
        0x0000284c:    f1b90f00    ....    CMP      r9,#0
        0x00002850:    d001        ..      BEQ      0x2856 ; xEventGroupWaitBits + 150
        0x00002852:    f04a6a80    J..j    ORR      r10,r10,#0x4000000
        0x00002856:    ea45010a    E...    ORR      r1,r5,r10
        0x0000285a:    4642        BF      MOV      r2,r8
        0x0000285c:    1d20         .      ADDS     r0,r4,#4
        0x0000285e:    f7fffd9d    ....    BL       vTaskPlaceOnUnorderedEventList ; 0x239c
        0x00002862:    2600        .&      MOVS     r6,#0
        0x00002864:    f000fc90    ....    BL       xTaskResumeAll ; 0x3188
        0x00002868:    9002        ..      STR      r0,[sp,#8]
        0x0000286a:    f1b80f00    ....    CMP      r8,#0
        0x0000286e:    d01d        ..      BEQ      0x28ac ; xEventGroupWaitBits + 236
        0x00002870:    9802        ..      LDR      r0,[sp,#8]
        0x00002872:    b908        ..      CBNZ     r0,0x2878 ; xEventGroupWaitBits + 184
        0x00002874:    f7fffd08    ....    BL       vPortYield ; 0x2288
        0x00002878:    f7fffb86    ....    BL       uxTaskResetEventItemValue ; 0x1f88
        0x0000287c:    4606        .F      MOV      r6,r0
        0x0000287e:    f0067000    ...p    AND      r0,r6,#0x2000000
        0x00002882:    b988        ..      CBNZ     r0,0x28a8 ; xEventGroupWaitBits + 232
        0x00002884:    f7fffbce    ....    BL       vPortEnterCritical ; 0x2024
        0x00002888:    6826        &h      LDR      r6,[r4,#0]
        0x0000288a:    464a        JF      MOV      r2,r9
        0x0000288c:    4629        )F      MOV      r1,r5
        0x0000288e:    4630        0F      MOV      r0,r6
        0x00002890:    f7fffa30    ..0.    BL       prvTestWaitCondition ; 0x1cf4
        0x00002894:    b118        ..      CBZ      r0,0x289e ; xEventGroupWaitBits + 222
        0x00002896:    b117        ..      CBZ      r7,0x289e ; xEventGroupWaitBits + 222
        0x00002898:    6820         h      LDR      r0,[r4,#0]
        0x0000289a:    43a8        .C      BICS     r0,r0,r5
        0x0000289c:    6020         `      STR      r0,[r4,#0]
        0x0000289e:    f7fffbd1    ....    BL       vPortExitCritical ; 0x2044
        0x000028a2:    2000        .       MOVS     r0,#0
        0x000028a4:    9001        ..      STR      r0,[sp,#4]
        0x000028a6:    e001        ..      B        0x28ac ; xEventGroupWaitBits + 236
        0x000028a8:    f026467f    &..F    BIC      r6,r6,#0xff000000
        0x000028ac:    4630        0F      MOV      r0,r6
        0x000028ae:    b007        ..      ADD      sp,sp,#0x1c
        0x000028b0:    e8bd8ff0    ....    POP      {r4-r11,pc}
    i.xPortStartScheduler
    xPortStartScheduler
        0x000028b4:    b51c        ..      PUSH     {r2-r4,lr}
        0x000028b6:    4826        &H      LDR      r0,[pc,#152] ; [0x2950] = 0xe000e400
        0x000028b8:    4601        .F      MOV      r1,r0
        0x000028ba:    7809        .x      LDRB     r1,[r1,#0]
        0x000028bc:    9101        ..      STR      r1,[sp,#4]
        0x000028be:    21ff        .!      MOVS     r1,#0xff
        0x000028c0:    4602        .F      MOV      r2,r0
        0x000028c2:    7011        .p      STRB     r1,[r2,#0]
        0x000028c4:    4601        .F      MOV      r1,r0
        0x000028c6:    7809        .x      LDRB     r1,[r1,#0]
        0x000028c8:    9100        ..      STR      r1,[sp,#0]
        0x000028ca:    f89d1000    ....    LDRB     r1,[sp,#0]
        0x000028ce:    f0010180    ....    AND      r1,r1,#0x80
        0x000028d2:    4a20         J      LDR      r2,[pc,#128] ; [0x2954] = 0x10000098
        0x000028d4:    7011        .p      STRB     r1,[r2,#0]
        0x000028d6:    2107        .!      MOVS     r1,#7
        0x000028d8:    4a1f        .J      LDR      r2,[pc,#124] ; [0x2958] = 0x1000009c
        0x000028da:    6011        .`      STR      r1,[r2,#0]
        0x000028dc:    e009        ..      B        0x28f2 ; xPortStartScheduler + 62
        0x000028de:    491e        .I      LDR      r1,[pc,#120] ; [0x2958] = 0x1000009c
        0x000028e0:    6809        .h      LDR      r1,[r1,#0]
        0x000028e2:    1e49        I.      SUBS     r1,r1,#1
        0x000028e4:    4a1c        .J      LDR      r2,[pc,#112] ; [0x2958] = 0x1000009c
        0x000028e6:    6011        .`      STR      r1,[r2,#0]
        0x000028e8:    f89d1000    ....    LDRB     r1,[sp,#0]
        0x000028ec:    0649        I.      LSLS     r1,r1,#25
        0x000028ee:    0e09        ..      LSRS     r1,r1,#24
        0x000028f0:    9100        ..      STR      r1,[sp,#0]
        0x000028f2:    f89d1000    ....    LDRB     r1,[sp,#0]
        0x000028f6:    f0010180    ....    AND      r1,r1,#0x80
        0x000028fa:    2980        .)      CMP      r1,#0x80
        0x000028fc:    d0ef        ..      BEQ      0x28de ; xPortStartScheduler + 42
        0x000028fe:    4916        .I      LDR      r1,[pc,#88] ; [0x2958] = 0x1000009c
        0x00002900:    6809        .h      LDR      r1,[r1,#0]
        0x00002902:    0209        ..      LSLS     r1,r1,#8
        0x00002904:    4a14        .J      LDR      r2,[pc,#80] ; [0x2958] = 0x1000009c
        0x00002906:    6011        .`      STR      r1,[r2,#0]
        0x00002908:    4611        .F      MOV      r1,r2
        0x0000290a:    8809        ..      LDRH     r1,[r1,#0]
        0x0000290c:    f40161e0    ...a    AND      r1,r1,#0x700
        0x00002910:    6011        .`      STR      r1,[r2,#0]
        0x00002912:    4a0f        .J      LDR      r2,[pc,#60] ; [0x2950] = 0xe000e400
        0x00002914:    9901        ..      LDR      r1,[sp,#4]
        0x00002916:    7011        .p      STRB     r1,[r2,#0]
        0x00002918:    4810        .H      LDR      r0,[pc,#64] ; [0x295c] = 0xe000ed20
        0x0000291a:    6800        .h      LDR      r0,[r0,#0]
        0x0000291c:    f4400060    @.`.    ORR      r0,r0,#0xe00000
        0x00002920:    490e        .I      LDR      r1,[pc,#56] ; [0x295c] = 0xe000ed20
        0x00002922:    6008        .`      STR      r0,[r1,#0]
        0x00002924:    4608        .F      MOV      r0,r1
        0x00002926:    6800        .h      LDR      r0,[r0,#0]
        0x00002928:    f0404060    @.`@    ORR      r0,r0,#0xe0000000
        0x0000292c:    6008        .`      STR      r0,[r1,#0]
        0x0000292e:    f7fffbbd    ....    BL       vPortSetupTimerInterrupt ; 0x20ac
        0x00002932:    2000        .       MOVS     r0,#0
        0x00002934:    490a        .I      LDR      r1,[pc,#40] ; [0x2960] = 0x10000088
        0x00002936:    6008        .`      STR      r0,[r1,#0]
        0x00002938:    f7fdfc2a    ..*.    BL       __asm___6_port_c_39a90d8d__prvEnableVFP ; 0x190
        0x0000293c:    4809        .H      LDR      r0,[pc,#36] ; [0x2964] = 0xe000ef34
        0x0000293e:    6800        .h      LDR      r0,[r0,#0]
        0x00002940:    f0404040    @.@@    ORR      r0,r0,#0xc0000000
        0x00002944:    4907        .I      LDR      r1,[pc,#28] ; [0x2964] = 0xe000ef34
        0x00002946:    6008        .`      STR      r0,[r1,#0]
        0x00002948:    f7fdfc14    ....    BL       __asm___6_port_c_39a90d8d__prvStartFirstTask ; 0x174
        0x0000294c:    2000        .       MOVS     r0,#0
        0x0000294e:    bd1c        ..      POP      {r2-r4,pc}
    $d
        0x00002950:    e000e400    ....    DCD    3758154752
        0x00002954:    10000098    ....    DCD    268435608
        0x00002958:    1000009c    ....    DCD    268435612
        0x0000295c:    e000ed20     ...    DCD    3758157088
        0x00002960:    10000088    ....    DCD    268435592
        0x00002964:    e000ef34    4...    DCD    3758157620
    $t
    i.xQueueCreateMutex
    xQueueCreateMutex
        0x00002968:    b570        p.      PUSH     {r4-r6,lr}
        0x0000296a:    4605        .F      MOV      r5,r0
        0x0000296c:    204c        L       MOVS     r0,#0x4c
        0x0000296e:    f7fffa1d    ....    BL       pvPortMalloc ; 0x1dac
        0x00002972:    4604        .F      MOV      r4,r0
        0x00002974:    b1d4        ..      CBZ      r4,0x29ac ; xQueueCreateMutex + 68
        0x00002976:    2000        .       MOVS     r0,#0
        0x00002978:    6060        ``      STR      r0,[r4,#4]
        0x0000297a:    6020         `      STR      r0,[r4,#0]
        0x0000297c:    60a0        .`      STR      r0,[r4,#8]
        0x0000297e:    60e0        .`      STR      r0,[r4,#0xc]
        0x00002980:    63a0        .c      STR      r0,[r4,#0x38]
        0x00002982:    2001        .       MOVS     r0,#1
        0x00002984:    63e0        .c      STR      r0,[r4,#0x3c]
        0x00002986:    2000        .       MOVS     r0,#0
        0x00002988:    6420         d      STR      r0,[r4,#0x40]
        0x0000298a:    1e40        @.      SUBS     r0,r0,#1
        0x0000298c:    6460        `d      STR      r0,[r4,#0x44]
        0x0000298e:    64a0        .d      STR      r0,[r4,#0x48]
        0x00002990:    f1040010    ....    ADD      r0,r4,#0x10
        0x00002994:    f7fffb10    ....    BL       vListInitialise ; 0x1fb8
        0x00002998:    f1040024    ..$.    ADD      r0,r4,#0x24
        0x0000299c:    f7fffb0c    ....    BL       vListInitialise ; 0x1fb8
        0x000029a0:    2300        .#      MOVS     r3,#0
        0x000029a2:    461a        .F      MOV      r2,r3
        0x000029a4:    4619        .F      MOV      r1,r3
        0x000029a6:    4620         F      MOV      r0,r4
        0x000029a8:    f000f90f    ....    BL       xQueueGenericSend ; 0x2bca
        0x000029ac:    b90c        ..      CBNZ     r4,0x29b2 ; xQueueCreateMutex + 74
        0x000029ae:    bf00        ..      NOP      
        0x000029b0:    e7fe        ..      B        0x29b0 ; xQueueCreateMutex + 72
        0x000029b2:    4620         F      MOV      r0,r4
        0x000029b4:    bd70        p.      POP      {r4-r6,pc}
    i.xQueueGenericCreate
    xQueueGenericCreate
        0x000029b6:    e92d47f0    -..G    PUSH     {r4-r10,lr}
        0x000029ba:    4605        .F      MOV      r5,r0
        0x000029bc:    460e        .F      MOV      r6,r1
        0x000029be:    4691        .F      MOV      r9,r2
        0x000029c0:    f04f0800    O...    MOV      r8,#0
        0x000029c4:    b1c5        ..      CBZ      r5,0x29f8 ; xQueueGenericCreate + 66
        0x000029c6:    204c        L       MOVS     r0,#0x4c
        0x000029c8:    f7fff9f0    ....    BL       pvPortMalloc ; 0x1dac
        0x000029cc:    4604        .F      MOV      r4,r0
        0x000029ce:    b19c        ..      CBZ      r4,0x29f8 ; xQueueGenericCreate + 66
        0x000029d0:    fb05f006    ....    MUL      r0,r5,r6
        0x000029d4:    1c47        G.      ADDS     r7,r0,#1
        0x000029d6:    4638        8F      MOV      r0,r7
        0x000029d8:    f7fff9e8    ....    BL       pvPortMalloc ; 0x1dac
        0x000029dc:    6020         `      STR      r0,[r4,#0]
        0x000029de:    6820         h      LDR      r0,[r4,#0]
        0x000029e0:    b138        8.      CBZ      r0,0x29f2 ; xQueueGenericCreate + 60
        0x000029e2:    63e5        .c      STR      r5,[r4,#0x3c]
        0x000029e4:    6426        &d      STR      r6,[r4,#0x40]
        0x000029e6:    2101        .!      MOVS     r1,#1
        0x000029e8:    4620         F      MOV      r0,r4
        0x000029ea:    f000f8b4    ....    BL       xQueueGenericReset ; 0x2b56
        0x000029ee:    46a0        .F      MOV      r8,r4
        0x000029f0:    e002        ..      B        0x29f8 ; xQueueGenericCreate + 66
        0x000029f2:    4620         F      MOV      r0,r4
        0x000029f4:    f7fffb3a    ..:.    BL       vPortFree ; 0x206c
        0x000029f8:    f1b80f00    ....    CMP      r8,#0
        0x000029fc:    d101        ..      BNE      0x2a02 ; xQueueGenericCreate + 76
        0x000029fe:    bf00        ..      NOP      
        0x00002a00:    e7fe        ..      B        0x2a00 ; xQueueGenericCreate + 74
        0x00002a02:    4640        @F      MOV      r0,r8
        0x00002a04:    e8bd87f0    ....    POP      {r4-r10,pc}
    i.xQueueGenericReceive
    xQueueGenericReceive
        0x00002a08:    e92d43ff    -..C    PUSH     {r0-r9,lr}
        0x00002a0c:    b083        ..      SUB      sp,sp,#0xc
        0x00002a0e:    4605        .F      MOV      r5,r0
        0x00002a10:    460e        .F      MOV      r6,r1
        0x00002a12:    461f        .F      MOV      r7,r3
        0x00002a14:    f04f0900    O...    MOV      r9,#0
        0x00002a18:    462c        ,F      MOV      r4,r5
        0x00002a1a:    b90c        ..      CBNZ     r4,0x2a20 ; xQueueGenericReceive + 24
        0x00002a1c:    bf00        ..      NOP      
        0x00002a1e:    e7fe        ..      B        0x2a1e ; xQueueGenericReceive + 22
        0x00002a20:    b90e        ..      CBNZ     r6,0x2a26 ; xQueueGenericReceive + 30
        0x00002a22:    6c20         l      LDR      r0,[r4,#0x40]
        0x00002a24:    b908        ..      CBNZ     r0,0x2a2a ; xQueueGenericReceive + 34
        0x00002a26:    2001        .       MOVS     r0,#1
        0x00002a28:    e000        ..      B        0x2a2c ; xQueueGenericReceive + 36
        0x00002a2a:    2000        .       MOVS     r0,#0
        0x00002a2c:    b908        ..      CBNZ     r0,0x2a32 ; xQueueGenericReceive + 42
        0x00002a2e:    bf00        ..      NOP      
        0x00002a30:    e7fe        ..      B        0x2a30 ; xQueueGenericReceive + 40
        0x00002a32:    f000fa79    ..y.    BL       xTaskGetSchedulerState ; 0x2f28
        0x00002a36:    b908        ..      CBNZ     r0,0x2a3c ; xQueueGenericReceive + 52
        0x00002a38:    9805        ..      LDR      r0,[sp,#0x14]
        0x00002a3a:    b908        ..      CBNZ     r0,0x2a40 ; xQueueGenericReceive + 56
        0x00002a3c:    2001        .       MOVS     r0,#1
        0x00002a3e:    e000        ..      B        0x2a42 ; xQueueGenericReceive + 58
        0x00002a40:    2000        .       MOVS     r0,#0
        0x00002a42:    b908        ..      CBNZ     r0,0x2a48 ; xQueueGenericReceive + 64
        0x00002a44:    bf00        ..      NOP      
        0x00002a46:    e7fe        ..      B        0x2a46 ; xQueueGenericReceive + 62
        0x00002a48:    bf00        ..      NOP      
        0x00002a4a:    f7fffaeb    ....    BL       vPortEnterCritical ; 0x2024
        0x00002a4e:    6ba0        .k      LDR      r0,[r4,#0x38]
        0x00002a50:    b390        ..      CBZ      r0,0x2ab8 ; xQueueGenericReceive + 176
        0x00002a52:    f8d4800c    ....    LDR      r8,[r4,#0xc]
        0x00002a56:    4631        1F      MOV      r1,r6
        0x00002a58:    4620         F      MOV      r0,r4
        0x00002a5a:    f7fefe85    ....    BL       prvCopyDataFromQueue ; 0x1768
        0x00002a5e:    b9b7        ..      CBNZ     r7,0x2a8e ; xQueueGenericReceive + 134
        0x00002a60:    6ba0        .k      LDR      r0,[r4,#0x38]
        0x00002a62:    1e40        @.      SUBS     r0,r0,#1
        0x00002a64:    63a0        .c      STR      r0,[r4,#0x38]
        0x00002a66:    6820         h      LDR      r0,[r4,#0]
        0x00002a68:    b910        ..      CBNZ     r0,0x2a70 ; xQueueGenericReceive + 104
        0x00002a6a:    f000fa57    ..W.    BL       xTaskGetCurrentTaskHandle ; 0x2f1c
        0x00002a6e:    6060        ``      STR      r0,[r4,#4]
        0x00002a70:    6920         i      LDR      r0,[r4,#0x10]
        0x00002a72:    b908        ..      CBNZ     r0,0x2a78 ; xQueueGenericReceive + 112
        0x00002a74:    2001        .       MOVS     r0,#1
        0x00002a76:    e000        ..      B        0x2a7a ; xQueueGenericReceive + 114
        0x00002a78:    2000        .       MOVS     r0,#0
        0x00002a7a:    b9b8        ..      CBNZ     r0,0x2aac ; xQueueGenericReceive + 164
        0x00002a7c:    f1040010    ....    ADD      r0,r4,#0x10
        0x00002a80:    f000fafc    ....    BL       xTaskRemoveFromEventList ; 0x307c
        0x00002a84:    2801        .(      CMP      r0,#1
        0x00002a86:    d111        ..      BNE      0x2aac ; xQueueGenericReceive + 164
        0x00002a88:    f7fffbfe    ....    BL       vPortYield ; 0x2288
        0x00002a8c:    e00e        ..      B        0x2aac ; xQueueGenericReceive + 164
        0x00002a8e:    f8c4800c    ....    STR      r8,[r4,#0xc]
        0x00002a92:    6a60        `j      LDR      r0,[r4,#0x24]
        0x00002a94:    b908        ..      CBNZ     r0,0x2a9a ; xQueueGenericReceive + 146
        0x00002a96:    2001        .       MOVS     r0,#1
        0x00002a98:    e000        ..      B        0x2a9c ; xQueueGenericReceive + 148
        0x00002a9a:    2000        .       MOVS     r0,#0
        0x00002a9c:    b930        0.      CBNZ     r0,0x2aac ; xQueueGenericReceive + 164
        0x00002a9e:    f1040024    ..$.    ADD      r0,r4,#0x24
        0x00002aa2:    f000faeb    ....    BL       xTaskRemoveFromEventList ; 0x307c
        0x00002aa6:    b108        ..      CBZ      r0,0x2aac ; xQueueGenericReceive + 164
        0x00002aa8:    f7fffbee    ....    BL       vPortYield ; 0x2288
        0x00002aac:    f7fffaca    ....    BL       vPortExitCritical ; 0x2044
        0x00002ab0:    2001        .       MOVS     r0,#1
        0x00002ab2:    b007        ..      ADD      sp,sp,#0x1c
        0x00002ab4:    e8bd83f0    ....    POP      {r4-r9,pc}
        0x00002ab8:    e7ff        ..      B        0x2aba ; xQueueGenericReceive + 178
        0x00002aba:    9805        ..      LDR      r0,[sp,#0x14]
        0x00002abc:    b918        ..      CBNZ     r0,0x2ac6 ; xQueueGenericReceive + 190
        0x00002abe:    f7fffac1    ....    BL       vPortExitCritical ; 0x2044
        0x00002ac2:    2000        .       MOVS     r0,#0
        0x00002ac4:    e7f5        ..      B        0x2ab2 ; xQueueGenericReceive + 170
        0x00002ac6:    f1b90f00    ....    CMP      r9,#0
        0x00002aca:    d104        ..      BNE      0x2ad6 ; xQueueGenericReceive + 206
        0x00002acc:    a801        ..      ADD      r0,sp,#4
        0x00002ace:    f7fffd11    ....    BL       vTaskSetTimeOutState ; 0x24f4
        0x00002ad2:    f04f0901    O...    MOV      r9,#1
        0x00002ad6:    f7fffab5    ....    BL       vPortExitCritical ; 0x2044
        0x00002ada:    f7fffda9    ....    BL       vTaskSuspendAll ; 0x2630
        0x00002ade:    f7fffaa1    ....    BL       vPortEnterCritical ; 0x2024
        0x00002ae2:    6c60        `l      LDR      r0,[r4,#0x44]
        0x00002ae4:    1c40        @.      ADDS     r0,r0,#1
        0x00002ae6:    b908        ..      CBNZ     r0,0x2aec ; xQueueGenericReceive + 228
        0x00002ae8:    2000        .       MOVS     r0,#0
        0x00002aea:    6460        `d      STR      r0,[r4,#0x44]
        0x00002aec:    6ca0        .l      LDR      r0,[r4,#0x48]
        0x00002aee:    1c40        @.      ADDS     r0,r0,#1
        0x00002af0:    b908        ..      CBNZ     r0,0x2af6 ; xQueueGenericReceive + 238
        0x00002af2:    2000        .       MOVS     r0,#0
        0x00002af4:    64a0        .d      STR      r0,[r4,#0x48]
        0x00002af6:    f7fffaa5    ....    BL       vPortExitCritical ; 0x2044
        0x00002afa:    a905        ..      ADD      r1,sp,#0x14
        0x00002afc:    a801        ..      ADD      r0,sp,#4
        0x00002afe:    f000f947    ..G.    BL       xTaskCheckForTimeOut ; 0x2d90
        0x00002b02:    bb08        ..      CBNZ     r0,0x2b48 ; xQueueGenericReceive + 320
        0x00002b04:    4620         F      MOV      r0,r4
        0x00002b06:    f7feff8d    ....    BL       prvIsQueueEmpty ; 0x1a24
        0x00002b0a:    b1b8        ..      CBZ      r0,0x2b3c ; xQueueGenericReceive + 308
        0x00002b0c:    6820         h      LDR      r0,[r4,#0]
        0x00002b0e:    b930        0.      CBNZ     r0,0x2b1e ; xQueueGenericReceive + 278
        0x00002b10:    f7fffa88    ....    BL       vPortEnterCritical ; 0x2024
        0x00002b14:    6860        `h      LDR      r0,[r4,#4]
        0x00002b16:    f7fffca7    ....    BL       vTaskPriorityInherit ; 0x2468
        0x00002b1a:    f7fffa93    ....    BL       vPortExitCritical ; 0x2044
        0x00002b1e:    f1040024    ..$.    ADD      r0,r4,#0x24
        0x00002b22:    9905        ..      LDR      r1,[sp,#0x14]
        0x00002b24:    f7fffbf6    ....    BL       vTaskPlaceOnEventList ; 0x2314
        0x00002b28:    4620         F      MOV      r0,r4
        0x00002b2a:    f7fff8ff    ....    BL       prvUnlockQueue ; 0x1d2c
        0x00002b2e:    f000fb2b    ..+.    BL       xTaskResumeAll ; 0x3188
        0x00002b32:    2800        .(      CMP      r0,#0
        0x00002b34:    d189        ..      BNE      0x2a4a ; xQueueGenericReceive + 66
        0x00002b36:    f7fffba7    ....    BL       vPortYield ; 0x2288
        0x00002b3a:    e786        ..      B        0x2a4a ; xQueueGenericReceive + 66
        0x00002b3c:    4620         F      MOV      r0,r4
        0x00002b3e:    f7fff8f5    ....    BL       prvUnlockQueue ; 0x1d2c
        0x00002b42:    f000fb21    ..!.    BL       xTaskResumeAll ; 0x3188
        0x00002b46:    e780        ..      B        0x2a4a ; xQueueGenericReceive + 66
        0x00002b48:    4620         F      MOV      r0,r4
        0x00002b4a:    f7fff8ef    ....    BL       prvUnlockQueue ; 0x1d2c
        0x00002b4e:    f000fb1b    ....    BL       xTaskResumeAll ; 0x3188
        0x00002b52:    2000        .       MOVS     r0,#0
        0x00002b54:    e7ad        ..      B        0x2ab2 ; xQueueGenericReceive + 170
    i.xQueueGenericReset
    xQueueGenericReset
        0x00002b56:    b570        p.      PUSH     {r4-r6,lr}
        0x00002b58:    4605        .F      MOV      r5,r0
        0x00002b5a:    460e        .F      MOV      r6,r1
        0x00002b5c:    462c        ,F      MOV      r4,r5
        0x00002b5e:    b90c        ..      CBNZ     r4,0x2b64 ; xQueueGenericReset + 14
        0x00002b60:    bf00        ..      NOP      
        0x00002b62:    e7fe        ..      B        0x2b62 ; xQueueGenericReset + 12
        0x00002b64:    f7fffa5e    ..^.    BL       vPortEnterCritical ; 0x2024
        0x00002b68:    e9d4120f    ....    LDRD     r1,r2,[r4,#0x3c]
        0x00002b6c:    6820         h      LDR      r0,[r4,#0]
        0x00002b6e:    fb010002    ....    MLA      r0,r1,r2,r0
        0x00002b72:    6060        ``      STR      r0,[r4,#4]
        0x00002b74:    2000        .       MOVS     r0,#0
        0x00002b76:    63a0        .c      STR      r0,[r4,#0x38]
        0x00002b78:    6820         h      LDR      r0,[r4,#0]
        0x00002b7a:    60a0        .`      STR      r0,[r4,#8]
        0x00002b7c:    6be0        .k      LDR      r0,[r4,#0x3c]
        0x00002b7e:    1e40        @.      SUBS     r0,r0,#1
        0x00002b80:    6c22        "l      LDR      r2,[r4,#0x40]
        0x00002b82:    6821        !h      LDR      r1,[r4,#0]
        0x00002b84:    fb001002    ....    MLA      r0,r0,r2,r1
        0x00002b88:    60e0        .`      STR      r0,[r4,#0xc]
        0x00002b8a:    f04f30ff    O..0    MOV      r0,#0xffffffff
        0x00002b8e:    6460        `d      STR      r0,[r4,#0x44]
        0x00002b90:    64a0        .d      STR      r0,[r4,#0x48]
        0x00002b92:    b976        v.      CBNZ     r6,0x2bb2 ; xQueueGenericReset + 92
        0x00002b94:    6920         i      LDR      r0,[r4,#0x10]
        0x00002b96:    b908        ..      CBNZ     r0,0x2b9c ; xQueueGenericReset + 70
        0x00002b98:    2001        .       MOVS     r0,#1
        0x00002b9a:    e000        ..      B        0x2b9e ; xQueueGenericReset + 72
        0x00002b9c:    2000        .       MOVS     r0,#0
        0x00002b9e:    b980        ..      CBNZ     r0,0x2bc2 ; xQueueGenericReset + 108
        0x00002ba0:    f1040010    ....    ADD      r0,r4,#0x10
        0x00002ba4:    f000fa6a    ..j.    BL       xTaskRemoveFromEventList ; 0x307c
        0x00002ba8:    2801        .(      CMP      r0,#1
        0x00002baa:    d10a        ..      BNE      0x2bc2 ; xQueueGenericReset + 108
        0x00002bac:    f7fffb6c    ..l.    BL       vPortYield ; 0x2288
        0x00002bb0:    e007        ..      B        0x2bc2 ; xQueueGenericReset + 108
        0x00002bb2:    f1040010    ....    ADD      r0,r4,#0x10
        0x00002bb6:    f7fff9ff    ....    BL       vListInitialise ; 0x1fb8
        0x00002bba:    f1040024    ..$.    ADD      r0,r4,#0x24
        0x00002bbe:    f7fff9fb    ....    BL       vListInitialise ; 0x1fb8
        0x00002bc2:    f7fffa3f    ..?.    BL       vPortExitCritical ; 0x2044
        0x00002bc6:    2001        .       MOVS     r0,#1
        0x00002bc8:    bd70        p.      POP      {r4-r6,pc}
    i.xQueueGenericSend
    xQueueGenericSend
        0x00002bca:    e92d41ff    -..A    PUSH     {r0-r8,lr}
        0x00002bce:    b082        ..      SUB      sp,sp,#8
        0x00002bd0:    4606        .F      MOV      r6,r0
        0x00002bd2:    460f        .F      MOV      r7,r1
        0x00002bd4:    461d        .F      MOV      r5,r3
        0x00002bd6:    f04f0800    O...    MOV      r8,#0
        0x00002bda:    4634        4F      MOV      r4,r6
        0x00002bdc:    b90c        ..      CBNZ     r4,0x2be2 ; xQueueGenericSend + 24
        0x00002bde:    bf00        ..      NOP      
        0x00002be0:    e7fe        ..      B        0x2be0 ; xQueueGenericSend + 22
        0x00002be2:    b90f        ..      CBNZ     r7,0x2be8 ; xQueueGenericSend + 30
        0x00002be4:    6c20         l      LDR      r0,[r4,#0x40]
        0x00002be6:    b908        ..      CBNZ     r0,0x2bec ; xQueueGenericSend + 34
        0x00002be8:    2001        .       MOVS     r0,#1
        0x00002bea:    e000        ..      B        0x2bee ; xQueueGenericSend + 36
        0x00002bec:    2000        .       MOVS     r0,#0
        0x00002bee:    b908        ..      CBNZ     r0,0x2bf4 ; xQueueGenericSend + 42
        0x00002bf0:    bf00        ..      NOP      
        0x00002bf2:    e7fe        ..      B        0x2bf2 ; xQueueGenericSend + 40
        0x00002bf4:    2d02        .-      CMP      r5,#2
        0x00002bf6:    d102        ..      BNE      0x2bfe ; xQueueGenericSend + 52
        0x00002bf8:    6be0        .k      LDR      r0,[r4,#0x3c]
        0x00002bfa:    2801        .(      CMP      r0,#1
        0x00002bfc:    d101        ..      BNE      0x2c02 ; xQueueGenericSend + 56
        0x00002bfe:    2001        .       MOVS     r0,#1
        0x00002c00:    e000        ..      B        0x2c04 ; xQueueGenericSend + 58
        0x00002c02:    2000        .       MOVS     r0,#0
        0x00002c04:    b908        ..      CBNZ     r0,0x2c0a ; xQueueGenericSend + 64
        0x00002c06:    bf00        ..      NOP      
        0x00002c08:    e7fe        ..      B        0x2c08 ; xQueueGenericSend + 62
        0x00002c0a:    f000f98d    ....    BL       xTaskGetSchedulerState ; 0x2f28
        0x00002c0e:    b908        ..      CBNZ     r0,0x2c14 ; xQueueGenericSend + 74
        0x00002c10:    9804        ..      LDR      r0,[sp,#0x10]
        0x00002c12:    b908        ..      CBNZ     r0,0x2c18 ; xQueueGenericSend + 78
        0x00002c14:    2001        .       MOVS     r0,#1
        0x00002c16:    e000        ..      B        0x2c1a ; xQueueGenericSend + 80
        0x00002c18:    2000        .       MOVS     r0,#0
        0x00002c1a:    b908        ..      CBNZ     r0,0x2c20 ; xQueueGenericSend + 86
        0x00002c1c:    bf00        ..      NOP      
        0x00002c1e:    e7fe        ..      B        0x2c1e ; xQueueGenericSend + 84
        0x00002c20:    bf00        ..      NOP      
        0x00002c22:    f7fff9ff    ....    BL       vPortEnterCritical ; 0x2024
        0x00002c26:    6ba0        .k      LDR      r0,[r4,#0x38]
        0x00002c28:    6be1        .k      LDR      r1,[r4,#0x3c]
        0x00002c2a:    4288        .B      CMP      r0,r1
        0x00002c2c:    d301        ..      BCC      0x2c32 ; xQueueGenericSend + 104
        0x00002c2e:    2d02        .-      CMP      r5,#2
        0x00002c30:    d118        ..      BNE      0x2c64 ; xQueueGenericSend + 154
        0x00002c32:    462a        *F      MOV      r2,r5
        0x00002c34:    4639        9F      MOV      r1,r7
        0x00002c36:    4620         F      MOV      r0,r4
        0x00002c38:    f7fefdab    ....    BL       prvCopyDataToQueue ; 0x1792
        0x00002c3c:    6a60        `j      LDR      r0,[r4,#0x24]
        0x00002c3e:    b908        ..      CBNZ     r0,0x2c44 ; xQueueGenericSend + 122
        0x00002c40:    2001        .       MOVS     r0,#1
        0x00002c42:    e000        ..      B        0x2c46 ; xQueueGenericSend + 124
        0x00002c44:    2000        .       MOVS     r0,#0
        0x00002c46:    b938        8.      CBNZ     r0,0x2c58 ; xQueueGenericSend + 142
        0x00002c48:    f1040024    ..$.    ADD      r0,r4,#0x24
        0x00002c4c:    f000fa16    ....    BL       xTaskRemoveFromEventList ; 0x307c
        0x00002c50:    2801        .(      CMP      r0,#1
        0x00002c52:    d101        ..      BNE      0x2c58 ; xQueueGenericSend + 142
        0x00002c54:    f7fffb18    ....    BL       vPortYield ; 0x2288
        0x00002c58:    f7fff9f4    ....    BL       vPortExitCritical ; 0x2044
        0x00002c5c:    2001        .       MOVS     r0,#1
        0x00002c5e:    b006        ..      ADD      sp,sp,#0x18
        0x00002c60:    e8bd81f0    ....    POP      {r4-r8,pc}
        0x00002c64:    9804        ..      LDR      r0,[sp,#0x10]
        0x00002c66:    b918        ..      CBNZ     r0,0x2c70 ; xQueueGenericSend + 166
        0x00002c68:    f7fff9ec    ....    BL       vPortExitCritical ; 0x2044
        0x00002c6c:    2000        .       MOVS     r0,#0
        0x00002c6e:    e7f6        ..      B        0x2c5e ; xQueueGenericSend + 148
        0x00002c70:    f1b80f00    ....    CMP      r8,#0
        0x00002c74:    d104        ..      BNE      0x2c80 ; xQueueGenericSend + 182
        0x00002c76:    4668        hF      MOV      r0,sp
        0x00002c78:    f7fffc3c    ..<.    BL       vTaskSetTimeOutState ; 0x24f4
        0x00002c7c:    f04f0801    O...    MOV      r8,#1
        0x00002c80:    f7fff9e0    ....    BL       vPortExitCritical ; 0x2044
        0x00002c84:    f7fffcd4    ....    BL       vTaskSuspendAll ; 0x2630
        0x00002c88:    f7fff9cc    ....    BL       vPortEnterCritical ; 0x2024
        0x00002c8c:    6c60        `l      LDR      r0,[r4,#0x44]
        0x00002c8e:    1c40        @.      ADDS     r0,r0,#1
        0x00002c90:    b908        ..      CBNZ     r0,0x2c96 ; xQueueGenericSend + 204
        0x00002c92:    2000        .       MOVS     r0,#0
        0x00002c94:    6460        `d      STR      r0,[r4,#0x44]
        0x00002c96:    6ca0        .l      LDR      r0,[r4,#0x48]
        0x00002c98:    1c40        @.      ADDS     r0,r0,#1
        0x00002c9a:    b908        ..      CBNZ     r0,0x2ca0 ; xQueueGenericSend + 214
        0x00002c9c:    2000        .       MOVS     r0,#0
        0x00002c9e:    64a0        .d      STR      r0,[r4,#0x48]
        0x00002ca0:    f7fff9d0    ....    BL       vPortExitCritical ; 0x2044
        0x00002ca4:    a904        ..      ADD      r1,sp,#0x10
        0x00002ca6:    4668        hF      MOV      r0,sp
        0x00002ca8:    f000f872    ..r.    BL       xTaskCheckForTimeOut ; 0x2d90
        0x00002cac:    b9c0        ..      CBNZ     r0,0x2ce0 ; xQueueGenericSend + 278
        0x00002cae:    4620         F      MOV      r0,r4
        0x00002cb0:    f7fefec5    ....    BL       prvIsQueueFull ; 0x1a3e
        0x00002cb4:    b170        p.      CBZ      r0,0x2cd4 ; xQueueGenericSend + 266
        0x00002cb6:    f1040010    ....    ADD      r0,r4,#0x10
        0x00002cba:    9904        ..      LDR      r1,[sp,#0x10]
        0x00002cbc:    f7fffb2a    ..*.    BL       vTaskPlaceOnEventList ; 0x2314
        0x00002cc0:    4620         F      MOV      r0,r4
        0x00002cc2:    f7fff833    ..3.    BL       prvUnlockQueue ; 0x1d2c
        0x00002cc6:    f000fa5f    .._.    BL       xTaskResumeAll ; 0x3188
        0x00002cca:    2800        .(      CMP      r0,#0
        0x00002ccc:    d1a9        ..      BNE      0x2c22 ; xQueueGenericSend + 88
        0x00002cce:    f7fffadb    ....    BL       vPortYield ; 0x2288
        0x00002cd2:    e7a6        ..      B        0x2c22 ; xQueueGenericSend + 88
        0x00002cd4:    4620         F      MOV      r0,r4
        0x00002cd6:    f7fff829    ..).    BL       prvUnlockQueue ; 0x1d2c
        0x00002cda:    f000fa55    ..U.    BL       xTaskResumeAll ; 0x3188
        0x00002cde:    e7a0        ..      B        0x2c22 ; xQueueGenericSend + 88
        0x00002ce0:    4620         F      MOV      r0,r4
        0x00002ce2:    f7fff823    ..#.    BL       prvUnlockQueue ; 0x1d2c
        0x00002ce6:    f000fa4f    ..O.    BL       xTaskResumeAll ; 0x3188
        0x00002cea:    2000        .       MOVS     r0,#0
        0x00002cec:    e7b7        ..      B        0x2c5e ; xQueueGenericSend + 148
    i.xQueueGenericSendFromISR
    xQueueGenericSendFromISR
        0x00002cee:    e92d47f0    -..G    PUSH     {r4-r10,lr}
        0x00002cf2:    4606        .F      MOV      r6,r0
        0x00002cf4:    4689        .F      MOV      r9,r1
        0x00002cf6:    4617        .F      MOV      r7,r2
        0x00002cf8:    461d        .F      MOV      r5,r3
        0x00002cfa:    4634        4F      MOV      r4,r6
        0x00002cfc:    b90c        ..      CBNZ     r4,0x2d02 ; xQueueGenericSendFromISR + 20
        0x00002cfe:    bf00        ..      NOP      
        0x00002d00:    e7fe        ..      B        0x2d00 ; xQueueGenericSendFromISR + 18
        0x00002d02:    f1b90f00    ....    CMP      r9,#0
        0x00002d06:    d101        ..      BNE      0x2d0c ; xQueueGenericSendFromISR + 30
        0x00002d08:    6c20         l      LDR      r0,[r4,#0x40]
        0x00002d0a:    b908        ..      CBNZ     r0,0x2d10 ; xQueueGenericSendFromISR + 34
        0x00002d0c:    2001        .       MOVS     r0,#1
        0x00002d0e:    e000        ..      B        0x2d12 ; xQueueGenericSendFromISR + 36
        0x00002d10:    2000        .       MOVS     r0,#0
        0x00002d12:    b908        ..      CBNZ     r0,0x2d18 ; xQueueGenericSendFromISR + 42
        0x00002d14:    bf00        ..      NOP      
        0x00002d16:    e7fe        ..      B        0x2d16 ; xQueueGenericSendFromISR + 40
        0x00002d18:    2d02        .-      CMP      r5,#2
        0x00002d1a:    d102        ..      BNE      0x2d22 ; xQueueGenericSendFromISR + 52
        0x00002d1c:    6be0        .k      LDR      r0,[r4,#0x3c]
        0x00002d1e:    2801        .(      CMP      r0,#1
        0x00002d20:    d101        ..      BNE      0x2d26 ; xQueueGenericSendFromISR + 56
        0x00002d22:    2001        .       MOVS     r0,#1
        0x00002d24:    e000        ..      B        0x2d28 ; xQueueGenericSendFromISR + 58
        0x00002d26:    2000        .       MOVS     r0,#0
        0x00002d28:    b908        ..      CBNZ     r0,0x2d2e ; xQueueGenericSendFromISR + 64
        0x00002d2a:    bf00        ..      NOP      
        0x00002d2c:    e7fe        ..      B        0x2d2c ; xQueueGenericSendFromISR + 62
        0x00002d2e:    f7fffa81    ....    BL       vPortValidateInterruptPriority ; 0x2234
        0x00002d32:    f7fdfa63    ..c.    BL       ulPortSetInterruptMask ; 0x1fc
        0x00002d36:    4682        .F      MOV      r10,r0
        0x00002d38:    6ba0        .k      LDR      r0,[r4,#0x38]
        0x00002d3a:    6be1        .k      LDR      r1,[r4,#0x3c]
        0x00002d3c:    4288        .B      CMP      r0,r1
        0x00002d3e:    d301        ..      BCC      0x2d44 ; xQueueGenericSendFromISR + 86
        0x00002d40:    2d02        .-      CMP      r5,#2
        0x00002d42:    d11c        ..      BNE      0x2d7e ; xQueueGenericSendFromISR + 144
        0x00002d44:    462a        *F      MOV      r2,r5
        0x00002d46:    4649        IF      MOV      r1,r9
        0x00002d48:    4620         F      MOV      r0,r4
        0x00002d4a:    f7fefd22    ..".    BL       prvCopyDataToQueue ; 0x1792
        0x00002d4e:    6ca0        .l      LDR      r0,[r4,#0x48]
        0x00002d50:    1c40        @.      ADDS     r0,r0,#1
        0x00002d52:    b970        p.      CBNZ     r0,0x2d72 ; xQueueGenericSendFromISR + 132
        0x00002d54:    6a60        `j      LDR      r0,[r4,#0x24]
        0x00002d56:    b908        ..      CBNZ     r0,0x2d5c ; xQueueGenericSendFromISR + 110
        0x00002d58:    2001        .       MOVS     r0,#1
        0x00002d5a:    e000        ..      B        0x2d5e ; xQueueGenericSendFromISR + 112
        0x00002d5c:    2000        .       MOVS     r0,#0
        0x00002d5e:    b958        X.      CBNZ     r0,0x2d78 ; xQueueGenericSendFromISR + 138
        0x00002d60:    f1040024    ..$.    ADD      r0,r4,#0x24
        0x00002d64:    f000f98a    ....    BL       xTaskRemoveFromEventList ; 0x307c
        0x00002d68:    b130        0.      CBZ      r0,0x2d78 ; xQueueGenericSendFromISR + 138
        0x00002d6a:    b12f        /.      CBZ      r7,0x2d78 ; xQueueGenericSendFromISR + 138
        0x00002d6c:    2001        .       MOVS     r0,#1
        0x00002d6e:    6038        8`      STR      r0,[r7,#0]
        0x00002d70:    e002        ..      B        0x2d78 ; xQueueGenericSendFromISR + 138
        0x00002d72:    6ca0        .l      LDR      r0,[r4,#0x48]
        0x00002d74:    1c40        @.      ADDS     r0,r0,#1
        0x00002d76:    64a0        .d      STR      r0,[r4,#0x48]
        0x00002d78:    f04f0801    O...    MOV      r8,#1
        0x00002d7c:    e001        ..      B        0x2d82 ; xQueueGenericSendFromISR + 148
        0x00002d7e:    f04f0800    O...    MOV      r8,#0
        0x00002d82:    4650        PF      MOV      r0,r10
        0x00002d84:    f7fdfa41    ..A.    BL       vPortClearInterruptMask ; 0x20a
        0x00002d88:    4640        @F      MOV      r0,r8
        0x00002d8a:    e8bd87f0    ....    POP      {r4-r10,pc}
        0x00002d8e:    0000        ..      MOVS     r0,r0
    i.xTaskCheckForTimeOut
    xTaskCheckForTimeOut
        0x00002d90:    b570        p.      PUSH     {r4-r6,lr}
        0x00002d92:    4604        .F      MOV      r4,r0
        0x00002d94:    460d        .F      MOV      r5,r1
        0x00002d96:    b90c        ..      CBNZ     r4,0x2d9c ; xTaskCheckForTimeOut + 12
        0x00002d98:    bf00        ..      NOP      
        0x00002d9a:    e7fe        ..      B        0x2d9a ; xTaskCheckForTimeOut + 10
        0x00002d9c:    b90d        ..      CBNZ     r5,0x2da2 ; xTaskCheckForTimeOut + 18
        0x00002d9e:    bf00        ..      NOP      
        0x00002da0:    e7fe        ..      B        0x2da0 ; xTaskCheckForTimeOut + 16
        0x00002da2:    f7fff93f    ..?.    BL       vPortEnterCritical ; 0x2024
        0x00002da6:    4812        .H      LDR      r0,[pc,#72] ; [0x2df0] = 0x10000054
        0x00002da8:    6802        .h      LDR      r2,[r0,#0]
        0x00002daa:    6828        (h      LDR      r0,[r5,#0]
        0x00002dac:    1c40        @.      ADDS     r0,r0,#1
        0x00002dae:    b908        ..      CBNZ     r0,0x2db4 ; xTaskCheckForTimeOut + 36
        0x00002db0:    2600        .&      MOVS     r6,#0
        0x00002db2:    e019        ..      B        0x2de8 ; xTaskCheckForTimeOut + 88
        0x00002db4:    490f        .I      LDR      r1,[pc,#60] ; [0x2df4] = 0x10000068
        0x00002db6:    6820         h      LDR      r0,[r4,#0]
        0x00002db8:    6809        .h      LDR      r1,[r1,#0]
        0x00002dba:    4288        .B      CMP      r0,r1
        0x00002dbc:    d004        ..      BEQ      0x2dc8 ; xTaskCheckForTimeOut + 56
        0x00002dbe:    6860        `h      LDR      r0,[r4,#4]
        0x00002dc0:    4290        .B      CMP      r0,r2
        0x00002dc2:    d801        ..      BHI      0x2dc8 ; xTaskCheckForTimeOut + 56
        0x00002dc4:    2601        .&      MOVS     r6,#1
        0x00002dc6:    e00f        ..      B        0x2de8 ; xTaskCheckForTimeOut + 88
        0x00002dc8:    6860        `h      LDR      r0,[r4,#4]
        0x00002dca:    1a10        ..      SUBS     r0,r2,r0
        0x00002dcc:    6829        )h      LDR      r1,[r5,#0]
        0x00002dce:    4288        .B      CMP      r0,r1
        0x00002dd0:    d209        ..      BCS      0x2de6 ; xTaskCheckForTimeOut + 86
        0x00002dd2:    6828        (h      LDR      r0,[r5,#0]
        0x00002dd4:    6861        ah      LDR      r1,[r4,#4]
        0x00002dd6:    1a51        Q.      SUBS     r1,r2,r1
        0x00002dd8:    1a40        @.      SUBS     r0,r0,r1
        0x00002dda:    6028        (`      STR      r0,[r5,#0]
        0x00002ddc:    4620         F      MOV      r0,r4
        0x00002dde:    f7fffb89    ....    BL       vTaskSetTimeOutState ; 0x24f4
        0x00002de2:    2600        .&      MOVS     r6,#0
        0x00002de4:    e000        ..      B        0x2de8 ; xTaskCheckForTimeOut + 88
        0x00002de6:    2601        .&      MOVS     r6,#1
        0x00002de8:    f7fff92c    ..,.    BL       vPortExitCritical ; 0x2044
        0x00002dec:    4630        0F      MOV      r0,r6
        0x00002dee:    bd70        p.      POP      {r4-r6,pc}
    $d
        0x00002df0:    10000054    T...    DCD    268435540
        0x00002df4:    10000068    h...    DCD    268435560
    $t
    i.xTaskGenericCreate
    xTaskGenericCreate
        0x00002df8:    e92d4fff    -..O    PUSH     {r0-r11,lr}
        0x00002dfc:    b081        ..      SUB      sp,sp,#4
        0x00002dfe:    4680        .F      MOV      r8,r0
        0x00002e00:    4616        .F      MOV      r6,r2
        0x00002e02:    469a        .F      MOV      r10,r3
        0x00002e04:    e9dd5b0e    ...[    LDRD     r5,r11,[sp,#0x38]
        0x00002e08:    f1b80f00    ....    CMP      r8,#0
        0x00002e0c:    d101        ..      BNE      0x2e12 ; xTaskGenericCreate + 26
        0x00002e0e:    bf00        ..      NOP      
        0x00002e10:    e7fe        ..      B        0x2e10 ; xTaskGenericCreate + 24
        0x00002e12:    2d04        .-      CMP      r5,#4
        0x00002e14:    d201        ..      BCS      0x2e1a ; xTaskGenericCreate + 34
        0x00002e16:    2001        .       MOVS     r0,#1
        0x00002e18:    e000        ..      B        0x2e1c ; xTaskGenericCreate + 36
        0x00002e1a:    2000        .       MOVS     r0,#0
        0x00002e1c:    b908        ..      CBNZ     r0,0x2e22 ; xTaskGenericCreate + 42
        0x00002e1e:    bf00        ..      NOP      
        0x00002e20:    e7fe        ..      B        0x2e20 ; xTaskGenericCreate + 40
        0x00002e22:    4630        0F      MOV      r0,r6
        0x00002e24:    9910        ..      LDR      r1,[sp,#0x40]
        0x00002e26:    f7fefc17    ....    BL       prvAllocateTCBAndStack ; 0x1658
        0x00002e2a:    4604        .F      MOV      r4,r0
        0x00002e2c:    2c00        .,      CMP      r4,#0
        0x00002e2e:    d057        W.      BEQ      0x2ee0 ; xTaskGenericCreate + 232
        0x00002e30:    1e70        p.      SUBS     r0,r6,#1
        0x00002e32:    6b21        !k      LDR      r1,[r4,#0x30]
        0x00002e34:    eb010980    ....    ADD      r9,r1,r0,LSL #2
        0x00002e38:    f0290907    )...    BIC      r9,r9,#7
        0x00002e3c:    f0090007    ....    AND      r0,r9,#7
        0x00002e40:    b908        ..      CBNZ     r0,0x2e46 ; xTaskGenericCreate + 78
        0x00002e42:    2001        .       MOVS     r0,#1
        0x00002e44:    e000        ..      B        0x2e48 ; xTaskGenericCreate + 80
        0x00002e46:    2000        .       MOVS     r0,#0
        0x00002e48:    b908        ..      CBNZ     r0,0x2e4e ; xTaskGenericCreate + 86
        0x00002e4a:    bf00        ..      NOP      
        0x00002e4c:    e7fe        ..      B        0x2e4c ; xTaskGenericCreate + 84
        0x00002e4e:    9600        ..      STR      r6,[sp,#0]
        0x00002e50:    462a        *F      MOV      r2,r5
        0x00002e52:    4620         F      MOV      r0,r4
        0x00002e54:    9b11        ..      LDR      r3,[sp,#0x44]
        0x00002e56:    9902        ..      LDR      r1,[sp,#8]
        0x00002e58:    f7fefd58    ..X.    BL       prvInitialiseTCBVariables ; 0x190c
        0x00002e5c:    4652        RF      MOV      r2,r10
        0x00002e5e:    4641        AF      MOV      r1,r8
        0x00002e60:    4648        HF      MOV      r0,r9
        0x00002e62:    f7feffff    ....    BL       pxPortInitialiseStack ; 0x1e64
        0x00002e66:    6020         `      STR      r0,[r4,#0]
        0x00002e68:    f1bb0f00    ....    CMP      r11,#0
        0x00002e6c:    d001        ..      BEQ      0x2e72 ; xTaskGenericCreate + 122
        0x00002e6e:    f8cb4000    ...@    STR      r4,[r11,#0]
        0x00002e72:    f7fff8d7    ....    BL       vPortEnterCritical ; 0x2024
        0x00002e76:    4823        #H      LDR      r0,[pc,#140] ; [0x2f04] = 0x10000050
        0x00002e78:    6800        .h      LDR      r0,[r0,#0]
        0x00002e7a:    1c40        @.      ADDS     r0,r0,#1
        0x00002e7c:    4921        !I      LDR      r1,[pc,#132] ; [0x2f04] = 0x10000050
        0x00002e7e:    6008        .`      STR      r0,[r1,#0]
        0x00002e80:    4821        !H      LDR      r0,[pc,#132] ; [0x2f08] = 0x10000040
        0x00002e82:    6800        .h      LDR      r0,[r0,#0]
        0x00002e84:    b940        @.      CBNZ     r0,0x2e98 ; xTaskGenericCreate + 160
        0x00002e86:    4820         H      LDR      r0,[pc,#128] ; [0x2f08] = 0x10000040
        0x00002e88:    6004        .`      STR      r4,[r0,#0]
        0x00002e8a:    4608        .F      MOV      r0,r1
        0x00002e8c:    6800        .h      LDR      r0,[r0,#0]
        0x00002e8e:    2801        .(      CMP      r0,#1
        0x00002e90:    d10c        ..      BNE      0x2eac ; xTaskGenericCreate + 180
        0x00002e92:    f7fefd67    ..g.    BL       prvInitialiseTaskLists ; 0x1964
        0x00002e96:    e009        ..      B        0x2eac ; xTaskGenericCreate + 180
        0x00002e98:    481c        .H      LDR      r0,[pc,#112] ; [0x2f0c] = 0x1000005c
        0x00002e9a:    6800        .h      LDR      r0,[r0,#0]
        0x00002e9c:    b930        0.      CBNZ     r0,0x2eac ; xTaskGenericCreate + 180
        0x00002e9e:    481a        .H      LDR      r0,[pc,#104] ; [0x2f08] = 0x10000040
        0x00002ea0:    6800        .h      LDR      r0,[r0,#0]
        0x00002ea2:    6ac0        .j      LDR      r0,[r0,#0x2c]
        0x00002ea4:    42a8        .B      CMP      r0,r5
        0x00002ea6:    d801        ..      BHI      0x2eac ; xTaskGenericCreate + 180
        0x00002ea8:    4817        .H      LDR      r0,[pc,#92] ; [0x2f08] = 0x10000040
        0x00002eaa:    6004        .`      STR      r4,[r0,#0]
        0x00002eac:    4818        .H      LDR      r0,[pc,#96] ; [0x2f10] = 0x1000006c
        0x00002eae:    6800        .h      LDR      r0,[r0,#0]
        0x00002eb0:    1c40        @.      ADDS     r0,r0,#1
        0x00002eb2:    4917        .I      LDR      r1,[pc,#92] ; [0x2f10] = 0x1000006c
        0x00002eb4:    6008        .`      STR      r0,[r1,#0]
        0x00002eb6:    4917        .I      LDR      r1,[pc,#92] ; [0x2f14] = 0x10000058
        0x00002eb8:    6ae0        .j      LDR      r0,[r4,#0x2c]
        0x00002eba:    6809        .h      LDR      r1,[r1,#0]
        0x00002ebc:    4288        .B      CMP      r0,r1
        0x00002ebe:    d902        ..      BLS      0x2ec6 ; xTaskGenericCreate + 206
        0x00002ec0:    4914        .I      LDR      r1,[pc,#80] ; [0x2f14] = 0x10000058
        0x00002ec2:    6ae0        .j      LDR      r0,[r4,#0x2c]
        0x00002ec4:    6008        .`      STR      r0,[r1,#0]
        0x00002ec6:    6ae1        .j      LDR      r1,[r4,#0x2c]
        0x00002ec8:    eb010181    ....    ADD      r1,r1,r1,LSL #2
        0x00002ecc:    4a12        .J      LDR      r2,[pc,#72] ; [0x2f18] = 0x1000019c
        0x00002ece:    eb020081    ....    ADD      r0,r2,r1,LSL #2
        0x00002ed2:    1d21        !.      ADDS     r1,r4,#4
        0x00002ed4:    f7fff89a    ....    BL       vListInsertEnd ; 0x200c
        0x00002ed8:    2701        .'      MOVS     r7,#1
        0x00002eda:    f7fff8b3    ....    BL       vPortExitCritical ; 0x2044
        0x00002ede:    e001        ..      B        0x2ee4 ; xTaskGenericCreate + 236
        0x00002ee0:    f04f37ff    O..7    MOV      r7,#0xffffffff
        0x00002ee4:    2f01        ./      CMP      r7,#1
        0x00002ee6:    d109        ..      BNE      0x2efc ; xTaskGenericCreate + 260
        0x00002ee8:    4808        .H      LDR      r0,[pc,#32] ; [0x2f0c] = 0x1000005c
        0x00002eea:    6800        .h      LDR      r0,[r0,#0]
        0x00002eec:    b130        0.      CBZ      r0,0x2efc ; xTaskGenericCreate + 260
        0x00002eee:    4806        .H      LDR      r0,[pc,#24] ; [0x2f08] = 0x10000040
        0x00002ef0:    6800        .h      LDR      r0,[r0,#0]
        0x00002ef2:    6ac0        .j      LDR      r0,[r0,#0x2c]
        0x00002ef4:    42a8        .B      CMP      r0,r5
        0x00002ef6:    d201        ..      BCS      0x2efc ; xTaskGenericCreate + 260
        0x00002ef8:    f7fff9c6    ....    BL       vPortYield ; 0x2288
        0x00002efc:    4638        8F      MOV      r0,r7
        0x00002efe:    b005        ..      ADD      sp,sp,#0x14
        0x00002f00:    e8bd8ff0    ....    POP      {r4-r11,pc}
    $d
        0x00002f04:    10000050    P...    DCD    268435536
        0x00002f08:    10000040    @...    DCD    268435520
        0x00002f0c:    1000005c    \...    DCD    268435548
        0x00002f10:    1000006c    l...    DCD    268435564
        0x00002f14:    10000058    X...    DCD    268435544
        0x00002f18:    1000019c    ....    DCD    268435868
    $t
    i.xTaskGetCurrentTaskHandle
    xTaskGetCurrentTaskHandle
        0x00002f1c:    4901        .I      LDR      r1,[pc,#4] ; [0x2f24] = 0x10000040
        0x00002f1e:    6808        .h      LDR      r0,[r1,#0]
        0x00002f20:    4770        pG      BX       lr
    $d
        0x00002f22:    0000        ..      DCW    0
        0x00002f24:    10000040    @...    DCD    268435520
    $t
    i.xTaskGetSchedulerState
    xTaskGetSchedulerState
        0x00002f28:    4905        .I      LDR      r1,[pc,#20] ; [0x2f40] = 0x1000005c
        0x00002f2a:    6809        .h      LDR      r1,[r1,#0]
        0x00002f2c:    b909        ..      CBNZ     r1,0x2f32 ; xTaskGetSchedulerState + 10
        0x00002f2e:    2001        .       MOVS     r0,#1
        0x00002f30:    e005        ..      B        0x2f3e ; xTaskGetSchedulerState + 22
        0x00002f32:    4904        .I      LDR      r1,[pc,#16] ; [0x2f44] = 0x10000074
        0x00002f34:    6809        .h      LDR      r1,[r1,#0]
        0x00002f36:    b909        ..      CBNZ     r1,0x2f3c ; xTaskGetSchedulerState + 20
        0x00002f38:    2002        .       MOVS     r0,#2
        0x00002f3a:    e000        ..      B        0x2f3e ; xTaskGetSchedulerState + 22
        0x00002f3c:    2000        .       MOVS     r0,#0
        0x00002f3e:    4770        pG      BX       lr
    $d
        0x00002f40:    1000005c    \...    DCD    268435548
        0x00002f44:    10000074    t...    DCD    268435572
    $t
    i.xTaskGetTickCount
    xTaskGetTickCount
        0x00002f48:    b510        ..      PUSH     {r4,lr}
        0x00002f4a:    f7fff86b    ..k.    BL       vPortEnterCritical ; 0x2024
        0x00002f4e:    4803        .H      LDR      r0,[pc,#12] ; [0x2f5c] = 0x10000054
        0x00002f50:    6804        .h      LDR      r4,[r0,#0]
        0x00002f52:    f7fff877    ..w.    BL       vPortExitCritical ; 0x2044
        0x00002f56:    4620         F      MOV      r0,r4
        0x00002f58:    bd10        ..      POP      {r4,pc}
    $d
        0x00002f5a:    0000        ..      DCW    0
        0x00002f5c:    10000054    T...    DCD    268435540
    $t
    i.xTaskIncrementTick
    xTaskIncrementTick
        0x00002f60:    e92d41f0    -..A    PUSH     {r4-r8,lr}
        0x00002f64:    f04f0800    O...    MOV      r8,#0
        0x00002f68:    4839        9H      LDR      r0,[pc,#228] ; [0x3050] = 0x10000074
        0x00002f6a:    6800        .h      LDR      r0,[r0,#0]
        0x00002f6c:    2800        .(      CMP      r0,#0
        0x00002f6e:    d162        b.      BNE      0x3036 ; xTaskIncrementTick + 214
        0x00002f70:    4838        8H      LDR      r0,[pc,#224] ; [0x3054] = 0x10000054
        0x00002f72:    6800        .h      LDR      r0,[r0,#0]
        0x00002f74:    1c40        @.      ADDS     r0,r0,#1
        0x00002f76:    4937        7I      LDR      r1,[pc,#220] ; [0x3054] = 0x10000054
        0x00002f78:    6008        .`      STR      r0,[r1,#0]
        0x00002f7a:    4608        .F      MOV      r0,r1
        0x00002f7c:    6806        .h      LDR      r6,[r0,#0]
        0x00002f7e:    b9ce        ..      CBNZ     r6,0x2fb4 ; xTaskIncrementTick + 84
        0x00002f80:    4835        5H      LDR      r0,[pc,#212] ; [0x3058] = 0x10000044
        0x00002f82:    6800        .h      LDR      r0,[r0,#0]
        0x00002f84:    6800        .h      LDR      r0,[r0,#0]
        0x00002f86:    b908        ..      CBNZ     r0,0x2f8c ; xTaskIncrementTick + 44
        0x00002f88:    2001        .       MOVS     r0,#1
        0x00002f8a:    e000        ..      B        0x2f8e ; xTaskIncrementTick + 46
        0x00002f8c:    2000        .       MOVS     r0,#0
        0x00002f8e:    b908        ..      CBNZ     r0,0x2f94 ; xTaskIncrementTick + 52
        0x00002f90:    bf00        ..      NOP      
        0x00002f92:    e7fe        ..      B        0x2f92 ; xTaskIncrementTick + 50
        0x00002f94:    4830        0H      LDR      r0,[pc,#192] ; [0x3058] = 0x10000044
        0x00002f96:    6807        .h      LDR      r7,[r0,#0]
        0x00002f98:    4830        0H      LDR      r0,[pc,#192] ; [0x305c] = 0x10000048
        0x00002f9a:    6800        .h      LDR      r0,[r0,#0]
        0x00002f9c:    492e        .I      LDR      r1,[pc,#184] ; [0x3058] = 0x10000044
        0x00002f9e:    6008        .`      STR      r0,[r1,#0]
        0x00002fa0:    482e        .H      LDR      r0,[pc,#184] ; [0x305c] = 0x10000048
        0x00002fa2:    6007        .`      STR      r7,[r0,#0]
        0x00002fa4:    482e        .H      LDR      r0,[pc,#184] ; [0x3060] = 0x10000068
        0x00002fa6:    6800        .h      LDR      r0,[r0,#0]
        0x00002fa8:    1c40        @.      ADDS     r0,r0,#1
        0x00002faa:    492d        -I      LDR      r1,[pc,#180] ; [0x3060] = 0x10000068
        0x00002fac:    6008        .`      STR      r0,[r1,#0]
        0x00002fae:    f7fefe1b    ....    BL       prvResetNextTaskUnblockTime ; 0x1be8
        0x00002fb2:    bf00        ..      NOP      
        0x00002fb4:    482b        +H      LDR      r0,[pc,#172] ; [0x3064] = 0x10000070
        0x00002fb6:    6800        .h      LDR      r0,[r0,#0]
        0x00002fb8:    4286        .B      CMP      r6,r0
        0x00002fba:    d33b        ;.      BCC      0x3034 ; xTaskIncrementTick + 212
        0x00002fbc:    bf00        ..      NOP      
        0x00002fbe:    4826        &H      LDR      r0,[pc,#152] ; [0x3058] = 0x10000044
        0x00002fc0:    6800        .h      LDR      r0,[r0,#0]
        0x00002fc2:    6800        .h      LDR      r0,[r0,#0]
        0x00002fc4:    b908        ..      CBNZ     r0,0x2fca ; xTaskIncrementTick + 106
        0x00002fc6:    2001        .       MOVS     r0,#1
        0x00002fc8:    e000        ..      B        0x2fcc ; xTaskIncrementTick + 108
        0x00002fca:    2000        .       MOVS     r0,#0
        0x00002fcc:    b120         .      CBZ      r0,0x2fd8 ; xTaskIncrementTick + 120
        0x00002fce:    f04f30ff    O..0    MOV      r0,#0xffffffff
        0x00002fd2:    4924        $I      LDR      r1,[pc,#144] ; [0x3064] = 0x10000070
        0x00002fd4:    6008        .`      STR      r0,[r1,#0]
        0x00002fd6:    e02c        ,.      B        0x3032 ; xTaskIncrementTick + 210
        0x00002fd8:    481f        .H      LDR      r0,[pc,#124] ; [0x3058] = 0x10000044
        0x00002fda:    6800        .h      LDR      r0,[r0,#0]
        0x00002fdc:    68c0        .h      LDR      r0,[r0,#0xc]
        0x00002fde:    68c4        .h      LDR      r4,[r0,#0xc]
        0x00002fe0:    6865        eh      LDR      r5,[r4,#4]
        0x00002fe2:    42ae        .B      CMP      r6,r5
        0x00002fe4:    d202        ..      BCS      0x2fec ; xTaskIncrementTick + 140
        0x00002fe6:    481f        .H      LDR      r0,[pc,#124] ; [0x3064] = 0x10000070
        0x00002fe8:    6005        .`      STR      r5,[r0,#0]
        0x00002fea:    e022        ".      B        0x3032 ; xTaskIncrementTick + 210
        0x00002fec:    1d20         .      ADDS     r0,r4,#4
        0x00002fee:    f7feffb6    ....    BL       uxListRemove ; 0x1f5e
        0x00002ff2:    6aa0        .j      LDR      r0,[r4,#0x28]
        0x00002ff4:    b118        ..      CBZ      r0,0x2ffe ; xTaskIncrementTick + 158
        0x00002ff6:    f1040018    ....    ADD      r0,r4,#0x18
        0x00002ffa:    f7feffb0    ....    BL       uxListRemove ; 0x1f5e
        0x00002ffe:    491a        .I      LDR      r1,[pc,#104] ; [0x3068] = 0x10000058
        0x00003000:    6ae0        .j      LDR      r0,[r4,#0x2c]
        0x00003002:    6809        .h      LDR      r1,[r1,#0]
        0x00003004:    4288        .B      CMP      r0,r1
        0x00003006:    d902        ..      BLS      0x300e ; xTaskIncrementTick + 174
        0x00003008:    4917        .I      LDR      r1,[pc,#92] ; [0x3068] = 0x10000058
        0x0000300a:    6ae0        .j      LDR      r0,[r4,#0x2c]
        0x0000300c:    6008        .`      STR      r0,[r1,#0]
        0x0000300e:    6ae1        .j      LDR      r1,[r4,#0x2c]
        0x00003010:    eb010181    ....    ADD      r1,r1,r1,LSL #2
        0x00003014:    4a15        .J      LDR      r2,[pc,#84] ; [0x306c] = 0x1000019c
        0x00003016:    eb020081    ....    ADD      r0,r2,r1,LSL #2
        0x0000301a:    1d21        !.      ADDS     r1,r4,#4
        0x0000301c:    f7fefff6    ....    BL       vListInsertEnd ; 0x200c
        0x00003020:    4913        .I      LDR      r1,[pc,#76] ; [0x3070] = 0x10000040
        0x00003022:    6ae0        .j      LDR      r0,[r4,#0x2c]
        0x00003024:    6809        .h      LDR      r1,[r1,#0]
        0x00003026:    6ac9        .j      LDR      r1,[r1,#0x2c]
        0x00003028:    4288        .B      CMP      r0,r1
        0x0000302a:    d3c8        ..      BCC      0x2fbe ; xTaskIncrementTick + 94
        0x0000302c:    f04f0801    O...    MOV      r8,#1
        0x00003030:    e7c5        ..      B        0x2fbe ; xTaskIncrementTick + 94
        0x00003032:    bf00        ..      NOP      
        0x00003034:    e004        ..      B        0x3040 ; xTaskIncrementTick + 224
        0x00003036:    480f        .H      LDR      r0,[pc,#60] ; [0x3074] = 0x10000060
        0x00003038:    6800        .h      LDR      r0,[r0,#0]
        0x0000303a:    1c40        @.      ADDS     r0,r0,#1
        0x0000303c:    490d        .I      LDR      r1,[pc,#52] ; [0x3074] = 0x10000060
        0x0000303e:    6008        .`      STR      r0,[r1,#0]
        0x00003040:    480d        .H      LDR      r0,[pc,#52] ; [0x3078] = 0x10000064
        0x00003042:    6800        .h      LDR      r0,[r0,#0]
        0x00003044:    b108        ..      CBZ      r0,0x304a ; xTaskIncrementTick + 234
        0x00003046:    f04f0801    O...    MOV      r8,#1
        0x0000304a:    4640        @F      MOV      r0,r8
        0x0000304c:    e8bd81f0    ....    POP      {r4-r8,pc}
    $d
        0x00003050:    10000074    t...    DCD    268435572
        0x00003054:    10000054    T...    DCD    268435540
        0x00003058:    10000044    D...    DCD    268435524
        0x0000305c:    10000048    H...    DCD    268435528
        0x00003060:    10000068    h...    DCD    268435560
        0x00003064:    10000070    p...    DCD    268435568
        0x00003068:    10000058    X...    DCD    268435544
        0x0000306c:    1000019c    ....    DCD    268435868
        0x00003070:    10000040    @...    DCD    268435520
        0x00003074:    10000060    `...    DCD    268435552
        0x00003078:    10000064    d...    DCD    268435556
    $t
    i.xTaskRemoveFromEventList
    xTaskRemoveFromEventList
        0x0000307c:    b570        p.      PUSH     {r4-r6,lr}
        0x0000307e:    4606        .F      MOV      r6,r0
        0x00003080:    68f0        .h      LDR      r0,[r6,#0xc]
        0x00003082:    68c4        .h      LDR      r4,[r0,#0xc]
        0x00003084:    b90c        ..      CBNZ     r4,0x308a ; xTaskRemoveFromEventList + 14
        0x00003086:    bf00        ..      NOP      
        0x00003088:    e7fe        ..      B        0x3088 ; xTaskRemoveFromEventList + 12
        0x0000308a:    f1040018    ....    ADD      r0,r4,#0x18
        0x0000308e:    f7feff66    ..f.    BL       uxListRemove ; 0x1f5e
        0x00003092:    4815        .H      LDR      r0,[pc,#84] ; [0x30e8] = 0x10000074
        0x00003094:    6800        .h      LDR      r0,[r0,#0]
        0x00003096:    b9a0        ..      CBNZ     r0,0x30c2 ; xTaskRemoveFromEventList + 70
        0x00003098:    1d20         .      ADDS     r0,r4,#4
        0x0000309a:    f7feff60    ..`.    BL       uxListRemove ; 0x1f5e
        0x0000309e:    4913        .I      LDR      r1,[pc,#76] ; [0x30ec] = 0x10000058
        0x000030a0:    6ae0        .j      LDR      r0,[r4,#0x2c]
        0x000030a2:    6809        .h      LDR      r1,[r1,#0]
        0x000030a4:    4288        .B      CMP      r0,r1
        0x000030a6:    d902        ..      BLS      0x30ae ; xTaskRemoveFromEventList + 50
        0x000030a8:    4910        .I      LDR      r1,[pc,#64] ; [0x30ec] = 0x10000058
        0x000030aa:    6ae0        .j      LDR      r0,[r4,#0x2c]
        0x000030ac:    6008        .`      STR      r0,[r1,#0]
        0x000030ae:    6ae1        .j      LDR      r1,[r4,#0x2c]
        0x000030b0:    eb010181    ....    ADD      r1,r1,r1,LSL #2
        0x000030b4:    4a0e        .J      LDR      r2,[pc,#56] ; [0x30f0] = 0x1000019c
        0x000030b6:    eb020081    ....    ADD      r0,r2,r1,LSL #2
        0x000030ba:    1d21        !.      ADDS     r1,r4,#4
        0x000030bc:    f7feffa6    ....    BL       vListInsertEnd ; 0x200c
        0x000030c0:    e004        ..      B        0x30cc ; xTaskRemoveFromEventList + 80
        0x000030c2:    f1040118    ....    ADD      r1,r4,#0x18
        0x000030c6:    480b        .H      LDR      r0,[pc,#44] ; [0x30f4] = 0x10000214
        0x000030c8:    f7feffa0    ....    BL       vListInsertEnd ; 0x200c
        0x000030cc:    490a        .I      LDR      r1,[pc,#40] ; [0x30f8] = 0x10000040
        0x000030ce:    6ae0        .j      LDR      r0,[r4,#0x2c]
        0x000030d0:    6809        .h      LDR      r1,[r1,#0]
        0x000030d2:    6ac9        .j      LDR      r1,[r1,#0x2c]
        0x000030d4:    4288        .B      CMP      r0,r1
        0x000030d6:    d904        ..      BLS      0x30e2 ; xTaskRemoveFromEventList + 102
        0x000030d8:    2501        .%      MOVS     r5,#1
        0x000030da:    2001        .       MOVS     r0,#1
        0x000030dc:    4907        .I      LDR      r1,[pc,#28] ; [0x30fc] = 0x10000064
        0x000030de:    6008        .`      STR      r0,[r1,#0]
        0x000030e0:    e000        ..      B        0x30e4 ; xTaskRemoveFromEventList + 104
        0x000030e2:    2500        .%      MOVS     r5,#0
        0x000030e4:    4628        (F      MOV      r0,r5
        0x000030e6:    bd70        p.      POP      {r4-r6,pc}
    $d
        0x000030e8:    10000074    t...    DCD    268435572
        0x000030ec:    10000058    X...    DCD    268435544
        0x000030f0:    1000019c    ....    DCD    268435868
        0x000030f4:    10000214    ....    DCD    268435988
        0x000030f8:    10000040    @...    DCD    268435520
        0x000030fc:    10000064    d...    DCD    268435556
    $t
    i.xTaskRemoveFromUnorderedEventList
    xTaskRemoveFromUnorderedEventList
        0x00003100:    e92d41f0    -..A    PUSH     {r4-r8,lr}
        0x00003104:    4605        .F      MOV      r5,r0
        0x00003106:    460f        .F      MOV      r7,r1
        0x00003108:    481a        .H      LDR      r0,[pc,#104] ; [0x3174] = 0x10000074
        0x0000310a:    6800        .h      LDR      r0,[r0,#0]
        0x0000310c:    b108        ..      CBZ      r0,0x3112 ; xTaskRemoveFromUnorderedEventList + 18
        0x0000310e:    2001        .       MOVS     r0,#1
        0x00003110:    e000        ..      B        0x3114 ; xTaskRemoveFromUnorderedEventList + 20
        0x00003112:    2000        .       MOVS     r0,#0
        0x00003114:    b908        ..      CBNZ     r0,0x311a ; xTaskRemoveFromUnorderedEventList + 26
        0x00003116:    bf00        ..      NOP      
        0x00003118:    e7fe        ..      B        0x3118 ; xTaskRemoveFromUnorderedEventList + 24
        0x0000311a:    f0474000    G..@    ORR      r0,r7,#0x80000000
        0x0000311e:    6028        (`      STR      r0,[r5,#0]
        0x00003120:    68ec        .h      LDR      r4,[r5,#0xc]
        0x00003122:    b90c        ..      CBNZ     r4,0x3128 ; xTaskRemoveFromUnorderedEventList + 40
        0x00003124:    bf00        ..      NOP      
        0x00003126:    e7fe        ..      B        0x3126 ; xTaskRemoveFromUnorderedEventList + 38
        0x00003128:    4628        (F      MOV      r0,r5
        0x0000312a:    f7feff18    ....    BL       uxListRemove ; 0x1f5e
        0x0000312e:    1d20         .      ADDS     r0,r4,#4
        0x00003130:    f7feff15    ....    BL       uxListRemove ; 0x1f5e
        0x00003134:    4910        .I      LDR      r1,[pc,#64] ; [0x3178] = 0x10000058
        0x00003136:    6ae0        .j      LDR      r0,[r4,#0x2c]
        0x00003138:    6809        .h      LDR      r1,[r1,#0]
        0x0000313a:    4288        .B      CMP      r0,r1
        0x0000313c:    d902        ..      BLS      0x3144 ; xTaskRemoveFromUnorderedEventList + 68
        0x0000313e:    490e        .I      LDR      r1,[pc,#56] ; [0x3178] = 0x10000058
        0x00003140:    6ae0        .j      LDR      r0,[r4,#0x2c]
        0x00003142:    6008        .`      STR      r0,[r1,#0]
        0x00003144:    6ae1        .j      LDR      r1,[r4,#0x2c]
        0x00003146:    eb010181    ....    ADD      r1,r1,r1,LSL #2
        0x0000314a:    4a0c        .J      LDR      r2,[pc,#48] ; [0x317c] = 0x1000019c
        0x0000314c:    eb020081    ....    ADD      r0,r2,r1,LSL #2
        0x00003150:    1d21        !.      ADDS     r1,r4,#4
        0x00003152:    f7feff5b    ..[.    BL       vListInsertEnd ; 0x200c
        0x00003156:    490a        .I      LDR      r1,[pc,#40] ; [0x3180] = 0x10000040
        0x00003158:    6ae0        .j      LDR      r0,[r4,#0x2c]
        0x0000315a:    6809        .h      LDR      r1,[r1,#0]
        0x0000315c:    6ac9        .j      LDR      r1,[r1,#0x2c]
        0x0000315e:    4288        .B      CMP      r0,r1
        0x00003160:    d904        ..      BLS      0x316c ; xTaskRemoveFromUnorderedEventList + 108
        0x00003162:    2601        .&      MOVS     r6,#1
        0x00003164:    2001        .       MOVS     r0,#1
        0x00003166:    4907        .I      LDR      r1,[pc,#28] ; [0x3184] = 0x10000064
        0x00003168:    6008        .`      STR      r0,[r1,#0]
        0x0000316a:    e000        ..      B        0x316e ; xTaskRemoveFromUnorderedEventList + 110
        0x0000316c:    2600        .&      MOVS     r6,#0
        0x0000316e:    4630        0F      MOV      r0,r6
        0x00003170:    e8bd81f0    ....    POP      {r4-r8,pc}
    $d
        0x00003174:    10000074    t...    DCD    268435572
        0x00003178:    10000058    X...    DCD    268435544
        0x0000317c:    1000019c    ....    DCD    268435868
        0x00003180:    10000040    @...    DCD    268435520
        0x00003184:    10000064    d...    DCD    268435556
    $t
    i.xTaskResumeAll
    xTaskResumeAll
        0x00003188:    b570        p.      PUSH     {r4-r6,lr}
        0x0000318a:    2500        .%      MOVS     r5,#0
        0x0000318c:    482f        /H      LDR      r0,[pc,#188] ; [0x324c] = 0x10000074
        0x0000318e:    6800        .h      LDR      r0,[r0,#0]
        0x00003190:    b908        ..      CBNZ     r0,0x3196 ; xTaskResumeAll + 14
        0x00003192:    bf00        ..      NOP      
        0x00003194:    e7fe        ..      B        0x3194 ; xTaskResumeAll + 12
        0x00003196:    f7feff45    ..E.    BL       vPortEnterCritical ; 0x2024
        0x0000319a:    482c        ,H      LDR      r0,[pc,#176] ; [0x324c] = 0x10000074
        0x0000319c:    6800        .h      LDR      r0,[r0,#0]
        0x0000319e:    1e40        @.      SUBS     r0,r0,#1
        0x000031a0:    492a        *I      LDR      r1,[pc,#168] ; [0x324c] = 0x10000074
        0x000031a2:    6008        .`      STR      r0,[r1,#0]
        0x000031a4:    4608        .F      MOV      r0,r1
        0x000031a6:    6800        .h      LDR      r0,[r0,#0]
        0x000031a8:    2800        .(      CMP      r0,#0
        0x000031aa:    d14a        J.      BNE      0x3242 ; xTaskResumeAll + 186
        0x000031ac:    4828        (H      LDR      r0,[pc,#160] ; [0x3250] = 0x10000050
        0x000031ae:    6800        .h      LDR      r0,[r0,#0]
        0x000031b0:    2800        .(      CMP      r0,#0
        0x000031b2:    d046        F.      BEQ      0x3242 ; xTaskResumeAll + 186
        0x000031b4:    e023        #.      B        0x31fe ; xTaskResumeAll + 118
        0x000031b6:    4827        'H      LDR      r0,[pc,#156] ; [0x3254] = 0x10000214
        0x000031b8:    68c0        .h      LDR      r0,[r0,#0xc]
        0x000031ba:    68c4        .h      LDR      r4,[r0,#0xc]
        0x000031bc:    f1040018    ....    ADD      r0,r4,#0x18
        0x000031c0:    f7fefecd    ....    BL       uxListRemove ; 0x1f5e
        0x000031c4:    1d20         .      ADDS     r0,r4,#4
        0x000031c6:    f7fefeca    ....    BL       uxListRemove ; 0x1f5e
        0x000031ca:    4923        #I      LDR      r1,[pc,#140] ; [0x3258] = 0x10000058
        0x000031cc:    6ae0        .j      LDR      r0,[r4,#0x2c]
        0x000031ce:    6809        .h      LDR      r1,[r1,#0]
        0x000031d0:    4288        .B      CMP      r0,r1
        0x000031d2:    d902        ..      BLS      0x31da ; xTaskResumeAll + 82
        0x000031d4:    4920         I      LDR      r1,[pc,#128] ; [0x3258] = 0x10000058
        0x000031d6:    6ae0        .j      LDR      r0,[r4,#0x2c]
        0x000031d8:    6008        .`      STR      r0,[r1,#0]
        0x000031da:    6ae1        .j      LDR      r1,[r4,#0x2c]
        0x000031dc:    eb010181    ....    ADD      r1,r1,r1,LSL #2
        0x000031e0:    4a1e        .J      LDR      r2,[pc,#120] ; [0x325c] = 0x1000019c
        0x000031e2:    eb020081    ....    ADD      r0,r2,r1,LSL #2
        0x000031e6:    1d21        !.      ADDS     r1,r4,#4
        0x000031e8:    f7feff10    ....    BL       vListInsertEnd ; 0x200c
        0x000031ec:    491c        .I      LDR      r1,[pc,#112] ; [0x3260] = 0x10000040
        0x000031ee:    6ae0        .j      LDR      r0,[r4,#0x2c]
        0x000031f0:    6809        .h      LDR      r1,[r1,#0]
        0x000031f2:    6ac9        .j      LDR      r1,[r1,#0x2c]
        0x000031f4:    4288        .B      CMP      r0,r1
        0x000031f6:    d302        ..      BCC      0x31fe ; xTaskResumeAll + 118
        0x000031f8:    2001        .       MOVS     r0,#1
        0x000031fa:    491a        .I      LDR      r1,[pc,#104] ; [0x3264] = 0x10000064
        0x000031fc:    6008        .`      STR      r0,[r1,#0]
        0x000031fe:    4815        .H      LDR      r0,[pc,#84] ; [0x3254] = 0x10000214
        0x00003200:    6800        .h      LDR      r0,[r0,#0]
        0x00003202:    b908        ..      CBNZ     r0,0x3208 ; xTaskResumeAll + 128
        0x00003204:    2001        .       MOVS     r0,#1
        0x00003206:    e000        ..      B        0x320a ; xTaskResumeAll + 130
        0x00003208:    2000        .       MOVS     r0,#0
        0x0000320a:    2800        .(      CMP      r0,#0
        0x0000320c:    d0d3        ..      BEQ      0x31b6 ; xTaskResumeAll + 46
        0x0000320e:    4816        .H      LDR      r0,[pc,#88] ; [0x3268] = 0x10000060
        0x00003210:    6800        .h      LDR      r0,[r0,#0]
        0x00003212:    b178        x.      CBZ      r0,0x3234 ; xTaskResumeAll + 172
        0x00003214:    e00a        ..      B        0x322c ; xTaskResumeAll + 164
        0x00003216:    f7fffea3    ....    BL       xTaskIncrementTick ; 0x2f60
        0x0000321a:    b110        ..      CBZ      r0,0x3222 ; xTaskResumeAll + 154
        0x0000321c:    2001        .       MOVS     r0,#1
        0x0000321e:    4911        .I      LDR      r1,[pc,#68] ; [0x3264] = 0x10000064
        0x00003220:    6008        .`      STR      r0,[r1,#0]
        0x00003222:    4811        .H      LDR      r0,[pc,#68] ; [0x3268] = 0x10000060
        0x00003224:    6800        .h      LDR      r0,[r0,#0]
        0x00003226:    1e40        @.      SUBS     r0,r0,#1
        0x00003228:    490f        .I      LDR      r1,[pc,#60] ; [0x3268] = 0x10000060
        0x0000322a:    6008        .`      STR      r0,[r1,#0]
        0x0000322c:    480e        .H      LDR      r0,[pc,#56] ; [0x3268] = 0x10000060
        0x0000322e:    6800        .h      LDR      r0,[r0,#0]
        0x00003230:    2800        .(      CMP      r0,#0
        0x00003232:    d1f0        ..      BNE      0x3216 ; xTaskResumeAll + 142
        0x00003234:    480b        .H      LDR      r0,[pc,#44] ; [0x3264] = 0x10000064
        0x00003236:    6800        .h      LDR      r0,[r0,#0]
        0x00003238:    2801        .(      CMP      r0,#1
        0x0000323a:    d102        ..      BNE      0x3242 ; xTaskResumeAll + 186
        0x0000323c:    2501        .%      MOVS     r5,#1
        0x0000323e:    f7fff823    ..#.    BL       vPortYield ; 0x2288
        0x00003242:    f7fefeff    ....    BL       vPortExitCritical ; 0x2044
        0x00003246:    4628        (F      MOV      r0,r5
        0x00003248:    bd70        p.      POP      {r4-r6,pc}
    $d
        0x0000324a:    0000        ..      DCW    0
        0x0000324c:    10000074    t...    DCD    268435572
        0x00003250:    10000050    P...    DCD    268435536
        0x00003254:    10000214    ....    DCD    268435988
        0x00003258:    10000058    X...    DCD    268435544
        0x0000325c:    1000019c    ....    DCD    268435868
        0x00003260:    10000040    @...    DCD    268435520
        0x00003264:    10000064    d...    DCD    268435556
        0x00003268:    10000060    `...    DCD    268435552
    $t
    i.xTimerCreateTimerTask
    xTimerCreateTimerTask
        0x0000326c:    b51f        ..      PUSH     {r0-r4,lr}
        0x0000326e:    2400        .$      MOVS     r4,#0
        0x00003270:    f7fefa10    ....    BL       prvCheckForValidListAndQueue ; 0x1694
        0x00003274:    480b        .H      LDR      r0,[pc,#44] ; [0x32a4] = 0x10000080
        0x00003276:    6800        .h      LDR      r0,[r0,#0]
        0x00003278:    b168        h.      CBZ      r0,0x3296 ; xTimerCreateTimerTask + 42
        0x0000327a:    2000        .       MOVS     r0,#0
        0x0000327c:    2303        .#      MOVS     r3,#3
        0x0000327e:    e9cd3000    ...0    STRD     r3,r0,[sp,#0]
        0x00003282:    9002        ..      STR      r0,[sp,#8]
        0x00003284:    4603        .F      MOV      r3,r0
        0x00003286:    f44f7280    O..r    MOV      r2,#0x100
        0x0000328a:    a107        ..      ADR      r1,{pc}+0x1e ; 0x32a8
        0x0000328c:    9003        ..      STR      r0,[sp,#0xc]
        0x0000328e:    4808        .H      LDR      r0,[pc,#32] ; [0x32b0] = 0x1d13
        0x00003290:    f7fffdb2    ....    BL       xTaskGenericCreate ; 0x2df8
        0x00003294:    4604        .F      MOV      r4,r0
        0x00003296:    b90c        ..      CBNZ     r4,0x329c ; xTimerCreateTimerTask + 48
        0x00003298:    bf00        ..      NOP      
        0x0000329a:    e7fe        ..      B        0x329a ; xTimerCreateTimerTask + 46
        0x0000329c:    4620         F      MOV      r0,r4
        0x0000329e:    b004        ..      ADD      sp,sp,#0x10
        0x000032a0:    bd10        ..      POP      {r4,pc}
    $d
        0x000032a2:    0000        ..      DCW    0
        0x000032a4:    10000080    ....    DCD    268435584
        0x000032a8:    20726d54    Tmr     DCD    544370004
        0x000032ac:    00637653    Svc.    DCD    6518355
        0x000032b0:    00001d13    ....    DCD    7443
    $t
    i.xTimerGenericCommand
    xTimerGenericCommand
        0x000032b4:    e92d47ff    -..G    PUSH     {r0-r10,lr}
        0x000032b8:    4605        .F      MOV      r5,r0
        0x000032ba:    460c        .F      MOV      r4,r1
        0x000032bc:    4616        .F      MOV      r6,r2
        0x000032be:    461f        .F      MOV      r7,r3
        0x000032c0:    f8dd8030    ..0.    LDR      r8,[sp,#0x30]
        0x000032c4:    f04f0900    O...    MOV      r9,#0
        0x000032c8:    4814        .H      LDR      r0,[pc,#80] ; [0x331c] = 0x10000080
        0x000032ca:    6800        .h      LDR      r0,[r0,#0]
        0x000032cc:    b310        ..      CBZ      r0,0x3314 ; xTimerGenericCommand + 96
        0x000032ce:    9400        ..      STR      r4,[sp,#0]
        0x000032d0:    9601        ..      STR      r6,[sp,#4]
        0x000032d2:    9502        ..      STR      r5,[sp,#8]
        0x000032d4:    2c06        .,      CMP      r4,#6
        0x000032d6:    da15        ..      BGE      0x3304 ; xTimerGenericCommand + 80
        0x000032d8:    f7fffe26    ..&.    BL       xTaskGetSchedulerState ; 0x2f28
        0x000032dc:    2802        .(      CMP      r0,#2
        0x000032de:    d108        ..      BNE      0x32f2 ; xTimerGenericCommand + 62
        0x000032e0:    2300        .#      MOVS     r3,#0
        0x000032e2:    4642        BF      MOV      r2,r8
        0x000032e4:    4669        iF      MOV      r1,sp
        0x000032e6:    480d        .H      LDR      r0,[pc,#52] ; [0x331c] = 0x10000080
        0x000032e8:    6800        .h      LDR      r0,[r0,#0]
        0x000032ea:    f7fffc6e    ..n.    BL       xQueueGenericSend ; 0x2bca
        0x000032ee:    4681        .F      MOV      r9,r0
        0x000032f0:    e010        ..      B        0x3314 ; xTimerGenericCommand + 96
        0x000032f2:    2300        .#      MOVS     r3,#0
        0x000032f4:    461a        .F      MOV      r2,r3
        0x000032f6:    4669        iF      MOV      r1,sp
        0x000032f8:    4808        .H      LDR      r0,[pc,#32] ; [0x331c] = 0x10000080
        0x000032fa:    6800        .h      LDR      r0,[r0,#0]
        0x000032fc:    f7fffc65    ..e.    BL       xQueueGenericSend ; 0x2bca
        0x00003300:    4681        .F      MOV      r9,r0
        0x00003302:    e007        ..      B        0x3314 ; xTimerGenericCommand + 96
        0x00003304:    2300        .#      MOVS     r3,#0
        0x00003306:    463a        :F      MOV      r2,r7
        0x00003308:    4669        iF      MOV      r1,sp
        0x0000330a:    4804        .H      LDR      r0,[pc,#16] ; [0x331c] = 0x10000080
        0x0000330c:    6800        .h      LDR      r0,[r0,#0]
        0x0000330e:    f7fffcee    ....    BL       xQueueGenericSendFromISR ; 0x2cee
        0x00003312:    4681        .F      MOV      r9,r0
        0x00003314:    4648        HF      MOV      r0,r9
        0x00003316:    b004        ..      ADD      sp,sp,#0x10
        0x00003318:    e8bd87f0    ....    POP      {r4-r10,pc}
    $d
        0x0000331c:    10000080    ....    DCD    268435584
    $t
    i.xTimerPendFunctionCallFromISR
    xTimerPendFunctionCallFromISR
        0x00003320:    e92d41ff    -..A    PUSH     {r0-r8,lr}
        0x00003324:    4604        .F      MOV      r4,r0
        0x00003326:    460d        .F      MOV      r5,r1
        0x00003328:    4616        .F      MOV      r6,r2
        0x0000332a:    461f        .F      MOV      r7,r3
        0x0000332c:    f06f0001    o...    MVN      r0,#1
        0x00003330:    9000        ..      STR      r0,[sp,#0]
        0x00003332:    9401        ..      STR      r4,[sp,#4]
        0x00003334:    9502        ..      STR      r5,[sp,#8]
        0x00003336:    9603        ..      STR      r6,[sp,#0xc]
        0x00003338:    2300        .#      MOVS     r3,#0
        0x0000333a:    463a        :F      MOV      r2,r7
        0x0000333c:    4669        iF      MOV      r1,sp
        0x0000333e:    4804        .H      LDR      r0,[pc,#16] ; [0x3350] = 0x10000080
        0x00003340:    6800        .h      LDR      r0,[r0,#0]
        0x00003342:    f7fffcd4    ....    BL       xQueueGenericSendFromISR ; 0x2cee
        0x00003346:    4680        .F      MOV      r8,r0
        0x00003348:    4640        @F      MOV      r0,r8
        0x0000334a:    b004        ..      ADD      sp,sp,#0x10
        0x0000334c:    e8bd81f0    ....    POP      {r4-r8,pc}
    $d
        0x00003350:    10000080    ....    DCD    268435584
    $t
    x$fpl$fpinit
    $v0
    _fp_init
        0x00003354:    f04f7040    O.@p    MOV      r0,#0x3000000
        0x00003358:    eee10a10    ....    VMSR     FPSCR,r0
    __fplib_config_fpu_vfp
    __fplib_config_pureend_doubles
        0x0000335c:    4770        pG      BX       lr
        0x0000335e:    0000        ..      MOVS     r0,r0
    $d.realdata
    .constdata
        0x00003360:    00000000    ....    DCD    0
        0x00003364:    0000024a    J...    DCD    586
        0x00003368:    00000000    ....    DCD    0
    .constdata
    ucExpectedStackBytes
        0x0000336c:    a5a5a5a5    ....    DCD    2779096485
        0x00003370:    a5a5a5a5    ....    DCD    2779096485
        0x00003374:    a5a5a5a5    ....    DCD    2779096485
        0x00003378:    a5a5a5a5    ....    DCD    2779096485
        0x0000337c:    a5a5a5a5    ....    DCD    2779096485
    Region$$Table$$Base
        0x00003380:    000033a0    .3..    DCD    13216
        0x00003384:    10000000    ....    DCD    268435456
        0x00003388:    000000cc    ....    DCD    204
        0x0000338c:    000000d4    ....    DCD    212
        0x00003390:    0000346c    l4..    DCD    13420
        0x00003394:    100000cc    ....    DCD    268435660
        0x00003398:    0000372c    ,7..    DCD    14124
        0x0000339c:    000000f0    ....    DCD    240
    Region$$Table$$Limit

** Section #2 'SRAM' (SHT_PROGBITS) [SHF_ALLOC + SHF_WRITE]
    Size   : 204 bytes (alignment 4)
    Address: 0x10000000

    0x10000000:   00 00 00 00 00 00 00 00 01 00 00 00 00 00 00 00    ................
    0x10000010:   15 00 00 00 00 00 00 00 00 00 00 00 00 00 00 00    ................
    0x10000020:   00 00 00 00 01 00 00 00 00 09 00 00 00 00 04 3c    ...............<
    0x10000030:   00 00 00 00 00 00 00 00 00 00 00 00 00 00 00 00    ................
    0x10000040:   00 00 00 00 00 00 00 00 00 00 00 00 00 00 00 00    ................
    0x10000050:   00 00 00 00 00 00 00 00 00 00 00 00 00 00 00 00    ................
    0x10000060:   00 00 00 00 00 00 00 00 00 00 00 00 00 00 00 00    ................
    0x10000070:   ff ff ff ff 00 00 00 00 00 00 00 00 00 00 00 00    ................
    0x10000080:   00 00 00 00 00 00 00 00 aa aa aa aa 00 00 00 00    ................
    0x10000090:   00 00 00 00 00 00 00 00 00 00 00 00 00 00 00 00    ................
    0x100000a0:   00 00 00 00 00 00 00 00 00 00 00 00 00 00 00 00    ................
    0x100000b0:   f8 23 00 00 00 00 00 00 00 00 00 00 00 00 00 00    .#..............
    0x100000c0:   00 00 00 00 00 00 00 00 c4 00 00 10                ............


** Section #3 'SRAM' (SHT_NOBITS) [SHF_ALLOC + SHF_WRITE]
    Size   : 14124 bytes (alignment 8)
    Address: 0x100000cc


** Section #4 '.debug_abbrev' (SHT_PROGBITS)
    Size   : 1476 bytes


** Section #5 '.debug_frame' (SHT_PROGBITS)
    Size   : 5420 bytes


** Section #6 '.debug_info' (SHT_PROGBITS)
    Size   : 54580 bytes


** Section #7 '.debug_line' (SHT_PROGBITS)
    Size   : 20888 bytes


** Section #8 '.debug_loc' (SHT_PROGBITS)
    Size   : 6516 bytes


** Section #9 '.debug_macinfo' (SHT_PROGBITS)
    Size   : 24220 bytes


** Section #10 '.debug_pubnames' (SHT_PROGBITS)
    Size   : 3602 bytes


** Section #11 '.symtab' (SHT_SYMTAB)
    Size   : 14272 bytes (alignment 4)
    String table #12 '.strtab'
    Last local symbol no. 636

    Symbol table .symtab (891 symbols, 636 local)

      #  Symbol Name                Value      Bind  Sec  Type  Vis  Size
    ========================================================================

      1  $d                         0x00000000   Lc    1   --   De 
      2  $t                         0x00000070   Lc    1   --   De 
      3  $d                         0x00000092   Lc    1   --   De 
      4  $t                         0x00000098   Lc    1   --   De 
      5  $d                         0x000000cc   Lc    1   --   De 
      6  $t                         0x000000d4   Lc    1   --   De 
      7  $d                         0x00000170   Lc    1   --   De 
      8  $t                         0x00000174   Lc    1   --   De 
      9  $d                         0x0000018c   Lc    1   --   De 
     10  $t                         0x00000190   Lc    1   --   De 
     11  $d                         0x000001a0   Lc    1   --   De 
     12  $t                         0x000001a4   Lc    1   --   De 
     13  $d                         0x000001f8   Lc    1   --   De 
     14  $t                         0x000001fc   Lc    1   --   De 
     15  $d                         0x0000022a   Lc    1   --   De 
     16  $t                         0x00000238   Lc    1   --   De 
     17  $d                         0x00000480   Lc    1   --   De 
     18  $t                         0x00000484   Lc    1   --   De 
     19  $d                         0x0000048c   Lc    1   --   De 
     20  $t                         0x00000490   Lc    1   --   De 
     21  $d                         0x000005f0   Lc    1   --   De 
     22  $t                         0x00000604   Lc    1   --   De 
     23  $d                         0x00000630   Lc    1   --   De 
     24  $t                         0x0000063c   Lc    1   --   De 
     25  $d                         0x00000678   Lc    1   --   De 
     26  $t                         0x00000680   Lc    1   --   De 
     27  $d                         0x000006b2   Lc    1   --   De 
     28  $t                         0x000006bc   Lc    1   --   De 
     29  $d                         0x00000712   Lc    1   --   De 
     30  $t                         0x00000718   Lc    1   --   De 
     31  $d                         0x0000098a   Lc    1   --   De 
     32  $t                         0x00000992   Lc    1   --   De 
     33  $d                         0x000009b8   Lc    1   --   De 
     34  $t                         0x000009d8   Lc    1   --   De 
     35  $d                         0x00000a0a   Lc    1   --   De 
     36  $t                         0x00000a14   Lc    1   --   De 
     37  $d                         0x00000a32   Lc    1   --   De 
     38  $t                         0x00000a38   Lc    1   --   De 
     39  $d                         0x00000a40   Lc    1   --   De 
     40  $t                         0x00000a44   Lc    1   --   De 
     41  $d                         0x00000a52   Lc    1   --   De 
     42  $t                         0x00000a58   Lc    1   --   De 
     43  $d                         0x00000a6a   Lc    1   --   De 
     44  $t                         0x00000a70   Lc    1   --   De 
     45  $d                         0x00000a88   Lc    1   --   De 
     46  $t                         0x00000a8c   Lc    1   --   De 
     47  $d                         0x00000a9c   Lc    1   --   De 
     48  $t                         0x00000aa0   Lc    1   --   De 
     49  $d                         0x00000ab8   Lc    1   --   De 
     50  $t                         0x00000abc   Lc    1   --   De 
     51  $d                         0x00000ada   Lc    1   --   De 
     52  $t                         0x00000b10   Lc    1   --   De 
     53  $d                         0x00000b64   Lc    1   --   De 
     54  $t                         0x00000b68   Lc    1   --   De 
     55  $d                         0x00000b9c   Lc    1   --   De 
     56  $t                         0x00000ba0   Lc    1   --   De 
     57  $d                         0x00000be6   Lc    1   --   De 
     58  $t                         0x00000bec   Lc    1   --   De 
     59  $d                         0x00000c1c   Lc    1   --   De 
     60  $t                         0x00000c20   Lc    1   --   De 
     61  $d                         0x00000c72   Lc    1   --   De 
     62  $t                         0x00000c78   Lc    1   --   De 
     63  $d                         0x00000ce0   Lc    1   --   De 
     64  $t                         0x00000ce8   Lc    1   --   De 
     65  $d                         0x00000d70   Lc    1   --   De 
     66  $t                         0x00000db8   Lc    1   --   De 
     67  $d                         0x00000e44   Lc    1   --   De 
     68  $t                         0x00000e88   Lc    1   --   De 
     69  $d                         0x00000f7a   Lc    1   --   De 
     70  $t                         0x00000f80   Lc    1   --   De 
     71  $d                         0x00001054   Lc    1   --   De 
     72  $t                         0x00001080   Lc    1   --   De 
     73  $d                         0x000010f6   Lc    1   --   De 
     74  $t                         0x00001128   Lc    1   --   De 
     75  $d                         0x000011e4   Lc    1   --   De 
     76  $t                         0x00001210   Lc    1   --   De 
     77  $d                         0x00001228   Lc    1   --   De 
     78  $t                         0x0000122c   Lc    1   --   De 
     79  $d                         0x00001264   Lc    1   --   De 
     80  $t                         0x00001284   Lc    1   --   De 
     81  $d                         0x000012a6   Lc    1   --   De 
     82  $t                         0x000012b0   Lc    1   --   De 
     83  $d                         0x00001306   Lc    1   --   De 
     84  $t                         0x0000130c   Lc    1   --   De 
     85  $d                         0x00001330   Lc    1   --   De 
     86  $t                         0x00001334   Lc    1   --   De 
     87  $d                         0x00001340   Lc    1   --   De 
     88  $t                         0x00001344   Lc    1   --   De 
     89  $d                         0x00001368   Lc    1   --   De 
     90  $t                         0x0000136c   Lc    1   --   De 
     91  $d                         0x000013ba   Lc    1   --   De 
     92  $t                         0x000013c4   Lc    1   --   De 
     93  $d                         0x000013ce   Lc    1   --   De 
     94  $t                         0x000013d4   Lc    1   --   De 
     95  $d                         0x000013fc   Lc    1   --   De 
     96  $t                         0x00001408   Lc    1   --   De 
     97  $d                         0x00001410   Lc    1   --   De 
     98  $t                         0x00001414   Lc    1   --   De 
     99  $d                         0x00001510   Lc    1   --   De 
    100  $t                         0x00001514   Lc    1   --   De 
    101  $d                         0x00001522   Lc    1   --   De 
    102  $t                         0x00001528   Lc    1   --   De 
    103  $d                         0x00001554   Lc    1   --   De 
    104  $t                         0x00001558   Lc    1   --   De 
    105  $d                         0x0000155e   Lc    1   --   De 
    106  $t                         0x00001564   Lc    1   --   De 
    107  $d                         0x0000157a   Lc    1   --   De 
    108  $t                         0x00001584   Lc    1   --   De 
    109  $d                         0x000015d6   Lc    1   --   De 
    110  $t                         0x000015e4   Lc    1   --   De 
    111  $d                         0x00001642   Lc    1   --   De 
    112  $t                         0x00001658   Lc    1   --   De 
    113  $d                         0x000016e6   Lc    1   --   De 
    114  $t                         0x00001704   Lc    1   --   De 
    115  $d                         0x0000175a   Lc    1   --   De 
    116  $t                         0x00001768   Lc    1   --   De 
    117  $d                         0x00001840   Lc    1   --   De 
    118  $t                         0x00001850   Lc    1   --   De 
    119  $d                         0x00001874   Lc    1   --   De 
    120  $t                         0x00001878   Lc    1   --   De 
    121  $d                         0x000018a2   Lc    1   --   De 
    122  $t                         0x000018b0   Lc    1   --   De 
    123  $d                         0x000018fe   Lc    1   --   De 
    124  $t                         0x0000190c   Lc    1   --   De 
    125  $d                         0x000019aa   Lc    1   --   De 
    126  $t                         0x000019cc   Lc    1   --   De 
    127  $d                         0x00001a1c   Lc    1   --   De 
    128  $t                         0x00001a24   Lc    1   --   De 
    129  $d                         0x00001aaa   Lc    1   --   De 
    130  $t                         0x00001ab0   Lc    1   --   De 
    131  $d                         0x00001afa   Lc    1   --   De 
    132  $t                         0x00001b04   Lc    1   --   De 
    133  $d                         0x00001b98   Lc    1   --   De 
    134  $t                         0x00001b9c   Lc    1   --   De 
    135  $d                         0x00001be2   Lc    1   --   De 
    136  $t                         0x00001be8   Lc    1   --   De 
    137  $d                         0x00001c12   Lc    1   --   De 
    138  $t                         0x00001c1c   Lc    1   --   De 
    139  $d                         0x00001c44   Lc    1   --   De 
    140  $t                         0x00001c48   Lc    1   --   De 
    141  $d                         0x00001ccc   Lc    1   --   De 
    142  $t                         0x00001cd4   Lc    1   --   De 
    143  $d                         0x00001cf0   Lc    1   --   De 
    144  $t                         0x00001cf4   Lc    1   --   De 
    145  $d                         0x00001e52   Lc    1   --   De 
    146  $t                         0x00001e64   Lc    1   --   De 
    147  $d                         0x00001e86   Lc    1   --   De 
    148  $t                         0x00001e8c   Lc    1   --   De 
    149  $d                         0x00001ea8   Lc    1   --   De 
    150  $t                         0x00001eac   Lc    1   --   De 
    151  $d                         0x00001ee6   Lc    1   --   De 
    152  $t                         0x00001f08   Lc    1   --   De 
    153  $d                         0x00001f32   Lc    1   --   De 
    154  $t                         0x00001f44   Lc    1   --   De 
    155  $d                         0x00001fa0   Lc    1   --   De 
    156  $t                         0x00001fa4   Lc    1   --   De 
    157  $d                         0x0000203e   Lc    1   --   De 
    158  $t                         0x00002044   Lc    1   --   De 
    159  $d                         0x00002068   Lc    1   --   De 
    160  $t                         0x0000206c   Lc    1   --   De 
    161  $d                         0x000020a4   Lc    1   --   De 
    162  $t                         0x000020ac   Lc    1   --   De 
    163  $d                         0x000020ec   Lc    1   --   De 
    164  $t                         0x000020f0   Lc    1   --   De 
    165  $d                         0x00002228   Lc    1   --   De 
    166  $t                         0x00002234   Lc    1   --   De 
    167  $d                         0x0000227a   Lc    1   --   De 
    168  $t                         0x00002288   Lc    1   --   De 
    169  $d                         0x0000229a   Lc    1   --   De 
    170  $t                         0x000022a0   Lc    1   --   De 
    171  $d                         0x000022c6   Lc    1   --   De 
    172  $t                         0x000022cc   Lc    1   --   De 
    173  $d                         0x00002310   Lc    1   --   De 
    174  $t                         0x00002314   Lc    1   --   De 
    175  $d                         0x00002356   Lc    1   --   De 
    176  $t                         0x00002364   Lc    1   --   De 
    177  $d                         0x00002394   Lc    1   --   De 
    178  $t                         0x0000239c   Lc    1   --   De 
    179  $d                         0x00002400   Lc    1   --   De 
    180  $t                         0x00002410   Lc    1   --   De 
    181  $d                         0x0000245e   Lc    1   --   De 
    182  $t                         0x00002468   Lc    1   --   De 
    183  $d                         0x000024e8   Lc    1   --   De 
    184  $t                         0x000024f4   Lc    1   --   De 
    185  $d                         0x00002508   Lc    1   --   De 
    186  $t                         0x00002510   Lc    1   --   De 
    187  $d                         0x00002558   Lc    1   --   De 
    188  $t                         0x0000256c   Lc    1   --   De 
    189  $d                         0x00002592   Lc    1   --   De 
    190  $t                         0x0000259c   Lc    1   --   De 
    191  $d                         0x0000261a   Lc    1   --   De 
    192  $t                         0x00002630   Lc    1   --   De 
    193  $d                         0x0000263c   Lc    1   --   De 
    194  $t                         0x00002640   Lc    1   --   De 
    195  $d                         0x000026ee   Lc    1   --   De 
    196  $t                         0x00002708   Lc    1   --   De 
    197  $d                         0x00002950   Lc    1   --   De 
    198  $t                         0x00002968   Lc    1   --   De 
    199  $d                         0x00002df0   Lc    1   --   De 
    200  $t                         0x00002df8   Lc    1   --   De 
    201  $d                         0x00002f04   Lc    1   --   De 
    202  $t                         0x00002f1c   Lc    1   --   De 
    203  $d                         0x00002f22   Lc    1   --   De 
    204  $t                         0x00002f28   Lc    1   --   De 
    205  $d                         0x00002f40   Lc    1   --   De 
    206  $t                         0x00002f48   Lc    1   --   De 
    207  $d                         0x00002f5a   Lc    1   --   De 
    208  $t                         0x00002f60   Lc    1   --   De 
    209  $d                         0x00003050   Lc    1   --   De 
    210  $t                         0x0000307c   Lc    1   --   De 
    211  $d                         0x000030e8   Lc    1   --   De 
    212  $t                         0x00003100   Lc    1   --   De 
    213  $d                         0x00003174   Lc    1   --   De 
    214  $t                         0x00003188   Lc    1   --   De 
    215  $d                         0x0000324a   Lc    1   --   De 
    216  $t                         0x0000326c   Lc    1   --   De 
    217  $d                         0x000032a2   Lc    1   --   De 
    218  $t                         0x000032b4   Lc    1   --   De 
    219  $d                         0x0000331c   Lc    1   --   De 
    220  $t                         0x00003320   Lc    1   --   De 
    221  $d                         0x00003350   Lc    1   --   De 
    222  $t                         0x00003354   Lc    1   --   De 
    223  $d.realdata                0x00003360   Lc    1   --   De 
    224  $d.realdata                0x10000000   Lc    2   --   De 
    225  ../src/adxl362_task.c      0x00000000   Lc  Abs  File  De 
    226  i.adxl362_task             0x00000494   Lc    1  Sect  De 
    227  i.adxl_handler             0x00000604   Lc    1  Sect  De 
    228  .bss                       0x100000cc   Lc    3  Sect  De   0x80
    229  g_psSampleBuffer           0x100000cc   Lc    3  Data  De   0x80
    230  .data                      0x10000000   Lc    2  Sect  De   0x18
    231  ../src/data_plot.c         0x00000000   Lc  Abs  File  De 
    232  i.main                     0x000015e4   Lc    1  Sect  De 
    233  i.run_tasks                0x00001eac   Lc    1  Sect  De 
    234  i.setup_task               0x00001f08   Lc    1  Sect  De 
    235  .data                      0x10000018   Lc    2  Sect  De   0x4
    236  ../src/gpio_ctl.c          0x00000000   Lc  Abs  File  De 
    237  i.am_gpio_isr              0x0000094c   Lc    1  Sect  De 
    238  ../src/iom_ctl.c           0x00000000   Lc  Abs  File  De 
    239  i.am_iomaster0_isr         0x00001414   Lc    1  Sect  De 
    240  i.am_iomaster1_isr         0x00001432   Lc    1  Sect  De 
    241  i.iom_ctl_init             0x00001584   Lc    1  Sect  De 
    242  .data                      0x1000001c   Lc    2  Sect  De   0x14
    243  ../src/rtos.c              0x00000000   Lc  Abs  File  De 
    244  i.rtos_tick                0x00001e8c   Lc    1  Sect  De 
    245  i.sleep_task               0x00001f44   Lc    1  Sect  De 
    246  i.vApplicationStackOverflowHook
                                    0x00001fa4   Lc    1  Sect  De 
    247  i.vPortSetupTimerInterrupt 0x000020ac   Lc    1  Sect  De 
    248  .constdata                 0x00003360   Lc    1  Sect  De   0xc
    249  .data                      0x10000030   Lc    2  Sect  De   0x4
    250  ../src/timer_ctl.c         0x00000000   Lc  Abs  File  De 
    251  i.am_ctimer_isr            0x00000740   Lc    1  Sect  De 
    252  i.timer_a0_handler         0x00001f4e   Lc    1  Sect  De 
    253  ..\..\..\..\..\utils\am_util_delay.c
                                    0x00000000   Lc  Abs  File  De 
    254  .emb_text                  0x00000138   Lc    1  Sect  De   0x6
    255  $v0                        0x00000138   Lc    1   --   De 
    256  ../../../../../utils/am_util_delay.c
                                    0x00000000   Lc  Abs  File  De 
    257  i.am_util_delay_ms         0x00001450   Lc    1  Sect  De 
    258  ..\..\..\..\..\utils\am_util_faultisr.c
                                    0x00000000   Lc  Abs  File  De 
    259  .emb_text                  0x00000140   Lc    1  Sect  De   0x14
    260  $v0                        0x00000140   Lc    1   --   De 
    261  ../../../../../utils/am_util_faultisr.c
                                    0x00000000   Lc  Abs  File  De 
    262  i.am_util_faultisr_collect_data
                                    0x0000146c   Lc    1  Sect  De 
    263  ../../../../../utils/am_util_plot.c
                                    0x00000000   Lc  Abs  File  De 
    264  i.am_util_plot_init        0x00001514   Lc    1  Sect  De 
    265  i.am_util_plot_int         0x00001528   Lc    1  Sect  De 
    266  .data                      0x10000034   Lc    2  Sect  De   0x4
    267  ../../../../../utils/am_util_ring_buffer.c
                                    0x00000000   Lc  Abs  File  De 
    268  ../../../../../utils/am_util_stdio.c
                                    0x00000000   Lc  Abs  File  De 
    269  i.am_util_stdio_printf_init
                                    0x00001558   Lc    1  Sect  De 
    270  .data                      0x10000038   Lc    2  Sect  De   0x5
    271  g_bTxtXlate                0x1000003c   Lc    2  Data  De   0x1
    272  ../../../../../devices/am_devices_adxl362.c
                                    0x00000000   Lc  Abs  File  De 
    273  i.am_devices_adxl362_config
                                    0x00000758   Lc    1  Sect  De 
    274  i.am_devices_adxl362_fifo_depth_get
                                    0x00000876   Lc    1  Sect  De 
    275  i.am_devices_adxl362_measurement_mode_set
                                    0x000008b4   Lc    1  Sect  De 
    276  i.am_devices_adxl362_reset 0x000008dc   Lc    1  Sect  De 
    277  i.am_devices_adxl362_sample_get
                                    0x0000090a   Lc    1  Sect  De 
    278  ../keil/startup_keil.s     0x00000000   Lc  Abs  File  De 
    279  STACK                      0x100027f8   Lc    3  Sect  De   0x1000
    280  StackMem                   0x100027f8   Lc    3  Data  De 
    281  HEAP                       0x100027f8   Lc    3  Sect  De 
    282  HeapMem                    0x100027f8   Lc    3  Data  De 
    283  RESET                      0x00000000   Lc    1  Sect  De   0x98
    284  $v0                        0x00000070   Lc    1   --   De 
    285  .text                      0x00000220   Lc    1  Sect  De   0x18
    286  $v0                        0x00000220   Lc    1   --   De 
    287  ../../../../../third_party/FreeRTOS/Source/event_groups.c
                                    0x00000000   Lc  Abs  File  De 
    288  i.prvTestWaitCondition     0x00001cf4   Lc    1  Sect  De 
    289  prvTestWaitCondition       0x00001cf5   Lc    1  Code  De   0x1e
    290  i.vEventGroupSetBitsCallback
                                    0x00001fa8   Lc    1  Sect  De 
    291  i.xEventGroupCreate        0x00002708   Lc    1  Sect  De 
    292  i.xEventGroupSetBits       0x00002722   Lc    1  Sect  De 
    293  i.xEventGroupWaitBits      0x000027c0   Lc    1  Sect  De 
    294  ../../../../../third_party/FreeRTOS/Source/list.c
                                    0x00000000   Lc  Abs  File  De 
    295  i.uxListRemove             0x00001f5e   Lc    1  Sect  De 
    296  i.vListInitialise          0x00001fb8   Lc    1  Sect  De 
    297  i.vListInitialiseItem      0x00001fd2   Lc    1  Sect  De 
    298  i.vListInsert              0x00001fd8   Lc    1  Sect  De 
    299  i.vListInsertEnd           0x0000200c   Lc    1  Sect  De 
    300  ../../../../../third_party/FreeRTOS/Source/queue.c
                                    0x00000000   Lc  Abs  File  De 
    301  i.prvCopyDataFromQueue     0x00001768   Lc    1  Sect  De 
    302  prvCopyDataFromQueue       0x00001769   Lc    1  Code  De   0x2a
    303  i.prvCopyDataToQueue       0x00001792   Lc    1  Sect  De 
    304  prvCopyDataToQueue         0x00001793   Lc    1  Code  De   0x76
    305  i.prvIsQueueEmpty          0x00001a24   Lc    1  Sect  De 
    306  prvIsQueueEmpty            0x00001a25   Lc    1  Code  De   0x1a
    307  i.prvIsQueueFull           0x00001a3e   Lc    1  Sect  De 
    308  prvIsQueueFull             0x00001a3f   Lc    1  Code  De   0x1e
    309  i.prvUnlockQueue           0x00001d2c   Lc    1  Sect  De 
    310  prvUnlockQueue             0x00001d2d   Lc    1  Code  De   0x7e
    311  i.vQueueAddToRegistry      0x000022a0   Lc    1  Sect  De 
    312  i.vQueueWaitForMessageRestricted
                                    0x000022cc   Lc    1  Sect  De 
    313  i.xQueueCreateMutex        0x00002968   Lc    1  Sect  De 
    314  i.xQueueGenericCreate      0x000029b6   Lc    1  Sect  De 
    315  i.xQueueGenericReceive     0x00002a08   Lc    1  Sect  De 
    316  i.xQueueGenericReset       0x00002b56   Lc    1  Sect  De 
    317  i.xQueueGenericSend        0x00002bca   Lc    1  Sect  De 
    318  i.xQueueGenericSendFromISR 0x00002cee   Lc    1  Sect  De 
    319  .bss                       0x1000014c   Lc    3  Sect  De   0x50
    320  ../../../../../third_party/FreeRTOS/Source/tasks.c
                                    0x00000000   Lc  Abs  File  De 
    321  i.eTaskConfirmSleepModeStatus
                                    0x00001564   Lc    1  Sect  De 
    322  i.prvAddCurrentTaskToDelayedList
                                    0x00001604   Lc    1  Sect  De 
    323  prvAddCurrentTaskToDelayedList
                                    0x00001605   Lc    1  Code  De   0x3e
    324  i.prvAllocateTCBAndStack   0x00001658   Lc    1  Sect  De 
    325  prvAllocateTCBAndStack     0x00001659   Lc    1  Code  De   0x3a
    326  i.prvCheckTasksWaitingTermination
                                    0x00001704   Lc    1  Sect  De 
    327  prvCheckTasksWaitingTermination
                                    0x00001705   Lc    1  Code  De   0x56
    328  i.prvDeleteTCB             0x00001808   Lc    1  Sect  De 
    329  prvDeleteTCB               0x00001809   Lc    1  Code  De   0x12
    330  i.prvGetExpectedIdleTime   0x0000181c   Lc    1  Sect  De 
    331  prvGetExpectedIdleTime     0x0000181d   Lc    1  Code  De   0x24
    332  i.prvIdleTask              0x000018b0   Lc    1  Sect  De 
    333  prvIdleTask                0x000018b1   Lc    1  Code  De   0x4e
    334  i.prvInitialiseTCBVariables
                                    0x0000190c   Lc    1  Sect  De 
    335  prvInitialiseTCBVariables  0x0000190d   Lc    1  Code  De   0x56
    336  i.prvInitialiseTaskLists   0x00001964   Lc    1  Sect  De 
    337  prvInitialiseTaskLists     0x00001965   Lc    1  Code  De   0x46
    338  i.prvResetNextTaskUnblockTime
                                    0x00001be8   Lc    1  Sect  De 
    339  prvResetNextTaskUnblockTime
                                    0x00001be9   Lc    1  Code  De   0x2a
    340  i.uxTaskResetEventItemValue
                                    0x00001f88   Lc    1  Sect  De 
    341  i.vTaskMissedYield         0x00002308   Lc    1  Sect  De 
    342  i.vTaskPlaceOnEventList    0x00002314   Lc    1  Sect  De 
    343  i.vTaskPlaceOnEventListRestricted
                                    0x00002364   Lc    1  Sect  De 
    344  i.vTaskPlaceOnUnorderedEventList
                                    0x0000239c   Lc    1  Sect  De 
    345  i.vTaskPriorityDisinherit  0x00002410   Lc    1  Sect  De 
    346  i.vTaskPriorityInherit     0x00002468   Lc    1  Sect  De 
    347  i.vTaskSetTimeOutState     0x000024f4   Lc    1  Sect  De 
    348  i.vTaskStartScheduler      0x00002510   Lc    1  Sect  De 
    349  i.vTaskStepTick            0x0000256c   Lc    1  Sect  De 
    350  i.vTaskSuspend             0x0000259c   Lc    1  Sect  De 
    351  i.vTaskSuspendAll          0x00002630   Lc    1  Sect  De 
    352  i.vTaskSwitchContext       0x00002640   Lc    1  Sect  De 
    353  i.xTaskCheckForTimeOut     0x00002d90   Lc    1  Sect  De 
    354  i.xTaskGenericCreate       0x00002df8   Lc    1  Sect  De 
    355  i.xTaskGetCurrentTaskHandle
                                    0x00002f1c   Lc    1  Sect  De 
    356  i.xTaskGetSchedulerState   0x00002f28   Lc    1  Sect  De 
    357  i.xTaskGetTickCount        0x00002f48   Lc    1  Sect  De 
    358  i.xTaskIncrementTick       0x00002f60   Lc    1  Sect  De 
    359  i.xTaskRemoveFromEventList 0x0000307c   Lc    1  Sect  De 
    360  i.xTaskRemoveFromUnorderedEventList
                                    0x00003100   Lc    1  Sect  De 
    361  i.xTaskResumeAll           0x00003188   Lc    1  Sect  De 
    362  .bss                       0x1000019c   Lc    3  Sect  De   0xb4
    363  pxReadyTasksLists          0x1000019c   Lc    3  Data  De   0x50
    364  xDelayedTaskList1          0x100001ec   Lc    3  Data  De   0x14
    365  xDelayedTaskList2          0x10000200   Lc    3  Data  De   0x14
    366  xPendingReadyList          0x10000214   Lc    3  Data  De   0x14
    367  xTasksWaitingTermination   0x10000228   Lc    3  Data  De   0x14
    368  xSuspendedTaskList         0x1000023c   Lc    3  Data  De   0x14
    369  .constdata                 0x0000336c   Lc    1  Sect  De   0x14
    370  ucExpectedStackBytes       0x0000336c   Lc    1  Data  De   0x14
    371  .data                      0x10000040   Lc    2  Sect  De   0x38
    372  pxDelayedTaskList          0x10000044   Lc    2  Data  De   0x4
    373  pxOverflowDelayedTaskList  0x10000048   Lc    2  Data  De   0x4
    374  uxTasksDeleted             0x1000004c   Lc    2  Data  De   0x4
    375  uxCurrentNumberOfTasks     0x10000050   Lc    2  Data  De   0x4
    376  xTickCount                 0x10000054   Lc    2  Data  De   0x4
    377  uxTopReadyPriority         0x10000058   Lc    2  Data  De   0x4
    378  xSchedulerRunning          0x1000005c   Lc    2  Data  De   0x4
    379  uxPendedTicks              0x10000060   Lc    2  Data  De   0x4
    380  xYieldPending              0x10000064   Lc    2  Data  De   0x4
    381  xNumOfOverflows            0x10000068   Lc    2  Data  De   0x4
    382  uxTaskNumber               0x1000006c   Lc    2  Data  De   0x4
    383  xNextTaskUnblockTime       0x10000070   Lc    2  Data  De   0x4
    384  uxSchedulerSuspended       0x10000074   Lc    2  Data  De   0x4
    385  ../../../../../third_party/FreeRTOS/Source/timers.c
                                    0x00000000   Lc  Abs  File  De 
    386  i.prvCheckForValidListAndQueue
                                    0x00001694   Lc    1  Sect  De 
    387  prvCheckForValidListAndQueue
                                    0x00001695   Lc    1  Code  De   0x52
    388  i.prvGetNextExpireTime     0x00001850   Lc    1  Sect  De 
    389  prvGetNextExpireTime       0x00001851   Lc    1  Code  De   0x24
    390  i.prvInsertTimerInActiveList
                                    0x000019cc   Lc    1  Sect  De 
    391  prvInsertTimerInActiveList 0x000019cd   Lc    1  Code  De   0x50
    392  i.prvProcessExpiredTimer   0x00001a5c   Lc    1  Sect  De 
    393  prvProcessExpiredTimer     0x00001a5d   Lc    1  Code  De   0x4e
    394  i.prvProcessReceivedCommands
                                    0x00001ab0   Lc    1  Sect  De 
    395  prvProcessReceivedCommands 0x00001ab1   Lc    1  Code  De   0xe8
    396  i.prvProcessTimerOrBlockTask
                                    0x00001b9c   Lc    1  Sect  De 
    397  prvProcessTimerOrBlockTask 0x00001b9d   Lc    1  Code  De   0x46
    398  i.prvSampleTimeNow         0x00001c1c   Lc    1  Sect  De 
    399  prvSampleTimeNow           0x00001c1d   Lc    1  Code  De   0x28
    400  i.prvSwitchTimerLists      0x00001c48   Lc    1  Sect  De 
    401  prvSwitchTimerLists        0x00001c49   Lc    1  Code  De   0x84
    402  i.prvTimerTask             0x00001d12   Lc    1  Sect  De 
    403  prvTimerTask               0x00001d13   Lc    1  Code  De   0x1a
    404  i.xTimerCreateTimerTask    0x0000326c   Lc    1  Sect  De 
    405  i.xTimerGenericCommand     0x000032b4   Lc    1  Sect  De 
    406  i.xTimerPendFunctionCallFromISR
                                    0x00003320   Lc    1  Sect  De 
    407  .bss                       0x10000250   Lc    3  Sect  De   0x28
    408  xActiveTimerList1          0x10000250   Lc    3  Data  De   0x14
    409  xActiveTimerList2          0x10000264   Lc    3  Data  De   0x14
    410  .data                      0x10000078   Lc    2  Sect  De   0x10
    411  pxCurrentTimerList         0x10000078   Lc    2  Data  De   0x4
    412  pxOverflowTimerList        0x1000007c   Lc    2  Data  De   0x4
    413  xTimerQueue                0x10000080   Lc    2  Data  De   0x4
    414  xLastTime                  0x10000084   Lc    2  Data  De   0x4
    415  ..\..\..\..\..\third_party\FreeRTOS\Source\portable\RVDS\ARM_CM4F\port.c
                                    0x00000000   Lc  Abs  File  De 
    416  .emb_text                  0x00000154   Lc    1  Sect  De   0xc2
    417  $v0                        0x00000154   Lc    1   --   De 
    418  ../../../../../third_party/FreeRTOS/Source/portable/RVDS/ARM_CM4F/port.c
                                    0x00000000   Lc  Abs  File  De 
    419  i.prvTaskExitError         0x00001cd4   Lc    1  Sect  De 
    420  prvTaskExitError           0x00001cd5   Lc    1  Code  De   0x1c
    421  i.pxPortInitialiseStack    0x00001e64   Lc    1  Sect  De 
    422  i.vPortEnterCritical       0x00002024   Lc    1  Sect  De 
    423  i.vPortExitCritical        0x00002044   Lc    1  Sect  De 
    424  i.vPortSuppressTicksAndSleep
                                    0x000020f0   Lc    1  Sect  De 
    425  i.vPortValidateInterruptPriority
                                    0x00002234   Lc    1  Sect  De 
    426  i.vPortYield               0x00002288   Lc    1  Sect  De 
    427  i.xPortStartScheduler      0x000028b4   Lc    1  Sect  De 
    428  .data                      0x10000088   Lc    2  Sect  De   0x18
    429  uxCriticalNesting          0x10000088   Lc    2  Data  De   0x4
    430  ulTimerCountsForOneTick    0x1000008c   Lc    2  Data  De   0x4
    431  xMaximumPossibleSuppressedTicks
                                    0x10000090   Lc    2  Data  De   0x4
    432  ulStoppedTimerCompensation 0x10000094   Lc    2  Data  De   0x4
    433  ucMaxSysCallPriority       0x10000098   Lc    2  Data  De   0x1
    434  ulMaxPRIGROUPValue         0x1000009c   Lc    2  Data  De   0x4
    435  ../../../../../third_party/FreeRTOS/Source/portable/MemMang/heap_2.c
                                    0x00000000   Lc  Abs  File  De 
    436  i.prvHeapInit              0x00001878   Lc    1  Sect  De 
    437  prvHeapInit                0x00001879   Lc    1  Code  De   0x2a
    438  i.pvPortMalloc             0x00001dac   Lc    1  Sect  De 
    439  i.vPortFree                0x0000206c   Lc    1  Sect  De 
    440  .bss                       0x10000278   Lc    3  Sect  De   0x2400
    441  ucHeap                     0x10000278   Lc    3  Data  De   0x2400
    442  .data                      0x100000a0   Lc    2  Sect  De   0x18
    443  xStart                     0x100000a0   Lc    2  Data  De   0x8
    444  xEnd                       0x100000a8   Lc    2  Data  De   0x8
    445  xFreeBytesRemaining        0x100000b0   Lc    2  Data  De   0x4
    446  xHeapHasBeenInitialised    0x100000b4   Lc    2  Data  De   0x4
    447  ../am_hal_global.c         0x00000000   Lc  Abs  File  De 
    448  .data                      0x100000b8   Lc    2  Sect  De   0x4
    449  ../am_hal_clkgen.c         0x00000000   Lc  Abs  File  De 
    450  i.am_hal_clkgen_osc_stop   0x0000096a   Lc    1  Sect  De 
    451  i.am_hal_clkgen_sysclk_get 0x00000978   Lc    1  Sect  De 
    452  i.am_hal_clkgen_sysclk_select
                                    0x000009d8   Lc    1  Sect  De 
    453  ..\am_hal_ctimer.c         0x00000000   Lc  Abs  File  De 
    454  ../am_hal_ctimer.c         0x00000000   Lc  Abs  File  De 
    455  i.am_hal_ctimer_compare_set
                                    0x000009e8   Lc    1  Sect  De 
    456  i.am_hal_ctimer_config     0x00000a14   Lc    1  Sect  De 
    457  i.am_hal_ctimer_int_clear  0x00000a38   Lc    1  Sect  De 
    458  i.am_hal_ctimer_int_enable 0x00000a44   Lc    1  Sect  De 
    459  i.am_hal_ctimer_int_status_get
                                    0x00000a58   Lc    1  Sect  De 
    460  i.am_hal_ctimer_start      0x00000a70   Lc    1  Sect  De 
    461  ../am_hal_gpio.c           0x00000000   Lc  Abs  File  De 
    462  i.am_hal_gpio_int_clear    0x00000a90   Lc    1  Sect  De 
    463  i.am_hal_gpio_int_enable   0x00000aa0   Lc    1  Sect  De 
    464  i.am_hal_gpio_int_register 0x00000abc   Lc    1  Sect  De 
    465  i.am_hal_gpio_int_service  0x00000b10   Lc    1  Sect  De 
    466  i.am_hal_gpio_int_status_get
                                    0x00000b68   Lc    1  Sect  De 
    467  .bss                       0x10002678   Lc    3  Sect  De   0x100
    468  ..\am_hal_interrupt.c      0x00000000   Lc  Abs  File  De 
    469  ../am_hal_interrupt.c      0x00000000   Lc  Abs  File  De 
    470  i.am_hal_interrupt_enable  0x00000ba0   Lc    1  Sect  De 
    471  i.am_hal_interrupt_priority_set
                                    0x00000bec   Lc    1  Sect  De 
    472  ../am_hal_iom.c            0x00000000   Lc  Abs  File  De 
    473  i.am_hal_iom_config        0x00000c20   Lc    1  Sect  De 
    474  i.am_hal_iom_enable        0x00000c78   Lc    1  Sect  De 
    475  i.am_hal_iom_fifo_read     0x00000ce8   Lc    1  Sect  De 
    476  i.am_hal_iom_fifo_write    0x00000db8   Lc    1  Sect  De 
    477  i.am_hal_iom_int_clear     0x00000e88   Lc    1  Sect  De 
    478  i.am_hal_iom_int_enable    0x00000e98   Lc    1  Sect  De 
    479  i.am_hal_iom_int_service   0x00000eb0   Lc    1  Sect  De 
    480  i.am_hal_iom_int_status_get
                                    0x00000f80   Lc    1  Sect  De 
    481  i.am_hal_iom_spi_read      0x00000fa0   Lc    1  Sect  De 
    482  i.am_hal_iom_spi_read_nb   0x00001080   Lc    1  Sect  De 
    483  i.am_hal_iom_spi_write     0x00001128   Lc    1  Sect  De 
    484  .bss                       0x10002778   Lc    3  Sect  De   0x20
    485  .data                      0x100000bc   Lc    2  Sect  De   0x8
    486  ..\am_hal_itm.c            0x00000000   Lc  Abs  File  De 
    487  .emb_text                  0x00000218   Lc    1  Sect  De   0x6
    488  $v0                        0x00000218   Lc    1   --   De 
    489  ../am_hal_itm.c            0x00000000   Lc  Abs  File  De 
    490  i.am_hal_itm_delay_us      0x00001210   Lc    1  Sect  De 
    491  i.am_hal_itm_enable        0x0000122c   Lc    1  Sect  De 
    492  i.am_hal_itm_not_busy      0x00001284   Lc    1  Sect  De 
    493  i.am_hal_itm_print         0x000012b0   Lc    1  Sect  De 
    494  i.am_hal_itm_stimulus_reg_word_write
                                    0x0000130c   Lc    1  Sect  De 
    495  i.am_hal_itm_sync_send     0x00001320   Lc    1  Sect  De 
    496  .data                      0x100000c4   Lc    2  Sect  De   0x8
    497  ../am_hal_sysctrl.c        0x00000000   Lc  Abs  File  De 
    498  i.am_hal_sysctrl_sleep     0x00001390   Lc    1  Sect  De 
    499  ../am_bsp.c                0x00000000   Lc  Abs  File  De 
    500  i.am_bsp_debug_printf_disable
                                    0x0000063c   Lc    1  Sect  De 
    501  i.am_bsp_debug_printf_enable
                                    0x00000680   Lc    1  Sect  De 
    502  i.am_bsp_iom_spi_pins_enable
                                    0x000006bc   Lc    1  Sect  De 
    503  i.am_bsp_low_power_init    0x00000718   Lc    1  Sect  De 
    504  ../am_hal_debug.c          0x00000000   Lc  Abs  File  De 
    505  i.am_hal_debug_error       0x00000a8c   Lc    1  Sect  De 
    506  ../am_hal_i2c_bit_bang.c   0x00000000   Lc  Abs  File  De 
    507  ../am_hal_mcuctrl.c        0x00000000   Lc  Abs  File  De 
    508  i.am_hal_mcuctrl_bandgap_disable
                                    0x00001334   Lc    1  Sect  De 
    509  i.am_hal_mcuctrl_bucks_enable
                                    0x00001344   Lc    1  Sect  De 
    510  ../am_hal_rtc.c            0x00000000   Lc  Abs  File  De 
    511  i.am_hal_rtc_osc_disable   0x0000136c   Lc    1  Sect  De 
    512  i.am_hal_rtc_osc_select    0x0000137a   Lc    1  Sect  De 
    513  ../am_hal_tpiu.c           0x00000000   Lc  Abs  File  De 
    514  i.am_hal_tpiu_disable      0x000013c4   Lc    1  Sect  De 
    515  i.am_hal_tpiu_enable       0x000013d4   Lc    1  Sect  De 
    516  ../am_hal_vcomp.c          0x00000000   Lc  Abs  File  De 
    517  i.am_hal_vcomp_disable     0x00001408   Lc    1  Sect  De 
    518  dc.s                       0x00000000   Lc  Abs  File  De 
    519  ../clib/string.c           0x00000000   Lc  Abs  File  De 
    520  .text                      0x00000238   Lc    1  Sect  De 
    521  ../clib/memcpset.s         0x00000000   Lc  Abs  File  De 
    522  .text                      0x00000290   Lc    1  Sect  De   0x8a
    523  ../clib/memcpset.s         0x00000000   Lc  Abs  File  De 
    524  .text                      0x0000031a   Lc    1  Sect  De   0x10
    525  ../clib/heapaux.c          0x00000000   Lc  Abs  File  De 
    526  .text                      0x0000032a   Lc    1  Sect  De 
    527  ../clib/angel/startup.s    0x00000000   Lc  Abs  File  De 
    528  !!!main                    0x00000098   Lc    1  Sect  De   0x8
    529  ../fplib/d2f.s             0x00000000   Lc  Abs  File  De 
    530  ../clib/angel/kernel.s     0x00000000   Lc  Abs  File  De 
    531  .ARM.Collect$$rtentry$$00000000
                                    0x00000118   Lc    1  Sect  De 
    532  ../clib/memcpset.s         0x00000000   Lc  Abs  File  De 
    533  .text                      0x00000330   Lc    1  Sect  De   0x64
    534  ../clib/memcpset.s         0x00000000   Lc  Abs  File  De 
    535  .text                      0x00000394   Lc    1  Sect  De   0x44
    536  ../fplib/dnaninf.s         0x00000000   Lc  Abs  File  De 
    537  ../fplib/fretinf.s         0x00000000   Lc  Abs  File  De 
    538  ../fplib/usenofp.s         0x00000000   Lc  Abs  File  De 
    539  ../clib/angel/kernel.s     0x00000000   Lc  Abs  File  De 
    540  .ARM.Collect$$rtentry$$00000002
                                    0x00000118   Lc    1  Sect  De 
    541  .ARM.Collect$$rtentry$$00000009
                                    0x0000011e   Lc    1  Sect  De 
    542  .ARM.Collect$$rtentry$$0000000A
                                    0x0000011e   Lc    1  Sect  De   0x4
    543  .ARM.Collect$$rtentry$$0000000C
                                    0x00000122   Lc    1  Sect  De 
    544  .ARM.Collect$$rtentry$$0000000D
                                    0x00000122   Lc    1  Sect  De   0x8
    545  ../clib/angel/kernel.s     0x00000000   Lc  Abs  File  De 
    546  .ARM.Collect$$rtentry$$00000004
                                    0x00000118   Lc    1  Sect  De   0x6
    547  ../clib/memcpset.s         0x00000000   Lc  Abs  File  De 
    548  .text                      0x000003d8   Lc    1  Sect  De   0x4e
    549  ../clib/angel/sys.s        0x00000000   Lc  Abs  File  De 
    550  .text                      0x00000426   Lc    1  Sect  De   0x4a
    551  ../clib/stdlib.c           0x00000000   Lc  Abs  File  De 
    552  .text                      0x00000470   Lc    1  Sect  De 
    553  ../clib/angel/boardlib.s   0x00000000   Lc  Abs  File  De 
    554  ../clib/angel/boardlib.s   0x00000000   Lc  Abs  File  De 
    555  ../clib/angel/boardlib.s   0x00000000   Lc  Abs  File  De 
    556  ../clib/libinit.s          0x00000000   Lc  Abs  File  De 
    557  .ARM.Collect$$libinit$$00000000
                                    0x0000010c   Lc    1  Sect  De   0x2
    558  ../clib/angel/sys.s        0x00000000   Lc  Abs  File  De 
    559  .text                      0x0000047c   Lc    1  Sect  De   0x8
    560  .bss                       0x10002798   Lc    3  Sect  De   0x60
    561  ../clib/angel/kernel.s     0x00000000   Lc  Abs  File  De 
    562  .ARM.Collect$$rtexit$$00000000
                                    0x0000012a   Lc    1  Sect  De   0x2
    563  ../clib/libinit.s          0x00000000   Lc  Abs  File  De 
    564  .ARM.Collect$$libinit$$00000001
                                    0x0000010e   Lc    1  Sect  De   0x4
    565  .ARM.Collect$$libinit$$00000004
                                    0x00000112   Lc    1  Sect  De 
    566  .ARM.Collect$$libinit$$0000000A
                                    0x00000112   Lc    1  Sect  De 
    567  .ARM.Collect$$libinit$$0000000C
                                    0x00000112   Lc    1  Sect  De 
    568  .ARM.Collect$$libinit$$0000000E
                                    0x00000112   Lc    1  Sect  De 
    569  .ARM.Collect$$libinit$$00000011
                                    0x00000112   Lc    1  Sect  De 
    570  .ARM.Collect$$libinit$$00000013
                                    0x00000112   Lc    1  Sect  De 
    571  .ARM.Collect$$libinit$$00000015
                                    0x00000112   Lc    1  Sect  De 
    572  .ARM.Collect$$libinit$$00000017
                                    0x00000112   Lc    1  Sect  De 
    573  .ARM.Collect$$libinit$$00000019
                                    0x00000112   Lc    1  Sect  De 
    574  .ARM.Collect$$libinit$$0000001B
                                    0x00000112   Lc    1  Sect  De 
    575  .ARM.Collect$$libinit$$0000001D
                                    0x00000112   Lc    1  Sect  De 
    576  .ARM.Collect$$libinit$$0000001F
                                    0x00000112   Lc    1  Sect  De 
    577  .ARM.Collect$$libinit$$00000021
                                    0x00000112   Lc    1  Sect  De 
    578  .ARM.Collect$$libinit$$00000023
                                    0x00000112   Lc    1  Sect  De 
    579  .ARM.Collect$$libinit$$00000025
                                    0x00000112   Lc    1  Sect  De 
    580  .ARM.Collect$$libinit$$0000002C
                                    0x00000112   Lc    1  Sect  De 
    581  .ARM.Collect$$libinit$$0000002E
                                    0x00000112   Lc    1  Sect  De 
    582  .ARM.Collect$$libinit$$00000030
                                    0x00000112   Lc    1  Sect  De 
    583  .ARM.Collect$$libinit$$00000032
                                    0x00000112   Lc    1  Sect  De 
    584  .ARM.Collect$$libinit$$00000033
                                    0x00000112   Lc    1  Sect  De   0x2
    585  ../clib/angel/kernel.s     0x00000000   Lc  Abs  File  De 
    586  .ARM.Collect$$rtexit$$00000002
                                    0x0000012c   Lc    1  Sect  De 
    587  .ARM.Collect$$rtexit$$00000003
                                    0x0000012c   Lc    1  Sect  De   0x4
    588  .ARM.Collect$$rtexit$$00000004
                                    0x00000130   Lc    1  Sect  De   0x6
    589  ../clib/armsys.c           0x00000000   Lc  Abs  File  De 
    590  ../clib/armsys.c           0x00000000   Lc  Abs  File  De 
    591  ../fplib/fpinit.s          0x00000000   Lc  Abs  File  De 
    592  x$fpl$fpinit               0x00003354   Lc    1  Sect  De   0xa
    593  $v0                        0x00003354   Lc    1   --   De 
    594  ../clib/angel/sysapp.c     0x00000000   Lc  Abs  File  De 
    595  .text                      0x00000484   Lc    1  Sect  De 
    596  ../clib/angel/boardlib.s   0x00000000   Lc  Abs  File  De 
    597  ../clib/armsys.c           0x00000000   Lc  Abs  File  De 
    598  ../clib/armsys.c           0x00000000   Lc  Abs  File  De 
    599  ../clib/libinit.s          0x00000000   Lc  Abs  File  De 
    600  .ARM.Collect$$libshutdown$$00000000
                                    0x00000114   Lc    1  Sect  De   0x2
    601  ../clib/angel/sysapp.c     0x00000000   Lc  Abs  File  De 
    602  ../clib/angel/sys.s        0x00000000   Lc  Abs  File  De 
    603  .text                      0x00000490   Lc    1  Sect  De   0x2
    604  ../clib/angel/sys.s        0x00000000   Lc  Abs  File  De 
    605  .text                      0x00000492   Lc    1  Sect  De 
    606  ../clib/heapalloc.c        0x00000000   Lc  Abs  File  De 
    607  ../clib/signal.c           0x00000000   Lc  Abs  File  De 
    608  ../clib/signal.c           0x00000000   Lc  Abs  File  De 
    609  ../clib/libinit.s          0x00000000   Lc  Abs  File  De 
    610  .ARM.Collect$$libshutdown$$00000003
                                    0x00000116   Lc    1  Sect  De 
    611  .ARM.Collect$$libshutdown$$00000006
                                    0x00000116   Lc    1  Sect  De 
    612  .ARM.Collect$$libshutdown$$00000009
                                    0x00000116   Lc    1  Sect  De 
    613  .ARM.Collect$$libshutdown$$0000000B
                                    0x00000116   Lc    1  Sect  De 
    614  .ARM.Collect$$libshutdown$$0000000E
                                    0x00000116   Lc    1  Sect  De 
    615  .ARM.Collect$$libshutdown$$0000000F
                                    0x00000116   Lc    1  Sect  De   0x2
    616  ../clib/angel/rt.s         0x00000000   Lc  Abs  File  De 
    617  ../clib/signal.c           0x00000000   Lc  Abs  File  De 
    618  ../clib/signal.c           0x00000000   Lc  Abs  File  De 
    619  ../clib/signal.c           0x00000000   Lc  Abs  File  De 
    620  ../clib/signal.c           0x00000000   Lc  Abs  File  De 
    621  ../clib/angel/sysapp.c     0x00000000   Lc  Abs  File  De 
    622  ../clib/signal.s           0x00000000   Lc  Abs  File  De 
    623  ../clib/signal.c           0x00000000   Lc  Abs  File  De 
    624  ../clib/signal.c           0x00000000   Lc  Abs  File  De 
    625  ../clib/signal.c           0x00000000   Lc  Abs  File  De 
    626  ../clib/signal.c           0x00000000   Lc  Abs  File  De 
    627  ../clib/signal.c           0x00000000   Lc  Abs  File  De 
    628  ../clib/signal.c           0x00000000   Lc  Abs  File  De 
    629  ../clib/signal.c           0x00000000   Lc  Abs  File  De 
    630  ../clib/signal.c           0x00000000   Lc  Abs  File  De 
    631  ../clib/angel/scatter.s    0x00000000   Lc  Abs  File  De 
    632  !!!scatter                 0x000000a0   Lc    1  Sect  De   0x34
    633  ../clib/angel/handlers.s   0x00000000   Lc  Abs  File  De 
    634  !!handler_copy             0x000000d4   Lc    1  Sect  De   0x1a
    635  ../clib/angel/handlers.s   0x00000000   Lc  Abs  File  De 
    636  !!handler_zi               0x000000f0   Lc    1  Sect  De   0x1c
    637  BuildAttributes$$THM_ISAv4$E$P$D$K$B$S$7EM$VFPi3$EXTD16$VFPS$VFMA$PE$A:L22UL41UL21$X:L11$S22US41US21$IEEE1$IW$USESV6$~STKCKD$USESV7$~SHL$OTIME$ROPI$EBA8$UX$STANDARDLIB$REQ8$EABIv2
                                    0x00000000   Gb  Abs   --   Hi 
    638  __ARM_use_no_argv          0x00000000   Gb  Abs   --   Hi 
    639  __Vectors                  0x00000000   Gb    1  Data  Hi 
    640  Reset_Handler              0x00000071   Wk    1  Code  Hi   0x14
    641  am_nmi_isr                 0x00000085   Wk    1  Code  Hi   0x2
    642  am_memmanage_isr           0x00000089   Wk    1  Code  Hi   0x2
    643  am_mpufault_isr            0x0000008b   Wk    1  Code  Hi   0x2
    644  am_busfault_isr            0x0000008d   Wk    1  Code  Hi   0x2
    645  am_usagefault_isr          0x0000008f   Wk    1  Code  Hi   0x2
    646  am_adc_isr                 0x00000091   Wk    1  Code  Hi 
    647  am_brownout_isr            0x00000091   Wk    1  Code  Hi 
    648  am_clkgen_isr              0x00000091   Wk    1  Code  Hi 
    649  am_debugmon_isr            0x00000091   Wk    1  Code  Hi 
    650  am_ioslave_acc_isr         0x00000091   Wk    1  Code  Hi 
    651  am_ioslave_ios_isr         0x00000091   Wk    1  Code  Hi 
    652  am_systick_isr             0x00000091   Wk    1  Code  Hi 
    653  am_uart_isr                0x00000091   Wk    1  Code  Hi 
    654  am_vcomp_isr               0x00000091   Wk    1  Code  Hi 
    655  am_watchdog_isr            0x00000091   Wk    1  Code  Hi 
    656  __main                     0x00000099   Gb    1  Code  Hi   0x8
    657  __scatterload              0x000000a1   Gb    1  Code  Hi 
    658  __scatterload_rt2          0x000000a1   Gb    1  Code  Hi   0x2c
    659  __scatterload_rt2_thumb_only
                                    0x000000a1   Gb    1  Code  Hi 
    660  __scatterload_null         0x000000af   Gb    1  Code  Hi 
    661  __scatterload_copy         0x000000d5   Gb    1  Code  Hi   0x1a
    662  __scatterload_zeroinit     0x000000f1   Gb    1  Code  Hi   0x1c
    663  __rt_lib_init              0x0000010d   Gb    1  Code  De 
    664  __rt_lib_init_fp_1         0x0000010f   Gb    1  Code  Hi 
    665  __rt_lib_init_alloca_1     0x00000113   Gb    1  Code  Hi 
    666  __rt_lib_init_argv_1       0x00000113   Gb    1  Code  Hi 
    667  __rt_lib_init_atexit_1     0x00000113   Gb    1  Code  Hi 
    668  __rt_lib_init_clock_1      0x00000113   Gb    1  Code  Hi 
    669  __rt_lib_init_cpp_1        0x00000113   Gb    1  Code  Hi 
    670  __rt_lib_init_exceptions_1 0x00000113   Gb    1  Code  Hi 
    671  __rt_lib_init_fp_trap_1    0x00000113   Gb    1  Code  Hi 
    672  __rt_lib_init_getenv_1     0x00000113   Gb    1  Code  Hi 
    673  __rt_lib_init_heap_1       0x00000113   Gb    1  Code  Hi 
    674  __rt_lib_init_lc_collate_1 0x00000113   Gb    1  Code  Hi 
    675  __rt_lib_init_lc_ctype_1   0x00000113   Gb    1  Code  Hi 
    676  __rt_lib_init_lc_monetary_1
                                    0x00000113   Gb    1  Code  Hi 
    677  __rt_lib_init_lc_numeric_1 0x00000113   Gb    1  Code  Hi 
    678  __rt_lib_init_lc_time_1    0x00000113   Gb    1  Code  Hi 
    679  __rt_lib_init_preinit_1    0x00000113   Gb    1  Code  Hi 
    680  __rt_lib_init_rand_1       0x00000113   Gb    1  Code  Hi 
    681  __rt_lib_init_return       0x00000113   Gb    1  Code  Hi 
    682  __rt_lib_init_signal_1     0x00000113   Gb    1  Code  Hi 
    683  __rt_lib_init_stdio_1      0x00000113   Gb    1  Code  Hi 
    684  __rt_lib_init_user_alloc_1 0x00000113   Gb    1  Code  Hi 
    685  __rt_lib_shutdown          0x00000115   Gb    1  Code  De 
    686  __rt_lib_shutdown_fp_trap_1
                                    0x00000117   Gb    1  Code  Hi 
    687  __rt_lib_shutdown_heap_1   0x00000117   Gb    1  Code  Hi 
    688  __rt_lib_shutdown_return   0x00000117   Gb    1  Code  Hi 
    689  __rt_lib_shutdown_signal_1 0x00000117   Gb    1  Code  Hi 
    690  __rt_lib_shutdown_stdio_1  0x00000117   Gb    1  Code  Hi 
    691  __rt_lib_shutdown_user_alloc_1
                                    0x00000117   Gb    1  Code  Hi 
    692  __rt_entry                 0x00000119   Gb    1  Code  Hi 
    693  __rt_entry_presh_1         0x00000119   Gb    1  Code  Hi 
    694  __rt_entry_sh              0x00000119   Gb    1  Code  Hi 
    695  __rt_entry_li              0x0000011f   Gb    1  Code  Hi 
    696  __rt_entry_postsh_1        0x0000011f   Gb    1  Code  Hi 
    697  __rt_entry_main            0x00000123   Gb    1  Code  Hi 
    698  __rt_entry_postli_1        0x00000123   Gb    1  Code  Hi 
    699  __rt_exit                  0x0000012b   Gb    1  Code  De 
    700  __rt_exit_ls               0x0000012d   Gb    1  Code  Hi 
    701  __rt_exit_prels_1          0x0000012d   Gb    1  Code  Hi 
    702  __rt_exit_exit             0x00000131   Gb    1  Code  Hi 
    703  am_util_delay_cycles       0x00000139   Gb    1  Code  Hi   0x6
    704  am_fault_isr               0x00000141   Gb    1  Code  Hi   0xc
    705  getStackedReg              0x0000014d   Gb    1  Code  Hi   0x8
    706  am_svcall_isr              0x00000155   Gb    1  Code  Hi   0x1c
    707  __asm___6_port_c_39a90d8d__prvStartFirstTask
                                    0x00000175   Gb    1  Code  Hi   0x18
    708  __asm___6_port_c_39a90d8d__prvEnableVFP
                                    0x00000191   Gb    1  Code  Hi   0x10
    709  am_pendsv_isr              0x000001a5   Gb    1  Code  Hi   0x54
    710  ulPortSetInterruptMask     0x000001fd   Gb    1  Code  Hi   0xe
    711  vPortClearInterruptMask    0x0000020b   Gb    1  Code  Hi   0x6
    712  vPortGetIPSR               0x00000211   Gb    1  Code  Hi   0x6
    713  __asm___12_am_hal_itm_c_0782d9ac__am_itm_delay_cycles
                                    0x00000219   Gb    1  Code  Hi   0x6
    714  __user_initial_stackheap   0x00000221   Gb    1  Code  Hi   0xa
    715  memcmp                     0x00000239   Gb    1  Code  Hi   0x58
    716  __aeabi_memcpy             0x00000291   Gb    1  Code  Hi 
    717  __rt_memcpy                0x00000291   Gb    1  Code  De   0x8a
    718  _memcpy_lastbytes          0x000002f7   Gb    1  Code  De 
    719  __aeabi_memset             0x0000031b   Gb    1  Code  Hi   0x10
    720  __use_two_region_memory    0x0000032b   Gb    1  Code  Hi   0x2
    721  __rt_heap_escrow$2region   0x0000032d   Gb    1  Code  De   0x2
    722  __rt_heap_expand$2region   0x0000032f   Gb    1  Code  De   0x2
    723  __aeabi_memcpy4            0x00000331   Gb    1  Code  De 
    724  __aeabi_memcpy8            0x00000331   Gb    1  Code  De 
    725  __rt_memcpy_w              0x00000331   Gb    1  Code  De   0x64
    726  _memcpy_lastbytes_aligned  0x00000379   Gb    1  Code  De 
    727  __aeabi_memclr             0x00000395   Gb    1  Code  De 
    728  __rt_memclr                0x00000395   Gb    1  Code  De   0x44
    729  _memset                    0x00000399   Gb    1  Code  De 
    730  __aeabi_memclr4            0x000003d9   Gb    1  Code  De 
    731  __aeabi_memclr8            0x000003d9   Gb    1  Code  De 
    732  __rt_memclr_w              0x000003d9   Gb    1  Code  De   0x4e
    733  _memset_w                  0x000003dd   Gb    1  Code  De 
    734  __user_setup_stackheap     0x00000427   Gb    1  Code  De   0x4a
    735  exit                       0x00000471   Gb    1  Code  De   0xc
    736  __user_libspace            0x0000047d   Wk    1  Code  De   0x8
    737  __user_perproc_libspace    0x0000047d   Wk    1  Code  De 
    738  __user_perthread_libspace  0x0000047d   Wk    1  Code  De 
    739  _sys_exit                  0x00000485   Gb    1  Code  De   0x8
    740  __I$use$semihosting        0x00000491   Gb    1  Code  Hi 
    741  __use_no_semihosting_swi   0x00000491   Gb    1  Code  Hi   0x2
    742  __semihosting_library_function
                                    0x00000493   Gb    1  Code  Hi 
    743  adxl362_task               0x00000495   Gb    1  Code  Hi   0x15c
    744  adxl_handler               0x00000605   Gb    1  Code  Hi   0x2c
    745  am_bsp_debug_printf_disable
                                    0x0000063d   Gb    1  Code  Hi   0x3c
    746  am_bsp_debug_printf_enable 0x00000681   Gb    1  Code  Hi   0x32
    747  am_bsp_iom_spi_pins_enable 0x000006bd   Gb    1  Code  Hi   0x56
    748  am_bsp_low_power_init      0x00000719   Gb    1  Code  Hi   0x28
    749  am_ctimer_isr              0x00000741   Gb    1  Code  Hi   0x18
    750  am_devices_adxl362_config  0x00000759   Gb    1  Code  Hi   0x11e
    751  am_devices_adxl362_fifo_depth_get
                                    0x00000877   Gb    1  Code  Hi   0x3e
    752  am_devices_adxl362_measurement_mode_set
                                    0x000008b5   Gb    1  Code  Hi   0x28
    753  am_devices_adxl362_reset   0x000008dd   Gb    1  Code  Hi   0x2e
    754  am_devices_adxl362_sample_get
                                    0x0000090b   Gb    1  Code  Hi   0x42
    755  am_gpio_isr                0x0000094d   Gb    1  Code  Hi   0x1e
    756  am_hal_clkgen_osc_stop     0x0000096b   Gb    1  Code  Hi   0xc
    757  am_hal_clkgen_sysclk_get   0x00000979   Gb    1  Code  Hi   0x40
    758  am_hal_clkgen_sysclk_select
                                    0x000009d9   Gb    1  Code  Hi   0x10
    759  am_hal_ctimer_compare_set  0x000009e9   Gb    1  Code  Hi   0x22
    760  am_hal_ctimer_config       0x00000a15   Gb    1  Code  Hi   0x1e
    761  am_hal_ctimer_int_clear    0x00000a39   Gb    1  Code  Hi   0x8
    762  am_hal_ctimer_int_enable   0x00000a45   Gb    1  Code  Hi   0xe
    763  am_hal_ctimer_int_status_get
                                    0x00000a59   Gb    1  Code  Hi   0x12
    764  am_hal_ctimer_start        0x00000a71   Gb    1  Code  Hi   0x18
    765  am_hal_debug_error         0x00000a8d   Wk    1  Code  Hi   0x2
    766  am_hal_gpio_int_clear      0x00000a91   Gb    1  Code  Hi   0xc
    767  am_hal_gpio_int_enable     0x00000aa1   Gb    1  Code  Hi   0x18
    768  am_hal_gpio_int_register   0x00000abd   Gb    1  Code  Hi   0x1e
    769  am_hal_gpio_int_service    0x00000b11   Gb    1  Code  Hi   0x54
    770  am_hal_gpio_int_status_get 0x00000b69   Gb    1  Code  Hi   0x34
    771  am_hal_interrupt_enable    0x00000ba1   Gb    1  Code  Hi   0x46
    772  am_hal_interrupt_priority_set
                                    0x00000bed   Gb    1  Code  Hi   0x30
    773  am_hal_iom_config          0x00000c21   Gb    1  Code  Hi   0x52
    774  am_hal_iom_enable          0x00000c79   Gb    1  Code  Hi   0x68
    775  am_hal_iom_fifo_read       0x00000ce9   Gb    1  Code  Hi   0x88
    776  am_hal_iom_fifo_write      0x00000db9   Gb    1  Code  Hi   0x8c
    777  am_hal_iom_int_clear       0x00000e89   Gb    1  Code  Hi   0x10
    778  am_hal_iom_int_enable      0x00000e99   Gb    1  Code  Hi   0x16
    779  am_hal_iom_int_service     0x00000eb1   Gb    1  Code  Hi   0xca
    780  am_hal_iom_int_status_get  0x00000f81   Gb    1  Code  Hi   0x20
    781  am_hal_iom_spi_read        0x00000fa1   Gb    1  Code  Hi   0xb4
    782  am_hal_iom_spi_read_nb     0x00001081   Gb    1  Code  Hi   0x76
    783  am_hal_iom_spi_write       0x00001129   Gb    1  Code  Hi   0xbc
    784  am_hal_itm_delay_us        0x00001211   Gb    1  Code  Hi   0x18
    785  am_hal_itm_enable          0x0000122d   Gb    1  Code  Hi   0x38
    786  am_hal_itm_not_busy        0x00001285   Gb    1  Code  Hi   0x22
    787  am_hal_itm_print           0x000012b1   Gb    1  Code  Hi   0x56
    788  am_hal_itm_stimulus_reg_word_write
                                    0x0000130d   Gb    1  Code  Hi   0x12
    789  am_hal_itm_sync_send       0x00001321   Gb    1  Code  Hi   0x10
    790  am_hal_mcuctrl_bandgap_disable
                                    0x00001335   Gb    1  Code  Hi   0xc
    791  am_hal_mcuctrl_bucks_enable
                                    0x00001345   Gb    1  Code  Hi   0x24
    792  am_hal_rtc_osc_disable     0x0000136d   Gb    1  Code  Hi   0xe
    793  am_hal_rtc_osc_select      0x0000137b   Gb    1  Code  Hi   0x16
    794  am_hal_sysctrl_sleep       0x00001391   Gb    1  Code  Hi   0x2a
    795  am_hal_tpiu_disable        0x000013c5   Gb    1  Code  Hi   0xa
    796  am_hal_tpiu_enable         0x000013d5   Gb    1  Code  Hi   0x28
    797  am_hal_vcomp_disable       0x00001409   Gb    1  Code  Hi   0x8
    798  am_iomaster0_isr           0x00001415   Gb    1  Code  Hi   0x1e
    799  am_iomaster1_isr           0x00001433   Gb    1  Code  Hi   0x1e
    800  am_util_delay_ms           0x00001451   Gb    1  Code  Hi   0x1c
    801  am_util_faultisr_collect_data
                                    0x0000146d   Gb    1  Code  Hi   0xa4
    802  am_util_plot_init          0x00001515   Gb    1  Code  Hi   0xe
    803  am_util_plot_int           0x00001529   Gb    1  Code  Hi   0x2c
    804  am_util_stdio_printf_init  0x00001559   Gb    1  Code  Hi   0x6
    805  eTaskConfirmSleepModeStatus
                                    0x00001565   Gb    1  Code  Hi   0x16
    806  iom_ctl_init               0x00001585   Gb    1  Code  Hi   0x52
    807  main                       0x000015e5   Gb    1  Code  Hi   0x1e
    808  pvPortMalloc               0x00001dad   Gb    1  Code  Hi   0xa6
    809  pxPortInitialiseStack      0x00001e65   Gb    1  Code  Hi   0x22
    810  rtos_tick                  0x00001e8d   Gb    1  Code  Hi   0x1c
    811  run_tasks                  0x00001ead   Gb    1  Code  Hi   0x3a
    812  setup_task                 0x00001f09   Gb    1  Code  Hi   0x2a
    813  sleep_task                 0x00001f45   Gb    1  Code  Hi   0xa
    814  timer_a0_handler           0x00001f4f   Gb    1  Code  Hi   0x10
    815  uxListRemove               0x00001f5f   Gb    1  Code  Hi   0x28
    816  uxTaskResetEventItemValue  0x00001f89   Gb    1  Code  Hi   0x18
    817  vApplicationStackOverflowHook
                                    0x00001fa5   Gb    1  Code  Hi   0x4
    818  vEventGroupSetBitsCallback 0x00001fa9   Gb    1  Code  Hi   0x10
    819  vListInitialise            0x00001fb9   Gb    1  Code  Hi   0x1a
    820  vListInitialiseItem        0x00001fd3   Gb    1  Code  Hi   0x6
    821  vListInsert                0x00001fd9   Gb    1  Code  Hi   0x34
    822  vListInsertEnd             0x0000200d   Gb    1  Code  Hi   0x18
    823  vPortEnterCritical         0x00002025   Gb    1  Code  Hi   0x1a
    824  vPortExitCritical          0x00002045   Gb    1  Code  Hi   0x24
    825  vPortFree                  0x0000206d   Gb    1  Code  Hi   0x38
    826  vPortSetupTimerInterrupt   0x000020ad   Gb    1  Code  Hi   0x40
    827  vPortSuppressTicksAndSleep 0x000020f1   Wk    1  Code  Hi   0x138
    828  vPortValidateInterruptPriority
                                    0x00002235   Gb    1  Code  Hi   0x46
    829  vPortYield                 0x00002289   Gb    1  Code  Hi   0x12
    830  vQueueAddToRegistry        0x000022a1   Gb    1  Code  Hi   0x26
    831  vQueueWaitForMessageRestricted
                                    0x000022cd   Gb    1  Code  Hi   0x3a
    832  vTaskMissedYield           0x00002309   Gb    1  Code  Hi   0x8
    833  vTaskPlaceOnEventList      0x00002315   Gb    1  Code  Hi   0x42
    834  vTaskPlaceOnEventListRestricted
                                    0x00002365   Gb    1  Code  Hi   0x30
    835  vTaskPlaceOnUnorderedEventList
                                    0x0000239d   Gb    1  Code  Hi   0x64
    836  vTaskPriorityDisinherit    0x00002411   Gb    1  Code  Hi   0x4e
    837  vTaskPriorityInherit       0x00002469   Gb    1  Code  Hi   0x80
    838  vTaskSetTimeOutState       0x000024f5   Gb    1  Code  Hi   0x14
    839  vTaskStartScheduler        0x00002511   Gb    1  Code  Hi   0x48
    840  vTaskStepTick              0x0000256d   Gb    1  Code  Hi   0x26
    841  vTaskSuspend               0x0000259d   Gb    1  Code  Hi   0x7e
    842  vTaskSuspendAll            0x00002631   Gb    1  Code  Hi   0xc
    843  vTaskSwitchContext         0x00002641   Gb    1  Code  Hi   0xae
    844  xEventGroupCreate          0x00002709   Gb    1  Code  Hi   0x1a
    845  xEventGroupSetBits         0x00002723   Gb    1  Code  Hi   0x9e
    846  xEventGroupWaitBits        0x000027c1   Gb    1  Code  Hi   0xf4
    847  xPortStartScheduler        0x000028b5   Gb    1  Code  Hi   0x9c
    848  xQueueCreateMutex          0x00002969   Gb    1  Code  Hi   0x4e
    849  xQueueGenericCreate        0x000029b7   Gb    1  Code  Hi   0x52
    850  xQueueGenericReceive       0x00002a09   Gb    1  Code  Hi   0x14e
    851  xQueueGenericReset         0x00002b57   Gb    1  Code  Hi   0x74
    852  xQueueGenericSend          0x00002bcb   Gb    1  Code  Hi   0x124
    853  xQueueGenericSendFromISR   0x00002cef   Gb    1  Code  Hi   0xa0
    854  xTaskCheckForTimeOut       0x00002d91   Gb    1  Code  Hi   0x60
    855  xTaskGenericCreate         0x00002df9   Gb    1  Code  Hi   0x10c
    856  xTaskGetCurrentTaskHandle  0x00002f1d   Gb    1  Code  Hi   0x6
    857  xTaskGetSchedulerState     0x00002f29   Gb    1  Code  Hi   0x18
    858  xTaskGetTickCount          0x00002f49   Gb    1  Code  Hi   0x12
    859  xTaskIncrementTick         0x00002f61   Gb    1  Code  Hi   0xf0
    860  xTaskRemoveFromEventList   0x0000307d   Gb    1  Code  Hi   0x6c
    861  xTaskRemoveFromUnorderedEventList
                                    0x00003101   Gb    1  Code  Hi   0x74
    862  xTaskResumeAll             0x00003189   Gb    1  Code  Hi   0xc2
    863  xTimerCreateTimerTask      0x0000326d   Gb    1  Code  Hi   0x36
    864  xTimerGenericCommand       0x000032b5   Gb    1  Code  Hi   0x68
    865  xTimerPendFunctionCallFromISR
                                    0x00003321   Gb    1  Code  Hi   0x30
    866  _fp_init                   0x00003355   Gb    1  Code  De   0xa
    867  __fplib_config_fpu_vfp     0x0000335d   Gb    1  Code  De 
    868  __fplib_config_pureend_doubles
                                    0x0000335d   Gb    1  Code  De 
    869  Region$$Table$$Base        0x00003380   Gb    1   --   Hi 
    870  Region$$Table$$Limit       0x000033a0   Gb    1   --   Hi 
    871  xADXL362Task               0x10000000   Gb    2  Data  Hi   0x4
    872  xADXL362Events             0x10000004   Gb    2  Data  Hi   0x4
    873  g_sADXL                    0x10000008   Gb    2  Data  Hi   0x10
    874  xSetupTask                 0x10000018   Gb    2  Data  Hi   0x4
    875  xIOM0Semaphore             0x1000001c   Gb    2  Data  Hi   0x4
    876  xIOM1Semaphore             0x10000020   Gb    2  Data  Hi   0x4
    877  g_sIOMConfig               0x10000024   Gb    2  Data  Hi   0xc
    878  xSleepTask                 0x10000030   Gb    2  Data  Hi   0x4
    879  g_ui32Sync                 0x10000034   Gb    2  Data  Hi   0x4
    880  g_pfnCharPrint             0x10000038   Gb    2  Data  Hi   0x4
    881  pxCurrentTCB               0x10000040   Gb    2  Data  Hi   0x4
    882  g_ui32HALflags             0x100000b8   Gb    2  Data  Hi   0x4
    883  g_ui32Mod0Interface        0x100000bc   Gb    2  Data  Hi   0x4
    884  g_ui32Mod1Interface        0x100000c0   Gb    2  Data  Hi   0x4
    885  g_am_hal_itm_print_registers
                                    0x100000c4   Gb    2  Data  Hi   0x4
    886  g_pui32StimReg             0x100000c8   Gb    2  Data  Hi   0x4
    887  xQueueRegistry             0x1000014c   Gb    3  Data  Hi   0x50
    888  am_hal_gpio_ppfnHandlers   0x10002678   Gb    3  Data  Hi   0x100
    889  g_psIOMBuffers             0x10002778   Gb    3  Data  Hi   0x20
    890  __libspace_start           0x10002798   Gb    3  Data  De   0x60
    891  __temporary_stack_top$libspace
                                    0x100027f8   Gb    3  Data  De 


** Section #12 '.strtab' (SHT_STRTAB)
    Size   : 13176 bytes

            #  Offset String
        ====================================

            1      1: $d
            2      4: $t
            3      7: $d.realdata
            4     19: ../src/adxl362_task.c
            5     41: i.adxl362_task
            6     56: i.adxl_handler
            7     71: .bss
            8     76: g_psSampleBuffer
            9     93: .data
           10     99: ../src/data_plot.c
           11    118: i.main
           12    125: i.run_tasks
           13    137: i.setup_task
           14    150: ../src/gpio_ctl.c
           15    168: i.am_gpio_isr
           16    182: ../src/iom_ctl.c
           17    199: i.am_iomaster0_isr
           18    218: i.am_iomaster1_isr
           19    237: i.iom_ctl_init
           20    252: ../src/rtos.c
           21    266: i.rtos_tick
           22    278: i.sleep_task
           23    291: i.vApplicationStackOverflowHook
           24    323: i.vPortSetupTimerInterrupt
           25    350: .constdata
           26    361: ../src/timer_ctl.c
           27    380: i.am_ctimer_isr
           28    396: i.timer_a0_handler
           29    415: ..\..\..\..\..\utils\am_util_delay.c
           30    452: .emb_text
           31    462: $v0
           32    466: ../../../../../utils/am_util_delay.c
           33    503: i.am_util_delay_ms
           34    522: ..\..\..\..\..\utils\am_util_faultisr.c
           35    562: ../../../../../utils/am_util_faultisr.c
           36    602: i.am_util_faultisr_collect_data
           37    634: ../../../../../utils/am_util_plot.c
           38    670: i.am_util_plot_init
           39    690: i.am_util_plot_int
           40    709: ../../../../../utils/am_util_ring_buffer.c
           41    752: ../../../../../utils/am_util_stdio.c
           42    789: i.am_util_stdio_printf_init
           43    817: g_bTxtXlate
           44    829: ../../../../../devices/am_devices_adxl362.c
           45    873: i.am_devices_adxl362_config
           46    901: i.am_devices_adxl362_fifo_depth_get
           47    937: i.am_devices_adxl362_measurement_mode_set
           48    979: i.am_devices_adxl362_reset
           49   1006: i.am_devices_adxl362_sample_get
           50   1038: ../keil/startup_keil.s
           51   1061: STACK
           52   1067: StackMem
           53   1076: HEAP
           54   1081: HeapMem
           55   1089: RESET
           56   1095: .text
           57   1101: ../../../../../third_party/FreeRTOS/Source/event_groups.c
           58   1159: i.prvTestWaitCondition
           59   1182: prvTestWaitCondition
           60   1203: i.vEventGroupSetBitsCallback
           61   1232: i.xEventGroupCreate
           62   1252: i.xEventGroupSetBits
           63   1273: i.xEventGroupWaitBits
           64   1295: ../../../../../third_party/FreeRTOS/Source/list.c
           65   1345: i.uxListRemove
           66   1360: i.vListInitialise
           67   1378: i.vListInitialiseItem
           68   1400: i.vListInsert
           69   1414: i.vListInsertEnd
           70   1431: ../../../../../third_party/FreeRTOS/Source/queue.c
           71   1482: i.prvCopyDataFromQueue
           72   1505: prvCopyDataFromQueue
           73   1526: i.prvCopyDataToQueue
           74   1547: prvCopyDataToQueue
           75   1566: i.prvIsQueueEmpty
           76   1584: prvIsQueueEmpty
           77   1600: i.prvIsQueueFull
           78   1617: prvIsQueueFull
           79   1632: i.prvUnlockQueue
           80   1649: prvUnlockQueue
           81   1664: i.vQueueAddToRegistry
           82   1686: i.vQueueWaitForMessageRestricted
           83   1719: i.xQueueCreateMutex
           84   1739: i.xQueueGenericCreate
           85   1761: i.xQueueGenericReceive
           86   1784: i.xQueueGenericReset
           87   1805: i.xQueueGenericSend
           88   1825: i.xQueueGenericSendFromISR
           89   1852: ../../../../../third_party/FreeRTOS/Source/tasks.c
           90   1903: i.eTaskConfirmSleepModeStatus
           91   1933: i.prvAddCurrentTaskToDelayedList
           92   1966: prvAddCurrentTaskToDelayedList
           93   1997: i.prvAllocateTCBAndStack
           94   2022: prvAllocateTCBAndStack
           95   2045: i.prvCheckTasksWaitingTermination
           96   2079: prvCheckTasksWaitingTermination
           97   2111: i.prvDeleteTCB
           98   2126: prvDeleteTCB
           99   2139: i.prvGetExpectedIdleTime
          100   2164: prvGetExpectedIdleTime
          101   2187: i.prvIdleTask
          102   2201: prvIdleTask
          103   2213: i.prvInitialiseTCBVariables
          104   2241: prvInitialiseTCBVariables
          105   2267: i.prvInitialiseTaskLists
          106   2292: prvInitialiseTaskLists
          107   2315: i.prvResetNextTaskUnblockTime
          108   2345: prvResetNextTaskUnblockTime
          109   2373: i.uxTaskResetEventItemValue
          110   2401: i.vTaskMissedYield
          111   2420: i.vTaskPlaceOnEventList
          112   2444: i.vTaskPlaceOnEventListRestricted
          113   2478: i.vTaskPlaceOnUnorderedEventList
          114   2511: i.vTaskPriorityDisinherit
          115   2537: i.vTaskPriorityInherit
          116   2560: i.vTaskSetTimeOutState
          117   2583: i.vTaskStartScheduler
          118   2605: i.vTaskStepTick
          119   2621: i.vTaskSuspend
          120   2636: i.vTaskSuspendAll
          121   2654: i.vTaskSwitchContext
          122   2675: i.xTaskCheckForTimeOut
          123   2698: i.xTaskGenericCreate
          124   2719: i.xTaskGetCurrentTaskHandle
          125   2747: i.xTaskGetSchedulerState
          126   2772: i.xTaskGetTickCount
          127   2792: i.xTaskIncrementTick
          128   2813: i.xTaskRemoveFromEventList
          129   2840: i.xTaskRemoveFromUnorderedEventList
          130   2876: i.xTaskResumeAll
          131   2893: pxReadyTasksLists
          132   2911: xDelayedTaskList1
          133   2929: xDelayedTaskList2
          134   2947: xPendingReadyList
          135   2965: xTasksWaitingTermination
          136   2990: xSuspendedTaskList
          137   3009: ucExpectedStackBytes
          138   3030: pxDelayedTaskList
          139   3048: pxOverflowDelayedTaskList
          140   3074: uxTasksDeleted
          141   3089: uxCurrentNumberOfTasks
          142   3112: xTickCount
          143   3123: uxTopReadyPriority
          144   3142: xSchedulerRunning
          145   3160: uxPendedTicks
          146   3174: xYieldPending
          147   3188: xNumOfOverflows
          148   3204: uxTaskNumber
          149   3217: xNextTaskUnblockTime
          150   3238: uxSchedulerSuspended
          151   3259: ../../../../../third_party/FreeRTOS/Source/timers.c
          152   3311: i.prvCheckForValidListAndQueue
          153   3342: prvCheckForValidListAndQueue
          154   3371: i.prvGetNextExpireTime
          155   3394: prvGetNextExpireTime
          156   3415: i.prvInsertTimerInActiveList
          157   3444: prvInsertTimerInActiveList
          158   3471: i.prvProcessExpiredTimer
          159   3496: prvProcessExpiredTimer
          160   3519: i.prvProcessReceivedCommands
          161   3548: prvProcessReceivedCommands
          162   3575: i.prvProcessTimerOrBlockTask
          163   3604: prvProcessTimerOrBlockTask
          164   3631: i.prvSampleTimeNow
          165   3650: prvSampleTimeNow
          166   3667: i.prvSwitchTimerLists
          167   3689: prvSwitchTimerLists
          168   3709: i.prvTimerTask
          169   3724: prvTimerTask
          170   3737: i.xTimerCreateTimerTask
          171   3761: i.xTimerGenericCommand
          172   3784: i.xTimerPendFunctionCallFromISR
          173   3816: xActiveTimerList1
          174   3834: xActiveTimerList2
          175   3852: pxCurrentTimerList
          176   3871: pxOverflowTimerList
          177   3891: xTimerQueue
          178   3903: xLastTime
          179   3913: ..\..\..\..\..\third_party\FreeRTOS\Source\portable\RVDS\ARM_CM4F\port.c
          180   3986: ../../../../../third_party/FreeRTOS/Source/portable/RVDS/ARM_CM4F/port.c
          181   4059: i.prvTaskExitError
          182   4078: prvTaskExitError
          183   4095: i.pxPortInitialiseStack
          184   4119: i.vPortEnterCritical
          185   4140: i.vPortExitCritical
          186   4160: i.vPortSuppressTicksAndSleep
          187   4189: i.vPortValidateInterruptPriority
          188   4222: i.vPortYield
          189   4235: i.xPortStartScheduler
          190   4257: uxCriticalNesting
          191   4275: ulTimerCountsForOneTick
          192   4299: xMaximumPossibleSuppressedTicks
          193   4331: ulStoppedTimerCompensation
          194   4358: ucMaxSysCallPriority
          195   4379: ulMaxPRIGROUPValue
          196   4398: ../../../../../third_party/FreeRTOS/Source/portable/MemMang/heap_2.c
          197   4467: i.prvHeapInit
          198   4481: prvHeapInit
          199   4493: i.pvPortMalloc
          200   4508: i.vPortFree
          201   4520: ucHeap
          202   4527: xStart
          203   4534: xEnd
          204   4539: xFreeBytesRemaining
          205   4559: xHeapHasBeenInitialised
          206   4583: ../am_hal_global.c
          207   4602: ../am_hal_clkgen.c
          208   4621: i.am_hal_clkgen_osc_stop
          209   4646: i.am_hal_clkgen_sysclk_get
          210   4673: i.am_hal_clkgen_sysclk_select
          211   4703: ..\am_hal_ctimer.c
          212   4722: ../am_hal_ctimer.c
          213   4741: i.am_hal_ctimer_compare_set
          214   4769: i.am_hal_ctimer_config
          215   4792: i.am_hal_ctimer_int_clear
          216   4818: i.am_hal_ctimer_int_enable
          217   4845: i.am_hal_ctimer_int_status_get
          218   4876: i.am_hal_ctimer_start
          219   4898: ../am_hal_gpio.c
          220   4915: i.am_hal_gpio_int_clear
          221   4939: i.am_hal_gpio_int_enable
          222   4964: i.am_hal_gpio_int_register
          223   4991: i.am_hal_gpio_int_service
          224   5017: i.am_hal_gpio_int_status_get
          225   5046: ..\am_hal_interrupt.c
          226   5068: ../am_hal_interrupt.c
          227   5090: i.am_hal_interrupt_enable
          228   5116: i.am_hal_interrupt_priority_set
          229   5148: ../am_hal_iom.c
          230   5164: i.am_hal_iom_config
          231   5184: i.am_hal_iom_enable
          232   5204: i.am_hal_iom_fifo_read
          233   5227: i.am_hal_iom_fifo_write
          234   5251: i.am_hal_iom_int_clear
          235   5274: i.am_hal_iom_int_enable
          236   5298: i.am_hal_iom_int_service
          237   5323: i.am_hal_iom_int_status_get
          238   5351: i.am_hal_iom_spi_read
          239   5373: i.am_hal_iom_spi_read_nb
          240   5398: i.am_hal_iom_spi_write
          241   5421: ..\am_hal_itm.c
          242   5437: ../am_hal_itm.c
          243   5453: i.am_hal_itm_delay_us
          244   5475: i.am_hal_itm_enable
          245   5495: i.am_hal_itm_not_busy
          246   5517: i.am_hal_itm_print
          247   5536: i.am_hal_itm_stimulus_reg_word_write
          248   5573: i.am_hal_itm_sync_send
          249   5596: ../am_hal_sysctrl.c
          250   5616: i.am_hal_sysctrl_sleep
          251   5639: ../am_bsp.c
          252   5651: i.am_bsp_debug_printf_disable
          253   5681: i.am_bsp_debug_printf_enable
          254   5710: i.am_bsp_iom_spi_pins_enable
          255   5739: i.am_bsp_low_power_init
          256   5763: ../am_hal_debug.c
          257   5781: i.am_hal_debug_error
          258   5802: ../am_hal_i2c_bit_bang.c
          259   5827: ../am_hal_mcuctrl.c
          260   5847: i.am_hal_mcuctrl_bandgap_disable
          261   5880: i.am_hal_mcuctrl_bucks_enable
          262   5910: ../am_hal_rtc.c
          263   5926: i.am_hal_rtc_osc_disable
          264   5951: i.am_hal_rtc_osc_select
          265   5975: ../am_hal_tpiu.c
          266   5992: i.am_hal_tpiu_disable
          267   6014: i.am_hal_tpiu_enable
          268   6035: ../am_hal_vcomp.c
          269   6053: i.am_hal_vcomp_disable
          270   6076: dc.s
          271   6081: ../clib/string.c
          272   6098: ../clib/memcpset.s
          273   6117: ../clib/heapaux.c
          274   6135: ../clib/angel/startup.s
          275   6159: !!!main
          276   6167: ../fplib/d2f.s
          277   6182: ../clib/angel/kernel.s
          278   6205: .ARM.Collect$$rtentry$$00000000
          279   6237: ../fplib/dnaninf.s
          280   6256: ../fplib/fretinf.s
          281   6275: ../fplib/usenofp.s
          282   6294: .ARM.Collect$$rtentry$$00000002
          283   6326: .ARM.Collect$$rtentry$$00000009
          284   6358: .ARM.Collect$$rtentry$$0000000A
          285   6390: .ARM.Collect$$rtentry$$0000000C
          286   6422: .ARM.Collect$$rtentry$$0000000D
          287   6454: .ARM.Collect$$rtentry$$00000004
          288   6486: ../clib/angel/sys.s
          289   6506: ../clib/stdlib.c
          290   6523: ../clib/angel/boardlib.s
          291   6548: ../clib/libinit.s
          292   6566: .ARM.Collect$$libinit$$00000000
          293   6598: .ARM.Collect$$rtexit$$00000000
          294   6629: .ARM.Collect$$libinit$$00000001
          295   6661: .ARM.Collect$$libinit$$00000004
          296   6693: .ARM.Collect$$libinit$$0000000A
          297   6725: .ARM.Collect$$libinit$$0000000C
          298   6757: .ARM.Collect$$libinit$$0000000E
          299   6789: .ARM.Collect$$libinit$$00000011
          300   6821: .ARM.Collect$$libinit$$00000013
          301   6853: .ARM.Collect$$libinit$$00000015
          302   6885: .ARM.Collect$$libinit$$00000017
          303   6917: .ARM.Collect$$libinit$$00000019
          304   6949: .ARM.Collect$$libinit$$0000001B
          305   6981: .ARM.Collect$$libinit$$0000001D
          306   7013: .ARM.Collect$$libinit$$0000001F
          307   7045: .ARM.Collect$$libinit$$00000021
          308   7077: .ARM.Collect$$libinit$$00000023
          309   7109: .ARM.Collect$$libinit$$00000025
          310   7141: .ARM.Collect$$libinit$$0000002C
          311   7173: .ARM.Collect$$libinit$$0000002E
          312   7205: .ARM.Collect$$libinit$$00000030
          313   7237: .ARM.Collect$$libinit$$00000032
          314   7269: .ARM.Collect$$libinit$$00000033
          315   7301: .ARM.Collect$$rtexit$$00000002
          316   7332: .ARM.Collect$$rtexit$$00000003
          317   7363: .ARM.Collect$$rtexit$$00000004
          318   7394: ../clib/armsys.c
          319   7411: ../fplib/fpinit.s
          320   7429: x$fpl$fpinit
          321   7442: ../clib/angel/sysapp.c
          322   7465: .ARM.Collect$$libshutdown$$00000000
          323   7501: ../clib/heapalloc.c
          324   7521: ../clib/signal.c
          325   7538: .ARM.Collect$$libshutdown$$00000003
          326   7574: .ARM.Collect$$libshutdown$$00000006
          327   7610: .ARM.Collect$$libshutdown$$00000009
          328   7646: .ARM.Collect$$libshutdown$$0000000B
          329   7682: .ARM.Collect$$libshutdown$$0000000E
          330   7718: .ARM.Collect$$libshutdown$$0000000F
          331   7754: ../clib/angel/rt.s
          332   7773: ../clib/signal.s
          333   7790: ../clib/angel/scatter.s
          334   7814: !!!scatter
          335   7825: ../clib/angel/handlers.s
          336   7850: !!handler_copy
          337   7865: !!handler_zi
          338   7878: BuildAttributes$$THM_ISAv4$E$P$D$K$B$S$7EM$VFPi3$EXTD16$VFPS$VFMA$PE$A:L22UL41UL21$X:L11$S22US41US21$IEEE1$IW$USESV6$~STKCKD$USESV7$~SHL$OTIME$ROPI$EBA8$UX$STANDARDLIB$REQ8$EABIv2
          339   8058: __ARM_use_no_argv
          340   8076: __Vectors
          341   8086: Reset_Handler
          342   8100: am_nmi_isr
          343   8111: am_memmanage_isr
          344   8128: am_mpufault_isr
          345   8144: am_busfault_isr
          346   8160: am_usagefault_isr
          347   8178: am_adc_isr
          348   8189: am_brownout_isr
          349   8205: am_clkgen_isr
          350   8219: am_debugmon_isr
          351   8235: am_ioslave_acc_isr
          352   8254: am_ioslave_ios_isr
          353   8273: am_systick_isr
          354   8288: am_uart_isr
          355   8300: am_vcomp_isr
          356   8313: am_watchdog_isr
          357   8329: __main
          358   8336: __scatterload
          359   8350: __scatterload_rt2
          360   8368: __scatterload_rt2_thumb_only
          361   8397: __scatterload_null
          362   8416: __scatterload_copy
          363   8435: __scatterload_zeroinit
          364   8458: __rt_lib_init
          365   8472: __rt_lib_init_fp_1
          366   8491: __rt_lib_init_alloca_1
          367   8514: __rt_lib_init_argv_1
          368   8535: __rt_lib_init_atexit_1
          369   8558: __rt_lib_init_clock_1
          370   8580: __rt_lib_init_cpp_1
          371   8600: __rt_lib_init_exceptions_1
          372   8627: __rt_lib_init_fp_trap_1
          373   8651: __rt_lib_init_getenv_1
          374   8674: __rt_lib_init_heap_1
          375   8695: __rt_lib_init_lc_collate_1
          376   8722: __rt_lib_init_lc_ctype_1
          377   8747: __rt_lib_init_lc_monetary_1
          378   8775: __rt_lib_init_lc_numeric_1
          379   8802: __rt_lib_init_lc_time_1
          380   8826: __rt_lib_init_preinit_1
          381   8850: __rt_lib_init_rand_1
          382   8871: __rt_lib_init_return
          383   8892: __rt_lib_init_signal_1
          384   8915: __rt_lib_init_stdio_1
          385   8937: __rt_lib_init_user_alloc_1
          386   8964: __rt_lib_shutdown
          387   8982: __rt_lib_shutdown_fp_trap_1
          388   9010: __rt_lib_shutdown_heap_1
          389   9035: __rt_lib_shutdown_return
          390   9060: __rt_lib_shutdown_signal_1
          391   9087: __rt_lib_shutdown_stdio_1
          392   9113: __rt_lib_shutdown_user_alloc_1
          393   9144: __rt_entry
          394   9155: __rt_entry_presh_1
          395   9174: __rt_entry_sh
          396   9188: __rt_entry_li
          397   9202: __rt_entry_postsh_1
          398   9222: __rt_entry_main
          399   9238: __rt_entry_postli_1
          400   9258: __rt_exit
          401   9268: __rt_exit_ls
          402   9281: __rt_exit_prels_1
          403   9299: __rt_exit_exit
          404   9314: am_util_delay_cycles
          405   9335: am_fault_isr
          406   9348: getStackedReg
          407   9362: am_svcall_isr
          408   9376: __asm___6_port_c_39a90d8d__prvStartFirstTask
          409   9421: __asm___6_port_c_39a90d8d__prvEnableVFP
          410   9461: am_pendsv_isr
          411   9475: ulPortSetInterruptMask
          412   9498: vPortClearInterruptMask
          413   9522: vPortGetIPSR
          414   9535: __asm___12_am_hal_itm_c_0782d9ac__am_itm_delay_cycles
          415   9589: __user_initial_stackheap
          416   9614: memcmp
          417   9621: __aeabi_memcpy
          418   9636: __rt_memcpy
          419   9648: _memcpy_lastbytes
          420   9666: __aeabi_memset
          421   9681: __use_two_region_memory
          422   9705: __rt_heap_escrow$2region
          423   9730: __rt_heap_expand$2region
          424   9755: __aeabi_memcpy4
          425   9771: __aeabi_memcpy8
          426   9787: __rt_memcpy_w
          427   9801: _memcpy_lastbytes_aligned
          428   9827: __aeabi_memclr
          429   9842: __rt_memclr
          430   9854: _memset
          431   9862: __aeabi_memclr4
          432   9878: __aeabi_memclr8
          433   9894: __rt_memclr_w
          434   9908: _memset_w
          435   9918: __user_setup_stackheap
          436   9941: exit
          437   9946: __user_libspace
          438   9962: __user_perproc_libspace
          439   9986: __user_perthread_libspace
          440  10012: _sys_exit
          441  10022: __I$use$semihosting
          442  10042: __use_no_semihosting_swi
          443  10067: __semihosting_library_function
          444  10098: adxl362_task
          445  10111: adxl_handler
          446  10124: am_bsp_debug_printf_disable
          447  10152: am_bsp_debug_printf_enable
          448  10179: am_bsp_iom_spi_pins_enable
          449  10206: am_bsp_low_power_init
          450  10228: am_ctimer_isr
          451  10242: am_devices_adxl362_config
          452  10268: am_devices_adxl362_fifo_depth_get
          453  10302: am_devices_adxl362_measurement_mode_set
          454  10342: am_devices_adxl362_reset
          455  10367: am_devices_adxl362_sample_get
          456  10397: am_gpio_isr
          457  10409: am_hal_clkgen_osc_stop
          458  10432: am_hal_clkgen_sysclk_get
          459  10457: am_hal_clkgen_sysclk_select
          460  10485: am_hal_ctimer_compare_set
          461  10511: am_hal_ctimer_config
          462  10532: am_hal_ctimer_int_clear
          463  10556: am_hal_ctimer_int_enable
          464  10581: am_hal_ctimer_int_status_get
          465  10610: am_hal_ctimer_start
          466  10630: am_hal_debug_error
          467  10649: am_hal_gpio_int_clear
          468  10671: am_hal_gpio_int_enable
          469  10694: am_hal_gpio_int_register
          470  10719: am_hal_gpio_int_service
          471  10743: am_hal_gpio_int_status_get
          472  10770: am_hal_interrupt_enable
          473  10794: am_hal_interrupt_priority_set
          474  10824: am_hal_iom_config
          475  10842: am_hal_iom_enable
          476  10860: am_hal_iom_fifo_read
          477  10881: am_hal_iom_fifo_write
          478  10903: am_hal_iom_int_clear
          479  10924: am_hal_iom_int_enable
          480  10946: am_hal_iom_int_service
          481  10969: am_hal_iom_int_status_get
          482  10995: am_hal_iom_spi_read
          483  11015: am_hal_iom_spi_read_nb
          484  11038: am_hal_iom_spi_write
          485  11059: am_hal_itm_delay_us
          486  11079: am_hal_itm_enable
          487  11097: am_hal_itm_not_busy
          488  11117: am_hal_itm_print
          489  11134: am_hal_itm_stimulus_reg_word_write
          490  11169: am_hal_itm_sync_send
          491  11190: am_hal_mcuctrl_bandgap_disable
          492  11221: am_hal_mcuctrl_bucks_enable
          493  11249: am_hal_rtc_osc_disable
          494  11272: am_hal_rtc_osc_select
          495  11294: am_hal_sysctrl_sleep
          496  11315: am_hal_tpiu_disable
          497  11335: am_hal_tpiu_enable
          498  11354: am_hal_vcomp_disable
          499  11375: am_iomaster0_isr
          500  11392: am_iomaster1_isr
          501  11409: am_util_delay_ms
          502  11426: am_util_faultisr_collect_data
          503  11456: am_util_plot_init
          504  11474: am_util_plot_int
          505  11491: am_util_stdio_printf_init
          506  11517: eTaskConfirmSleepModeStatus
          507  11545: iom_ctl_init
          508  11558: main
          509  11563: pvPortMalloc
          510  11576: pxPortInitialiseStack
          511  11598: rtos_tick
          512  11608: run_tasks
          513  11618: setup_task
          514  11629: sleep_task
          515  11640: timer_a0_handler
          516  11657: uxListRemove
          517  11670: uxTaskResetEventItemValue
          518  11696: vApplicationStackOverflowHook
          519  11726: vEventGroupSetBitsCallback
          520  11753: vListInitialise
          521  11769: vListInitialiseItem
          522  11789: vListInsert
          523  11801: vListInsertEnd
          524  11816: vPortEnterCritical
          525  11835: vPortExitCritical
          526  11853: vPortFree
          527  11863: vPortSetupTimerInterrupt
          528  11888: vPortSuppressTicksAndSleep
          529  11915: vPortValidateInterruptPriority
          530  11946: vPortYield
          531  11957: vQueueAddToRegistry
          532  11977: vQueueWaitForMessageRestricted
          533  12008: vTaskMissedYield
          534  12025: vTaskPlaceOnEventList
          535  12047: vTaskPlaceOnEventListRestricted
          536  12079: vTaskPlaceOnUnorderedEventList
          537  12110: vTaskPriorityDisinherit
          538  12134: vTaskPriorityInherit
          539  12155: vTaskSetTimeOutState
          540  12176: vTaskStartScheduler
          541  12196: vTaskStepTick
          542  12210: vTaskSuspend
          543  12223: vTaskSuspendAll
          544  12239: vTaskSwitchContext
          545  12258: xEventGroupCreate
          546  12276: xEventGroupSetBits
          547  12295: xEventGroupWaitBits
          548  12315: xPortStartScheduler
          549  12335: xQueueCreateMutex
          550  12353: xQueueGenericCreate
          551  12373: xQueueGenericReceive
          552  12394: xQueueGenericReset
          553  12413: xQueueGenericSend
          554  12431: xQueueGenericSendFromISR
          555  12456: xTaskCheckForTimeOut
          556  12477: xTaskGenericCreate
          557  12496: xTaskGetCurrentTaskHandle
          558  12522: xTaskGetSchedulerState
          559  12545: xTaskGetTickCount
          560  12563: xTaskIncrementTick
          561  12582: xTaskRemoveFromEventList
          562  12607: xTaskRemoveFromUnorderedEventList
          563  12641: xTaskResumeAll
          564  12656: xTimerCreateTimerTask
          565  12678: xTimerGenericCommand
          566  12699: xTimerPendFunctionCallFromISR
          567  12729: _fp_init
          568  12738: __fplib_config_fpu_vfp
          569  12761: __fplib_config_pureend_doubles
          570  12792: Region$$Table$$Base
          571  12812: Region$$Table$$Limit
          572  12833: xADXL362Task
          573  12846: xADXL362Events
          574  12861: g_sADXL
          575  12869: xSetupTask
          576  12880: xIOM0Semaphore
          577  12895: xIOM1Semaphore
          578  12910: g_sIOMConfig
          579  12923: xSleepTask
          580  12934: g_ui32Sync
          581  12945: g_pfnCharPrint
          582  12960: pxCurrentTCB
          583  12973: g_ui32HALflags
          584  12988: g_ui32Mod0Interface
          585  13008: g_ui32Mod1Interface
          586  13028: g_am_hal_itm_print_registers
          587  13057: g_pui32StimReg
          588  13072: xQueueRegistry
          589  13087: am_hal_gpio_ppfnHandlers
          590  13112: g_psIOMBuffers
          591  13127: __libspace_start
          592  13144: __temporary_stack_top$libspace
          593  13175: 


** Section #13 '.note' (SHT_NOTE)
    Size   : 28 bytes (alignment 4)


** Section #14 '.comment' (SHT_PROGBITS)
    Size   : 29836 bytes


** Section #15 '.shstrtab' (SHT_STRTAB)
    Size   : 148 bytes

            #  Offset String
        ====================================

            1      1: FLASH
            2      7: SRAM
            3     12: .debug_abbrev
            4     26: .debug_frame
            5     39: .debug_info
            6     51: .debug_line
            7     63: .debug_loc
            8     74: .debug_macinfo
            9     89: .debug_pubnames
           10    105: .symtab
           11    113: .strtab
           12    121: .note
           13    127: .comment
           14    136: .shstrtab
           15    146: 
           16    147: 


