
========================================================================

** ELF Header Information

    File Name: bin\bmi160_read.axf

    Machine class: ELFCLASS32 (32-bit)
    Data encoding: ELFDATA2LSB (Little endian)
    Header version: EV_CURRENT (Current version)
    Operating System ABI: none
    ABI Version: 0
    File Type: ET_EXEC (Executable) (2)
    Machine: EM_ARM (ARM)

    Image Entry point: 0x00000099
    Flags: EF_ARM_HASENTRY (0x05000002)

    ARM ELF revision: 5 (ABI version 2)

    Built with
    Component: ARM Compiler 5.05 update 1 (build 106) Tool: armasm [4d0efa]
    Component: ARM Compiler 5.05 update 1 (build 106) Tool: armlink [4d0efa]

    Header size: 52 bytes (0x34)
    Program header entry size: 32 bytes (0x20)
    Section header entry size: 40 bytes (0x28)

    Program header entries: 1
    Section header entries: 16

    Program header offset: 68644 (0x00010c24)
    Section header offset: 68676 (0x00010c44)

    Section header string table index: 15

========================================================================

** Program header #0 (PT_LOAD) [PF_X + PF_W + PF_R + PF_ARM_ENTRY]
    Size : 7352 bytes (6636 bytes in file)
    Virtual address: 0x00000000 (Alignment 8)


========================================================================

** Section #1 'FLASH' (SHT_PROGBITS) [SHF_ALLOC + SHF_EXECINSTR]
    Size   : 6600 bytes (alignment 4)
    Address: 0x00000000

    $d
    RESET
    __Vectors
        0x00000000:    100002f0    ....    DCD    268436208
        0x00000004:    00000071    q...    DCD    113
        0x00000008:    00000085    ....    DCD    133
        0x0000000c:    00000141    A...    DCD    321
        0x00000010:    0000008b    ....    DCD    139
        0x00000014:    0000008d    ....    DCD    141
        0x00000018:    0000008f    ....    DCD    143
        0x0000001c:    00000000    ....    DCD    0
        0x00000020:    00000000    ....    DCD    0
        0x00000024:    00000000    ....    DCD    0
        0x00000028:    00000000    ....    DCD    0
        0x0000002c:    00000091    ....    DCD    145
        0x00000030:    00000091    ....    DCD    145
        0x00000034:    00000000    ....    DCD    0
        0x00000038:    00000091    ....    DCD    145
        0x0000003c:    00000091    ....    DCD    145
        0x00000040:    00000091    ....    DCD    145
        0x00000044:    00000091    ....    DCD    145
        0x00000048:    00000091    ....    DCD    145
        0x0000004c:    00000091    ....    DCD    145
        0x00000050:    00000091    ....    DCD    145
        0x00000054:    00000091    ....    DCD    145
        0x00000058:    0000154d    M...    DCD    5453
        0x0000005c:    0000156b    k...    DCD    5483
        0x00000060:    00000091    ....    DCD    145
        0x00000064:    00000529    )...    DCD    1321
        0x00000068:    00000091    ....    DCD    145
        0x0000006c:    00000091    ....    DCD    145
    $t
    $v0
    Reset_Handler
        0x00000070:    f64e5088    N..P    MOV      r0,#0xed88
        0x00000074:    f2ce0000    ....    MOVT     r0,#0xe000
        0x00000078:    6801        .h      LDR      r1,[r0,#0]
        0x0000007a:    f4410170    A.p.    ORR      r1,r1,#0xf00000
        0x0000007e:    6001        .`      STR      r1,[r0,#0]
        0x00000080:    4804        .H      LDR      r0,[pc,#16] ; [0x94] = 0x99
        0x00000082:    4700        .G      BX       r0
    am_nmi_isr
        0x00000084:    e7fe        ..      B        am_nmi_isr ; 0x84
        0x00000086:    e7fe        ..      B        0x86 ; am_nmi_isr + 2
    am_memmanage_isr
        0x00000088:    e7fe        ..      B        am_memmanage_isr ; 0x88
    am_mpufault_isr
        0x0000008a:    e7fe        ..      B        am_mpufault_isr ; 0x8a
    am_busfault_isr
        0x0000008c:    e7fe        ..      B        am_busfault_isr ; 0x8c
    am_usagefault_isr
        0x0000008e:    e7fe        ..      B        am_usagefault_isr ; 0x8e
    am_adc_isr
    am_brownout_isr
    am_clkgen_isr
    am_ctimer_isr
    am_debugmon_isr
    am_ioslave_acc_isr
    am_ioslave_ios_isr
    am_pendsv_isr
    am_svcall_isr
    am_systick_isr
    am_uart_isr
    am_vcomp_isr
    am_watchdog_isr
        0x00000090:    e7fe        ..      B        am_adc_isr ; 0x90
    $d
        0x00000092:    0000        ..      DCW    0
        0x00000094:    00000099    ....    DCD    153
    $t
    !!!main
    __main
        0x00000098:    f000f802    ....    BL       __scatterload ; 0xa0
        0x0000009c:    f000f83c    ..<.    BL       __rt_entry ; 0x118
    !!!scatter
    __scatterload
    __scatterload_rt2
    __scatterload_rt2_thumb_only
        0x000000a0:    a00a        ..      ADR      r0,{pc}+0x2c ; 0xcc
        0x000000a2:    e8900c00    ....    LDM      r0,{r10,r11}
        0x000000a6:    4482        .D      ADD      r10,r10,r0
        0x000000a8:    4483        .D      ADD      r11,r11,r0
        0x000000aa:    f1aa0701    ....    SUB      r7,r10,#1
    __scatterload_null
        0x000000ae:    45da        .E      CMP      r10,r11
        0x000000b0:    d101        ..      BNE      0xb6 ; __scatterload_null + 8
        0x000000b2:    f000f831    ..1.    BL       __rt_entry ; 0x118
        0x000000b6:    f2af0e09    ....    ADR      lr,{pc}-7 ; 0xaf
        0x000000ba:    e8ba000f    ....    LDM      r10!,{r0-r3}
        0x000000be:    f0130f01    ....    TST      r3,#1
        0x000000c2:    bf18        ..      IT       NE
        0x000000c4:    1afb        ..      SUBNE    r3,r7,r3
        0x000000c6:    f0430301    C...    ORR      r3,r3,#1
        0x000000ca:    4718        .G      BX       r3
    $d
        0x000000cc:    000018dc    ....    DCD    6364
        0x000000d0:    000018fc    ....    DCD    6396
    $t
    !!handler_copy
    __scatterload_copy
        0x000000d4:    3a10        .:      SUBS     r2,r2,#0x10
        0x000000d6:    bf24        $.      ITT      CS
        0x000000d8:    c878        x.      LDMCS    r0!,{r3-r6}
        0x000000da:    c178        x.      STMCS    r1!,{r3-r6}
        0x000000dc:    d8fa        ..      BHI      __scatterload_copy ; 0xd4
        0x000000de:    0752        R.      LSLS     r2,r2,#29
        0x000000e0:    bf24        $.      ITT      CS
        0x000000e2:    c830        0.      LDMCS    r0!,{r4,r5}
        0x000000e4:    c130        0.      STMCS    r1!,{r4,r5}
        0x000000e6:    bf44        D.      ITT      MI
        0x000000e8:    6804        .h      LDRMI    r4,[r0,#0]
        0x000000ea:    600c        .`      STRMI    r4,[r1,#0]
        0x000000ec:    4770        pG      BX       lr
        0x000000ee:    0000        ..      MOVS     r0,r0
    !!handler_zi
    __scatterload_zeroinit
        0x000000f0:    2300        .#      MOVS     r3,#0
        0x000000f2:    2400        .$      MOVS     r4,#0
        0x000000f4:    2500        .%      MOVS     r5,#0
        0x000000f6:    2600        .&      MOVS     r6,#0
        0x000000f8:    3a10        .:      SUBS     r2,r2,#0x10
        0x000000fa:    bf28        (.      IT       CS
        0x000000fc:    c178        x.      STMCS    r1!,{r3-r6}
        0x000000fe:    d8fb        ..      BHI      0xf8 ; __scatterload_zeroinit + 8
        0x00000100:    0752        R.      LSLS     r2,r2,#29
        0x00000102:    bf28        (.      IT       CS
        0x00000104:    c130        0.      STMCS    r1!,{r4,r5}
        0x00000106:    bf48        H.      IT       MI
        0x00000108:    600b        .`      STRMI    r3,[r1,#0]
        0x0000010a:    4770        pG      BX       lr
    .ARM.Collect$$libinit$$00000000
    __rt_lib_init
        0x0000010c:    b51f        ..      PUSH     {r0-r4,lr}
    .ARM.Collect$$libinit$$00000001
    __rt_lib_init_fp_1
        0x0000010e:    f001fc35    ..5.    BL       _fp_init ; 0x197c
    .ARM.Collect$$libinit$$00000004
    .ARM.Collect$$libinit$$0000000A
    .ARM.Collect$$libinit$$0000000C
    .ARM.Collect$$libinit$$0000000E
    .ARM.Collect$$libinit$$00000011
    .ARM.Collect$$libinit$$00000013
    .ARM.Collect$$libinit$$00000015
    .ARM.Collect$$libinit$$00000017
    .ARM.Collect$$libinit$$00000019
    .ARM.Collect$$libinit$$0000001B
    .ARM.Collect$$libinit$$0000001D
    .ARM.Collect$$libinit$$0000001F
    .ARM.Collect$$libinit$$00000021
    .ARM.Collect$$libinit$$00000023
    .ARM.Collect$$libinit$$00000025
    .ARM.Collect$$libinit$$0000002C
    .ARM.Collect$$libinit$$0000002E
    .ARM.Collect$$libinit$$00000030
    .ARM.Collect$$libinit$$00000032
    .ARM.Collect$$libinit$$00000033
    __rt_lib_init_alloca_1
    __rt_lib_init_argv_1
    __rt_lib_init_atexit_1
    __rt_lib_init_clock_1
    __rt_lib_init_cpp_1
    __rt_lib_init_exceptions_1
    __rt_lib_init_fp_trap_1
    __rt_lib_init_getenv_1
    __rt_lib_init_heap_1
    __rt_lib_init_lc_collate_1
    __rt_lib_init_lc_ctype_1
    __rt_lib_init_lc_monetary_1
    __rt_lib_init_lc_numeric_1
    __rt_lib_init_lc_time_1
    __rt_lib_init_preinit_1
    __rt_lib_init_rand_1
    __rt_lib_init_return
    __rt_lib_init_signal_1
    __rt_lib_init_stdio_1
    __rt_lib_init_user_alloc_1
        0x00000112:    bd1f        ..      POP      {r0-r4,pc}
    .ARM.Collect$$libshutdown$$00000000
    __rt_lib_shutdown
        0x00000114:    b510        ..      PUSH     {r4,lr}
    .ARM.Collect$$libshutdown$$00000003
    .ARM.Collect$$libshutdown$$00000006
    .ARM.Collect$$libshutdown$$00000009
    .ARM.Collect$$libshutdown$$0000000B
    .ARM.Collect$$libshutdown$$0000000E
    .ARM.Collect$$libshutdown$$0000000F
    __rt_lib_shutdown_fp_trap_1
    __rt_lib_shutdown_heap_1
    __rt_lib_shutdown_return
    __rt_lib_shutdown_signal_1
    __rt_lib_shutdown_stdio_1
    __rt_lib_shutdown_user_alloc_1
        0x00000116:    bd10        ..      POP      {r4,pc}
    .ARM.Collect$$rtentry$$00000000
    .ARM.Collect$$rtentry$$00000002
    .ARM.Collect$$rtentry$$00000004
    __rt_entry
    __rt_entry_presh_1
    __rt_entry_sh
        0x00000118:    f000f83b    ..;.    BL       __user_setup_stackheap ; 0x192
        0x0000011c:    4611        .F      MOV      r1,r2
    .ARM.Collect$$rtentry$$00000009
    .ARM.Collect$$rtentry$$0000000A
    __rt_entry_li
    __rt_entry_postsh_1
        0x0000011e:    f7fffff5    ....    BL       __rt_lib_init ; 0x10c
    .ARM.Collect$$rtentry$$0000000C
    .ARM.Collect$$rtentry$$0000000D
    __rt_entry_main
    __rt_entry_postli_1
        0x00000122:    f001fbbf    ....    BL       main ; 0x18a4
        0x00000126:    f000f859    ..Y.    BL       exit ; 0x1dc
    .ARM.Collect$$rtexit$$00000000
    __rt_exit
        0x0000012a:    b403        ..      PUSH     {r0,r1}
    .ARM.Collect$$rtexit$$00000002
    .ARM.Collect$$rtexit$$00000003
    __rt_exit_ls
    __rt_exit_prels_1
        0x0000012c:    f7fffff2    ....    BL       __rt_lib_shutdown ; 0x114
    .ARM.Collect$$rtexit$$00000004
    __rt_exit_exit
        0x00000130:    bc03        ..      POP      {r0,r1}
        0x00000132:    f000f85d    ..].    BL       _sys_exit ; 0x1f0
        0x00000136:    0000        ..      MOVS     r0,r0
    .emb_text
    $v0
    am_util_delay_cycles
        0x00000138:    3801        .8      SUBS     r0,#1
        0x0000013a:    d1fd        ..      BNE      am_util_delay_cycles ; 0x138
        0x0000013c:    4770        pG      BX       lr
        0x0000013e:    0000        ..      MOVS     r0,r0
    .emb_text
    $v0
    am_fault_isr
        0x00000140:    b580        ..      PUSH     {r7,lr}
        0x00000142:    4668        hF      MOV      r0,sp
        0x00000144:    3008        .0      ADDS     r0,r0,#8
        0x00000146:    f001fa3d    ..=.    BL       am_util_faultisr_collect_data ; 0x15c4
        0x0000014a:    bd01        ..      POP      {r0,pc}
    getStackedReg
        0x0000014c:    0080        ..      LSLS     r0,r0,#2
        0x0000014e:    1840        @.      ADDS     r0,r0,r1
        0x00000150:    6800        .h      LDR      r0,[r0,#0]
        0x00000152:    4770        pG      BX       lr
    .emb_text
    $v0
    am_hal_interrupt_master_enable
        0x00000154:    f3ef8010    ....    MRS      r0,PRIMASK
        0x00000158:    b662        b.      CPSIE    i
        0x0000015a:    4770        pG      BX       lr
    am_hal_interrupt_master_disable
        0x0000015c:    f3ef8010    ....    MRS      r0,PRIMASK
        0x00000160:    b672        r.      CPSID    i
        0x00000162:    4770        pG      BX       lr
    am_hal_interrupt_master_set
        0x00000164:    f3808810    ....    MSR      PRIMASK,r0
        0x00000168:    4770        pG      BX       lr
        0x0000016a:    0000        ..      MOVS     r0,r0
    .emb_text
    $v0
    __asm___12_am_hal_itm_c_0782d9ac__am_itm_delay_cycles
        0x0000016c:    3801        .8      SUBS     r0,#1
        0x0000016e:    d1fd        ..      BNE      __asm___12_am_hal_itm_c_0782d9ac__am_itm_delay_cycles ; 0x16c
        0x00000170:    4770        pG      BX       lr
        0x00000172:    0000        ..      MOVS     r0,r0
    .text
    $v0
    __user_initial_stackheap
        0x00000174:    4802        .H      LDR      r0,[pc,#8] ; [0x180] = 0x100000f0
        0x00000176:    4903        .I      LDR      r1,[pc,#12] ; [0x184] = 0x100002f0
        0x00000178:    4a01        .J      LDR      r2,[pc,#4] ; [0x180] = 0x100000f0
        0x0000017a:    4b03        .K      LDR      r3,[pc,#12] ; [0x188] = 0x100000f0
        0x0000017c:    4770        pG      BX       lr
    $d
        0x0000017e:    0000        ..      DCW    0
        0x00000180:    100000f0    ....    DCD    268435696
        0x00000184:    100002f0    ....    DCD    268436208
        0x00000188:    100000f0    ....    DCD    268435696
    $t
    .text
    __use_two_region_memory
        0x0000018c:    4770        pG      BX       lr
    __rt_heap_escrow$2region
        0x0000018e:    4770        pG      BX       lr
    __rt_heap_expand$2region
        0x00000190:    4770        pG      BX       lr
    .text
    __user_setup_stackheap
        0x00000192:    4675        uF      MOV      r5,lr
        0x00000194:    f000f828    ..(.    BL       __user_libspace ; 0x1e8
        0x00000198:    46ae        .F      MOV      lr,r5
        0x0000019a:    0005        ..      MOVS     r5,r0
        0x0000019c:    4669        iF      MOV      r1,sp
        0x0000019e:    4653        SF      MOV      r3,r10
        0x000001a0:    f0200007     ...    BIC      r0,r0,#7
        0x000001a4:    4685        .F      MOV      sp,r0
        0x000001a6:    b018        ..      ADD      sp,sp,#0x60
        0x000001a8:    b520         .      PUSH     {r5,lr}
        0x000001aa:    f7ffffe3    ....    BL       __user_initial_stackheap ; 0x174
        0x000001ae:    e8bd4020    .. @    POP      {r5,lr}
        0x000001b2:    f04f0600    O...    MOV      r6,#0
        0x000001b6:    f04f0700    O...    MOV      r7,#0
        0x000001ba:    f04f0800    O...    MOV      r8,#0
        0x000001be:    f04f0b00    O...    MOV      r11,#0
        0x000001c2:    f0210107    !...    BIC      r1,r1,#7
        0x000001c6:    46ac        .F      MOV      r12,r5
        0x000001c8:    e8ac09c0    ....    STM      r12!,{r6-r8,r11}
        0x000001cc:    e8ac09c0    ....    STM      r12!,{r6-r8,r11}
        0x000001d0:    e8ac09c0    ....    STM      r12!,{r6-r8,r11}
        0x000001d4:    e8ac09c0    ....    STM      r12!,{r6-r8,r11}
        0x000001d8:    468d        .F      MOV      sp,r1
        0x000001da:    4770        pG      BX       lr
    .text
    exit
        0x000001dc:    4604        .F      MOV      r4,r0
        0x000001de:    f3af8000    ....    NOP.W    
        0x000001e2:    4620         F      MOV      r0,r4
        0x000001e4:    f7ffffa1    ....    BL       __rt_exit ; 0x12a
    .text
    __user_libspace
    __user_perproc_libspace
    __user_perthread_libspace
        0x000001e8:    4800        .H      LDR      r0,[pc,#0] ; [0x1ec] = 0x1000008c
        0x000001ea:    4770        pG      BX       lr
    $d
        0x000001ec:    1000008c    ....    DCD    268435596
    $t
    .text
    _sys_exit
        0x000001f0:    4901        .I      LDR      r1,[pc,#4] ; [0x1f8] = 0x20026
        0x000001f2:    2018        .       MOVS     r0,#0x18
        0x000001f4:    beab        ..      BKPT     #0xab
        0x000001f6:    e7fe        ..      B        0x1f6 ; _sys_exit + 6
    $d
        0x000001f8:    00020026    &...    DCD    131110
    $t
    .text
    __I$use$semihosting
    __use_no_semihosting_swi
        0x000001fc:    4770        pG      BX       lr
    .text
    __semihosting_library_function
        0x000001fe:    0000        ..      MOVS     r0,r0
    i.am_bsp_debug_printf_disable
    am_bsp_debug_printf_disable
        0x00000200:    480e        .H      LDR      r0,[pc,#56] ; [0x23c] = 0x10000010
        0x00000202:    6800        .h      LDR      r0,[r0,#0]
        0x00000204:    f0100f01    ....    TST      r0,#1
        0x00000208:    bf18        ..      IT       NE
        0x0000020a:    4770        pG      BXNE     lr
        0x0000020c:    b510        ..      PUSH     {r4,lr}
        0x0000020e:    f001f8d5    ....    BL       am_hal_itm_not_busy ; 0x13bc
        0x00000212:    480b        .H      LDR      r0,[pc,#44] ; [0x240] = 0x40010000
        0x00000214:    2173        s!      MOVS     r1,#0x73
        0x00000216:    6601        .f      STR      r1,[r0,#0x60]
        0x00000218:    6d41        Am      LDR      r1,[r0,#0x54]
        0x0000021a:    f0210170    !.p.    BIC      r1,r1,#0x70
        0x0000021e:    f0410120    A. .    ORR      r1,r1,#0x20
        0x00000222:    6541        Ae      STR      r1,[r0,#0x54]
        0x00000224:    6a81        .j      LDR      r1,[r0,#0x28]
        0x00000226:    f421417f    !..A    BIC      r1,r1,#0xff00
        0x0000022a:    f44151c0    A..Q    ORR      r1,r1,#0x1800
        0x0000022e:    6281        .b      STR      r1,[r0,#0x28]
        0x00000230:    2100        .!      MOVS     r1,#0
        0x00000232:    6601        .f      STR      r1,[r0,#0x60]
        0x00000234:    e8bd4010    ...@    POP      {r4,lr}
        0x00000238:    f001b960    ..`.    B.W      am_hal_tpiu_disable ; 0x14fc
    $d
        0x0000023c:    10000010    ....    DCD    268435472
        0x00000240:    40010000    ...@    DCD    1073807360
    $t
    i.am_bsp_debug_printf_enable
    am_bsp_debug_printf_enable
        0x00000244:    480c        .H      LDR      r0,[pc,#48] ; [0x278] = 0x10000010
        0x00000246:    6800        .h      LDR      r0,[r0,#0]
        0x00000248:    f0100f01    ....    TST      r0,#1
        0x0000024c:    bf18        ..      IT       NE
        0x0000024e:    4770        pG      BXNE     lr
        0x00000250:    b510        ..      PUSH     {r4,lr}
        0x00000252:    f001f95b    ..[.    BL       am_hal_tpiu_enable ; 0x150c
        0x00000256:    4809        .H      LDR      r0,[pc,#36] ; [0x27c] = 0x40010000
        0x00000258:    2173        s!      MOVS     r1,#0x73
        0x0000025a:    6601        .f      STR      r1,[r0,#0x60]
        0x0000025c:    6d41        Am      LDR      r1,[r0,#0x54]
        0x0000025e:    f0210170    !.p.    BIC      r1,r1,#0x70
        0x00000262:    6541        Ae      STR      r1,[r0,#0x54]
        0x00000264:    6a81        .j      LDR      r1,[r0,#0x28]
        0x00000266:    f421417f    !..A    BIC      r1,r1,#0xff00
        0x0000026a:    f4415180    A..Q    ORR      r1,r1,#0x1000
        0x0000026e:    6281        .b      STR      r1,[r0,#0x28]
        0x00000270:    2100        .!      MOVS     r1,#0
        0x00000272:    6601        .f      STR      r1,[r0,#0x60]
        0x00000274:    bd10        ..      POP      {r4,pc}
    $d
        0x00000276:    0000        ..      DCW    0
        0x00000278:    10000010    ....    DCD    268435472
        0x0000027c:    40010000    ...@    DCD    1073807360
    $t
    i.am_bsp_iom_spi_pins_enable
    am_bsp_iom_spi_pins_enable
        0x00000280:    2801        .(      CMP      r0,#1
        0x00000282:    d000        ..      BEQ      0x286 ; am_bsp_iom_spi_pins_enable + 6
        0x00000284:    e7fe        ..      B        0x284 ; am_bsp_iom_spi_pins_enable + 4
        0x00000286:    4814        .H      LDR      r0,[pc,#80] ; [0x2d8] = 0x40010000
        0x00000288:    2173        s!      MOVS     r1,#0x73
        0x0000028a:    6601        .f      STR      r1,[r0,#0x60]
        0x0000028c:    6c42        Bl      LDR      r2,[r0,#0x44]
        0x0000028e:    f0220207    "...    BIC      r2,r2,#7
        0x00000292:    6442        Bd      STR      r2,[r0,#0x44]
        0x00000294:    6882        .h      LDR      r2,[r0,#8]
        0x00000296:    f02202ff    "...    BIC      r2,r2,#0xff
        0x0000029a:    f042020e    B...    ORR      r2,r2,#0xe
        0x0000029e:    6082        .`      STR      r2,[r0,#8]
        0x000002a0:    2200        ."      MOVS     r2,#0
        0x000002a2:    6602        .f      STR      r2,[r0,#0x60]
        0x000002a4:    6601        .f      STR      r1,[r0,#0x60]
        0x000002a6:    6c43        Cl      LDR      r3,[r0,#0x44]
        0x000002a8:    f0230370    #.p.    BIC      r3,r3,#0x70
        0x000002ac:    6443        Cd      STR      r3,[r0,#0x44]
        0x000002ae:    6883        .h      LDR      r3,[r0,#8]
        0x000002b0:    f423437f    #..C    BIC      r3,r3,#0xff00
        0x000002b4:    f4436320    C. c    ORR      r3,r3,#0xa00
        0x000002b8:    6083        .`      STR      r3,[r0,#8]
        0x000002ba:    6602        .f      STR      r2,[r0,#0x60]
        0x000002bc:    6601        .f      STR      r1,[r0,#0x60]
        0x000002be:    6c41        Al      LDR      r1,[r0,#0x44]
        0x000002c0:    f42161e0    !..a    BIC      r1,r1,#0x700
        0x000002c4:    6441        Ad      STR      r1,[r0,#0x44]
        0x000002c6:    6881        .h      LDR      r1,[r0,#8]
        0x000002c8:    f421017f    !...    BIC      r1,r1,#0xff0000
        0x000002cc:    f4412100    A..!    ORR      r1,r1,#0x80000
        0x000002d0:    6081        .`      STR      r1,[r0,#8]
        0x000002d2:    6602        .f      STR      r2,[r0,#0x60]
        0x000002d4:    4770        pG      BX       lr
    $d
        0x000002d6:    0000        ..      DCW    0
        0x000002d8:    40010000    ...@    DCD    1073807360
    $t
    i.am_bsp_low_power_init
    am_bsp_low_power_init
        0x000002dc:    b510        ..      PUSH     {r4,lr}
        0x000002de:    f001f8cd    ....    BL       am_hal_mcuctrl_bucks_enable ; 0x147c
        0x000002e2:    f001f92d    ..-.    BL       am_hal_vcomp_disable ; 0x1540
        0x000002e6:    2001        .       MOVS     r0,#1
        0x000002e8:    f001f8e3    ....    BL       am_hal_rtc_osc_select ; 0x14b2
        0x000002ec:    2001        .       MOVS     r0,#1
        0x000002ee:    f000f94b    ..K.    BL       am_hal_clkgen_osc_stop ; 0x588
        0x000002f2:    2002        .       MOVS     r0,#2
        0x000002f4:    f000f948    ..H.    BL       am_hal_clkgen_osc_stop ; 0x588
        0x000002f8:    f001f8d4    ....    BL       am_hal_rtc_osc_disable ; 0x14a4
        0x000002fc:    e8bd4010    ...@    POP      {r4,lr}
        0x00000300:    f001b8b4    ....    B.W      am_hal_mcuctrl_bandgap_disable ; 0x146c
    i.am_devices_bmi160_config
    am_devices_bmi160_config
        0x00000304:    b570        p.      PUSH     {r4-r6,lr}
        0x00000306:    4604        .F      MOV      r4,r0
        0x00000308:    2600        .&      MOVS     r6,#0
        0x0000030a:    2532        2%      MOVS     r5,#0x32
        0x0000030c:    4620         F      MOV      r0,r4
        0x0000030e:    f000f8e8    ....    BL       am_devices_bmi160_reset ; 0x4e2
        0x00000312:    e011        ..      B        0x338 ; am_devices_bmi160_config + 52
        0x00000314:    2211        ."      MOVS     r2,#0x11
        0x00000316:    217e        ~!      MOVS     r1,#0x7e
        0x00000318:    4620         F      MOV      r0,r4
        0x0000031a:    f000f8bb    ....    BL       am_devices_bmi160_reg_write ; 0x494
        0x0000031e:    2215        ."      MOVS     r2,#0x15
        0x00000320:    217e        ~!      MOVS     r1,#0x7e
        0x00000322:    4620         F      MOV      r0,r4
        0x00000324:    f000f8b6    ....    BL       am_devices_bmi160_reg_write ; 0x494
        0x00000328:    2001        .       MOVS     r0,#1
        0x0000032a:    f001f92d    ..-.    BL       am_util_delay_ms ; 0x1588
        0x0000032e:    2103        .!      MOVS     r1,#3
        0x00000330:    4620         F      MOV      r0,r4
        0x00000332:    f000f88c    ....    BL       am_devices_bmi160_reg_read ; 0x44e
        0x00000336:    4606        .F      MOV      r6,r0
        0x00000338:    2e14        ..      CMP      r6,#0x14
        0x0000033a:    d004        ..      BEQ      0x346 ; am_devices_bmi160_config + 66
        0x0000033c:    0028        (.      MOVS     r0,r5
        0x0000033e:    f1a50101    ....    SUB      r1,r5,#1
        0x00000342:    b2cd        ..      UXTB     r5,r1
        0x00000344:    d1e6        ..      BNE      0x314 ; am_devices_bmi160_config + 16
        0x00000346:    b905        ..      CBNZ     r5,0x34a ; am_devices_bmi160_config + 70
        0x00000348:    bd70        p.      POP      {r4-r6,pc}
        0x0000034a:    2102        .!      MOVS     r1,#2
        0x0000034c:    4620         F      MOV      r0,r4
        0x0000034e:    f000f87e    ..~.    BL       am_devices_bmi160_reg_read ; 0x44e
        0x00000352:    4606        .F      MOV      r6,r0
        0x00000354:    220a        ."      MOVS     r2,#0xa
        0x00000356:    2153        S!      MOVS     r1,#0x53
        0x00000358:    4620         F      MOV      r0,r4
        0x0000035a:    f000f89b    ....    BL       am_devices_bmi160_reg_write ; 0x494
        0x0000035e:    220f        ."      MOVS     r2,#0xf
        0x00000360:    2154        T!      MOVS     r1,#0x54
        0x00000362:    4620         F      MOV      r0,r4
        0x00000364:    f000f896    ....    BL       am_devices_bmi160_reg_write ; 0x494
        0x00000368:    6920         i      LDR      r0,[r4,#0x10]
        0x0000036a:    2801        .(      CMP      r0,#1
        0x0000036c:    d921        !.      BLS      0x3b2 ; am_devices_bmi160_config + 174
        0x0000036e:    22c0        ."      MOVS     r2,#0xc0
        0x00000370:    2147        G!      MOVS     r1,#0x47
        0x00000372:    4620         F      MOV      r0,r4
        0x00000374:    f000f88e    ....    BL       am_devices_bmi160_reg_write ; 0x494
        0x00000378:    2240        @"      MOVS     r2,#0x40
        0x0000037a:    2156        V!      MOVS     r1,#0x56
        0x0000037c:    4620         F      MOV      r0,r4
        0x0000037e:    f000f889    ....    BL       am_devices_bmi160_reg_write ; 0x494
        0x00000382:    7c20         |      LDRB     r0,[r4,#0x10]
        0x00000384:    eb000040    ..@.    ADD      r0,r0,r0,LSL #1
        0x00000388:    b2c2        ..      UXTB     r2,r0
        0x0000038a:    2146        F!      MOVS     r1,#0x46
        0x0000038c:    4620         F      MOV      r0,r4
        0x0000038e:    f000f881    ....    BL       am_devices_bmi160_reg_write ; 0x494
        0x00000392:    2146        F!      MOVS     r1,#0x46
        0x00000394:    4620         F      MOV      r0,r4
        0x00000396:    f000f85a    ..Z.    BL       am_devices_bmi160_reg_read ; 0x44e
        0x0000039a:    4606        .F      MOV      r6,r0
        0x0000039c:    2240        @"      MOVS     r2,#0x40
        0x0000039e:    2151        Q!      MOVS     r1,#0x51
        0x000003a0:    4620         F      MOV      r0,r4
        0x000003a2:    f000f877    ..w.    BL       am_devices_bmi160_reg_write ; 0x494
        0x000003a6:    22b0        ."      MOVS     r2,#0xb0
        0x000003a8:    217e        ~!      MOVS     r1,#0x7e
        0x000003aa:    4620         F      MOV      r0,r4
        0x000003ac:    f000f872    ..r.    BL       am_devices_bmi160_reg_write ; 0x494
        0x000003b0:    e009        ..      B        0x3c6 ; am_devices_bmi160_config + 194
        0x000003b2:    2280        ."      MOVS     r2,#0x80
        0x000003b4:    2156        V!      MOVS     r1,#0x56
        0x000003b6:    4620         F      MOV      r0,r4
        0x000003b8:    f000f86c    ..l.    BL       am_devices_bmi160_reg_write ; 0x494
        0x000003bc:    2210        ."      MOVS     r2,#0x10
        0x000003be:    2151        Q!      MOVS     r1,#0x51
        0x000003c0:    4620         F      MOV      r0,r4
        0x000003c2:    f000f867    ..g.    BL       am_devices_bmi160_reg_write ; 0x494
        0x000003c6:    bf00        ..      NOP      
        0x000003c8:    e7be        ..      B        0x348 ; am_devices_bmi160_config + 68
    i.am_devices_bmi160_reg_block_read
    am_devices_bmi160_reg_block_read
        0x000003ca:    e92d47fc    -..G    PUSH     {r2-r10,lr}
        0x000003ce:    4604        .F      MOV      r4,r0
        0x000003d0:    460f        .F      MOV      r7,r1
        0x000003d2:    4690        .F      MOV      r8,r2
        0x000003d4:    4699        .F      MOV      r9,r3
        0x000003d6:    9d0a        ..      LDR      r5,[sp,#0x28]
        0x000003d8:    463e        >F      MOV      r6,r7
        0x000003da:    7820         x      LDRB     r0,[r4,#0]
        0x000003dc:    2801        .(      CMP      r0,#1
        0x000003de:    d11b        ..      BNE      0x418 ; am_devices_bmi160_reg_block_read + 78
        0x000003e0:    f0470680    G...    ORR      r6,r7,#0x80
        0x000003e4:    b165        e.      CBZ      r5,0x400 ; am_devices_bmi160_reg_block_read + 54
        0x000003e6:    f44f407f    O..@    MOV      r0,#0xff00
        0x000003ea:    ea002006    ...     AND      r0,r0,r6,LSL #8
        0x000003ee:    e9cd0500    ....    STRD     r0,r5,[sp,#0]
        0x000003f2:    464b        KF      MOV      r3,r9
        0x000003f4:    4642        BF      MOV      r2,r8
        0x000003f6:    e9d40101    ....    LDRD     r0,r1,[r4,#4]
        0x000003fa:    f000fedd    ....    BL       am_hal_iom_spi_read_nb ; 0x11b8
        0x000003fe:    e024        $.      B        0x44a ; am_devices_bmi160_reg_block_read + 128
        0x00000400:    f44f407f    O..@    MOV      r0,#0xff00
        0x00000404:    ea002006    ...     AND      r0,r0,r6,LSL #8
        0x00000408:    9000        ..      STR      r0,[sp,#0]
        0x0000040a:    464b        KF      MOV      r3,r9
        0x0000040c:    4642        BF      MOV      r2,r8
        0x0000040e:    e9d40101    ....    LDRD     r0,r1,[r4,#4]
        0x00000412:    f000fe61    ..a.    BL       am_hal_iom_spi_read ; 0x10d8
        0x00000416:    e018        ..      B        0x44a ; am_devices_bmi160_reg_block_read + 128
        0x00000418:    b165        e.      CBZ      r5,0x434 ; am_devices_bmi160_reg_block_read + 106
        0x0000041a:    f44f407f    O..@    MOV      r0,#0xff00
        0x0000041e:    ea002006    ...     AND      r0,r0,r6,LSL #8
        0x00000422:    e9cd0500    ....    STRD     r0,r5,[sp,#0]
        0x00000426:    464b        KF      MOV      r3,r9
        0x00000428:    4642        BF      MOV      r2,r8
        0x0000042a:    68e1        .h      LDR      r1,[r4,#0xc]
        0x0000042c:    6860        `h      LDR      r0,[r4,#4]
        0x0000042e:    f000fcc7    ....    BL       am_hal_iom_i2c_read_nb ; 0xdc0
        0x00000432:    e00a        ..      B        0x44a ; am_devices_bmi160_reg_block_read + 128
        0x00000434:    f44f407f    O..@    MOV      r0,#0xff00
        0x00000438:    ea002006    ...     AND      r0,r0,r6,LSL #8
        0x0000043c:    9000        ..      STR      r0,[sp,#0]
        0x0000043e:    464b        KF      MOV      r3,r9
        0x00000440:    4642        BF      MOV      r2,r8
        0x00000442:    68e1        .h      LDR      r1,[r4,#0xc]
        0x00000444:    6860        `h      LDR      r0,[r4,#4]
        0x00000446:    f000fc33    ..3.    BL       am_hal_iom_i2c_read ; 0xcb0
        0x0000044a:    e8bd87fc    ....    POP      {r2-r10,pc}
    i.am_devices_bmi160_reg_read
    am_devices_bmi160_reg_read
        0x0000044e:    b57c        |.      PUSH     {r2-r6,lr}
        0x00000450:    4604        .F      MOV      r4,r0
        0x00000452:    460d        .F      MOV      r5,r1
        0x00000454:    462e        .F      MOV      r6,r5
        0x00000456:    7820         x      LDRB     r0,[r4,#0]
        0x00000458:    2801        .(      CMP      r0,#1
        0x0000045a:    d10d        ..      BNE      0x478 ; am_devices_bmi160_reg_read + 42
        0x0000045c:    f0450680    E...    ORR      r6,r5,#0x80
        0x00000460:    f44f407f    O..@    MOV      r0,#0xff00
        0x00000464:    ea002006    ...     AND      r0,r0,r6,LSL #8
        0x00000468:    9000        ..      STR      r0,[sp,#0]
        0x0000046a:    2301        .#      MOVS     r3,#1
        0x0000046c:    aa01        ..      ADD      r2,sp,#4
        0x0000046e:    e9d40101    ....    LDRD     r0,r1,[r4,#4]
        0x00000472:    f000fe31    ..1.    BL       am_hal_iom_spi_read ; 0x10d8
        0x00000476:    e00a        ..      B        0x48e ; am_devices_bmi160_reg_read + 64
        0x00000478:    f44f407f    O..@    MOV      r0,#0xff00
        0x0000047c:    ea002006    ...     AND      r0,r0,r6,LSL #8
        0x00000480:    9000        ..      STR      r0,[sp,#0]
        0x00000482:    2301        .#      MOVS     r3,#1
        0x00000484:    aa01        ..      ADD      r2,sp,#4
        0x00000486:    68e1        .h      LDR      r1,[r4,#0xc]
        0x00000488:    6860        `h      LDR      r0,[r4,#4]
        0x0000048a:    f000fc11    ....    BL       am_hal_iom_i2c_read ; 0xcb0
        0x0000048e:    f89d0004    ....    LDRB     r0,[sp,#4]
        0x00000492:    bd7c        |.      POP      {r2-r6,pc}
    i.am_devices_bmi160_reg_write
    am_devices_bmi160_reg_write
        0x00000494:    e92d41fc    -..A    PUSH     {r2-r8,lr}
        0x00000498:    4604        .F      MOV      r4,r0
        0x0000049a:    460d        .F      MOV      r5,r1
        0x0000049c:    4616        .F      MOV      r6,r2
        0x0000049e:    462f        /F      MOV      r7,r5
        0x000004a0:    f88d6004    ...`    STRB     r6,[sp,#4]
        0x000004a4:    7820         x      LDRB     r0,[r4,#0]
        0x000004a6:    2801        .(      CMP      r0,#1
        0x000004a8:    d10b        ..      BNE      0x4c2 ; am_devices_bmi160_reg_write + 46
        0x000004aa:    f44f407f    O..@    MOV      r0,#0xff00
        0x000004ae:    ea002007    ...     AND      r0,r0,r7,LSL #8
        0x000004b2:    9000        ..      STR      r0,[sp,#0]
        0x000004b4:    2301        .#      MOVS     r3,#1
        0x000004b6:    aa01        ..      ADD      r2,sp,#4
        0x000004b8:    e9d40101    ....    LDRD     r0,r1,[r4,#4]
        0x000004bc:    f000fed0    ....    BL       am_hal_iom_spi_write ; 0x1260
        0x000004c0:    e00a        ..      B        0x4d8 ; am_devices_bmi160_reg_write + 68
        0x000004c2:    f44f407f    O..@    MOV      r0,#0xff00
        0x000004c6:    ea002007    ...     AND      r0,r0,r7,LSL #8
        0x000004ca:    9000        ..      STR      r0,[sp,#0]
        0x000004cc:    2301        .#      MOVS     r3,#1
        0x000004ce:    aa01        ..      ADD      r2,sp,#4
        0x000004d0:    68e1        .h      LDR      r1,[r4,#0xc]
        0x000004d2:    6860        `h      LDR      r0,[r4,#4]
        0x000004d4:    f000fce2    ....    BL       am_hal_iom_i2c_write ; 0xe9c
        0x000004d8:    2001        .       MOVS     r0,#1
        0x000004da:    f001f855    ..U.    BL       am_util_delay_ms ; 0x1588
        0x000004de:    e8bd81fc    ....    POP      {r2-r8,pc}
    i.am_devices_bmi160_reset
    am_devices_bmi160_reset
        0x000004e2:    b510        ..      PUSH     {r4,lr}
        0x000004e4:    4604        .F      MOV      r4,r0
        0x000004e6:    22b6        ."      MOVS     r2,#0xb6
        0x000004e8:    217e        ~!      MOVS     r1,#0x7e
        0x000004ea:    4620         F      MOV      r0,r4
        0x000004ec:    f7ffffd2    ....    BL       am_devices_bmi160_reg_write ; 0x494
        0x000004f0:    bd10        ..      POP      {r4,pc}
    i.am_devices_bmi160_sample_get
    am_devices_bmi160_sample_get
        0x000004f2:    b5f8        ..      PUSH     {r3-r7,lr}
        0x000004f4:    4605        .F      MOV      r5,r0
        0x000004f6:    460e        .F      MOV      r6,r1
        0x000004f8:    4617        .F      MOV      r7,r2
        0x000004fa:    461c        .F      MOV      r4,r3
        0x000004fc:    6928        (i      LDR      r0,[r5,#0x10]
        0x000004fe:    2801        .(      CMP      r0,#1
        0x00000500:    d909        ..      BLS      0x516 ; am_devices_bmi160_sample_get + 36
        0x00000502:    eb060046    ..F.    ADD      r0,r6,r6,LSL #1
        0x00000506:    0083        ..      LSLS     r3,r0,#2
        0x00000508:    463a        :F      MOV      r2,r7
        0x0000050a:    2124        $!      MOVS     r1,#0x24
        0x0000050c:    4628        (F      MOV      r0,r5
        0x0000050e:    9400        ..      STR      r4,[sp,#0]
        0x00000510:    f7ffff5b    ..[.    BL       am_devices_bmi160_reg_block_read ; 0x3ca
        0x00000514:    e006        ..      B        0x524 ; am_devices_bmi160_sample_get + 50
        0x00000516:    230c        .#      MOVS     r3,#0xc
        0x00000518:    463a        :F      MOV      r2,r7
        0x0000051a:    4619        .F      MOV      r1,r3
        0x0000051c:    4628        (F      MOV      r0,r5
        0x0000051e:    9400        ..      STR      r4,[sp,#0]
        0x00000520:    f7ffff53    ..S.    BL       am_devices_bmi160_reg_block_read ; 0x3ca
        0x00000524:    bdf8        ..      POP      {r3-r7,pc}
        0x00000526:    0000        ..      MOVS     r0,r0
    i.am_gpio_isr
    am_gpio_isr
        0x00000528:    b570        p.      PUSH     {r4-r6,lr}
        0x0000052a:    2000        .       MOVS     r0,#0
        0x0000052c:    f000f882    ....    BL       am_hal_gpio_int_status_get ; 0x634
        0x00000530:    4604        .F      MOV      r4,r0
        0x00000532:    460d        .F      MOV      r5,r1
        0x00000534:    4620         F      MOV      r0,r4
        0x00000536:    4629        )F      MOV      r1,r5
        0x00000538:    f000f866    ..f.    BL       am_hal_gpio_int_clear ; 0x608
        0x0000053c:    2202        ."      MOVS     r2,#2
        0x0000053e:    2000        .       MOVS     r0,#0
        0x00000540:    ea050102    ....    AND      r1,r5,r2
        0x00000544:    4602        .F      MOV      r2,r0
        0x00000546:    4040        @@      EORS     r0,r0,r0
        0x00000548:    4051        Q@      EORS     r1,r1,r2
        0x0000054a:    4308        .C      ORRS     r0,r0,r1
        0x0000054c:    d012        ..      BEQ      0x574 ; am_gpio_isr + 76
        0x0000054e:    2001        .       MOVS     r0,#1
        0x00000550:    4909        .I      LDR      r1,[pc,#36] ; [0x578] = 0x10000000
        0x00000552:    7008        .p      STRB     r0,[r1,#0]
        0x00000554:    f000faa4    ....    BL       am_hal_iom_enable ; 0xaa0
        0x00000558:    2103        .!      MOVS     r1,#3
        0x0000055a:    2001        .       MOVS     r0,#1
        0x0000055c:    f000fd24    ..$.    BL       am_hal_iom_int_clear ; 0xfa8
        0x00000560:    2103        .!      MOVS     r1,#3
        0x00000562:    2001        .       MOVS     r0,#1
        0x00000564:    f000fd28    ..(.    BL       am_hal_iom_int_enable ; 0xfb8
        0x00000568:    4b04        .K      LDR      r3,[pc,#16] ; [0x57c] = 0x1749
        0x0000056a:    4a05        .J      LDR      r2,[pc,#20] ; [0x580] = 0x10000024
        0x0000056c:    2105        .!      MOVS     r1,#5
        0x0000056e:    4805        .H      LDR      r0,[pc,#20] ; [0x584] = 0x1994
        0x00000570:    f7ffffbf    ....    BL       am_devices_bmi160_sample_get ; 0x4f2
        0x00000574:    bd70        p.      POP      {r4-r6,pc}
    $d
        0x00000576:    0000        ..      DCW    0
        0x00000578:    10000000    ....    DCD    268435456
        0x0000057c:    00001749    I...    DCD    5961
        0x00000580:    10000024    $...    DCD    268435492
        0x00000584:    00001994    ....    DCD    6548
    $t
    i.am_hal_clkgen_osc_stop
    am_hal_clkgen_osc_stop
        0x00000588:    f04f2140    O.@!    MOV      r1,#0x40004000
        0x0000058c:    68ca        .h      LDR      r2,[r1,#0xc]
        0x0000058e:    4310        .C      ORRS     r0,r0,r2
        0x00000590:    60c8        .`      STR      r0,[r1,#0xc]
        0x00000592:    4770        pG      BX       lr
    i.am_hal_clkgen_sysclk_get
    am_hal_clkgen_sysclk_get
        0x00000594:    f04f2040    O.@     MOV      r0,#0x40004000
        0x00000598:    6980        .i      LDR      r0,[r0,#0x18]
        0x0000059a:    f0000007    ....    AND      r0,r0,#7
        0x0000059e:    2808        .(      CMP      r0,#8
        0x000005a0:    d215        ..      BCS      0x5ce ; am_hal_clkgen_sysclk_get + 58
        0x000005a2:    e8dff000    ....    TBB      [pc,r0]
    $d
        0x000005a6:    0604        ..      DCW    1540
        0x000005a8:    0e0c0a08    ....    DCD    235670024
        0x000005ac:    1210        ..      DCW    4624
    $t
        0x000005ae:    4809        .H      LDR      r0,[pc,#36] ; [0x5d4] = 0x16e3600
        0x000005b0:    4770        pG      BX       lr
        0x000005b2:    4809        .H      LDR      r0,[pc,#36] ; [0x5d8] = 0xb71b00
        0x000005b4:    4770        pG      BX       lr
        0x000005b6:    4809        .H      LDR      r0,[pc,#36] ; [0x5dc] = 0x7a1200
        0x000005b8:    4770        pG      BX       lr
        0x000005ba:    4809        .H      LDR      r0,[pc,#36] ; [0x5e0] = 0x5b8d80
        0x000005bc:    4770        pG      BX       lr
        0x000005be:    4809        .H      LDR      r0,[pc,#36] ; [0x5e4] = 0x493e00
        0x000005c0:    4770        pG      BX       lr
        0x000005c2:    4809        .H      LDR      r0,[pc,#36] ; [0x5e8] = 0x3d0900
        0x000005c4:    4770        pG      BX       lr
        0x000005c6:    4809        .H      LDR      r0,[pc,#36] ; [0x5ec] = 0x3450db
        0x000005c8:    4770        pG      BX       lr
        0x000005ca:    4809        .H      LDR      r0,[pc,#36] ; [0x5f0] = 0x2dc6c0
        0x000005cc:    4770        pG      BX       lr
        0x000005ce:    f04f30ff    O..0    MOV      r0,#0xffffffff
        0x000005d2:    4770        pG      BX       lr
    $d
        0x000005d4:    016e3600    .6n.    DCD    24000000
        0x000005d8:    00b71b00    ....    DCD    12000000
        0x000005dc:    007a1200    ..z.    DCD    8000000
        0x000005e0:    005b8d80    ..[.    DCD    6000000
        0x000005e4:    00493e00    .>I.    DCD    4800000
        0x000005e8:    003d0900    ..=.    DCD    4000000
        0x000005ec:    003450db    .P4.    DCD    3428571
        0x000005f0:    002dc6c0    ..-.    DCD    3000000
    $t
    i.am_hal_clkgen_sysclk_select
    am_hal_clkgen_sysclk_select
        0x000005f4:    f04f2140    O.@!    MOV      r1,#0x40004000
        0x000005f8:    2247        G"      MOVS     r2,#0x47
        0x000005fa:    614a        Ja      STR      r2,[r1,#0x14]
        0x000005fc:    6188        .a      STR      r0,[r1,#0x18]
        0x000005fe:    2000        .       MOVS     r0,#0
        0x00000600:    6148        Ha      STR      r0,[r1,#0x14]
        0x00000602:    4770        pG      BX       lr
    i.am_hal_debug_error
    am_hal_debug_error
        0x00000604:    e7fe        ..      B        am_hal_debug_error ; 0x604
        0x00000606:    0000        ..      MOVS     r0,r0
    i.am_hal_gpio_int_clear
    am_hal_gpio_int_clear
        0x00000608:    4a02        .J      LDR      r2,[pc,#8] ; [0x614] = 0x40010000
        0x0000060a:    f8c21218    ....    STR      r1,[r2,#0x218]
        0x0000060e:    f8c20208    ....    STR      r0,[r2,#0x208]
        0x00000612:    4770        pG      BX       lr
    $d
        0x00000614:    40010000    ...@    DCD    1073807360
    $t
    i.am_hal_gpio_int_enable
    am_hal_gpio_int_enable
        0x00000618:    4a05        .J      LDR      r2,[pc,#20] ; [0x630] = 0x40010000
        0x0000061a:    f8d23210    ...2    LDR      r3,[r2,#0x210]
        0x0000061e:    4319        .C      ORRS     r1,r1,r3
        0x00000620:    f8c21210    ....    STR      r1,[r2,#0x210]
        0x00000624:    f8d21200    ....    LDR      r1,[r2,#0x200]
        0x00000628:    4308        .C      ORRS     r0,r0,r1
        0x0000062a:    f8c20200    ....    STR      r0,[r2,#0x200]
        0x0000062e:    4770        pG      BX       lr
    $d
        0x00000630:    40010000    ...@    DCD    1073807360
    $t
    i.am_hal_gpio_int_status_get
    am_hal_gpio_int_status_get
        0x00000634:    4a0c        .J      LDR      r2,[pc,#48] ; [0x668] = 0x40010000
        0x00000636:    2100        .!      MOVS     r1,#0
        0x00000638:    b178        x.      CBZ      r0,0x65a ; am_hal_gpio_int_status_get + 38
        0x0000063a:    f8d23210    ...2    LDR      r3,[r2,#0x210]
        0x0000063e:    f8d20200    ....    LDR      r0,[r2,#0x200]
        0x00000642:    f8d2c214    ....    LDR      r12,[r2,#0x214]
        0x00000646:    4308        .C      ORRS     r0,r0,r1
        0x00000648:    430b        .C      ORRS     r3,r3,r1
        0x0000064a:    f8d22204    ..."    LDR      r2,[r2,#0x204]
        0x0000064e:    430a        .C      ORRS     r2,r2,r1
        0x00000650:    ea41010c    A...    ORR      r1,r1,r12
        0x00000654:    4010        .@      ANDS     r0,r0,r2
        0x00000656:    4019        .@      ANDS     r1,r1,r3
        0x00000658:    4770        pG      BX       lr
        0x0000065a:    f8d23214    ...2    LDR      r3,[r2,#0x214]
        0x0000065e:    f8d20204    ....    LDR      r0,[r2,#0x204]
        0x00000662:    4308        .C      ORRS     r0,r0,r1
        0x00000664:    4319        .C      ORRS     r1,r1,r3
        0x00000666:    4770        pG      BX       lr
    $d
        0x00000668:    40010000    ...@    DCD    1073807360
    $t
    i.am_hal_i2c_bit_bang_receive
    am_hal_i2c_bit_bang_receive
        0x0000066c:    e92d5fff    -.._    PUSH     {r0-r12,lr}
        0x00000670:    4f77        wO      LDR      r7,[pc,#476] ; [0x850] = 0x10000080
        0x00000672:    4681        .F      MOV      r9,r0
        0x00000674:    2401        .$      MOVS     r4,#1
        0x00000676:    68b9        .h      LDR      r1,[r7,#8]
        0x00000678:    2504        .%      MOVS     r5,#4
        0x0000067a:    f001001f    ....    AND      r0,r1,#0x1f
        0x0000067e:    ea0501d1    ....    AND      r1,r5,r1,LSR #3
        0x00000682:    f1014180    ...A    ADD      r1,r1,#0x40000000
        0x00000686:    f5013180    ...1    ADD      r1,r1,#0x10000
        0x0000068a:    9e0e        ..      LDR      r6,[sp,#0x38]
        0x0000068c:    fa04f000    ....    LSL      r0,r4,r0
        0x00000690:    4698        .F      MOV      r8,r3
        0x00000692:    4692        .F      MOV      r10,r2
        0x00000694:    f8c10098    ....    STR      r0,[r1,#0x98]
        0x00000698:    4620         F      MOV      r0,r4
        0x0000069a:    f000ff83    ....    BL       am_util_delay_us ; 0x15a4
        0x0000069e:    4648        HF      MOV      r0,r9
        0x000006a0:    f001f882    ....    BL       i2c_send_byte ; 0x17a8
        0x000006a4:    2800        .(      CMP      r0,#0
        0x000006a6:    bf1e        ..      ITTT     NE
        0x000006a8:    2001        .       MOVNE    r0,#1
        0x000006aa:    b004        ..      ADDNE    sp,sp,#0x10
        0x000006ac:    e8bd9ff0    ....    POPNE    {r4-r12,pc}
        0x000006b0:    b146        F.      CBZ      r6,0x6c4 ; am_hal_i2c_bit_bang_receive + 88
        0x000006b2:    4640        @F      MOV      r0,r8
        0x000006b4:    f001f878    ..x.    BL       i2c_send_byte ; 0x17a8
        0x000006b8:    2800        .(      CMP      r0,#0
        0x000006ba:    bf1e        ..      ITTT     NE
        0x000006bc:    2002        .       MOVNE    r0,#2
        0x000006be:    b004        ..      ADDNE    sp,sp,#0x10
        0x000006c0:    e8bd9ff0    ....    POPNE    {r4-r12,pc}
        0x000006c4:    f04f0900    O...    MOV      r9,#0
        0x000006c8:    9801        ..      LDR      r0,[sp,#4]
        0x000006ca:    2800        .(      CMP      r0,#0
        0x000006cc:    bf88        ..      IT       HI
        0x000006ce:    f04f0b80    O...    MOVHI    r11,#0x80
        0x000006d2:    d978        x.      BLS      0x7c6 ; am_hal_i2c_bit_bang_receive + 346
        0x000006d4:    f04f0800    O...    MOV      r8,#0
        0x000006d8:    4646        FF      MOV      r6,r8
        0x000006da:    6878        xh      LDR      r0,[r7,#4]
        0x000006dc:    f000011f    ....    AND      r1,r0,#0x1f
        0x000006e0:    ea0500d0    ....    AND      r0,r5,r0,LSR #3
        0x000006e4:    f1004080    ...@    ADD      r0,r0,#0x40000000
        0x000006e8:    f5003080    ...0    ADD      r0,r0,#0x10000
        0x000006ec:    fa04f101    ....    LSL      r1,r4,r1
        0x000006f0:    f8c01098    ....    STR      r1,[r0,#0x98]
        0x000006f4:    2001        .       MOVS     r0,#1
        0x000006f6:    f000ff55    ..U.    BL       am_util_delay_us ; 0x15a4
        0x000006fa:    68b8        .h      LDR      r0,[r7,#8]
        0x000006fc:    f000011f    ....    AND      r1,r0,#0x1f
        0x00000700:    fa04f201    ....    LSL      r2,r4,r1
        0x00000704:    ea0500d0    ....    AND      r0,r5,r0,LSR #3
        0x00000708:    f1004180    ...A    ADD      r1,r0,#0x40000000
        0x0000070c:    f5013180    ...1    ADD      r1,r1,#0x10000
        0x00000710:    f8c12090    ...     STR      r2,[r1,#0x90]
        0x00000714:    687b        {h      LDR      r3,[r7,#4]
        0x00000716:    f003001f    ....    AND      r0,r3,#0x1f
        0x0000071a:    ea0503d3    ....    AND      r3,r5,r3,LSR #3
        0x0000071e:    f1034380    ...C    ADD      r3,r3,#0x40000000
        0x00000722:    f5033380    ...3    ADD      r3,r3,#0x10000
        0x00000726:    fa04f000    ....    LSL      r0,r4,r0
        0x0000072a:    f8c30090    ....    STR      r0,[r3,#0x90]
        0x0000072e:    bf00        ..      NOP      
        0x00000730:    f8d3c080    ....    LDR      r12,[r3,#0x80]
        0x00000734:    ea1c0f00    ....    TST      r12,r0
        0x00000738:    d0fa        ..      BEQ      0x730 ; am_hal_i2c_bit_bang_receive + 196
        0x0000073a:    f8d10080    ....    LDR      r0,[r1,#0x80]
        0x0000073e:    4210        .B      TST      r0,r2
        0x00000740:    bf1c        ..      ITT      NE
        0x00000742:    fa2bf006    +...    LSRNE    r0,r11,r6
        0x00000746:    ea400808    @...    ORRNE    r8,r0,r8
        0x0000074a:    2002        .       MOVS     r0,#2
        0x0000074c:    f000ff2a    ..*.    BL       am_util_delay_us ; 0x15a4
        0x00000750:    1c76        v.      ADDS     r6,r6,#1
        0x00000752:    2e08        ..      CMP      r6,#8
        0x00000754:    dbc1        ..      BLT      0x6da ; am_hal_i2c_bit_bang_receive + 110
        0x00000756:    6878        xh      LDR      r0,[r7,#4]
        0x00000758:    f000011f    ....    AND      r1,r0,#0x1f
        0x0000075c:    ea0500d0    ....    AND      r0,r5,r0,LSR #3
        0x00000760:    f1004080    ...@    ADD      r0,r0,#0x40000000
        0x00000764:    f5003080    ...0    ADD      r0,r0,#0x10000
        0x00000768:    fa04f101    ....    LSL      r1,r4,r1
        0x0000076c:    f8c01098    ....    STR      r1,[r0,#0x98]
        0x00000770:    2001        .       MOVS     r0,#1
        0x00000772:    f000ff17    ....    BL       am_util_delay_us ; 0x15a4
        0x00000776:    6878        xh      LDR      r0,[r7,#4]
        0x00000778:    f000011f    ....    AND      r1,r0,#0x1f
        0x0000077c:    ea0500d0    ....    AND      r0,r5,r0,LSR #3
        0x00000780:    f1004080    ...@    ADD      r0,r0,#0x40000000
        0x00000784:    f5003080    ...0    ADD      r0,r0,#0x10000
        0x00000788:    fa04f101    ....    LSL      r1,r4,r1
        0x0000078c:    f8c01090    ....    STR      r1,[r0,#0x90]
        0x00000790:    2001        .       MOVS     r0,#1
        0x00000792:    f000ff07    ....    BL       am_util_delay_us ; 0x15a4
        0x00000796:    6879        yh      LDR      r1,[r7,#4]
        0x00000798:    f001001f    ....    AND      r0,r1,#0x1f
        0x0000079c:    ea0501d1    ....    AND      r1,r5,r1,LSR #3
        0x000007a0:    f1014180    ...A    ADD      r1,r1,#0x40000000
        0x000007a4:    f5013180    ...1    ADD      r1,r1,#0x10000
        0x000007a8:    fa04f000    ....    LSL      r0,r4,r0
        0x000007ac:    f8c10090    ....    STR      r0,[r1,#0x90]
        0x000007b0:    f8d12080    ...     LDR      r2,[r1,#0x80]
        0x000007b4:    4202        .B      TST      r2,r0
        0x000007b6:    d0fb        ..      BEQ      0x7b0 ; am_hal_i2c_bit_bang_receive + 324
        0x000007b8:    f80a8b01    ....    STRB     r8,[r10],#1
        0x000007bc:    9801        ..      LDR      r0,[sp,#4]
        0x000007be:    f1090901    ....    ADD      r9,r9,#1
        0x000007c2:    4548        HE      CMP      r0,r9
        0x000007c4:    d886        ..      BHI      0x6d4 ; am_hal_i2c_bit_bang_receive + 104
        0x000007c6:    6878        xh      LDR      r0,[r7,#4]
        0x000007c8:    f000011f    ....    AND      r1,r0,#0x1f
        0x000007cc:    ea0500d0    ....    AND      r0,r5,r0,LSR #3
        0x000007d0:    f1004080    ...@    ADD      r0,r0,#0x40000000
        0x000007d4:    f5003080    ...0    ADD      r0,r0,#0x10000
        0x000007d8:    fa04f101    ....    LSL      r1,r4,r1
        0x000007dc:    f8c01098    ....    STR      r1,[r0,#0x98]
        0x000007e0:    2001        .       MOVS     r0,#1
        0x000007e2:    f000fedf    ....    BL       am_util_delay_us ; 0x15a4
        0x000007e6:    68b8        .h      LDR      r0,[r7,#8]
        0x000007e8:    f000011f    ....    AND      r1,r0,#0x1f
        0x000007ec:    ea0500d0    ....    AND      r0,r5,r0,LSR #3
        0x000007f0:    f1004080    ...@    ADD      r0,r0,#0x40000000
        0x000007f4:    f5003080    ...0    ADD      r0,r0,#0x10000
        0x000007f8:    fa04f101    ....    LSL      r1,r4,r1
        0x000007fc:    f8c01098    ....    STR      r1,[r0,#0x98]
        0x00000800:    2001        .       MOVS     r0,#1
        0x00000802:    f000fecf    ....    BL       am_util_delay_us ; 0x15a4
        0x00000806:    6878        xh      LDR      r0,[r7,#4]
        0x00000808:    f000011f    ....    AND      r1,r0,#0x1f
        0x0000080c:    ea0500d0    ....    AND      r0,r5,r0,LSR #3
        0x00000810:    f1004080    ...@    ADD      r0,r0,#0x40000000
        0x00000814:    f5003080    ...0    ADD      r0,r0,#0x10000
        0x00000818:    fa04f101    ....    LSL      r1,r4,r1
        0x0000081c:    f8c01090    ....    STR      r1,[r0,#0x90]
        0x00000820:    f8d02080    ...     LDR      r2,[r0,#0x80]
        0x00000824:    420a        .B      TST      r2,r1
        0x00000826:    d0fb        ..      BEQ      0x820 ; am_hal_i2c_bit_bang_receive + 436
        0x00000828:    2002        .       MOVS     r0,#2
        0x0000082a:    f000febb    ....    BL       am_util_delay_us ; 0x15a4
        0x0000082e:    68b8        .h      LDR      r0,[r7,#8]
        0x00000830:    f000011f    ....    AND      r1,r0,#0x1f
        0x00000834:    ea0500d0    ....    AND      r0,r5,r0,LSR #3
        0x00000838:    f1004080    ...@    ADD      r0,r0,#0x40000000
        0x0000083c:    f5003080    ...0    ADD      r0,r0,#0x10000
        0x00000840:    fa04f101    ....    LSL      r1,r4,r1
        0x00000844:    f8c01090    ....    STR      r1,[r0,#0x90]
        0x00000848:    b004        ..      ADD      sp,sp,#0x10
        0x0000084a:    2000        .       MOVS     r0,#0
        0x0000084c:    e8bd9ff0    ....    POP      {r4-r12,pc}
    $d
        0x00000850:    10000080    ....    DCD    268435584
    $t
    i.am_hal_i2c_bit_bang_send
    am_hal_i2c_bit_bang_send
        0x00000854:    e92d5fff    -.._    PUSH     {r0-r12,lr}
        0x00000858:    4f45        EO      LDR      r7,[pc,#276] ; [0x970] = 0x10000080
        0x0000085a:    460e        .F      MOV      r6,r1
        0x0000085c:    f04f0904    O...    MOV      r9,#4
        0x00000860:    68b8        .h      LDR      r0,[r7,#8]
        0x00000862:    f04f0801    O...    MOV      r8,#1
        0x00000866:    f000011f    ....    AND      r1,r0,#0x1f
        0x0000086a:    ea0900d0    ....    AND      r0,r9,r0,LSR #3
        0x0000086e:    f1004080    ...@    ADD      r0,r0,#0x40000000
        0x00000872:    f5003080    ...0    ADD      r0,r0,#0x10000
        0x00000876:    9c0e        ..      LDR      r4,[sp,#0x38]
        0x00000878:    fa08f101    ....    LSL      r1,r8,r1
        0x0000087c:    469b        .F      MOV      r11,r3
        0x0000087e:    4615        .F      MOV      r5,r2
        0x00000880:    f04f0a00    O...    MOV      r10,#0
        0x00000884:    f8c01098    ....    STR      r1,[r0,#0x98]
        0x00000888:    4640        @F      MOV      r0,r8
        0x0000088a:    f000fe8b    ....    BL       am_util_delay_us ; 0x15a4
        0x0000088e:    9800        ..      LDR      r0,[sp,#0]
        0x00000890:    f000ff8a    ....    BL       i2c_send_byte ; 0x17a8
        0x00000894:    2800        .(      CMP      r0,#0
        0x00000896:    bf1e        ..      ITTT     NE
        0x00000898:    2001        .       MOVNE    r0,#1
        0x0000089a:    b004        ..      ADDNE    sp,sp,#0x10
        0x0000089c:    e8bd9ff0    ....    POPNE    {r4-r12,pc}
        0x000008a0:    b124        $.      CBZ      r4,0x8ac ; am_hal_i2c_bit_bang_send + 88
        0x000008a2:    4658        XF      MOV      r0,r11
        0x000008a4:    f000ff80    ....    BL       i2c_send_byte ; 0x17a8
        0x000008a8:    2800        .(      CMP      r0,#0
        0x000008aa:    d15c        \.      BNE      0x966 ; am_hal_i2c_bit_bang_send + 274
        0x000008ac:    2400        .$      MOVS     r4,#0
        0x000008ae:    2e00        ..      CMP      r6,#0
        0x000008b0:    bf88        ..      IT       HI
        0x000008b2:    f1a60b01    ....    SUBHI    r11,r6,#1
        0x000008b6:    d90d        ..      BLS      0x8d4 ; am_hal_i2c_bit_bang_send + 128
        0x000008b8:    f8150b01    ....    LDRB     r0,[r5],#1
        0x000008bc:    f000ff74    ..t.    BL       i2c_send_byte ; 0x17a8
        0x000008c0:    2800        .(      CMP      r0,#0
        0x000008c2:    bf18        ..      IT       NE
        0x000008c4:    455c        \E      CMPNE    r4,r11
        0x000008c6:    d002        ..      BEQ      0x8ce ; am_hal_i2c_bit_bang_send + 122
        0x000008c8:    f04f0a01    O...    MOV      r10,#1
        0x000008cc:    e002        ..      B        0x8d4 ; am_hal_i2c_bit_bang_send + 128
        0x000008ce:    1c64        d.      ADDS     r4,r4,#1
        0x000008d0:    42b4        .B      CMP      r4,r6
        0x000008d2:    d3f1        ..      BCC      0x8b8 ; am_hal_i2c_bit_bang_send + 100
        0x000008d4:    6878        xh      LDR      r0,[r7,#4]
        0x000008d6:    f000011f    ....    AND      r1,r0,#0x1f
        0x000008da:    ea0900d0    ....    AND      r0,r9,r0,LSR #3
        0x000008de:    f1004080    ...@    ADD      r0,r0,#0x40000000
        0x000008e2:    f5003080    ...0    ADD      r0,r0,#0x10000
        0x000008e6:    fa08f101    ....    LSL      r1,r8,r1
        0x000008ea:    f8c01098    ....    STR      r1,[r0,#0x98]
        0x000008ee:    2001        .       MOVS     r0,#1
        0x000008f0:    f000fe58    ..X.    BL       am_util_delay_us ; 0x15a4
        0x000008f4:    68b8        .h      LDR      r0,[r7,#8]
        0x000008f6:    f000011f    ....    AND      r1,r0,#0x1f
        0x000008fa:    ea0900d0    ....    AND      r0,r9,r0,LSR #3
        0x000008fe:    f1004080    ...@    ADD      r0,r0,#0x40000000
        0x00000902:    f5003080    ...0    ADD      r0,r0,#0x10000
        0x00000906:    fa08f101    ....    LSL      r1,r8,r1
        0x0000090a:    f8c01098    ....    STR      r1,[r0,#0x98]
        0x0000090e:    2001        .       MOVS     r0,#1
        0x00000910:    f000fe48    ..H.    BL       am_util_delay_us ; 0x15a4
        0x00000914:    6878        xh      LDR      r0,[r7,#4]
        0x00000916:    f000011f    ....    AND      r1,r0,#0x1f
        0x0000091a:    ea0900d0    ....    AND      r0,r9,r0,LSR #3
        0x0000091e:    f1004080    ...@    ADD      r0,r0,#0x40000000
        0x00000922:    f5003080    ...0    ADD      r0,r0,#0x10000
        0x00000926:    fa08f101    ....    LSL      r1,r8,r1
        0x0000092a:    f8c01090    ....    STR      r1,[r0,#0x90]
        0x0000092e:    bf00        ..      NOP      
        0x00000930:    f8d02080    ...     LDR      r2,[r0,#0x80]
        0x00000934:    420a        .B      TST      r2,r1
        0x00000936:    d0fb        ..      BEQ      0x930 ; am_hal_i2c_bit_bang_send + 220
        0x00000938:    2002        .       MOVS     r0,#2
        0x0000093a:    f000fe33    ..3.    BL       am_util_delay_us ; 0x15a4
        0x0000093e:    68b8        .h      LDR      r0,[r7,#8]
        0x00000940:    f000011f    ....    AND      r1,r0,#0x1f
        0x00000944:    ea0900d0    ....    AND      r0,r9,r0,LSR #3
        0x00000948:    f1004080    ...@    ADD      r0,r0,#0x40000000
        0x0000094c:    f5003080    ...0    ADD      r0,r0,#0x10000
        0x00000950:    fa08f101    ....    LSL      r1,r8,r1
        0x00000954:    f8c01090    ....    STR      r1,[r0,#0x90]
        0x00000958:    f1ba0f00    ....    CMP      r10,#0
        0x0000095c:    bf02        ..      ITTT     EQ
        0x0000095e:    2000        .       MOVEQ    r0,#0
        0x00000960:    b004        ..      ADDEQ    sp,sp,#0x10
        0x00000962:    e8bd9ff0    ....    POPEQ    {r4-r12,pc}
        0x00000966:    2002        .       MOVS     r0,#2
        0x00000968:    b004        ..      ADD      sp,sp,#0x10
        0x0000096a:    e8bd9ff0    ....    POP      {r4-r12,pc}
    $d
        0x0000096e:    0000        ..      DCW    0
        0x00000970:    10000080    ....    DCD    268435584
    $t
    i.am_hal_interrupt_enable
    am_hal_interrupt_enable
        0x00000974:    280f        .(      CMP      r0,#0xf
        0x00000976:    d90a        ..      BLS      0x98e ; am_hal_interrupt_enable + 26
        0x00000978:    3810        .8      SUBS     r0,r0,#0x10
        0x0000097a:    f000001f    ....    AND      r0,r0,#0x1f
        0x0000097e:    2101        .!      MOVS     r1,#1
        0x00000980:    fa01f000    ....    LSL      r0,r1,r0
        0x00000984:    f04f21e0    O..!    MOV      r1,#0xe000e000
        0x00000988:    f8c10100    ....    STR      r0,[r1,#0x100]
        0x0000098c:    4770        pG      BX       lr
        0x0000098e:    490b        .I      LDR      r1,[pc,#44] ; [0x9bc] = 0xe000ed24
        0x00000990:    2804        .(      CMP      r0,#4
        0x00000992:    d00d        ..      BEQ      0x9b0 ; am_hal_interrupt_enable + 60
        0x00000994:    2805        .(      CMP      r0,#5
        0x00000996:    bf04        ..      ITT      EQ
        0x00000998:    6808        .h      LDREQ    r0,[r1,#0]
        0x0000099a:    f4403000    @..0    ORREQ    r0,r0,#0x20000
        0x0000099e:    d005        ..      BEQ      0x9ac ; am_hal_interrupt_enable + 56
        0x000009a0:    2806        .(      CMP      r0,#6
        0x000009a2:    bf06        ..      ITTE     EQ
        0x000009a4:    6808        .h      LDREQ    r0,[r1,#0]
        0x000009a6:    f4402080    @..     ORREQ    r0,r0,#0x40000
        0x000009aa:    4770        pG      BXNE     lr
        0x000009ac:    6008        .`      STR      r0,[r1,#0]
        0x000009ae:    4770        pG      BX       lr
        0x000009b0:    6808        .h      LDR      r0,[r1,#0]
        0x000009b2:    f4403080    @..0    ORR      r0,r0,#0x10000
        0x000009b6:    6008        .`      STR      r0,[r1,#0]
        0x000009b8:    4770        pG      BX       lr
    $d
        0x000009ba:    0000        ..      DCW    0
        0x000009bc:    e000ed24    $...    DCD    3758157092
    $t
    i.am_hal_iom_config
    am_hal_iom_config
        0x000009c0:    680a        .h      LDR      r2,[r1,#0]
        0x000009c2:    4b14        .K      LDR      r3,[pc,#80] ; [0xa14] = 0x10000014
        0x000009c4:    2800        .(      CMP      r0,#0
        0x000009c6:    4694        .F      MOV      r12,r2
        0x000009c8:    bf0c        ..      ITE      EQ
        0x000009ca:    f8c3c000    ....    STREQ    r12,[r3,#0]
        0x000009ce:    f8c3c004    ....    STRNE    r12,[r3,#4]
        0x000009d2:    7a0b        .z      LDRB     r3,[r1,#8]
        0x000009d4:    2b00        .+      CMP      r3,#0
        0x000009d6:    bf18        ..      IT       NE
        0x000009d8:    f0420204    B...    ORRNE    r2,r2,#4
        0x000009dc:    7a4b        Kz      LDRB     r3,[r1,#9]
        0x000009de:    2b00        .+      CMP      r3,#0
        0x000009e0:    bf18        ..      IT       NE
        0x000009e2:    f0420202    B...    ORRNE    r2,r2,#2
        0x000009e6:    0300        ..      LSLS     r0,r0,#12
        0x000009e8:    f10040a0    ...@    ADD      r0,r0,#0x50000000
        0x000009ec:    f5004080    ...@    ADD      r0,r0,#0x4000
        0x000009f0:    f8c0211c    ...!    STR      r2,[r0,#0x11c]
        0x000009f4:    7a8a        .z      LDRB     r2,[r1,#0xa]
        0x000009f6:    f44f537c    O.|S    MOV      r3,#0x3f00
        0x000009fa:    ea032202    ..."    AND      r2,r3,r2,LSL #8
        0x000009fe:    7acb        .z      LDRB     r3,[r1,#0xb]
        0x00000a00:    f003033f    ..?.    AND      r3,r3,#0x3f
        0x00000a04:    431a        .C      ORRS     r2,r2,r3
        0x00000a06:    f8c02108    ...!    STR      r2,[r0,#0x108]
        0x00000a0a:    6849        Ih      LDR      r1,[r1,#4]
        0x00000a0c:    f8c0110c    ....    STR      r1,[r0,#0x10c]
        0x00000a10:    4770        pG      BX       lr
    $d
        0x00000a12:    0000        ..      DCW    0
        0x00000a14:    10000014    ....    DCD    268435476
    $t
    i.am_hal_iom_disable
    am_hal_iom_disable
        0x00000a18:    0301        ..      LSLS     r1,r0,#12
        0x00000a1a:    f10141a0    ...A    ADD      r1,r1,#0x50000000
        0x00000a1e:    f5014180    ...A    ADD      r1,r1,#0x4000
        0x00000a22:    bf00        ..      NOP      
        0x00000a24:    f8d12118    ...!    LDR      r2,[r1,#0x118]
        0x00000a28:    f0120f04    ....    TST      r2,#4
        0x00000a2c:    d0fa        ..      BEQ      0xa24 ; am_hal_iom_disable + 12
        0x00000a2e:    0301        ..      LSLS     r1,r0,#12
        0x00000a30:    f10141a0    ...A    ADD      r1,r1,#0x50000000
        0x00000a34:    f5014180    ...A    ADD      r1,r1,#0x4000
        0x00000a38:    f8d1211c    ...!    LDR      r2,[r1,#0x11c]
        0x00000a3c:    f0224200    "..B    BIC      r2,r2,#0x80000000
        0x00000a40:    f8c1211c    ...!    STR      r2,[r1,#0x11c]
        0x00000a44:    2200        ."      MOVS     r2,#0
        0x00000a46:    f8dfc050    ..P.    LDR      r12,[pc,#80] ; [0xa98] = 0x10000014
        0x00000a4a:    4914        .I      LDR      r1,[pc,#80] ; [0xa9c] = 0x40010000
        0x00000a4c:    2373        s#      MOVS     r3,#0x73
        0x00000a4e:    b188        ..      CBZ      r0,0xa74 ; am_hal_iom_disable + 92
        0x00000a50:    f8dc0004    ....    LDR      r0,[r12,#4]
        0x00000a54:    2801        .(      CMP      r0,#1
        0x00000a56:    bf18        ..      IT       NE
        0x00000a58:    4770        pG      BXNE     lr
        0x00000a5a:    660b        .f      STR      r3,[r1,#0x60]
        0x00000a5c:    6c48        Hl      LDR      r0,[r1,#0x44]
        0x00000a5e:    f0200070     .p.    BIC      r0,r0,#0x70
        0x00000a62:    6448        Hd      STR      r0,[r1,#0x44]
        0x00000a64:    6888        .h      LDR      r0,[r1,#8]
        0x00000a66:    f420407f     ..@    BIC      r0,r0,#0xff00
        0x00000a6a:    f4406000    @..`    ORR      r0,r0,#0x800
        0x00000a6e:    6088        .`      STR      r0,[r1,#8]
        0x00000a70:    660a        .f      STR      r2,[r1,#0x60]
        0x00000a72:    4770        pG      BX       lr
        0x00000a74:    f8dc0000    ....    LDR      r0,[r12,#0]
        0x00000a78:    2801        .(      CMP      r0,#1
        0x00000a7a:    bf18        ..      IT       NE
        0x00000a7c:    4770        pG      BXNE     lr
        0x00000a7e:    660b        .f      STR      r3,[r1,#0x60]
        0x00000a80:    6c08        .l      LDR      r0,[r1,#0x40]
        0x00000a82:    f02060e0     ..`    BIC      r0,r0,#0x7000000
        0x00000a86:    6408        .d      STR      r0,[r1,#0x40]
        0x00000a88:    6848        Hh      LDR      r0,[r1,#4]
        0x00000a8a:    f420007f     ...    BIC      r0,r0,#0xff0000
        0x00000a8e:    f4402000    @..     ORR      r0,r0,#0x80000
        0x00000a92:    6048        H`      STR      r0,[r1,#4]
        0x00000a94:    e7ec        ..      B        0xa70 ; am_hal_iom_disable + 88
    $d
        0x00000a96:    0000        ..      DCW    0
        0x00000a98:    10000014    ....    DCD    268435476
        0x00000a9c:    40010000    ...@    DCD    1073807360
    $t
    i.am_hal_iom_enable
    am_hal_iom_enable
        0x00000aa0:    0301        ..      LSLS     r1,r0,#12
        0x00000aa2:    f10141a0    ...A    ADD      r1,r1,#0x50000000
        0x00000aa6:    f5014180    ...A    ADD      r1,r1,#0x4000
        0x00000aaa:    f8d1211c    ...!    LDR      r2,[r1,#0x11c]
        0x00000aae:    f0424200    B..B    ORR      r2,r2,#0x80000000
        0x00000ab2:    f8c1211c    ...!    STR      r2,[r1,#0x11c]
        0x00000ab6:    2200        ."      MOVS     r2,#0
        0x00000ab8:    4913        .I      LDR      r1,[pc,#76] ; [0xb08] = 0x40010000
        0x00000aba:    f8dfc050    ..P.    LDR      r12,[pc,#80] ; [0xb0c] = 0x10000014
        0x00000abe:    2373        s#      MOVS     r3,#0x73
        0x00000ac0:    b188        ..      CBZ      r0,0xae6 ; am_hal_iom_enable + 70
        0x00000ac2:    f8dc0004    ....    LDR      r0,[r12,#4]
        0x00000ac6:    2801        .(      CMP      r0,#1
        0x00000ac8:    bf18        ..      IT       NE
        0x00000aca:    4770        pG      BXNE     lr
        0x00000acc:    660b        .f      STR      r3,[r1,#0x60]
        0x00000ace:    6c48        Hl      LDR      r0,[r1,#0x44]
        0x00000ad0:    f0200070     .p.    BIC      r0,r0,#0x70
        0x00000ad4:    6448        Hd      STR      r0,[r1,#0x44]
        0x00000ad6:    6888        .h      LDR      r0,[r1,#8]
        0x00000ad8:    f420407f     ..@    BIC      r0,r0,#0xff00
        0x00000adc:    f4406020    @. `    ORR      r0,r0,#0xa00
        0x00000ae0:    6088        .`      STR      r0,[r1,#8]
        0x00000ae2:    660a        .f      STR      r2,[r1,#0x60]
        0x00000ae4:    4770        pG      BX       lr
        0x00000ae6:    f8dc0000    ....    LDR      r0,[r12,#0]
        0x00000aea:    2801        .(      CMP      r0,#1
        0x00000aec:    bf18        ..      IT       NE
        0x00000aee:    4770        pG      BXNE     lr
        0x00000af0:    660b        .f      STR      r3,[r1,#0x60]
        0x00000af2:    6c08        .l      LDR      r0,[r1,#0x40]
        0x00000af4:    f02060e0     ..`    BIC      r0,r0,#0x7000000
        0x00000af8:    6408        .d      STR      r0,[r1,#0x40]
        0x00000afa:    6848        Hh      LDR      r0,[r1,#4]
        0x00000afc:    f420007f     ...    BIC      r0,r0,#0xff0000
        0x00000b00:    f4402020    @.      ORR      r0,r0,#0xa0000
        0x00000b04:    6048        H`      STR      r0,[r1,#4]
        0x00000b06:    e7ec        ..      B        0xae2 ; am_hal_iom_enable + 66
    $d
        0x00000b08:    40010000    ...@    DCD    1073807360
        0x00000b0c:    10000014    ....    DCD    268435476
    $t
    i.am_hal_iom_fifo_read
    am_hal_iom_fifo_read
        0x00000b10:    b570        p.      PUSH     {r4-r6,lr}
        0x00000b12:    0300        ..      LSLS     r0,r0,#12
        0x00000b14:    f10045a0    ...E    ADD      r5,r0,#0x50000000
        0x00000b18:    f5054580    ...E    ADD      r5,r5,#0x4000
        0x00000b1c:    4614        .F      MOV      r4,r2
        0x00000b1e:    f8d50100    ....    LDR      r0,[r5,#0x100]
        0x00000b22:    460e        .F      MOV      r6,r1
        0x00000b24:    f000007f    ....    AND      r0,r0,#0x7f
        0x00000b28:    42a0        .B      CMP      r0,r4
        0x00000b2a:    d205        ..      BCS      0xb38 ; am_hal_iom_fifo_read + 40
        0x00000b2c:    a21a        ..      ADR      r2,{pc}+0x6c ; 0xb98
        0x00000b2e:    f44f6199    O..a    MOV      r1,#0x4c8
        0x00000b32:    a027        '.      ADR      r0,{pc}+0x9e ; 0xbd0
        0x00000b34:    f7fffd66    ..f.    BL       am_hal_debug_error ; 0x604
        0x00000b38:    2300        .#      MOVS     r3,#0
        0x00000b3a:    1ce2        ..      ADDS     r2,r4,#3
        0x00000b3c:    2a03        .*      CMP      r2,#3
        0x00000b3e:    d921        !.      BLS      0xb84 ; am_hal_iom_fifo_read + 116
        0x00000b40:    f1b44f00    ...O    CMP      r4,#0x80000000
        0x00000b44:    d21e        ..      BCS      0xb84 ; am_hal_iom_fifo_read + 116
        0x00000b46:    17d1        ..      ASRS     r1,r2,#31
        0x00000b48:    eb027191    ...q    ADD      r1,r2,r1,LSR #30
        0x00000b4c:    2a03        .*      CMP      r2,#3
        0x00000b4e:    bfd8        ..      IT       LE
        0x00000b50:    2000        .       MOVLE    r0,#0
        0x00000b52:    dd05        ..      BLE      0xb60 ; am_hal_iom_fifo_read + 80
        0x00000b54:    f3c10080    ....    UBFX     r0,r1,#2,#1
        0x00000b58:    b110        ..      CBZ      r0,0xb60 ; am_hal_iom_fifo_read + 80
        0x00000b5a:    682a        *h      LDR      r2,[r5,#0]
        0x00000b5c:    2301        .#      MOVS     r3,#1
        0x00000b5e:    6032        2`      STR      r2,[r6,#0]
        0x00000b60:    2201        ."      MOVS     r2,#1
        0x00000b62:    eb0202a1    ....    ADD      r2,r2,r1,ASR #2
        0x00000b66:    1c40        @.      ADDS     r0,r0,#1
        0x00000b68:    e008        ..      B        0xb7c ; am_hal_iom_fifo_read + 108
        0x00000b6a:    6829        )h      LDR      r1,[r5,#0]
        0x00000b6c:    f8461023    F.#.    STR      r1,[r6,r3,LSL #2]
        0x00000b70:    1c59        Y.      ADDS     r1,r3,#1
        0x00000b72:    682b        +h      LDR      r3,[r5,#0]
        0x00000b74:    f8463021    F.!0    STR      r3,[r6,r1,LSL #2]
        0x00000b78:    1c4b        K.      ADDS     r3,r1,#1
        0x00000b7a:    1c80        ..      ADDS     r0,r0,#2
        0x00000b7c:    4282        .B      CMP      r2,r0
        0x00000b7e:    dcf4        ..      BGT      0xb6a ; am_hal_iom_fifo_read + 90
        0x00000b80:    4620         F      MOV      r0,r4
        0x00000b82:    bd70        p.      POP      {r4-r6,pc}
        0x00000b84:    2c00        .,      CMP      r4,#0
        0x00000b86:    d9fb        ..      BLS      0xb80 ; am_hal_iom_fifo_read + 112
        0x00000b88:    6828        (h      LDR      r0,[r5,#0]
        0x00000b8a:    f8460023    F.#.    STR      r0,[r6,r3,LSL #2]
        0x00000b8e:    1c5b        [.      ADDS     r3,r3,#1
        0x00000b90:    ebb40f83    ....    CMP      r4,r3,LSL #2
        0x00000b94:    d8f8        ..      BHI      0xb88 ; am_hal_iom_fifo_read + 120
        0x00000b96:    e7f3        ..      B        0xb80 ; am_hal_iom_fifo_read + 112
    $d
        0x00000b98:    20656854    The     DCD    543516756
        0x00000b9c:    6f666966    fifo    DCD    1868982630
        0x00000ba0:    656f6420     doe    DCD    1701798944
        0x00000ba4:    74276e73    sn't    DCD    1948741235
        0x00000ba8:    6e6f6320     con    DCD    1852793632
        0x00000bac:    6e696174    tain    DCD    1852399988
        0x00000bb0:    65687420     the    DCD    1701344288
        0x00000bb4:    71657220     req    DCD    1902473760
        0x00000bb8:    74736575    uest    DCD    1953719669
        0x00000bbc:    6e206465    ed n    DCD    1847616613
        0x00000bc0:    65626d75    umbe    DCD    1700949365
        0x00000bc4:    666f2072    r of    DCD    1718558834
        0x00000bc8:    74796220     byt    DCD    1954112032
        0x00000bcc:    002e7365    es..    DCD    3044197
        0x00000bd0:    612f2e2e    ../a    DCD    1630481966
        0x00000bd4:    61685f6d    m_ha    DCD    1634230125
        0x00000bd8:    6f695f6c    l_io    DCD    1869176684
        0x00000bdc:    00632e6d    m.c.    DCD    6499949
    $t
    i.am_hal_iom_fifo_write
    am_hal_iom_fifo_write
        0x00000be0:    b570        p.      PUSH     {r4-r6,lr}
        0x00000be2:    0300        ..      LSLS     r0,r0,#12
        0x00000be4:    f10045a0    ...E    ADD      r5,r0,#0x50000000
        0x00000be8:    f5054580    ...E    ADD      r5,r5,#0x4000
        0x00000bec:    4614        .F      MOV      r4,r2
        0x00000bee:    f8d50100    ....    LDR      r0,[r5,#0x100]
        0x00000bf2:    460e        .F      MOV      r6,r1
        0x00000bf4:    f3c04006    ...@    UBFX     r0,r0,#16,#7
        0x00000bf8:    42a0        .B      CMP      r0,r4
        0x00000bfa:    d205        ..      BCS      0xc08 ; am_hal_iom_fifo_write + 40
        0x00000bfc:    a21b        ..      ADR      r2,{pc}+0x70 ; 0xc6c
        0x00000bfe:    f240419a    @..A    MOV      r1,#0x49a
        0x00000c02:    a027        '.      ADR      r0,{pc}+0x9e ; 0xca0
        0x00000c04:    f7fffcfe    ....    BL       am_hal_debug_error ; 0x604
        0x00000c08:    2300        .#      MOVS     r3,#0
        0x00000c0a:    1ce0        ..      ADDS     r0,r4,#3
        0x00000c0c:    2803        .(      CMP      r0,#3
        0x00000c0e:    d922        ".      BLS      0xc56 ; am_hal_iom_fifo_write + 118
        0x00000c10:    f1b44f00    ...O    CMP      r4,#0x80000000
        0x00000c14:    d21f        ..      BCS      0xc56 ; am_hal_iom_fifo_write + 118
        0x00000c16:    17c2        ..      ASRS     r2,r0,#31
        0x00000c18:    eb007292    ...r    ADD      r2,r0,r2,LSR #30
        0x00000c1c:    2803        .(      CMP      r0,#3
        0x00000c1e:    bfd8        ..      IT       LE
        0x00000c20:    2000        .       MOVLE    r0,#0
        0x00000c22:    dd05        ..      BLE      0xc30 ; am_hal_iom_fifo_write + 80
        0x00000c24:    f3c20080    ....    UBFX     r0,r2,#2,#1
        0x00000c28:    b110        ..      CBZ      r0,0xc30 ; am_hal_iom_fifo_write + 80
        0x00000c2a:    6831        1h      LDR      r1,[r6,#0]
        0x00000c2c:    6029        )`      STR      r1,[r5,#0]
        0x00000c2e:    2301        .#      MOVS     r3,#1
        0x00000c30:    2101        .!      MOVS     r1,#1
        0x00000c32:    eb0102a2    ....    ADD      r2,r1,r2,ASR #2
        0x00000c36:    1c40        @.      ADDS     r0,r0,#1
        0x00000c38:    e009        ..      B        0xc4e ; am_hal_iom_fifo_write + 110
        0x00000c3a:    bf00        ..      NOP      
        0x00000c3c:    f8561023    V.#.    LDR      r1,[r6,r3,LSL #2]
        0x00000c40:    6029        )`      STR      r1,[r5,#0]
        0x00000c42:    1c59        Y.      ADDS     r1,r3,#1
        0x00000c44:    f8563021    V.!0    LDR      r3,[r6,r1,LSL #2]
        0x00000c48:    602b        +`      STR      r3,[r5,#0]
        0x00000c4a:    1c4b        K.      ADDS     r3,r1,#1
        0x00000c4c:    1c80        ..      ADDS     r0,r0,#2
        0x00000c4e:    4282        .B      CMP      r2,r0
        0x00000c50:    dcf4        ..      BGT      0xc3c ; am_hal_iom_fifo_write + 92
        0x00000c52:    4620         F      MOV      r0,r4
        0x00000c54:    bd70        p.      POP      {r4-r6,pc}
        0x00000c56:    2c00        .,      CMP      r4,#0
        0x00000c58:    d9fb        ..      BLS      0xc52 ; am_hal_iom_fifo_write + 114
        0x00000c5a:    bf00        ..      NOP      
        0x00000c5c:    f8560023    V.#.    LDR      r0,[r6,r3,LSL #2]
        0x00000c60:    6028        (`      STR      r0,[r5,#0]
        0x00000c62:    1c5b        [.      ADDS     r3,r3,#1
        0x00000c64:    ebb40f83    ....    CMP      r4,r3,LSL #2
        0x00000c68:    d8f8        ..      BHI      0xc5c ; am_hal_iom_fifo_write + 124
        0x00000c6a:    e7f2        ..      B        0xc52 ; am_hal_iom_fifo_write + 114
    $d
        0x00000c6c:    20656854    The     DCD    543516756
        0x00000c70:    6f666966    fifo    DCD    1868982630
        0x00000c74:    756f6320     cou    DCD    1970234144
        0x00000c78:    276e646c    ldn'    DCD    661546092
        0x00000c7c:    69662074    t fi    DCD    1768300660
        0x00000c80:    68742074    t th    DCD    1752440948
        0x00000c84:    65722065    e re    DCD    1701978213
        0x00000c88:    73657571    ques    DCD    1936029041
        0x00000c8c:    20646574    ted     DCD    543450484
        0x00000c90:    626d756e    numb    DCD    1651340654
        0x00000c94:    6f207265    er o    DCD    1864397413
        0x00000c98:    79622066    f by    DCD    2036473958
        0x00000c9c:    00736574    tes.    DCD    7562612
        0x00000ca0:    612f2e2e    ../a    DCD    1630481966
        0x00000ca4:    61685f6d    m_ha    DCD    1634230125
        0x00000ca8:    6f695f6c    l_io    DCD    1869176684
        0x00000cac:    00632e6d    m.c.    DCD    6499949
    $t
    i.am_hal_iom_i2c_read
    am_hal_iom_i2c_read
        0x00000cb0:    e92d43f8    -..C    PUSH     {r3-r9,lr}
        0x00000cb4:    461c        .F      MOV      r4,r3
        0x00000cb6:    9d08        ..      LDR      r5,[sp,#0x20]
        0x00000cb8:    4616        .F      MOV      r6,r2
        0x00000cba:    4688        .F      MOV      r8,r1
        0x00000cbc:    4607        .F      MOV      r7,r0
        0x00000cbe:    2802        .(      CMP      r0,#2
        0x00000cc0:    d038        8.      BEQ      0xd34 ; am_hal_iom_i2c_read + 132
        0x00000cc2:    f5b47f80    ....    CMP      r4,#0x100
        0x00000cc6:    d305        ..      BCC      0xcd4 ; am_hal_iom_i2c_read + 36
        0x00000cc8:    a232        2.      ADR      r2,{pc}+0xcc ; 0xd94
        0x00000cca:    f44f7146    O.Fq    MOV      r1,#0x318
        0x00000cce:    a037        7.      ADR      r0,{pc}+0xde ; 0xdac
        0x00000cd0:    f7fffc98    ....    BL       am_hal_debug_error ; 0x604
        0x00000cd4:    0338        8.      LSLS     r0,r7,#12
        0x00000cd6:    f10041a0    ...A    ADD      r1,r0,#0x50000000
        0x00000cda:    f5014180    ...A    ADD      r1,r1,#0x4000
        0x00000cde:    bf00        ..      NOP      
        0x00000ce0:    f8d10118    ....    LDR      r0,[r1,#0x118]
        0x00000ce4:    f0100f04    ....    TST      r0,#4
        0x00000ce8:    d0fa        ..      BEQ      0xce0 ; am_hal_iom_i2c_read + 48
        0x00000cea:    b2e0        ..      UXTB     r0,r4
        0x00000cec:    f06f417c    o.|A    MVN      r1,#0xfc000000
        0x00000cf0:    f0404000    @..@    ORR      r0,r0,#0x80000000
        0x00000cf4:    ea014108    ...A    AND      r1,r1,r8,LSL #16
        0x00000cf8:    4308        .C      ORRS     r0,r0,r1
        0x00000cfa:    4930        0I      LDR      r1,[pc,#192] ; [0xdbc] = 0x5c00ff00
        0x00000cfc:    4029        )@      ANDS     r1,r1,r5
        0x00000cfe:    4308        .C      ORRS     r0,r0,r1
        0x00000d00:    0339        9.      LSLS     r1,r7,#12
        0x00000d02:    f10145a0    ...E    ADD      r5,r1,#0x50000000
        0x00000d06:    f5054580    ...E    ADD      r5,r5,#0x4000
        0x00000d0a:    f8c50110    ....    STR      r0,[r5,#0x110]
        0x00000d0e:    f8d50118    ....    LDR      r0,[r5,#0x118]
        0x00000d12:    f0100f04    ....    TST      r0,#4
        0x00000d16:    bf18        ..      IT       NE
        0x00000d18:    e8bd83f8    ....    POPNE    {r3-r9,pc}
        0x00000d1c:    f8d51100    ....    LDR      r1,[r5,#0x100]
        0x00000d20:    f001017f    ....    AND      r1,r1,#0x7f
        0x00000d24:    42a1        .B      CMP      r1,r4
        0x00000d26:    d120         .      BNE      0xd6a ; am_hal_iom_i2c_read + 186
        0x00000d28:    4622        "F      MOV      r2,r4
        0x00000d2a:    4631        1F      MOV      r1,r6
        0x00000d2c:    4638        8F      MOV      r0,r7
        0x00000d2e:    f7fffeef    ....    BL       am_hal_iom_fifo_read ; 0xb10
        0x00000d32:    e027        '.      B        0xd84 ; am_hal_iom_i2c_read + 212
        0x00000d34:    f04f0101    O...    MOV      r1,#1
        0x00000d38:    f0154f80    ...O    TST      r5,#0x40000000
        0x00000d3c:    ea410048    A.H.    ORR      r0,r1,r8,LSL #1
        0x00000d40:    d009        ..      BEQ      0xd56 ; am_hal_iom_i2c_read + 166
        0x00000d42:    2100        .!      MOVS     r1,#0
        0x00000d44:    460b        .F      MOV      r3,r1
        0x00000d46:    9100        ..      STR      r1,[sp,#0]
        0x00000d48:    b2c0        ..      UXTB     r0,r0
        0x00000d4a:    4632        2F      MOV      r2,r6
        0x00000d4c:    4621        !F      MOV      r1,r4
        0x00000d4e:    f7fffc8d    ....    BL       am_hal_i2c_bit_bang_receive ; 0x66c
        0x00000d52:    e8bd83f8    ....    POP      {r3-r9,pc}
        0x00000d56:    9100        ..      STR      r1,[sp,#0]
        0x00000d58:    b2c0        ..      UXTB     r0,r0
        0x00000d5a:    f3c52307    ...#    UBFX     r3,r5,#8,#8
        0x00000d5e:    4632        2F      MOV      r2,r6
        0x00000d60:    4621        !F      MOV      r1,r4
        0x00000d62:    f7fffc83    ....    BL       am_hal_i2c_bit_bang_receive ; 0x66c
        0x00000d66:    e8bd83f8    ....    POP      {r3-r9,pc}
        0x00000d6a:    f8d50100    ....    LDR      r0,[r5,#0x100]
        0x00000d6e:    f000007f    ....    AND      r0,r0,#0x7f
        0x00000d72:    2804        .(      CMP      r0,#4
        0x00000d74:    d306        ..      BCC      0xd84 ; am_hal_iom_i2c_read + 212
        0x00000d76:    2204        ."      MOVS     r2,#4
        0x00000d78:    4631        1F      MOV      r1,r6
        0x00000d7a:    4638        8F      MOV      r0,r7
        0x00000d7c:    f7fffec8    ....    BL       am_hal_iom_fifo_read ; 0xb10
        0x00000d80:    1f24        $.      SUBS     r4,r4,#4
        0x00000d82:    1d36        6.      ADDS     r6,r6,#4
        0x00000d84:    f8d50118    ....    LDR      r0,[r5,#0x118]
        0x00000d88:    f0100f04    ....    TST      r0,#4
        0x00000d8c:    d0c6        ..      BEQ      0xd1c ; am_hal_iom_i2c_read + 108
        0x00000d8e:    e8bd83f8    ....    POP      {r3-r9,pc}
    $d
        0x00000d92:    0000        ..      DCW    0
        0x00000d94:    20433249    I2C     DCD    541274697
        0x00000d98:    6e617274    tran    DCD    1851880052
        0x00000d9c:    72656673    sfer    DCD    1919247987
        0x00000da0:    6f6f7420     too    DCD    1869575200
        0x00000da4:    67696220     big    DCD    1734959648
        0x00000da8:    0000002e    ....    DCD    46
        0x00000dac:    612f2e2e    ../a    DCD    1630481966
        0x00000db0:    61685f6d    m_ha    DCD    1634230125
        0x00000db4:    6f695f6c    l_io    DCD    1869176684
        0x00000db8:    00632e6d    m.c.    DCD    6499949
        0x00000dbc:    5c00ff00    ...\    DCD    1543569152
    $t
    i.am_hal_iom_i2c_read_nb
    am_hal_iom_i2c_read_nb
        0x00000dc0:    e92d43f8    -..C    PUSH     {r3-r9,lr}
        0x00000dc4:    461d        .F      MOV      r5,r3
        0x00000dc6:    e9dd6708    ...g    LDRD     r6,r7,[sp,#0x20]
        0x00000dca:    4691        .F      MOV      r9,r2
        0x00000dcc:    4688        .F      MOV      r8,r1
        0x00000dce:    4604        .F      MOV      r4,r0
        0x00000dd0:    2802        .(      CMP      r0,#2
        0x00000dd2:    d02e        ..      BEQ      0xe32 ; am_hal_iom_i2c_read_nb + 114
        0x00000dd4:    f5b57f80    ....    CMP      r5,#0x100
        0x00000dd8:    d305        ..      BCC      0xde6 ; am_hal_iom_i2c_read_nb + 38
        0x00000dda:    a224        $.      ADR      r2,{pc}+0x92 ; 0xe6c
        0x00000ddc:    f24031f5    @..1    MOV      r1,#0x3f5
        0x00000de0:    a028        (.      ADR      r0,{pc}+0xa4 ; 0xe84
        0x00000de2:    f7fffc0f    ....    BL       am_hal_debug_error ; 0x604
        0x00000de6:    0320         .      LSLS     r0,r4,#12
        0x00000de8:    f10040a0    ...@    ADD      r0,r0,#0x50000000
        0x00000dec:    f5004080    ...@    ADD      r0,r0,#0x4000
        0x00000df0:    f8d01118    ....    LDR      r1,[r0,#0x118]
        0x00000df4:    f0110f04    ....    TST      r1,#4
        0x00000df8:    d0fa        ..      BEQ      0xdf0 ; am_hal_iom_i2c_read_nb + 48
        0x00000dfa:    4826        &H      LDR      r0,[pc,#152] ; [0xe94] = 0x10000060
        0x00000dfc:    2102        .!      MOVS     r1,#2
        0x00000dfe:    eb001004    ....    ADD      r0,r0,r4,LSL #4
        0x00000e02:    e9c01900    ....    STRD     r1,r9,[r0,#0]
        0x00000e06:    e9c05702    ...W    STRD     r5,r7,[r0,#8]
        0x00000e0a:    b2e8        ..      UXTB     r0,r5
        0x00000e0c:    f06f417c    o.|A    MVN      r1,#0xfc000000
        0x00000e10:    f0404000    @..@    ORR      r0,r0,#0x80000000
        0x00000e14:    ea014108    ...A    AND      r1,r1,r8,LSL #16
        0x00000e18:    4308        .C      ORRS     r0,r0,r1
        0x00000e1a:    491f        .I      LDR      r1,[pc,#124] ; [0xe98] = 0x5c00ff00
        0x00000e1c:    4031        1@      ANDS     r1,r1,r6
        0x00000e1e:    4308        .C      ORRS     r0,r0,r1
        0x00000e20:    0321        !.      LSLS     r1,r4,#12
        0x00000e22:    f10141a0    ...A    ADD      r1,r1,#0x50000000
        0x00000e26:    f5014180    ...A    ADD      r1,r1,#0x4000
        0x00000e2a:    f8c10110    ....    STR      r0,[r1,#0x110]
        0x00000e2e:    e8bd83f8    ....    POP      {r3-r9,pc}
        0x00000e32:    f04f0101    O...    MOV      r1,#1
        0x00000e36:    f0164f80    ...O    TST      r6,#0x40000000
        0x00000e3a:    ea410048    A.H.    ORR      r0,r1,r8,LSL #1
        0x00000e3e:    d008        ..      BEQ      0xe52 ; am_hal_iom_i2c_read_nb + 146
        0x00000e40:    2100        .!      MOVS     r1,#0
        0x00000e42:    460b        .F      MOV      r3,r1
        0x00000e44:    9100        ..      STR      r1,[sp,#0]
        0x00000e46:    b2c0        ..      UXTB     r0,r0
        0x00000e48:    464a        JF      MOV      r2,r9
        0x00000e4a:    4629        )F      MOV      r1,r5
        0x00000e4c:    f7fffc0e    ....    BL       am_hal_i2c_bit_bang_receive ; 0x66c
        0x00000e50:    e007        ..      B        0xe62 ; am_hal_iom_i2c_read_nb + 162
        0x00000e52:    9100        ..      STR      r1,[sp,#0]
        0x00000e54:    b2c0        ..      UXTB     r0,r0
        0x00000e56:    f3c62307    ...#    UBFX     r3,r6,#8,#8
        0x00000e5a:    464a        JF      MOV      r2,r9
        0x00000e5c:    4629        )F      MOV      r1,r5
        0x00000e5e:    f7fffc05    ....    BL       am_hal_i2c_bit_bang_receive ; 0x66c
        0x00000e62:    b001        ..      ADD      sp,sp,#4
        0x00000e64:    46bc        .F      MOV      r12,r7
        0x00000e66:    e8bd43f0    ...C    POP      {r4-r9,lr}
        0x00000e6a:    4760        `G      BX       r12
    $d
        0x00000e6c:    20433249    I2C     DCD    541274697
        0x00000e70:    6e617274    tran    DCD    1851880052
        0x00000e74:    72656673    sfer    DCD    1919247987
        0x00000e78:    6f6f7420     too    DCD    1869575200
        0x00000e7c:    67696220     big    DCD    1734959648
        0x00000e80:    0000002e    ....    DCD    46
        0x00000e84:    612f2e2e    ../a    DCD    1630481966
        0x00000e88:    61685f6d    m_ha    DCD    1634230125
        0x00000e8c:    6f695f6c    l_io    DCD    1869176684
        0x00000e90:    00632e6d    m.c.    DCD    6499949
        0x00000e94:    10000060    `...    DCD    268435552
        0x00000e98:    5c00ff00    ...\    DCD    1543569152
    $t
    i.am_hal_iom_i2c_write
    am_hal_iom_i2c_write
        0x00000e9c:    e92d43f8    -..C    PUSH     {r3-r9,lr}
        0x00000ea0:    461c        .F      MOV      r4,r3
        0x00000ea2:    f8dd8020    .. .    LDR      r8,[sp,#0x20]
        0x00000ea6:    4617        .F      MOV      r7,r2
        0x00000ea8:    4689        .F      MOV      r9,r1
        0x00000eaa:    4606        .F      MOV      r6,r0
        0x00000eac:    2802        .(      CMP      r0,#2
        0x00000eae:    d04d        M.      BEQ      0xf4c ; am_hal_iom_i2c_write + 176
        0x00000eb0:    f5b47f80    ....    CMP      r4,#0x100
        0x00000eb4:    d305        ..      BCC      0xec2 ; am_hal_iom_i2c_write + 38
        0x00000eb6:    a231        1.      ADR      r2,{pc}+0xc6 ; 0xf7c
        0x00000eb8:    f44f7126    O.&q    MOV      r1,#0x298
        0x00000ebc:    a035        5.      ADR      r0,{pc}+0xd8 ; 0xf94
        0x00000ebe:    f7fffba1    ....    BL       am_hal_debug_error ; 0x604
        0x00000ec2:    2c40        @,      CMP      r4,#0x40
        0x00000ec4:    bf94        ..      ITE      LS
        0x00000ec6:    4625        %F      MOVLS    r5,r4
        0x00000ec8:    2540        @%      MOVHI    r5,#0x40
        0x00000eca:    0330        0.      LSLS     r0,r6,#12
        0x00000ecc:    f10040a0    ...@    ADD      r0,r0,#0x50000000
        0x00000ed0:    f5004080    ...@    ADD      r0,r0,#0x4000
        0x00000ed4:    f8d01118    ....    LDR      r1,[r0,#0x118]
        0x00000ed8:    f0110f04    ....    TST      r1,#4
        0x00000edc:    d0fa        ..      BEQ      0xed4 ; am_hal_iom_i2c_write + 56
        0x00000ede:    462a        *F      MOV      r2,r5
        0x00000ee0:    4639        9F      MOV      r1,r7
        0x00000ee2:    4630        0F      MOV      r0,r6
        0x00000ee4:    f7fffe7c    ..|.    BL       am_hal_iom_fifo_write ; 0xbe0
        0x00000ee8:    f06f417c    o.|A    MVN      r1,#0xfc000000
        0x00000eec:    b2e0        ..      UXTB     r0,r4
        0x00000eee:    ea014109    ...A    AND      r1,r1,r9,LSL #16
        0x00000ef2:    4308        .C      ORRS     r0,r0,r1
        0x00000ef4:    492b        +I      LDR      r1,[pc,#172] ; [0xfa4] = 0x5c00ff00
        0x00000ef6:    ea080101    ....    AND      r1,r8,r1
        0x00000efa:    4308        .C      ORRS     r0,r0,r1
        0x00000efc:    0331        1.      LSLS     r1,r6,#12
        0x00000efe:    f10148a0    ...H    ADD      r8,r1,#0x50000000
        0x00000f02:    f5084880    ...H    ADD      r8,r8,#0x4000
        0x00000f06:    f8c80110    ....    STR      r0,[r8,#0x110]
        0x00000f0a:    f0250003    %...    BIC      r0,r5,#3
        0x00000f0e:    1b64        d.      SUBS     r4,r4,r5
        0x00000f10:    4407        .D      ADD      r7,r7,r0
        0x00000f12:    bf08        ..      IT       EQ
        0x00000f14:    e8bd83f8    ....    POPEQ    {r3-r9,pc}
        0x00000f18:    f8d80100    ....    LDR      r0,[r8,#0x100]
        0x00000f1c:    f3c04006    ...@    UBFX     r0,r0,#16,#7
        0x00000f20:    42a0        .B      CMP      r0,r4
        0x00000f22:    bf28        (.      IT       CS
        0x00000f24:    4625        %F      MOVCS    r5,r4
        0x00000f26:    d205        ..      BCS      0xf34 ; am_hal_iom_i2c_write + 152
        0x00000f28:    f8d80100    ....    LDR      r0,[r8,#0x100]
        0x00000f2c:    f3c04006    ...@    UBFX     r0,r0,#16,#7
        0x00000f30:    f0200503     ...    BIC      r5,r0,#3
        0x00000f34:    462a        *F      MOV      r2,r5
        0x00000f36:    4639        9F      MOV      r1,r7
        0x00000f38:    4630        0F      MOV      r0,r6
        0x00000f3a:    f7fffe51    ..Q.    BL       am_hal_iom_fifo_write ; 0xbe0
        0x00000f3e:    f0250003    %...    BIC      r0,r5,#3
        0x00000f42:    1b64        d.      SUBS     r4,r4,r5
        0x00000f44:    4407        .D      ADD      r7,r7,r0
        0x00000f46:    d1e7        ..      BNE      0xf18 ; am_hal_iom_i2c_write + 124
        0x00000f48:    e8bd83f8    ....    POP      {r3-r9,pc}
        0x00000f4c:    f0184f80    ...O    TST      r8,#0x40000000
        0x00000f50:    ea4f0049    O.I.    LSL      r0,r9,#1
        0x00000f54:    d008        ..      BEQ      0xf68 ; am_hal_iom_i2c_write + 204
        0x00000f56:    2100        .!      MOVS     r1,#0
        0x00000f58:    460b        .F      MOV      r3,r1
        0x00000f5a:    9100        ..      STR      r1,[sp,#0]
        0x00000f5c:    b2c0        ..      UXTB     r0,r0
        0x00000f5e:    4621        !F      MOV      r1,r4
        0x00000f60:    f7fffc78    ..x.    BL       am_hal_i2c_bit_bang_send ; 0x854
        0x00000f64:    e8bd83f8    ....    POP      {r3-r9,pc}
        0x00000f68:    2101        .!      MOVS     r1,#1
        0x00000f6a:    9100        ..      STR      r1,[sp,#0]
        0x00000f6c:    b2c0        ..      UXTB     r0,r0
        0x00000f6e:    f3c82307    ...#    UBFX     r3,r8,#8,#8
        0x00000f72:    4621        !F      MOV      r1,r4
        0x00000f74:    f7fffc6e    ..n.    BL       am_hal_i2c_bit_bang_send ; 0x854
        0x00000f78:    e8bd83f8    ....    POP      {r3-r9,pc}
    $d
        0x00000f7c:    20433249    I2C     DCD    541274697
        0x00000f80:    6e617274    tran    DCD    1851880052
        0x00000f84:    72656673    sfer    DCD    1919247987
        0x00000f88:    6f6f7420     too    DCD    1869575200
        0x00000f8c:    67696220     big    DCD    1734959648
        0x00000f90:    0000002e    ....    DCD    46
        0x00000f94:    612f2e2e    ../a    DCD    1630481966
        0x00000f98:    61685f6d    m_ha    DCD    1634230125
        0x00000f9c:    6f695f6c    l_io    DCD    1869176684
        0x00000fa0:    00632e6d    m.c.    DCD    6499949
        0x00000fa4:    5c00ff00    ...\    DCD    1543569152
    $t
    i.am_hal_iom_int_clear
    am_hal_iom_int_clear
        0x00000fa8:    0300        ..      LSLS     r0,r0,#12
        0x00000faa:    f10040a0    ...@    ADD      r0,r0,#0x50000000
        0x00000fae:    f5004080    ...@    ADD      r0,r0,#0x4000
        0x00000fb2:    f8c01208    ....    STR      r1,[r0,#0x208]
        0x00000fb6:    4770        pG      BX       lr
    i.am_hal_iom_int_enable
    am_hal_iom_int_enable
        0x00000fb8:    0300        ..      LSLS     r0,r0,#12
        0x00000fba:    f10040a0    ...@    ADD      r0,r0,#0x50000000
        0x00000fbe:    f5004080    ...@    ADD      r0,r0,#0x4000
        0x00000fc2:    f8d02200    ..."    LDR      r2,[r0,#0x200]
        0x00000fc6:    4311        .C      ORRS     r1,r1,r2
        0x00000fc8:    f8c01200    ....    STR      r1,[r0,#0x200]
        0x00000fcc:    4770        pG      BX       lr
        0x00000fce:    0000        ..      MOVS     r0,r0
    i.am_hal_iom_int_service
    am_hal_iom_int_service
        0x00000fd0:    b570        p.      PUSH     {r4-r6,lr}
        0x00000fd2:    4a32        2J      LDR      r2,[pc,#200] ; [0x109c] = 0x10000060
        0x00000fd4:    eb021400    ....    ADD      r4,r2,r0,LSL #4
        0x00000fd8:    6822        "h      LDR      r2,[r4,#0]
        0x00000fda:    2a00        .*      CMP      r2,#0
        0x00000fdc:    bf08        ..      IT       EQ
        0x00000fde:    bd70        p.      POPEQ    {r4-r6,pc}
        0x00000fe0:    f0110f01    ....    TST      r1,#1
        0x00000fe4:    ea4f3300    O..3    LSL      r3,r0,#12
        0x00000fe8:    f10343a0    ...C    ADD      r3,r3,#0x50000000
        0x00000fec:    f5034380    ...C    ADD      r3,r3,#0x4000
        0x00000ff0:    d011        ..      BEQ      0x1016 ; am_hal_iom_int_service + 70
        0x00000ff2:    2a02        .*      CMP      r2,#2
        0x00000ff4:    d106        ..      BNE      0x1004 ; am_hal_iom_int_service + 52
        0x00000ff6:    f8d31100    ....    LDR      r1,[r3,#0x100]
        0x00000ffa:    f001027f    ....    AND      r2,r1,#0x7f
        0x00000ffe:    6861        ah      LDR      r1,[r4,#4]
        0x00001000:    f7fffd86    ....    BL       am_hal_iom_fifo_read ; 0xb10
        0x00001004:    2000        .       MOVS     r0,#0
        0x00001006:    6020         `      STR      r0,[r4,#0]
        0x00001008:    68e0        .h      LDR      r0,[r4,#0xc]
        0x0000100a:    2800        .(      CMP      r0,#0
        0x0000100c:    bf08        ..      IT       EQ
        0x0000100e:    bd70        p.      POPEQ    {r4-r6,pc}
        0x00001010:    e8bd4070    ..p@    POP      {r4-r6,lr}
        0x00001014:    4700        .G      BX       r0
        0x00001016:    f0110f02    ....    TST      r1,#2
        0x0000101a:    bf08        ..      IT       EQ
        0x0000101c:    bd70        p.      POPEQ    {r4-r6,pc}
        0x0000101e:    2a01        .*      CMP      r2,#1
        0x00001020:    f8d31100    ....    LDR      r1,[r3,#0x100]
        0x00001024:    d009        ..      BEQ      0x103a ; am_hal_iom_int_service + 106
        0x00001026:    68a2        .h      LDR      r2,[r4,#8]
        0x00001028:    f001017f    ....    AND      r1,r1,#0x7f
        0x0000102c:    4291        .B      CMP      r1,r2
        0x0000102e:    d11c        ..      BNE      0x106a ; am_hal_iom_int_service + 154
        0x00001030:    6861        ah      LDR      r1,[r4,#4]
        0x00001032:    e8bd4070    ..p@    POP      {r4-r6,lr}
        0x00001036:    f7ffbd6b    ..k.    B.W      am_hal_iom_fifo_read ; 0xb10
        0x0000103a:    68a5        .h      LDR      r5,[r4,#8]
        0x0000103c:    f3c14106    ...A    UBFX     r1,r1,#16,#7
        0x00001040:    42a9        .B      CMP      r1,r5
        0x00001042:    d205        ..      BCS      0x1050 ; am_hal_iom_int_service + 128
        0x00001044:    f8d31100    ....    LDR      r1,[r3,#0x100]
        0x00001048:    f3c14106    ...A    UBFX     r1,r1,#16,#7
        0x0000104c:    f0210503    !...    BIC      r5,r1,#3
        0x00001050:    462a        *F      MOV      r2,r5
        0x00001052:    6861        ah      LDR      r1,[r4,#4]
        0x00001054:    f7fffdc4    ....    BL       am_hal_iom_fifo_write ; 0xbe0
        0x00001058:    68a0        .h      LDR      r0,[r4,#8]
        0x0000105a:    f0250103    %...    BIC      r1,r5,#3
        0x0000105e:    1b40        @.      SUBS     r0,r0,r5
        0x00001060:    60a0        .`      STR      r0,[r4,#8]
        0x00001062:    6860        `h      LDR      r0,[r4,#4]
        0x00001064:    4408        .D      ADD      r0,r0,r1
        0x00001066:    6060        ``      STR      r0,[r4,#4]
        0x00001068:    bd70        p.      POP      {r4-r6,pc}
        0x0000106a:    f8d31100    ....    LDR      r1,[r3,#0x100]
        0x0000106e:    f001017f    ....    AND      r1,r1,#0x7f
        0x00001072:    2904        .)      CMP      r1,#4
        0x00001074:    bf38        8.      IT       CC
        0x00001076:    bd70        p.      POPCC    {r4-r6,pc}
        0x00001078:    f8d31100    ....    LDR      r1,[r3,#0x100]
        0x0000107c:    f001057c    ..|.    AND      r5,r1,#0x7c
        0x00001080:    462a        *F      MOV      r2,r5
        0x00001082:    6861        ah      LDR      r1,[r4,#4]
        0x00001084:    f7fffd44    ..D.    BL       am_hal_iom_fifo_read ; 0xb10
        0x00001088:    68a0        .h      LDR      r0,[r4,#8]
        0x0000108a:    f0250103    %...    BIC      r1,r5,#3
        0x0000108e:    1b40        @.      SUBS     r0,r0,r5
        0x00001090:    60a0        .`      STR      r0,[r4,#8]
        0x00001092:    6860        `h      LDR      r0,[r4,#4]
        0x00001094:    4408        .D      ADD      r0,r0,r1
        0x00001096:    6060        ``      STR      r0,[r4,#4]
        0x00001098:    bd70        p.      POP      {r4-r6,pc}
    $d
        0x0000109a:    0000        ..      DCW    0
        0x0000109c:    10000060    `...    DCD    268435552
    $t
    i.am_hal_iom_int_status_get
    am_hal_iom_int_status_get
        0x000010a0:    0300        ..      LSLS     r0,r0,#12
        0x000010a2:    f10040a0    ...@    ADD      r0,r0,#0x50000000
        0x000010a6:    f5004080    ...@    ADD      r0,r0,#0x4000
        0x000010aa:    2900        .)      CMP      r1,#0
        0x000010ac:    bf04        ..      ITT      EQ
        0x000010ae:    f8d00204    ....    LDREQ    r0,[r0,#0x204]
        0x000010b2:    4770        pG      BXEQ     lr
        0x000010b4:    f8d01204    ....    LDR      r1,[r0,#0x204]
        0x000010b8:    f8d00200    ....    LDR      r0,[r0,#0x200]
        0x000010bc:    4008        .@      ANDS     r0,r0,r1
        0x000010be:    4770        pG      BX       lr
    i.am_hal_iom_poll_complete
    am_hal_iom_poll_complete
        0x000010c0:    0300        ..      LSLS     r0,r0,#12
        0x000010c2:    f10040a0    ...@    ADD      r0,r0,#0x50000000
        0x000010c6:    f5004080    ...@    ADD      r0,r0,#0x4000
        0x000010ca:    bf00        ..      NOP      
        0x000010cc:    f8d01118    ....    LDR      r1,[r0,#0x118]
        0x000010d0:    f0110f04    ....    TST      r1,#4
        0x000010d4:    d0fa        ..      BEQ      0x10cc ; am_hal_iom_poll_complete + 12
        0x000010d6:    4770        pG      BX       lr
    i.am_hal_iom_spi_read
    am_hal_iom_spi_read
        0x000010d8:    e92d41f0    -..A    PUSH     {r4-r8,lr}
        0x000010dc:    461c        .F      MOV      r4,r3
        0x000010de:    f8dd8018    ....    LDR      r8,[sp,#0x18]
        0x000010e2:    4616        .F      MOV      r6,r2
        0x000010e4:    460d        .F      MOV      r5,r1
        0x000010e6:    4607        .F      MOV      r7,r0
        0x000010e8:    f5b35f80    ..._    CMP      r3,#0x1000
        0x000010ec:    d305        ..      BCC      0x10fa ; am_hal_iom_spi_read + 34
        0x000010ee:    a227        '.      ADR      r2,{pc}+0x9e ; 0x118c
        0x000010f0:    f240117b    @.{.    MOV      r1,#0x17b
        0x000010f4:    a02b        +.      ADR      r0,{pc}+0xb0 ; 0x11a4
        0x000010f6:    f7fffa85    ....    BL       am_hal_debug_error ; 0x604
        0x000010fa:    0338        8.      LSLS     r0,r7,#12
        0x000010fc:    f10041a0    ...A    ADD      r1,r0,#0x50000000
        0x00001100:    f5014180    ...A    ADD      r1,r1,#0x4000
        0x00001104:    f8d10118    ....    LDR      r0,[r1,#0x118]
        0x00001108:    f0100f04    ....    TST      r0,#4
        0x0000110c:    d0fa        ..      BEQ      0x1104 ; am_hal_iom_spi_read + 44
        0x0000110e:    f04f4000    O..@    MOV      r0,#0x80000000
        0x00001112:    f4046170    ..pa    AND      r1,r4,#0xf00
        0x00001116:    ea4030c1    @..0    ORR      r0,r0,r1,LSL #15
        0x0000111a:    b2e1        ..      UXTB     r1,r4
        0x0000111c:    4308        .C      ORRS     r0,r0,r1
        0x0000111e:    f44f21e0    O..!    MOV      r1,#0x70000
        0x00001122:    ea014105    ...A    AND      r1,r1,r5,LSL #16
        0x00001126:    4308        .C      ORRS     r0,r0,r1
        0x00001128:    4922        "I      LDR      r1,[pc,#136] ; [0x11b4] = 0x5c00ff00
        0x0000112a:    ea080101    ....    AND      r1,r8,r1
        0x0000112e:    4308        .C      ORRS     r0,r0,r1
        0x00001130:    0339        9.      LSLS     r1,r7,#12
        0x00001132:    f10145a0    ...E    ADD      r5,r1,#0x50000000
        0x00001136:    f5054580    ...E    ADD      r5,r5,#0x4000
        0x0000113a:    f8c50110    ....    STR      r0,[r5,#0x110]
        0x0000113e:    f8d50118    ....    LDR      r0,[r5,#0x118]
        0x00001142:    f0100f04    ....    TST      r0,#4
        0x00001146:    bf18        ..      IT       NE
        0x00001148:    e8bd81f0    ....    POPNE    {r4-r8,pc}
        0x0000114c:    f8d50100    ....    LDR      r0,[r5,#0x100]
        0x00001150:    f000017f    ....    AND      r1,r0,#0x7f
        0x00001154:    42a1        .B      CMP      r1,r4
        0x00001156:    d105        ..      BNE      0x1164 ; am_hal_iom_spi_read + 140
        0x00001158:    4622        "F      MOV      r2,r4
        0x0000115a:    4631        1F      MOV      r1,r6
        0x0000115c:    4638        8F      MOV      r0,r7
        0x0000115e:    f7fffcd7    ....    BL       am_hal_iom_fifo_read ; 0xb10
        0x00001162:    e00c        ..      B        0x117e ; am_hal_iom_spi_read + 166
        0x00001164:    f8d50100    ....    LDR      r0,[r5,#0x100]
        0x00001168:    f000007f    ....    AND      r0,r0,#0x7f
        0x0000116c:    2804        .(      CMP      r0,#4
        0x0000116e:    d306        ..      BCC      0x117e ; am_hal_iom_spi_read + 166
        0x00001170:    2204        ."      MOVS     r2,#4
        0x00001172:    4631        1F      MOV      r1,r6
        0x00001174:    4638        8F      MOV      r0,r7
        0x00001176:    f7fffccb    ....    BL       am_hal_iom_fifo_read ; 0xb10
        0x0000117a:    1f24        $.      SUBS     r4,r4,#4
        0x0000117c:    1d36        6.      ADDS     r6,r6,#4
        0x0000117e:    f8d50118    ....    LDR      r0,[r5,#0x118]
        0x00001182:    f0100f04    ....    TST      r0,#4
        0x00001186:    d0e1        ..      BEQ      0x114c ; am_hal_iom_spi_read + 116
        0x00001188:    e8bd81f0    ....    POP      {r4-r8,pc}
    $d
        0x0000118c:    20495053    SPI     DCD    541675603
        0x00001190:    6e617274    tran    DCD    1851880052
        0x00001194:    72656673    sfer    DCD    1919247987
        0x00001198:    6f6f7420     too    DCD    1869575200
        0x0000119c:    67696220     big    DCD    1734959648
        0x000011a0:    0000002e    ....    DCD    46
        0x000011a4:    612f2e2e    ../a    DCD    1630481966
        0x000011a8:    61685f6d    m_ha    DCD    1634230125
        0x000011ac:    6f695f6c    l_io    DCD    1869176684
        0x000011b0:    00632e6d    m.c.    DCD    6499949
        0x000011b4:    5c00ff00    ...\    DCD    1543569152
    $t
    i.am_hal_iom_spi_read_nb
    am_hal_iom_spi_read_nb
        0x000011b8:    e92d47f0    -..G    PUSH     {r4-r10,lr}
        0x000011bc:    461d        .F      MOV      r5,r3
        0x000011be:    e9dd7908    ...y    LDRD     r7,r9,[sp,#0x20]
        0x000011c2:    4690        .F      MOV      r8,r2
        0x000011c4:    460e        .F      MOV      r6,r1
        0x000011c6:    4604        .F      MOV      r4,r0
        0x000011c8:    f5b35f80    ..._    CMP      r3,#0x1000
        0x000011cc:    d305        ..      BCC      0x11da ; am_hal_iom_spi_read_nb + 34
        0x000011ce:    a218        ..      ADR      r2,{pc}+0x62 ; 0x1230
        0x000011d0:    f44f7106    O..q    MOV      r1,#0x218
        0x000011d4:    a01c        ..      ADR      r0,{pc}+0x74 ; 0x1248
        0x000011d6:    f7fffa15    ....    BL       am_hal_debug_error ; 0x604
        0x000011da:    0320         .      LSLS     r0,r4,#12
        0x000011dc:    f10040a0    ...@    ADD      r0,r0,#0x50000000
        0x000011e0:    f5004080    ...@    ADD      r0,r0,#0x4000
        0x000011e4:    f8d01118    ....    LDR      r1,[r0,#0x118]
        0x000011e8:    f0110f04    ....    TST      r1,#4
        0x000011ec:    d0fa        ..      BEQ      0x11e4 ; am_hal_iom_spi_read_nb + 44
        0x000011ee:    481a        .H      LDR      r0,[pc,#104] ; [0x1258] = 0x10000060
        0x000011f0:    2102        .!      MOVS     r1,#2
        0x000011f2:    eb001004    ....    ADD      r0,r0,r4,LSL #4
        0x000011f6:    e9c01800    ....    STRD     r1,r8,[r0,#0]
        0x000011fa:    e9c05902    ...Y    STRD     r5,r9,[r0,#8]
        0x000011fe:    0788        ..      LSLS     r0,r1,#30
        0x00001200:    f4056170    ..pa    AND      r1,r5,#0xf00
        0x00001204:    ea4030c1    @..0    ORR      r0,r0,r1,LSL #15
        0x00001208:    b2e9        ..      UXTB     r1,r5
        0x0000120a:    4308        .C      ORRS     r0,r0,r1
        0x0000120c:    f44f21e0    O..!    MOV      r1,#0x70000
        0x00001210:    ea014106    ...A    AND      r1,r1,r6,LSL #16
        0x00001214:    4308        .C      ORRS     r0,r0,r1
        0x00001216:    4911        .I      LDR      r1,[pc,#68] ; [0x125c] = 0x5c00ff00
        0x00001218:    4039        9@      ANDS     r1,r1,r7
        0x0000121a:    4308        .C      ORRS     r0,r0,r1
        0x0000121c:    0321        !.      LSLS     r1,r4,#12
        0x0000121e:    f10141a0    ...A    ADD      r1,r1,#0x50000000
        0x00001222:    f5014180    ...A    ADD      r1,r1,#0x4000
        0x00001226:    f8c10110    ....    STR      r0,[r1,#0x110]
        0x0000122a:    e8bd87f0    ....    POP      {r4-r10,pc}
    $d
        0x0000122e:    0000        ..      DCW    0
        0x00001230:    20495053    SPI     DCD    541675603
        0x00001234:    6e617274    tran    DCD    1851880052
        0x00001238:    72656673    sfer    DCD    1919247987
        0x0000123c:    6f6f7420     too    DCD    1869575200
        0x00001240:    67696220     big    DCD    1734959648
        0x00001244:    0000002e    ....    DCD    46
        0x00001248:    612f2e2e    ../a    DCD    1630481966
        0x0000124c:    61685f6d    m_ha    DCD    1634230125
        0x00001250:    6f695f6c    l_io    DCD    1869176684
        0x00001254:    00632e6d    m.c.    DCD    6499949
        0x00001258:    10000060    `...    DCD    268435552
        0x0000125c:    5c00ff00    ...\    DCD    1543569152
    $t
    i.am_hal_iom_spi_write
    am_hal_iom_spi_write
        0x00001260:    e92d47f0    -..G    PUSH     {r4-r10,lr}
        0x00001264:    461c        .F      MOV      r4,r3
        0x00001266:    9f08        ..      LDR      r7,[sp,#0x20]
        0x00001268:    4691        .F      MOV      r9,r2
        0x0000126a:    460e        .F      MOV      r6,r1
        0x0000126c:    4680        .F      MOV      r8,r0
        0x0000126e:    f5b35f80    ..._    CMP      r3,#0x1000
        0x00001272:    d305        ..      BCC      0x1280 ; am_hal_iom_spi_write + 32
        0x00001274:    a229        ).      ADR      r2,{pc}+0xa8 ; 0x131c
        0x00001276:    f44f718f    O..q    MOV      r1,#0x11e
        0x0000127a:    a02e        ..      ADR      r0,{pc}+0xba ; 0x1334
        0x0000127c:    f7fff9c2    ....    BL       am_hal_debug_error ; 0x604
        0x00001280:    2c40        @,      CMP      r4,#0x40
        0x00001282:    bf94        ..      ITE      LS
        0x00001284:    4625        %F      MOVLS    r5,r4
        0x00001286:    2540        @%      MOVHI    r5,#0x40
        0x00001288:    ea4f3008    O..0    LSL      r0,r8,#12
        0x0000128c:    f10040a0    ...@    ADD      r0,r0,#0x50000000
        0x00001290:    f5004080    ...@    ADD      r0,r0,#0x4000
        0x00001294:    f8d01118    ....    LDR      r1,[r0,#0x118]
        0x00001298:    f0110f04    ....    TST      r1,#4
        0x0000129c:    d0fa        ..      BEQ      0x1294 ; am_hal_iom_spi_write + 52
        0x0000129e:    462a        *F      MOV      r2,r5
        0x000012a0:    4649        IF      MOV      r1,r9
        0x000012a2:    4640        @F      MOV      r0,r8
        0x000012a4:    f7fffc9c    ....    BL       am_hal_iom_fifo_write ; 0xbe0
        0x000012a8:    2000        .       MOVS     r0,#0
        0x000012aa:    f4046170    ..pa    AND      r1,r4,#0xf00
        0x000012ae:    ea4030c1    @..0    ORR      r0,r0,r1,LSL #15
        0x000012b2:    b2e1        ..      UXTB     r1,r4
        0x000012b4:    4308        .C      ORRS     r0,r0,r1
        0x000012b6:    f44f21e0    O..!    MOV      r1,#0x70000
        0x000012ba:    ea014106    ...A    AND      r1,r1,r6,LSL #16
        0x000012be:    4308        .C      ORRS     r0,r0,r1
        0x000012c0:    4920         I      LDR      r1,[pc,#128] ; [0x1344] = 0x5c00ff00
        0x000012c2:    4039        9@      ANDS     r1,r1,r7
        0x000012c4:    4308        .C      ORRS     r0,r0,r1
        0x000012c6:    ea4f3108    O..1    LSL      r1,r8,#12
        0x000012ca:    f10147a0    ...G    ADD      r7,r1,#0x50000000
        0x000012ce:    f5074780    ...G    ADD      r7,r7,#0x4000
        0x000012d2:    f8c70110    ....    STR      r0,[r7,#0x110]
        0x000012d6:    f0250003    %...    BIC      r0,r5,#3
        0x000012da:    1b64        d.      SUBS     r4,r4,r5
        0x000012dc:    eb000609    ....    ADD      r6,r0,r9
        0x000012e0:    bf08        ..      IT       EQ
        0x000012e2:    e8bd87f0    ....    POPEQ    {r4-r10,pc}
        0x000012e6:    bf00        ..      NOP      
        0x000012e8:    f8d70100    ....    LDR      r0,[r7,#0x100]
        0x000012ec:    f3c04006    ...@    UBFX     r0,r0,#16,#7
        0x000012f0:    42a0        .B      CMP      r0,r4
        0x000012f2:    bf28        (.      IT       CS
        0x000012f4:    4625        %F      MOVCS    r5,r4
        0x000012f6:    d205        ..      BCS      0x1304 ; am_hal_iom_spi_write + 164
        0x000012f8:    f8d70100    ....    LDR      r0,[r7,#0x100]
        0x000012fc:    f3c04006    ...@    UBFX     r0,r0,#16,#7
        0x00001300:    f0200503     ...    BIC      r5,r0,#3
        0x00001304:    462a        *F      MOV      r2,r5
        0x00001306:    4631        1F      MOV      r1,r6
        0x00001308:    4640        @F      MOV      r0,r8
        0x0000130a:    f7fffc69    ..i.    BL       am_hal_iom_fifo_write ; 0xbe0
        0x0000130e:    f0250003    %...    BIC      r0,r5,#3
        0x00001312:    1b64        d.      SUBS     r4,r4,r5
        0x00001314:    4406        .D      ADD      r6,r6,r0
        0x00001316:    d1e7        ..      BNE      0x12e8 ; am_hal_iom_spi_write + 136
        0x00001318:    e8bd87f0    ....    POP      {r4-r10,pc}
    $d
        0x0000131c:    20495053    SPI     DCD    541675603
        0x00001320:    6e617274    tran    DCD    1851880052
        0x00001324:    72656673    sfer    DCD    1919247987
        0x00001328:    6f6f7420     too    DCD    1869575200
        0x0000132c:    67696220     big    DCD    1734959648
        0x00001330:    0000002e    ....    DCD    46
        0x00001334:    612f2e2e    ../a    DCD    1630481966
        0x00001338:    61685f6d    m_ha    DCD    1634230125
        0x0000133c:    6f695f6c    l_io    DCD    1869176684
        0x00001340:    00632e6d    m.c.    DCD    6499949
        0x00001344:    5c00ff00    ...\    DCD    1543569152
    $t
    i.am_hal_itm_delay_us
    am_hal_itm_delay_us
        0x00001348:    b510        ..      PUSH     {r4,lr}
        0x0000134a:    4604        .F      MOV      r4,r0
        0x0000134c:    f7fff922    ..".    BL       am_hal_clkgen_sysclk_get ; 0x594
        0x00001350:    4903        .I      LDR      r1,[pc,#12] ; [0x1360] = 0x2dc6c0
        0x00001352:    fbb0f0f1    ....    UDIV     r0,r0,r1
        0x00001356:    4360        `C      MULS     r0,r4,r0
        0x00001358:    e8bd4010    ...@    POP      {r4,lr}
        0x0000135c:    f7febf06    ....    B        __asm___12_am_hal_itm_c_0782d9ac__am_itm_delay_cycles ; 0x16c
    $d
        0x00001360:    002dc6c0    ..-.    DCD    3000000
    $t
    i.am_hal_itm_enable
    am_hal_itm_enable
        0x00001364:    480d        .H      LDR      r0,[pc,#52] ; [0x139c] = 0x10000010
        0x00001366:    6800        .h      LDR      r0,[r0,#0]
        0x00001368:    f0100f01    ....    TST      r0,#1
        0x0000136c:    bf18        ..      IT       NE
        0x0000136e:    4770        pG      BXNE     lr
        0x00001370:    480b        .H      LDR      r0,[pc,#44] ; [0x13a0] = 0xe000edfc
        0x00001372:    6801        .h      LDR      r1,[r0,#0]
        0x00001374:    f0417180    A..q    ORR      r1,r1,#0x1000000
        0x00001378:    6001        .`      STR      r1,[r0,#0]
        0x0000137a:    6801        .h      LDR      r1,[r0,#0]
        0x0000137c:    f0117f80    ....    TST      r1,#0x1000000
        0x00001380:    d0fb        ..      BEQ      0x137a ; am_hal_itm_enable + 22
        0x00001382:    4909        .I      LDR      r1,[pc,#36] ; [0x13a8] = 0xe0000fb0
        0x00001384:    4807        .H      LDR      r0,[pc,#28] ; [0x13a4] = 0xc5acce55
        0x00001386:    6008        .`      STR      r0,[r1,#0]
        0x00001388:    4908        .I      LDR      r1,[pc,#32] ; [0x13ac] = 0xe0000e40
        0x0000138a:    200f        .       MOVS     r0,#0xf
        0x0000138c:    6008        .`      STR      r0,[r1,#0]
        0x0000138e:    1748        H.      ASRS     r0,r1,#29
        0x00001390:    4907        .I      LDR      r1,[pc,#28] ; [0x13b0] = 0xe0000e00
        0x00001392:    6008        .`      STR      r0,[r1,#0]
        0x00001394:    4908        .I      LDR      r1,[pc,#32] ; [0x13b8] = 0xe0000e80
        0x00001396:    4807        .H      LDR      r0,[pc,#28] ; [0x13b4] = 0x150511
        0x00001398:    6008        .`      STR      r0,[r1,#0]
        0x0000139a:    4770        pG      BX       lr
    $d
        0x0000139c:    10000010    ....    DCD    268435472
        0x000013a0:    e000edfc    ....    DCD    3758157308
        0x000013a4:    c5acce55    U...    DCD    3316436565
        0x000013a8:    e0000fb0    ....    DCD    3758100400
        0x000013ac:    e0000e40    @...    DCD    3758100032
        0x000013b0:    e0000e00    ....    DCD    3758099968
        0x000013b4:    00150511    ....    DCD    1377553
        0x000013b8:    e0000e80    ....    DCD    3758100096
    $t
    i.am_hal_itm_not_busy
    am_hal_itm_not_busy
        0x000013bc:    b510        ..      PUSH     {r4,lr}
        0x000013be:    4808        .H      LDR      r0,[pc,#32] ; [0x13e0] = 0xe0000e80
        0x000013c0:    6801        .h      LDR      r1,[r0,#0]
        0x000013c2:    f4110f00    ....    TST      r1,#0x800000
        0x000013c6:    d1fb        ..      BNE      0x13c0 ; am_hal_itm_not_busy + 4
        0x000013c8:    f7fff8e4    ....    BL       am_hal_clkgen_sysclk_get ; 0x594
        0x000013cc:    4905        .I      LDR      r1,[pc,#20] ; [0x13e4] = 0x2dc6c0
        0x000013ce:    e8bd4010    ...@    POP      {r4,lr}
        0x000013d2:    fbb0f0f1    ....    UDIV     r0,r0,r1
        0x000013d6:    2132        2!      MOVS     r1,#0x32
        0x000013d8:    4348        HC      MULS     r0,r1,r0
        0x000013da:    f7febec7    ....    B        __asm___12_am_hal_itm_c_0782d9ac__am_itm_delay_cycles ; 0x16c
    $d
        0x000013de:    0000        ..      DCW    0
        0x000013e0:    e0000e80    ....    DCD    3758100096
        0x000013e4:    002dc6c0    ..-.    DCD    3000000
    $t
    i.am_hal_itm_print
    am_hal_itm_print
        0x000013e8:    7802        .x      LDRB     r2,[r0,#0]
        0x000013ea:    2100        .!      MOVS     r1,#0
        0x000013ec:    2a00        .*      CMP      r2,#0
        0x000013ee:    bf08        ..      IT       EQ
        0x000013f0:    4770        pG      BXEQ     lr
        0x000013f2:    1c49        I.      ADDS     r1,r1,#1
        0x000013f4:    5c42        B\      LDRB     r2,[r0,r1]
        0x000013f6:    2a00        .*      CMP      r2,#0
        0x000013f8:    d1fb        ..      BNE      0x13f2 ; am_hal_itm_print + 10
        0x000013fa:    2900        .)      CMP      r1,#0
        0x000013fc:    bf08        ..      IT       EQ
        0x000013fe:    4770        pG      BXEQ     lr
        0x00001400:    b4f0        ..      PUSH     {r4-r7}
        0x00001402:    4e0f        .N      LDR      r6,[pc,#60] ; [0x1440] = 0x1000001c
        0x00001404:    f04f4760    O.`G    MOV      r7,#0xe0000000
        0x00001408:    1d34        4.      ADDS     r4,r6,#4
        0x0000140a:    46b4        .F      MOV      r12,r6
        0x0000140c:    f8dc2004    ...     LDR      r2,[r12,#4]
        0x00001410:    f8523b04    R..;    LDR      r3,[r2],#4
        0x00001414:    f8cc2004    ...     STR      r2,[r12,#4]
        0x00001418:    f8105b01    ...[    LDRB     r5,[r0],#1
        0x0000141c:    eb070283    ....    ADD      r2,r7,r3,LSL #2
        0x00001420:    6813        .h      LDR      r3,[r2,#0]
        0x00001422:    2b00        .+      CMP      r3,#0
        0x00001424:    d0fc        ..      BEQ      0x1420 ; am_hal_itm_print + 56
        0x00001426:    7015        .p      STRB     r5,[r2,#0]
        0x00001428:    f8dc2004    ...     LDR      r2,[r12,#4]
        0x0000142c:    1e49        I.      SUBS     r1,r1,#1
        0x0000142e:    42a2        .B      CMP      r2,r4
        0x00001430:    bf28        (.      IT       CS
        0x00001432:    f8cc6004    ...`    STRCS    r6,[r12,#4]
        0x00001436:    2900        .)      CMP      r1,#0
        0x00001438:    d1e8        ..      BNE      0x140c ; am_hal_itm_print + 36
        0x0000143a:    bcf0        ..      POP      {r4-r7}
        0x0000143c:    4770        pG      BX       lr
    $d
        0x0000143e:    0000        ..      DCW    0
        0x00001440:    1000001c    ....    DCD    268435484
    $t
    i.am_hal_itm_stimulus_reg_word_write
    am_hal_itm_stimulus_reg_word_write
        0x00001444:    f04f4260    O.`B    MOV      r2,#0xe0000000
        0x00001448:    eb020080    ....    ADD      r0,r2,r0,LSL #2
        0x0000144c:    6802        .h      LDR      r2,[r0,#0]
        0x0000144e:    2a00        .*      CMP      r2,#0
        0x00001450:    d0fc        ..      BEQ      0x144c ; am_hal_itm_stimulus_reg_word_write + 8
        0x00001452:    6001        .`      STR      r1,[r0,#0]
        0x00001454:    4770        pG      BX       lr
        0x00001456:    0000        ..      MOVS     r0,r0
    i.am_hal_itm_sync_send
    am_hal_itm_sync_send
        0x00001458:    4803        .H      LDR      r0,[pc,#12] ; [0x1468] = 0xe000005c
        0x0000145a:    f04f32f8    O..2    MOV      r2,#0xf8f8f8f8
        0x0000145e:    6801        .h      LDR      r1,[r0,#0]
        0x00001460:    2900        .)      CMP      r1,#0
        0x00001462:    d0fc        ..      BEQ      0x145e ; am_hal_itm_sync_send + 6
        0x00001464:    6002        .`      STR      r2,[r0,#0]
        0x00001466:    4770        pG      BX       lr
    $d
        0x00001468:    e000005c    \...    DCD    3758096476
    $t
    i.am_hal_mcuctrl_bandgap_disable
    am_hal_mcuctrl_bandgap_disable
        0x0000146c:    4902        .I      LDR      r1,[pc,#8] ; [0x1478] = 0x40020000
        0x0000146e:    f06f0001    o...    MVN      r0,#1
        0x00001472:    f8c100fc    ....    STR      r0,[r1,#0xfc]
        0x00001476:    4770        pG      BX       lr
    $d
        0x00001478:    40020000    ...@    DCD    1073872896
    $t
    i.am_hal_mcuctrl_bucks_enable
    am_hal_mcuctrl_bucks_enable
        0x0000147c:    4808        .H      LDR      r0,[pc,#32] ; [0x14a0] = 0x40020000
        0x0000147e:    6901        .i      LDR      r1,[r0,#0x10]
        0x00001480:    f0410102    A...    ORR      r1,r1,#2
        0x00001484:    6101        .a      STR      r1,[r0,#0x10]
        0x00001486:    6901        .i      LDR      r1,[r0,#0x10]
        0x00001488:    f0410101    A...    ORR      r1,r1,#1
        0x0000148c:    6101        .a      STR      r1,[r0,#0x10]
        0x0000148e:    6941        Ai      LDR      r1,[r0,#0x14]
        0x00001490:    f0110f02    ....    TST      r1,#2
        0x00001494:    d0fb        ..      BEQ      0x148e ; am_hal_mcuctrl_bucks_enable + 18
        0x00001496:    6941        Ai      LDR      r1,[r0,#0x14]
        0x00001498:    f0110f01    ....    TST      r1,#1
        0x0000149c:    d0fb        ..      BEQ      0x1496 ; am_hal_mcuctrl_bucks_enable + 26
        0x0000149e:    4770        pG      BX       lr
    $d
        0x000014a0:    40020000    ...@    DCD    1073872896
    $t
    i.am_hal_rtc_osc_disable
    am_hal_rtc_osc_disable
        0x000014a4:    f04f2040    O.@     MOV      r0,#0x40004000
        0x000014a8:    6d01        .m      LDR      r1,[r0,#0x50]
        0x000014aa:    f0410110    A...    ORR      r1,r1,#0x10
        0x000014ae:    6501        .e      STR      r1,[r0,#0x50]
        0x000014b0:    4770        pG      BX       lr
    i.am_hal_rtc_osc_select
    am_hal_rtc_osc_select
        0x000014b2:    f04f2140    O.@!    MOV      r1,#0x40004000
        0x000014b6:    2800        .(      CMP      r0,#0
        0x000014b8:    68c8        .h      LDR      r0,[r1,#0xc]
        0x000014ba:    bf14        ..      ITE      NE
        0x000014bc:    f0400080    @...    ORRNE    r0,r0,#0x80
        0x000014c0:    f0200080     ...    BICEQ    r0,r0,#0x80
        0x000014c4:    60c8        .`      STR      r0,[r1,#0xc]
        0x000014c6:    4770        pG      BX       lr
    i.am_hal_sysctrl_sleep
    am_hal_sysctrl_sleep
        0x000014c8:    490a        .I      LDR      r1,[pc,#40] ; [0x14f4] = 0xe000ed10
        0x000014ca:    b160        `.      CBZ      r0,0x14e6 ; am_hal_sysctrl_sleep + 30
        0x000014cc:    480a        .H      LDR      r0,[pc,#40] ; [0x14f8] = 0x40020000
        0x000014ce:    f8d00250    ..P.    LDR      r0,[r0,#0x250]
        0x000014d2:    f0300001    0...    BICS     r0,r0,#1
        0x000014d6:    6808        .h      LDR      r0,[r1,#0]
        0x000014d8:    bf0c        ..      ITE      EQ
        0x000014da:    f0400004    @...    ORREQ    r0,r0,#4
        0x000014de:    f0200004     ...    BICNE    r0,r0,#4
        0x000014e2:    6008        .`      STR      r0,[r1,#0]
        0x000014e4:    e003        ..      B        0x14ee ; am_hal_sysctrl_sleep + 38
        0x000014e6:    6808        .h      LDR      r0,[r1,#0]
        0x000014e8:    f0200004     ...    BIC      r0,r0,#4
        0x000014ec:    6008        .`      STR      r0,[r1,#0]
        0x000014ee:    bf30        0.      WFI      
        0x000014f0:    4770        pG      BX       lr
    $d
        0x000014f2:    0000        ..      DCW    0
        0x000014f4:    e000ed10    ....    DCD    3758157072
        0x000014f8:    40020000    ...@    DCD    1073872896
    $t
    i.am_hal_tpiu_disable
    am_hal_tpiu_disable
        0x000014fc:    4902        .I      LDR      r1,[pc,#8] ; [0x1508] = 0x40020000
        0x000014fe:    2000        .       MOVS     r0,#0
        0x00001500:    f8c10250    ..P.    STR      r0,[r1,#0x250]
        0x00001504:    4770        pG      BX       lr
    $d
        0x00001506:    0000        ..      DCW    0
        0x00001508:    40020000    ...@    DCD    1073872896
    $t
    i.am_hal_tpiu_enable
    am_hal_tpiu_enable
        0x0000150c:    4809        .H      LDR      r0,[pc,#36] ; [0x1534] = 0xe0040000
        0x0000150e:    2100        .!      MOVS     r1,#0
        0x00001510:    f8c01304    ....    STR      r1,[r0,#0x304]
        0x00001514:    2201        ."      MOVS     r2,#1
        0x00001516:    6042        B`      STR      r2,[r0,#4]
        0x00001518:    2202        ."      MOVS     r2,#2
        0x0000151a:    6102        .a      STR      r2,[r0,#0x10]
        0x0000151c:    f8c020f0    ...     STR      r2,[r0,#0xf0]
        0x00001520:    4805        .H      LDR      r0,[pc,#20] ; [0x1538] = 0xe0040f00
        0x00001522:    6001        .`      STR      r1,[r0,#0]
        0x00001524:    4905        .I      LDR      r1,[pc,#20] ; [0x153c] = 0x40020000
        0x00001526:    f2402001    @..     MOV      r0,#0x201
        0x0000152a:    f8c10250    ..P.    STR      r0,[r1,#0x250]
        0x0000152e:    2032        2       MOVS     r0,#0x32
        0x00001530:    f7ffbf0a    ....    B.W      am_hal_itm_delay_us ; 0x1348
    $d
        0x00001534:    e0040000    ....    DCD    3758358528
        0x00001538:    e0040f00    ....    DCD    3758362368
        0x0000153c:    40020000    ...@    DCD    1073872896
    $t
    i.am_hal_vcomp_disable
    am_hal_vcomp_disable
        0x00001540:    4901        .I      LDR      r1,[pc,#4] ; [0x1548] = 0x4000c000
        0x00001542:    2037        7       MOVS     r0,#0x37
        0x00001544:    6088        .`      STR      r0,[r1,#8]
        0x00001546:    4770        pG      BX       lr
    $d
        0x00001548:    4000c000    ...@    DCD    1073790976
    $t
    i.am_iomaster0_isr
    am_iomaster0_isr
        0x0000154c:    b510        ..      PUSH     {r4,lr}
        0x0000154e:    2100        .!      MOVS     r1,#0
        0x00001550:    4608        .F      MOV      r0,r1
        0x00001552:    f7fffda5    ....    BL       am_hal_iom_int_status_get ; 0x10a0
        0x00001556:    4604        .F      MOV      r4,r0
        0x00001558:    4621        !F      MOV      r1,r4
        0x0000155a:    2000        .       MOVS     r0,#0
        0x0000155c:    f7fffd24    ..$.    BL       am_hal_iom_int_clear ; 0xfa8
        0x00001560:    4621        !F      MOV      r1,r4
        0x00001562:    2000        .       MOVS     r0,#0
        0x00001564:    f7fffd34    ..4.    BL       am_hal_iom_int_service ; 0xfd0
        0x00001568:    bd10        ..      POP      {r4,pc}
    i.am_iomaster1_isr
    am_iomaster1_isr
        0x0000156a:    b510        ..      PUSH     {r4,lr}
        0x0000156c:    2100        .!      MOVS     r1,#0
        0x0000156e:    2001        .       MOVS     r0,#1
        0x00001570:    f7fffd96    ....    BL       am_hal_iom_int_status_get ; 0x10a0
        0x00001574:    4604        .F      MOV      r4,r0
        0x00001576:    4621        !F      MOV      r1,r4
        0x00001578:    2001        .       MOVS     r0,#1
        0x0000157a:    f7fffd15    ....    BL       am_hal_iom_int_clear ; 0xfa8
        0x0000157e:    4621        !F      MOV      r1,r4
        0x00001580:    2001        .       MOVS     r0,#1
        0x00001582:    f7fffd25    ..%.    BL       am_hal_iom_int_service ; 0xfd0
        0x00001586:    bd10        ..      POP      {r4,pc}
    i.am_util_delay_ms
    am_util_delay_ms
        0x00001588:    b570        p.      PUSH     {r4-r6,lr}
        0x0000158a:    4604        .F      MOV      r4,r0
        0x0000158c:    f7fff802    ....    BL       am_hal_clkgen_sysclk_get ; 0x594
        0x00001590:    f64031b8    @..1    MOV      r1,#0xbb8
        0x00001594:    fbb0f0f1    ....    UDIV     r0,r0,r1
        0x00001598:    fb00f504    ....    MUL      r5,r0,r4
        0x0000159c:    4628        (F      MOV      r0,r5
        0x0000159e:    f7fefdcb    ....    BL       am_util_delay_cycles ; 0x138
        0x000015a2:    bd70        p.      POP      {r4-r6,pc}
    i.am_util_delay_us
    am_util_delay_us
        0x000015a4:    b570        p.      PUSH     {r4-r6,lr}
        0x000015a6:    4604        .F      MOV      r4,r0
        0x000015a8:    f7fefff4    ....    BL       am_hal_clkgen_sysclk_get ; 0x594
        0x000015ac:    4904        .I      LDR      r1,[pc,#16] ; [0x15c0] = 0x2dc6c0
        0x000015ae:    fbb0f0f1    ....    UDIV     r0,r0,r1
        0x000015b2:    fb00f504    ....    MUL      r5,r0,r4
        0x000015b6:    4628        (F      MOV      r0,r5
        0x000015b8:    f7fefdbe    ....    BL       am_util_delay_cycles ; 0x138
        0x000015bc:    bd70        p.      POP      {r4-r6,pc}
    $d
        0x000015be:    0000        ..      DCW    0
        0x000015c0:    002dc6c0    ..-.    DCD    3000000
    $t
    i.am_util_faultisr_collect_data
    am_util_faultisr_collect_data
        0x000015c4:    b08c        ..      SUB      sp,sp,#0x30
        0x000015c6:    4604        .F      MOV      r4,r0
        0x000015c8:    2500        .%      MOVS     r5,#0
        0x000015ca:    950a        ..      STR      r5,[sp,#0x28]
        0x000015cc:    4826        &H      LDR      r0,[pc,#152] ; [0x1668] = 0xe000ed28
        0x000015ce:    6800        .h      LDR      r0,[r0,#0]
        0x000015d0:    900a        ..      STR      r0,[sp,#0x28]
        0x000015d2:    980a        ..      LDR      r0,[sp,#0x28]
        0x000015d4:    b2c0        ..      UXTB     r0,r0
        0x000015d6:    f88d002c    ..,.    STRB     r0,[sp,#0x2c]
        0x000015da:    980a        ..      LDR      r0,[sp,#0x28]
        0x000015dc:    0a00        ..      LSRS     r0,r0,#8
        0x000015de:    f88d002d    ..-.    STRB     r0,[sp,#0x2d]
        0x000015e2:    980a        ..      LDR      r0,[sp,#0x28]
        0x000015e4:    f64f71ff    O..q    MOV      r1,#0xffff
        0x000015e8:    ea014010    ...@    AND      r0,r1,r0,LSR #16
        0x000015ec:    f8ad002e    ....    STRH     r0,[sp,#0x2e]
        0x000015f0:    481d        .H      LDR      r0,[pc,#116] ; [0x1668] = 0xe000ed28
        0x000015f2:    3010        .0      ADDS     r0,r0,#0x10
        0x000015f4:    6800        .h      LDR      r0,[r0,#0]
        0x000015f6:    9009        ..      STR      r0,[sp,#0x24]
        0x000015f8:    f89d002d    ..-.    LDRB     r0,[sp,#0x2d]
        0x000015fc:    f0000002    ....    AND      r0,r0,#2
        0x00001600:    b120         .      CBZ      r0,0x160c ; am_util_faultisr_collect_data + 72
        0x00001602:    4621        !F      MOV      r1,r4
        0x00001604:    2006        .       MOVS     r0,#6
        0x00001606:    f7fefda1    ....    BL       getStackedReg ; 0x14c
        0x0000160a:    e001        ..      B        0x1610 ; am_util_faultisr_collect_data + 76
        0x0000160c:    f04f30ff    O..0    MOV      r0,#0xffffffff
        0x00001610:    9008        ..      STR      r0,[sp,#0x20]
        0x00001612:    4621        !F      MOV      r1,r4
        0x00001614:    2000        .       MOVS     r0,#0
        0x00001616:    f7fefd99    ....    BL       getStackedReg ; 0x14c
        0x0000161a:    9000        ..      STR      r0,[sp,#0]
        0x0000161c:    4621        !F      MOV      r1,r4
        0x0000161e:    2001        .       MOVS     r0,#1
        0x00001620:    f7fefd94    ....    BL       getStackedReg ; 0x14c
        0x00001624:    9001        ..      STR      r0,[sp,#4]
        0x00001626:    4621        !F      MOV      r1,r4
        0x00001628:    2002        .       MOVS     r0,#2
        0x0000162a:    f7fefd8f    ....    BL       getStackedReg ; 0x14c
        0x0000162e:    9002        ..      STR      r0,[sp,#8]
        0x00001630:    4621        !F      MOV      r1,r4
        0x00001632:    2003        .       MOVS     r0,#3
        0x00001634:    f7fefd8a    ....    BL       getStackedReg ; 0x14c
        0x00001638:    9003        ..      STR      r0,[sp,#0xc]
        0x0000163a:    4621        !F      MOV      r1,r4
        0x0000163c:    2004        .       MOVS     r0,#4
        0x0000163e:    f7fefd85    ....    BL       getStackedReg ; 0x14c
        0x00001642:    9004        ..      STR      r0,[sp,#0x10]
        0x00001644:    4621        !F      MOV      r1,r4
        0x00001646:    2005        .       MOVS     r0,#5
        0x00001648:    f7fefd80    ....    BL       getStackedReg ; 0x14c
        0x0000164c:    9005        ..      STR      r0,[sp,#0x14]
        0x0000164e:    4621        !F      MOV      r1,r4
        0x00001650:    2006        .       MOVS     r0,#6
        0x00001652:    f7fefd7b    ..{.    BL       getStackedReg ; 0x14c
        0x00001656:    9006        ..      STR      r0,[sp,#0x18]
        0x00001658:    4621        !F      MOV      r1,r4
        0x0000165a:    2007        .       MOVS     r0,#7
        0x0000165c:    f7fefd76    ..v.    BL       getStackedReg ; 0x14c
        0x00001660:    9007        ..      STR      r0,[sp,#0x1c]
        0x00001662:    bf00        ..      NOP      
        0x00001664:    bf00        ..      NOP      
        0x00001666:    e7fe        ..      B        0x1666 ; am_util_faultisr_collect_data + 162
    $d
        0x00001668:    e000ed28    (...    DCD    3758157096
    $t
    i.am_util_plot_init
    am_util_plot_init
        0x0000166c:    b510        ..      PUSH     {r4,lr}
        0x0000166e:    f7fffe79    ..y.    BL       am_hal_itm_enable ; 0x1364
        0x00001672:    4802        .H      LDR      r0,[pc,#8] ; [0x167c] = 0x13e9
        0x00001674:    f000f81c    ....    BL       am_util_stdio_printf_init ; 0x16b0
        0x00001678:    bd10        ..      POP      {r4,pc}
    $d
        0x0000167a:    0000        ..      DCW    0
        0x0000167c:    000013e9    ....    DCD    5097
    $t
    i.am_util_plot_int
    am_util_plot_int
        0x00001680:    b570        p.      PUSH     {r4-r6,lr}
        0x00001682:    4604        .F      MOV      r4,r0
        0x00001684:    460d        .F      MOV      r5,r1
        0x00001686:    4809        .H      LDR      r0,[pc,#36] ; [0x16ac] = 0x10000004
        0x00001688:    6800        .h      LDR      r0,[r0,#0]
        0x0000168a:    b928        (.      CBNZ     r0,0x1698 ; am_util_plot_int + 24
        0x0000168c:    f7fffee4    ....    BL       am_hal_itm_sync_send ; 0x1458
        0x00001690:    2040        @       MOVS     r0,#0x40
        0x00001692:    4906        .I      LDR      r1,[pc,#24] ; [0x16ac] = 0x10000004
        0x00001694:    6008        .`      STR      r0,[r1,#0]
        0x00001696:    e004        ..      B        0x16a2 ; am_util_plot_int + 34
        0x00001698:    4804        .H      LDR      r0,[pc,#16] ; [0x16ac] = 0x10000004
        0x0000169a:    6800        .h      LDR      r0,[r0,#0]
        0x0000169c:    1e40        @.      SUBS     r0,r0,#1
        0x0000169e:    4903        .I      LDR      r1,[pc,#12] ; [0x16ac] = 0x10000004
        0x000016a0:    6008        .`      STR      r0,[r1,#0]
        0x000016a2:    4629        )F      MOV      r1,r5
        0x000016a4:    4620         F      MOV      r0,r4
        0x000016a6:    f7fffecd    ....    BL       am_hal_itm_stimulus_reg_word_write ; 0x1444
        0x000016aa:    bd70        p.      POP      {r4-r6,pc}
    $d
        0x000016ac:    10000004    ....    DCD    268435460
    $t
    i.am_util_stdio_printf_init
    am_util_stdio_printf_init
        0x000016b0:    4901        .I      LDR      r1,[pc,#4] ; [0x16b8] = 0x10000008
        0x000016b2:    6008        .`      STR      r0,[r1,#0]
        0x000016b4:    4770        pG      BX       lr
    $d
        0x000016b6:    0000        ..      DCW    0
        0x000016b8:    10000008    ....    DCD    268435464
    $t
    i.configure_bmi160_pins
    configure_bmi160_pins
        0x000016bc:    b510        ..      PUSH     {r4,lr}
        0x000016be:    2001        .       MOVS     r0,#1
        0x000016c0:    f7fefdde    ....    BL       am_bsp_iom_spi_pins_enable ; 0x280
        0x000016c4:    bf00        ..      NOP      
        0x000016c6:    2073        s       MOVS     r0,#0x73
        0x000016c8:    491e        .I      LDR      r1,[pc,#120] ; [0x1744] = 0x40010000
        0x000016ca:    6608        .f      STR      r0,[r1,#0x60]
        0x000016cc:    4608        .F      MOV      r0,r1
        0x000016ce:    6cc0        .l      LDR      r0,[r0,#0x4c]
        0x000016d0:    f02060e0     ..`    BIC      r0,r0,#0x7000000
        0x000016d4:    64c8        .d      STR      r0,[r1,#0x4c]
        0x000016d6:    4608        .F      MOV      r0,r1
        0x000016d8:    69c0        .i      LDR      r0,[r0,#0x1c]
        0x000016da:    f420007f     ...    BIC      r0,r0,#0xff0000
        0x000016de:    f4402000    @..     ORR      r0,r0,#0x80000
        0x000016e2:    61c8        .a      STR      r0,[r1,#0x1c]
        0x000016e4:    2000        .       MOVS     r0,#0
        0x000016e6:    6608        .f      STR      r0,[r1,#0x60]
        0x000016e8:    bf00        ..      NOP      
        0x000016ea:    bf00        ..      NOP      
        0x000016ec:    2073        s       MOVS     r0,#0x73
        0x000016ee:    6608        .f      STR      r0,[r1,#0x60]
        0x000016f0:    4608        .F      MOV      r0,r1
        0x000016f2:    6d00        .m      LDR      r0,[r0,#0x50]
        0x000016f4:    f0200070     .p.    BIC      r0,r0,#0x70
        0x000016f8:    6508        .e      STR      r0,[r1,#0x50]
        0x000016fa:    4608        .F      MOV      r0,r1
        0x000016fc:    6a00        .j      LDR      r0,[r0,#0x20]
        0x000016fe:    f420407f     ..@    BIC      r0,r0,#0xff00
        0x00001702:    f44050d0    @..P    ORR      r0,r0,#0x1a00
        0x00001706:    6208        .b      STR      r0,[r1,#0x20]
        0x00001708:    2000        .       MOVS     r0,#0
        0x0000170a:    6608        .f      STR      r0,[r1,#0x60]
        0x0000170c:    bf00        ..      NOP      
        0x0000170e:    bf00        ..      NOP      
        0x00001710:    2073        s       MOVS     r0,#0x73
        0x00001712:    6608        .f      STR      r0,[r1,#0x60]
        0x00001714:    4608        .F      MOV      r0,r1
        0x00001716:    6d40        @m      LDR      r0,[r0,#0x54]
        0x00001718:    f0200070     .p.    BIC      r0,r0,#0x70
        0x0000171c:    6548        He      STR      r0,[r1,#0x54]
        0x0000171e:    4608        .F      MOV      r0,r1
        0x00001720:    6a80        .j      LDR      r0,[r0,#0x28]
        0x00001722:    f420407f     ..@    BIC      r0,r0,#0xff00
        0x00001726:    f4405080    @..P    ORR      r0,r0,#0x1000
        0x0000172a:    6288        .b      STR      r0,[r1,#0x28]
        0x0000172c:    2000        .       MOVS     r0,#0
        0x0000172e:    6608        .f      STR      r0,[r1,#0x60]
        0x00001730:    bf00        ..      NOP      
        0x00001732:    2102        .!      MOVS     r1,#2
        0x00001734:    f7feff68    ..h.    BL       am_hal_gpio_int_clear ; 0x608
        0x00001738:    2000        .       MOVS     r0,#0
        0x0000173a:    2102        .!      MOVS     r1,#2
        0x0000173c:    f7feff6c    ..l.    BL       am_hal_gpio_int_enable ; 0x618
        0x00001740:    bd10        ..      POP      {r4,pc}
    $d
        0x00001742:    0000        ..      DCW    0
        0x00001744:    40010000    ...@    DCD    1073807360
    $t
    i.data_handler
    data_handler
        0x00001748:    b510        ..      PUSH     {r4,lr}
        0x0000174a:    2001        .       MOVS     r0,#1
        0x0000174c:    f7fff964    ..d.    BL       am_hal_iom_disable ; 0xa18
        0x00001750:    2000        .       MOVS     r0,#0
        0x00001752:    4913        .I      LDR      r1,[pc,#76] ; [0x17a0] = 0x10000000
        0x00001754:    7008        .p      STRB     r0,[r1,#0]
        0x00001756:    f7fefd75    ..u.    BL       am_bsp_debug_printf_enable ; 0x244
        0x0000175a:    2400        .$      MOVS     r4,#0
        0x0000175c:    e01d        ..      B        0x179a ; data_handler + 82
        0x0000175e:    eb040044    ..D.    ADD      r0,r4,r4,LSL #1
        0x00001762:    0040        @.      LSLS     r0,r0,#1
        0x00001764:    4a0f        .J      LDR      r2,[pc,#60] ; [0x17a4] = 0x10000024
        0x00001766:    f9321010    2...    LDRSH    r1,[r2,r0,LSL #1]
        0x0000176a:    2018        .       MOVS     r0,#0x18
        0x0000176c:    f7ffff88    ....    BL       am_util_plot_int ; 0x1680
        0x00001770:    eb040044    ..D.    ADD      r0,r4,r4,LSL #1
        0x00001774:    0040        @.      LSLS     r0,r0,#1
        0x00001776:    1c40        @.      ADDS     r0,r0,#1
        0x00001778:    4a0a        .J      LDR      r2,[pc,#40] ; [0x17a4] = 0x10000024
        0x0000177a:    f9321010    2...    LDRSH    r1,[r2,r0,LSL #1]
        0x0000177e:    2019        .       MOVS     r0,#0x19
        0x00001780:    f7ffff7e    ..~.    BL       am_util_plot_int ; 0x1680
        0x00001784:    eb040044    ..D.    ADD      r0,r4,r4,LSL #1
        0x00001788:    0040        @.      LSLS     r0,r0,#1
        0x0000178a:    1c80        ..      ADDS     r0,r0,#2
        0x0000178c:    4a05        .J      LDR      r2,[pc,#20] ; [0x17a4] = 0x10000024
        0x0000178e:    f9321010    2...    LDRSH    r1,[r2,r0,LSL #1]
        0x00001792:    201a        .       MOVS     r0,#0x1a
        0x00001794:    f7ffff74    ..t.    BL       am_util_plot_int ; 0x1680
        0x00001798:    1c64        d.      ADDS     r4,r4,#1
        0x0000179a:    2c05        .,      CMP      r4,#5
        0x0000179c:    d3df        ..      BCC      0x175e ; data_handler + 22
        0x0000179e:    bd10        ..      POP      {r4,pc}
    $d
        0x000017a0:    10000000    ....    DCD    268435456
        0x000017a4:    10000024    $...    DCD    268435492
    $t
    i.i2c_send_byte
    i2c_send_byte
        0x000017a8:    e92d47f0    -..G    PUSH     {r4-r10,lr}
        0x000017ac:    2400        .$      MOVS     r4,#0
        0x000017ae:    4d3c        <M      LDR      r5,[pc,#240] ; [0x18a0] = 0x10000080
        0x000017b0:    2601        .&      MOVS     r6,#1
        0x000017b2:    4680        .F      MOV      r8,r0
        0x000017b4:    f04f0980    O...    MOV      r9,#0x80
        0x000017b8:    2704        .'      MOVS     r7,#4
        0x000017ba:    6868        hh      LDR      r0,[r5,#4]
        0x000017bc:    f000011f    ....    AND      r1,r0,#0x1f
        0x000017c0:    ea0700d0    ....    AND      r0,r7,r0,LSR #3
        0x000017c4:    f1004080    ...@    ADD      r0,r0,#0x40000000
        0x000017c8:    f5003080    ...0    ADD      r0,r0,#0x10000
        0x000017cc:    fa06f101    ....    LSL      r1,r6,r1
        0x000017d0:    f8c01098    ....    STR      r1,[r0,#0x98]
        0x000017d4:    2001        .       MOVS     r0,#1
        0x000017d6:    f7fffee5    ....    BL       am_util_delay_us ; 0x15a4
        0x000017da:    fa29f004    )...    LSR      r0,r9,r4
        0x000017de:    ea100f08    ....    TST      r0,r8
        0x000017e2:    68a8        .h      LDR      r0,[r5,#8]
        0x000017e4:    f000011f    ....    AND      r1,r0,#0x1f
        0x000017e8:    ea0700d0    ....    AND      r0,r7,r0,LSR #3
        0x000017ec:    f1004080    ...@    ADD      r0,r0,#0x40000000
        0x000017f0:    fa06f101    ....    LSL      r1,r6,r1
        0x000017f4:    f5003080    ...0    ADD      r0,r0,#0x10000
        0x000017f8:    bf14        ..      ITE      NE
        0x000017fa:    f8c01090    ....    STRNE    r1,[r0,#0x90]
        0x000017fe:    f8c01098    ....    STREQ    r1,[r0,#0x98]
        0x00001802:    2001        .       MOVS     r0,#1
        0x00001804:    f7fffece    ....    BL       am_util_delay_us ; 0x15a4
        0x00001808:    6868        hh      LDR      r0,[r5,#4]
        0x0000180a:    f000011f    ....    AND      r1,r0,#0x1f
        0x0000180e:    fa06f201    ....    LSL      r2,r6,r1
        0x00001812:    ea0700d0    ....    AND      r0,r7,r0,LSR #3
        0x00001816:    f1004180    ...A    ADD      r1,r0,#0x40000000
        0x0000181a:    f5013180    ...1    ADD      r1,r1,#0x10000
        0x0000181e:    f8c12090    ...     STR      r2,[r1,#0x90]
        0x00001822:    bf00        ..      NOP      
        0x00001824:    f8d10080    ....    LDR      r0,[r1,#0x80]
        0x00001828:    4210        .B      TST      r0,r2
        0x0000182a:    d0fb        ..      BEQ      0x1824 ; i2c_send_byte + 124
        0x0000182c:    2002        .       MOVS     r0,#2
        0x0000182e:    f7fffeb9    ....    BL       am_util_delay_us ; 0x15a4
        0x00001832:    1c64        d.      ADDS     r4,r4,#1
        0x00001834:    2c08        .,      CMP      r4,#8
        0x00001836:    dbc0        ..      BLT      0x17ba ; i2c_send_byte + 18
        0x00001838:    6868        hh      LDR      r0,[r5,#4]
        0x0000183a:    f000011f    ....    AND      r1,r0,#0x1f
        0x0000183e:    ea0700d0    ....    AND      r0,r7,r0,LSR #3
        0x00001842:    f1004080    ...@    ADD      r0,r0,#0x40000000
        0x00001846:    f5003080    ...0    ADD      r0,r0,#0x10000
        0x0000184a:    fa06f101    ....    LSL      r1,r6,r1
        0x0000184e:    f8c01098    ....    STR      r1,[r0,#0x98]
        0x00001852:    2002        .       MOVS     r0,#2
        0x00001854:    f7fffea6    ....    BL       am_util_delay_us ; 0x15a4
        0x00001858:    6868        hh      LDR      r0,[r5,#4]
        0x0000185a:    f000011f    ....    AND      r1,r0,#0x1f
        0x0000185e:    ea0700d0    ....    AND      r0,r7,r0,LSR #3
        0x00001862:    f1004080    ...@    ADD      r0,r0,#0x40000000
        0x00001866:    f5003080    ...0    ADD      r0,r0,#0x10000
        0x0000186a:    fa06f101    ....    LSL      r1,r6,r1
        0x0000186e:    f8c01090    ....    STR      r1,[r0,#0x90]
        0x00001872:    bf00        ..      NOP      
        0x00001874:    f8d02080    ...     LDR      r2,[r0,#0x80]
        0x00001878:    420a        .B      TST      r2,r1
        0x0000187a:    d0fb        ..      BEQ      0x1874 ; i2c_send_byte + 204
        0x0000187c:    68a8        .h      LDR      r0,[r5,#8]
        0x0000187e:    ea0701d0    ....    AND      r1,r7,r0,LSR #3
        0x00001882:    f1014180    ...A    ADD      r1,r1,#0x40000000
        0x00001886:    f5013180    ...1    ADD      r1,r1,#0x10000
        0x0000188a:    f8d11080    ....    LDR      r1,[r1,#0x80]
        0x0000188e:    f000001f    ....    AND      r0,r0,#0x1f
        0x00001892:    fa06f000    ....    LSL      r0,r6,r0
        0x00001896:    4008        .@      ANDS     r0,r0,r1
        0x00001898:    bf18        ..      IT       NE
        0x0000189a:    2001        .       MOVNE    r0,#1
        0x0000189c:    e8bd87f0    ....    POP      {r4-r10,pc}
    $d
        0x000018a0:    10000080    ....    DCD    268435584
    $t
    i.main
    main
        0x000018a4:    2000        .       MOVS     r0,#0
        0x000018a6:    f7fefea5    ....    BL       am_hal_clkgen_sysclk_select ; 0x5f4
        0x000018aa:    f7fefd17    ....    BL       am_bsp_low_power_init ; 0x2dc
        0x000018ae:    4928        (I      LDR      r1,[pc,#160] ; [0x1950] = 0x1988
        0x000018b0:    2001        .       MOVS     r0,#1
        0x000018b2:    f7fff885    ....    BL       am_hal_iom_config ; 0x9c0
        0x000018b6:    f7ffff01    ....    BL       configure_bmi160_pins ; 0x16bc
        0x000018ba:    bf00        ..      NOP      
        0x000018bc:    2073        s       MOVS     r0,#0x73
        0x000018be:    4925        %I      LDR      r1,[pc,#148] ; [0x1954] = 0x40010000
        0x000018c0:    6608        .f      STR      r0,[r1,#0x60]
        0x000018c2:    4608        .F      MOV      r0,r1
        0x000018c4:    6d40        @m      LDR      r0,[r0,#0x54]
        0x000018c6:    f42040e0     ..@    BIC      r0,r0,#0x7000
        0x000018ca:    f4405000    @..P    ORR      r0,r0,#0x2000
        0x000018ce:    6548        He      STR      r0,[r1,#0x54]
        0x000018d0:    4608        .F      MOV      r0,r1
        0x000018d2:    6a80        .j      LDR      r0,[r0,#0x28]
        0x000018d4:    f020407f     ..@    BIC      r0,r0,#0xff000000
        0x000018d8:    f04050c0    @..P    ORR      r0,r0,#0x18000000
        0x000018dc:    6288        .b      STR      r0,[r1,#0x28]
        0x000018de:    2000        .       MOVS     r0,#0
        0x000018e0:    6608        .f      STR      r0,[r1,#0x60]
        0x000018e2:    bf00        ..      NOP      
        0x000018e4:    14c8        ..      ASRS     r0,r1,#19
        0x000018e6:    491b        .I      LDR      r1,[pc,#108] ; [0x1954] = 0x40010000
        0x000018e8:    319c        .1      ADDS     r1,r1,#0x9c
        0x000018ea:    6008        .`      STR      r0,[r1,#0]
        0x000018ec:    f000f836    ..6.    BL       start_bmi160 ; 0x195c
        0x000018f0:    f7fffebc    ....    BL       am_util_plot_init ; 0x166c
        0x000018f4:    2017        .       MOVS     r0,#0x17
        0x000018f6:    f7fff83d    ..=.    BL       am_hal_interrupt_enable ; 0x974
        0x000018fa:    2019        .       MOVS     r0,#0x19
        0x000018fc:    f7fff83a    ..:.    BL       am_hal_interrupt_enable ; 0x974
        0x00001900:    f7fefc28    ..(.    BL       am_hal_interrupt_master_enable ; 0x154
        0x00001904:    e023        #.      B        0x194e ; main + 170
        0x00001906:    f7fefc29    ..).    BL       am_hal_interrupt_master_disable ; 0x15c
        0x0000190a:    4813        .H      LDR      r0,[pc,#76] ; [0x1958] = 0x10000000
        0x0000190c:    7800        .x      LDRB     r0,[r0,#0]
        0x0000190e:    b168        h.      CBZ      r0,0x192c ; main + 136
        0x00001910:    f44f6000    O..`    MOV      r0,#0x800
        0x00001914:    490f        .I      LDR      r1,[pc,#60] ; [0x1954] = 0x40010000
        0x00001916:    3194        .1      ADDS     r1,r1,#0x94
        0x00001918:    6008        .`      STR      r0,[r1,#0]
        0x0000191a:    2000        .       MOVS     r0,#0
        0x0000191c:    f7fffdd4    ....    BL       am_hal_sysctrl_sleep ; 0x14c8
        0x00001920:    f44f6000    O..`    MOV      r0,#0x800
        0x00001924:    490b        .I      LDR      r1,[pc,#44] ; [0x1954] = 0x40010000
        0x00001926:    f8c1009c    ....    STR      r0,[r1,#0x9c]
        0x0000192a:    e00e        ..      B        0x194a ; main + 166
        0x0000192c:    f7fefc68    ..h.    BL       am_bsp_debug_printf_disable ; 0x200
        0x00001930:    f44f6000    O..`    MOV      r0,#0x800
        0x00001934:    4907        .I      LDR      r1,[pc,#28] ; [0x1954] = 0x40010000
        0x00001936:    3194        .1      ADDS     r1,r1,#0x94
        0x00001938:    6008        .`      STR      r0,[r1,#0]
        0x0000193a:    2001        .       MOVS     r0,#1
        0x0000193c:    f7fffdc4    ....    BL       am_hal_sysctrl_sleep ; 0x14c8
        0x00001940:    f44f6000    O..`    MOV      r0,#0x800
        0x00001944:    4903        .I      LDR      r1,[pc,#12] ; [0x1954] = 0x40010000
        0x00001946:    f8c1009c    ....    STR      r0,[r1,#0x9c]
        0x0000194a:    f7fefc03    ....    BL       am_hal_interrupt_master_enable ; 0x154
        0x0000194e:    e7da        ..      B        0x1906 ; main + 98
    $d
        0x00001950:    00001988    ....    DCD    6536
        0x00001954:    40010000    ...@    DCD    1073807360
        0x00001958:    10000000    ....    DCD    268435456
    $t
    i.start_bmi160
    start_bmi160
        0x0000195c:    b510        ..      PUSH     {r4,lr}
        0x0000195e:    2001        .       MOVS     r0,#1
        0x00001960:    f7fff89e    ....    BL       am_hal_iom_enable ; 0xaa0
        0x00001964:    4804        .H      LDR      r0,[pc,#16] ; [0x1978] = 0x1994
        0x00001966:    f7fefccd    ....    BL       am_devices_bmi160_config ; 0x304
        0x0000196a:    2001        .       MOVS     r0,#1
        0x0000196c:    f7fffba8    ....    BL       am_hal_iom_poll_complete ; 0x10c0
        0x00001970:    2001        .       MOVS     r0,#1
        0x00001972:    f7fff851    ..Q.    BL       am_hal_iom_disable ; 0xa18
        0x00001976:    bd10        ..      POP      {r4,pc}
    $d
        0x00001978:    00001994    ....    DCD    6548
    $t
    x$fpl$fpinit
    $v0
    _fp_init
        0x0000197c:    f04f7040    O.@p    MOV      r0,#0x3000000
        0x00001980:    eee10a10    ....    VMSR     FPSCR,r0
    __fplib_config_fpu_vfp
    __fplib_config_pureend_doubles
        0x00001984:    4770        pG      BX       lr
        0x00001986:    0000        ..      MOVS     r0,r0
    $d.realdata
    .constdata
    g_sIOMConfig
        0x00001988:    00000001    ....    DCD    1
        0x0000198c:    00000900    ....    DCD    2304
        0x00001990:    3c000000    ...<    DCD    1006632960
    g_sBMI160
        0x00001994:    00000001    ....    DCD    1
        0x00001998:    00000001    ....    DCD    1
        0x0000199c:    00000007    ....    DCD    7
        0x000019a0:    00000000    ....    DCD    0
        0x000019a4:    00000005    ....    DCD    5
    Region$$Table$$Base
        0x000019a8:    000019c8    ....    DCD    6600
        0x000019ac:    10000000    ....    DCD    268435456
        0x000019b0:    00000024    $...    DCD    36
        0x000019b4:    000000d4    ....    DCD    212
        0x000019b8:    000019ec    ....    DCD    6636
        0x000019bc:    10000024    $...    DCD    268435492
        0x000019c0:    000002cc    ....    DCD    716
        0x000019c4:    000000f0    ....    DCD    240
    Region$$Table$$Limit

** Section #2 'SRAM' (SHT_PROGBITS) [SHF_ALLOC + SHF_WRITE]
    Size   : 36 bytes (alignment 4)
    Address: 0x10000000

    0x10000000:   01 00 00 00 00 00 00 00 00 00 00 00 00 00 00 00    ................
    0x10000010:   00 00 00 00 00 00 00 00 00 00 00 00 00 00 00 00    ................
    0x10000020:   1c 00 00 10                                        ....


** Section #3 'SRAM' (SHT_NOBITS) [SHF_ALLOC + SHF_WRITE]
    Size   : 716 bytes (alignment 8)
    Address: 0x10000024


** Section #4 '.debug_abbrev' (SHT_PROGBITS)
    Size   : 1476 bytes


** Section #5 '.debug_frame' (SHT_PROGBITS)
    Size   : 3068 bytes


** Section #6 '.debug_info' (SHT_PROGBITS)
    Size   : 11668 bytes


** Section #7 '.debug_line' (SHT_PROGBITS)
    Size   : 3928 bytes


** Section #8 '.debug_loc' (SHT_PROGBITS)
    Size   : 1116 bytes


** Section #9 '.debug_macinfo' (SHT_PROGBITS)
    Size   : 8632 bytes


** Section #10 '.debug_pubnames' (SHT_PROGBITS)
    Size   : 942 bytes


** Section #11 '.symtab' (SHT_SYMTAB)
    Size   : 8016 bytes (alignment 4)
    String table #12 '.strtab'
    Last local symbol no. 330

    Symbol table .symtab (500 symbols, 330 local)

      #  Symbol Name                Value      Bind  Sec  Type  Vis  Size
    ========================================================================

      1  $d                         0x00000000   Lc    1   --   De 
      2  $t                         0x00000070   Lc    1   --   De 
      3  $d                         0x00000092   Lc    1   --   De 
      4  $t                         0x00000098   Lc    1   --   De 
      5  $d                         0x000000cc   Lc    1   --   De 
      6  $t                         0x000000d4   Lc    1   --   De 
      7  $d                         0x0000017e   Lc    1   --   De 
      8  $t                         0x0000018c   Lc    1   --   De 
      9  $d                         0x000001ec   Lc    1   --   De 
     10  $t                         0x000001f0   Lc    1   --   De 
     11  $d                         0x000001f8   Lc    1   --   De 
     12  $t                         0x000001fc   Lc    1   --   De 
     13  $d                         0x0000023c   Lc    1   --   De 
     14  $t                         0x00000244   Lc    1   --   De 
     15  $d                         0x00000276   Lc    1   --   De 
     16  $t                         0x00000280   Lc    1   --   De 
     17  $d                         0x000002d6   Lc    1   --   De 
     18  $t                         0x000002dc   Lc    1   --   De 
     19  $d                         0x00000576   Lc    1   --   De 
     20  $t                         0x00000588   Lc    1   --   De 
     21  $d                         0x000005a6   Lc    1   --   De 
     22  $t                         0x000005ae   Lc    1   --   De 
     23  $d                         0x000005d4   Lc    1   --   De 
     24  $t                         0x000005f4   Lc    1   --   De 
     25  $d                         0x00000614   Lc    1   --   De 
     26  $t                         0x00000618   Lc    1   --   De 
     27  $d                         0x00000630   Lc    1   --   De 
     28  $t                         0x00000634   Lc    1   --   De 
     29  $d                         0x00000668   Lc    1   --   De 
     30  $t                         0x0000066c   Lc    1   --   De 
     31  $d                         0x00000850   Lc    1   --   De 
     32  $t                         0x00000854   Lc    1   --   De 
     33  $d                         0x0000096e   Lc    1   --   De 
     34  $t                         0x00000974   Lc    1   --   De 
     35  $d                         0x000009ba   Lc    1   --   De 
     36  $t                         0x000009c0   Lc    1   --   De 
     37  $d                         0x00000a12   Lc    1   --   De 
     38  $t                         0x00000a18   Lc    1   --   De 
     39  $d                         0x00000a96   Lc    1   --   De 
     40  $t                         0x00000aa0   Lc    1   --   De 
     41  $d                         0x00000b08   Lc    1   --   De 
     42  $t                         0x00000b10   Lc    1   --   De 
     43  $d                         0x00000b98   Lc    1   --   De 
     44  $t                         0x00000be0   Lc    1   --   De 
     45  $d                         0x00000c6c   Lc    1   --   De 
     46  $t                         0x00000cb0   Lc    1   --   De 
     47  $d                         0x00000d92   Lc    1   --   De 
     48  $t                         0x00000dc0   Lc    1   --   De 
     49  $d                         0x00000e6c   Lc    1   --   De 
     50  $t                         0x00000e9c   Lc    1   --   De 
     51  $d                         0x00000f7c   Lc    1   --   De 
     52  $t                         0x00000fa8   Lc    1   --   De 
     53  $d                         0x0000109a   Lc    1   --   De 
     54  $t                         0x000010a0   Lc    1   --   De 
     55  $d                         0x0000118c   Lc    1   --   De 
     56  $t                         0x000011b8   Lc    1   --   De 
     57  $d                         0x0000122e   Lc    1   --   De 
     58  $t                         0x00001260   Lc    1   --   De 
     59  $d                         0x0000131c   Lc    1   --   De 
     60  $t                         0x00001348   Lc    1   --   De 
     61  $d                         0x00001360   Lc    1   --   De 
     62  $t                         0x00001364   Lc    1   --   De 
     63  $d                         0x0000139c   Lc    1   --   De 
     64  $t                         0x000013bc   Lc    1   --   De 
     65  $d                         0x000013de   Lc    1   --   De 
     66  $t                         0x000013e8   Lc    1   --   De 
     67  $d                         0x0000143e   Lc    1   --   De 
     68  $t                         0x00001444   Lc    1   --   De 
     69  $d                         0x00001468   Lc    1   --   De 
     70  $t                         0x0000146c   Lc    1   --   De 
     71  $d                         0x00001478   Lc    1   --   De 
     72  $t                         0x0000147c   Lc    1   --   De 
     73  $d                         0x000014a0   Lc    1   --   De 
     74  $t                         0x000014a4   Lc    1   --   De 
     75  $d                         0x000014f2   Lc    1   --   De 
     76  $t                         0x000014fc   Lc    1   --   De 
     77  $d                         0x00001506   Lc    1   --   De 
     78  $t                         0x0000150c   Lc    1   --   De 
     79  $d                         0x00001534   Lc    1   --   De 
     80  $t                         0x00001540   Lc    1   --   De 
     81  $d                         0x00001548   Lc    1   --   De 
     82  $t                         0x0000154c   Lc    1   --   De 
     83  $d                         0x000015be   Lc    1   --   De 
     84  $t                         0x000015c4   Lc    1   --   De 
     85  $d                         0x00001668   Lc    1   --   De 
     86  $t                         0x0000166c   Lc    1   --   De 
     87  $d                         0x0000167a   Lc    1   --   De 
     88  $t                         0x00001680   Lc    1   --   De 
     89  $d                         0x000016ac   Lc    1   --   De 
     90  $t                         0x000016b0   Lc    1   --   De 
     91  $d                         0x000016b6   Lc    1   --   De 
     92  $t                         0x000016bc   Lc    1   --   De 
     93  $d                         0x00001742   Lc    1   --   De 
     94  $t                         0x00001748   Lc    1   --   De 
     95  $d                         0x000017a0   Lc    1   --   De 
     96  $t                         0x000017a8   Lc    1   --   De 
     97  $d                         0x000018a0   Lc    1   --   De 
     98  $t                         0x000018a4   Lc    1   --   De 
     99  $d                         0x00001950   Lc    1   --   De 
    100  $t                         0x0000195c   Lc    1   --   De 
    101  $d                         0x00001978   Lc    1   --   De 
    102  $t                         0x0000197c   Lc    1   --   De 
    103  $d.realdata                0x00001988   Lc    1   --   De 
    104  $d.realdata                0x10000000   Lc    2   --   De 
    105  ../src/bmi160_read.c       0x00000000   Lc  Abs  File  De 
    106  i.am_gpio_isr              0x00000528   Lc    1  Sect  De 
    107  i.am_iomaster0_isr         0x0000154c   Lc    1  Sect  De 
    108  i.am_iomaster1_isr         0x0000156a   Lc    1  Sect  De 
    109  i.configure_bmi160_pins    0x000016bc   Lc    1  Sect  De 
    110  i.data_handler             0x00001748   Lc    1  Sect  De 
    111  i.main                     0x000018a4   Lc    1  Sect  De 
    112  i.start_bmi160             0x0000195c   Lc    1  Sect  De 
    113  .bss                       0x10000024   Lc    3  Sect  De   0x3c
    114  g_psSampleBuffer           0x10000024   Lc    3  Data  De   0x3c
    115  .constdata                 0x00001988   Lc    1  Sect  De   0x20
    116  .data                      0x10000000   Lc    2  Sect  De   0x1
    117  ..\..\..\..\..\utils\am_util_delay.c
                                    0x00000000   Lc  Abs  File  De 
    118  .emb_text                  0x00000138   Lc    1  Sect  De   0x6
    119  $v0                        0x00000138   Lc    1   --   De 
    120  ../../../../../utils/am_util_delay.c
                                    0x00000000   Lc  Abs  File  De 
    121  i.am_util_delay_ms         0x00001588   Lc    1  Sect  De 
    122  i.am_util_delay_us         0x000015a4   Lc    1  Sect  De 
    123  ..\..\..\..\..\utils\am_util_faultisr.c
                                    0x00000000   Lc  Abs  File  De 
    124  .emb_text                  0x00000140   Lc    1  Sect  De   0x14
    125  $v0                        0x00000140   Lc    1   --   De 
    126  ../../../../../utils/am_util_faultisr.c
                                    0x00000000   Lc  Abs  File  De 
    127  i.am_util_faultisr_collect_data
                                    0x000015c4   Lc    1  Sect  De 
    128  ../../../../../utils/am_util_plot.c
                                    0x00000000   Lc  Abs  File  De 
    129  i.am_util_plot_init        0x0000166c   Lc    1  Sect  De 
    130  i.am_util_plot_int         0x00001680   Lc    1  Sect  De 
    131  .data                      0x10000004   Lc    2  Sect  De   0x4
    132  ../../../../../utils/am_util_stdio.c
                                    0x00000000   Lc  Abs  File  De 
    133  i.am_util_stdio_printf_init
                                    0x000016b0   Lc    1  Sect  De 
    134  .data                      0x10000008   Lc    2  Sect  De   0x5
    135  g_bTxtXlate                0x1000000c   Lc    2  Data  De   0x1
    136  ../../../../../devices/am_devices_bmi160.c
                                    0x00000000   Lc  Abs  File  De 
    137  i.am_devices_bmi160_config 0x00000304   Lc    1  Sect  De 
    138  i.am_devices_bmi160_reg_block_read
                                    0x000003ca   Lc    1  Sect  De 
    139  i.am_devices_bmi160_reg_read
                                    0x0000044e   Lc    1  Sect  De 
    140  i.am_devices_bmi160_reg_write
                                    0x00000494   Lc    1  Sect  De 
    141  i.am_devices_bmi160_reset  0x000004e2   Lc    1  Sect  De 
    142  i.am_devices_bmi160_sample_get
                                    0x000004f2   Lc    1  Sect  De 
    143  ../keil/startup_keil.s     0x00000000   Lc  Abs  File  De 
    144  STACK                      0x100000f0   Lc    3  Sect  De   0x200
    145  StackMem                   0x100000f0   Lc    3  Data  De 
    146  HEAP                       0x100000f0   Lc    3  Sect  De 
    147  HeapMem                    0x100000f0   Lc    3  Data  De 
    148  RESET                      0x00000000   Lc    1  Sect  De   0x98
    149  $v0                        0x00000070   Lc    1   --   De 
    150  .text                      0x00000174   Lc    1  Sect  De   0x18
    151  $v0                        0x00000174   Lc    1   --   De 
    152  ../am_hal_global.c         0x00000000   Lc  Abs  File  De 
    153  .data                      0x10000010   Lc    2  Sect  De   0x4
    154  ../am_hal_clkgen.c         0x00000000   Lc  Abs  File  De 
    155  i.am_hal_clkgen_osc_stop   0x00000588   Lc    1  Sect  De 
    156  i.am_hal_clkgen_sysclk_get 0x00000594   Lc    1  Sect  De 
    157  i.am_hal_clkgen_sysclk_select
                                    0x000005f4   Lc    1  Sect  De 
    158  ../am_hal_gpio.c           0x00000000   Lc  Abs  File  De 
    159  i.am_hal_gpio_int_clear    0x00000608   Lc    1  Sect  De 
    160  i.am_hal_gpio_int_enable   0x00000618   Lc    1  Sect  De 
    161  i.am_hal_gpio_int_status_get
                                    0x00000634   Lc    1  Sect  De 
    162  ..\am_hal_interrupt.c      0x00000000   Lc  Abs  File  De 
    163  .emb_text                  0x00000154   Lc    1  Sect  De   0x16
    164  $v0                        0x00000154   Lc    1   --   De 
    165  ../am_hal_interrupt.c      0x00000000   Lc  Abs  File  De 
    166  i.am_hal_interrupt_enable  0x00000974   Lc    1  Sect  De 
    167  ../am_hal_iom.c            0x00000000   Lc  Abs  File  De 
    168  i.am_hal_iom_config        0x000009c0   Lc    1  Sect  De 
    169  i.am_hal_iom_disable       0x00000a18   Lc    1  Sect  De 
    170  i.am_hal_iom_enable        0x00000aa0   Lc    1  Sect  De 
    171  i.am_hal_iom_fifo_read     0x00000b10   Lc    1  Sect  De 
    172  i.am_hal_iom_fifo_write    0x00000be0   Lc    1  Sect  De 
    173  i.am_hal_iom_i2c_read      0x00000cb0   Lc    1  Sect  De 
    174  i.am_hal_iom_i2c_read_nb   0x00000dc0   Lc    1  Sect  De 
    175  i.am_hal_iom_i2c_write     0x00000e9c   Lc    1  Sect  De 
    176  i.am_hal_iom_int_clear     0x00000fa8   Lc    1  Sect  De 
    177  i.am_hal_iom_int_enable    0x00000fb8   Lc    1  Sect  De 
    178  i.am_hal_iom_int_service   0x00000fd0   Lc    1  Sect  De 
    179  i.am_hal_iom_int_status_get
                                    0x000010a0   Lc    1  Sect  De 
    180  i.am_hal_iom_poll_complete 0x000010c0   Lc    1  Sect  De 
    181  i.am_hal_iom_spi_read      0x000010d8   Lc    1  Sect  De 
    182  i.am_hal_iom_spi_read_nb   0x000011b8   Lc    1  Sect  De 
    183  i.am_hal_iom_spi_write     0x00001260   Lc    1  Sect  De 
    184  .bss                       0x10000060   Lc    3  Sect  De   0x20
    185  .data                      0x10000014   Lc    2  Sect  De   0x8
    186  ..\am_hal_itm.c            0x00000000   Lc  Abs  File  De 
    187  .emb_text                  0x0000016c   Lc    1  Sect  De   0x6
    188  $v0                        0x0000016c   Lc    1   --   De 
    189  ../am_hal_itm.c            0x00000000   Lc  Abs  File  De 
    190  i.am_hal_itm_delay_us      0x00001348   Lc    1  Sect  De 
    191  i.am_hal_itm_enable        0x00001364   Lc    1  Sect  De 
    192  i.am_hal_itm_not_busy      0x000013bc   Lc    1  Sect  De 
    193  i.am_hal_itm_print         0x000013e8   Lc    1  Sect  De 
    194  i.am_hal_itm_stimulus_reg_word_write
                                    0x00001444   Lc    1  Sect  De 
    195  i.am_hal_itm_sync_send     0x00001458   Lc    1  Sect  De 
    196  .data                      0x1000001c   Lc    2  Sect  De   0x8
    197  ../am_hal_sysctrl.c        0x00000000   Lc  Abs  File  De 
    198  i.am_hal_sysctrl_sleep     0x000014c8   Lc    1  Sect  De 
    199  ../am_bsp.c                0x00000000   Lc  Abs  File  De 
    200  i.am_bsp_debug_printf_disable
                                    0x00000200   Lc    1  Sect  De 
    201  i.am_bsp_debug_printf_enable
                                    0x00000244   Lc    1  Sect  De 
    202  i.am_bsp_iom_spi_pins_enable
                                    0x00000280   Lc    1  Sect  De 
    203  i.am_bsp_low_power_init    0x000002dc   Lc    1  Sect  De 
    204  ../am_hal_debug.c          0x00000000   Lc  Abs  File  De 
    205  i.am_hal_debug_error       0x00000604   Lc    1  Sect  De 
    206  ../am_hal_i2c_bit_bang.c   0x00000000   Lc  Abs  File  De 
    207  i.am_hal_i2c_bit_bang_receive
                                    0x0000066c   Lc    1  Sect  De 
    208  i.am_hal_i2c_bit_bang_send 0x00000854   Lc    1  Sect  De 
    209  i.i2c_send_byte            0x000017a8   Lc    1  Sect  De 
    210  i2c_send_byte              0x000017a9   Lc    1  Code  De   0xf8
    211  .bss                       0x10000080   Lc    3  Sect  De   0xc
    212  am_hal_i2c_bit_bang_priv   0x10000080   Lc    3  Data  De   0xc
    213  ../am_hal_mcuctrl.c        0x00000000   Lc  Abs  File  De 
    214  i.am_hal_mcuctrl_bandgap_disable
                                    0x0000146c   Lc    1  Sect  De 
    215  i.am_hal_mcuctrl_bucks_enable
                                    0x0000147c   Lc    1  Sect  De 
    216  ../am_hal_rtc.c            0x00000000   Lc  Abs  File  De 
    217  i.am_hal_rtc_osc_disable   0x000014a4   Lc    1  Sect  De 
    218  i.am_hal_rtc_osc_select    0x000014b2   Lc    1  Sect  De 
    219  ../am_hal_tpiu.c           0x00000000   Lc  Abs  File  De 
    220  i.am_hal_tpiu_disable      0x000014fc   Lc    1  Sect  De 
    221  i.am_hal_tpiu_enable       0x0000150c   Lc    1  Sect  De 
    222  ../am_hal_vcomp.c          0x00000000   Lc  Abs  File  De 
    223  i.am_hal_vcomp_disable     0x00001540   Lc    1  Sect  De 
    224  dc.s                       0x00000000   Lc  Abs  File  De 
    225  ../clib/heapaux.c          0x00000000   Lc  Abs  File  De 
    226  .text                      0x0000018c   Lc    1  Sect  De 
    227  ../clib/angel/startup.s    0x00000000   Lc  Abs  File  De 
    228  !!!main                    0x00000098   Lc    1  Sect  De   0x8
    229  ../fplib/d2f.s             0x00000000   Lc  Abs  File  De 
    230  ../clib/angel/kernel.s     0x00000000   Lc  Abs  File  De 
    231  .ARM.Collect$$rtentry$$00000000
                                    0x00000118   Lc    1  Sect  De 
    232  ../fplib/dnaninf.s         0x00000000   Lc  Abs  File  De 
    233  ../fplib/fretinf.s         0x00000000   Lc  Abs  File  De 
    234  ../fplib/usenofp.s         0x00000000   Lc  Abs  File  De 
    235  ../clib/angel/kernel.s     0x00000000   Lc  Abs  File  De 
    236  .ARM.Collect$$rtentry$$00000002
                                    0x00000118   Lc    1  Sect  De 
    237  .ARM.Collect$$rtentry$$00000009
                                    0x0000011e   Lc    1  Sect  De 
    238  .ARM.Collect$$rtentry$$0000000A
                                    0x0000011e   Lc    1  Sect  De   0x4
    239  .ARM.Collect$$rtentry$$0000000C
                                    0x00000122   Lc    1  Sect  De 
    240  .ARM.Collect$$rtentry$$0000000D
                                    0x00000122   Lc    1  Sect  De   0x8
    241  ../clib/angel/kernel.s     0x00000000   Lc  Abs  File  De 
    242  .ARM.Collect$$rtentry$$00000004
                                    0x00000118   Lc    1  Sect  De   0x6
    243  ../clib/angel/sys.s        0x00000000   Lc  Abs  File  De 
    244  .text                      0x00000192   Lc    1  Sect  De   0x4a
    245  ../clib/stdlib.c           0x00000000   Lc  Abs  File  De 
    246  .text                      0x000001dc   Lc    1  Sect  De 
    247  ../clib/angel/boardlib.s   0x00000000   Lc  Abs  File  De 
    248  ../clib/angel/boardlib.s   0x00000000   Lc  Abs  File  De 
    249  ../clib/angel/boardlib.s   0x00000000   Lc  Abs  File  De 
    250  ../clib/libinit.s          0x00000000   Lc  Abs  File  De 
    251  .ARM.Collect$$libinit$$00000000
                                    0x0000010c   Lc    1  Sect  De   0x2
    252  ../clib/angel/sys.s        0x00000000   Lc  Abs  File  De 
    253  .text                      0x000001e8   Lc    1  Sect  De   0x8
    254  .bss                       0x1000008c   Lc    3  Sect  De   0x60
    255  ../clib/angel/kernel.s     0x00000000   Lc  Abs  File  De 
    256  .ARM.Collect$$rtexit$$00000000
                                    0x0000012a   Lc    1  Sect  De   0x2
    257  ../clib/libinit.s          0x00000000   Lc  Abs  File  De 
    258  .ARM.Collect$$libinit$$00000001
                                    0x0000010e   Lc    1  Sect  De   0x4
    259  .ARM.Collect$$libinit$$00000004
                                    0x00000112   Lc    1  Sect  De 
    260  .ARM.Collect$$libinit$$0000000A
                                    0x00000112   Lc    1  Sect  De 
    261  .ARM.Collect$$libinit$$0000000C
                                    0x00000112   Lc    1  Sect  De 
    262  .ARM.Collect$$libinit$$0000000E
                                    0x00000112   Lc    1  Sect  De 
    263  .ARM.Collect$$libinit$$00000011
                                    0x00000112   Lc    1  Sect  De 
    264  .ARM.Collect$$libinit$$00000013
                                    0x00000112   Lc    1  Sect  De 
    265  .ARM.Collect$$libinit$$00000015
                                    0x00000112   Lc    1  Sect  De 
    266  .ARM.Collect$$libinit$$00000017
                                    0x00000112   Lc    1  Sect  De 
    267  .ARM.Collect$$libinit$$00000019
                                    0x00000112   Lc    1  Sect  De 
    268  .ARM.Collect$$libinit$$0000001B
                                    0x00000112   Lc    1  Sect  De 
    269  .ARM.Collect$$libinit$$0000001D
                                    0x00000112   Lc    1  Sect  De 
    270  .ARM.Collect$$libinit$$0000001F
                                    0x00000112   Lc    1  Sect  De 
    271  .ARM.Collect$$libinit$$00000021
                                    0x00000112   Lc    1  Sect  De 
    272  .ARM.Collect$$libinit$$00000023
                                    0x00000112   Lc    1  Sect  De 
    273  .ARM.Collect$$libinit$$00000025
                                    0x00000112   Lc    1  Sect  De 
    274  .ARM.Collect$$libinit$$0000002C
                                    0x00000112   Lc    1  Sect  De 
    275  .ARM.Collect$$libinit$$0000002E
                                    0x00000112   Lc    1  Sect  De 
    276  .ARM.Collect$$libinit$$00000030
                                    0x00000112   Lc    1  Sect  De 
    277  .ARM.Collect$$libinit$$00000032
                                    0x00000112   Lc    1  Sect  De 
    278  .ARM.Collect$$libinit$$00000033
                                    0x00000112   Lc    1  Sect  De   0x2
    279  ../clib/angel/kernel.s     0x00000000   Lc  Abs  File  De 
    280  .ARM.Collect$$rtexit$$00000002
                                    0x0000012c   Lc    1  Sect  De 
    281  .ARM.Collect$$rtexit$$00000003
                                    0x0000012c   Lc    1  Sect  De   0x4
    282  .ARM.Collect$$rtexit$$00000004
                                    0x00000130   Lc    1  Sect  De   0x6
    283  ../clib/armsys.c           0x00000000   Lc  Abs  File  De 
    284  ../clib/armsys.c           0x00000000   Lc  Abs  File  De 
    285  ../fplib/fpinit.s          0x00000000   Lc  Abs  File  De 
    286  x$fpl$fpinit               0x0000197c   Lc    1  Sect  De   0xa
    287  $v0                        0x0000197c   Lc    1   --   De 
    288  ../clib/angel/sysapp.c     0x00000000   Lc  Abs  File  De 
    289  .text                      0x000001f0   Lc    1  Sect  De 
    290  ../clib/angel/boardlib.s   0x00000000   Lc  Abs  File  De 
    291  ../clib/armsys.c           0x00000000   Lc  Abs  File  De 
    292  ../clib/armsys.c           0x00000000   Lc  Abs  File  De 
    293  ../clib/libinit.s          0x00000000   Lc  Abs  File  De 
    294  .ARM.Collect$$libshutdown$$00000000
                                    0x00000114   Lc    1  Sect  De   0x2
    295  ../clib/angel/sysapp.c     0x00000000   Lc  Abs  File  De 
    296  ../clib/angel/sys.s        0x00000000   Lc  Abs  File  De 
    297  .text                      0x000001fc   Lc    1  Sect  De   0x2
    298  ../clib/angel/sys.s        0x00000000   Lc  Abs  File  De 
    299  .text                      0x000001fe   Lc    1  Sect  De 
    300  ../clib/heapalloc.c        0x00000000   Lc  Abs  File  De 
    301  ../clib/signal.c           0x00000000   Lc  Abs  File  De 
    302  ../clib/signal.c           0x00000000   Lc  Abs  File  De 
    303  ../clib/libinit.s          0x00000000   Lc  Abs  File  De 
    304  .ARM.Collect$$libshutdown$$00000003
                                    0x00000116   Lc    1  Sect  De 
    305  .ARM.Collect$$libshutdown$$00000006
                                    0x00000116   Lc    1  Sect  De 
    306  .ARM.Collect$$libshutdown$$00000009
                                    0x00000116   Lc    1  Sect  De 
    307  .ARM.Collect$$libshutdown$$0000000B
                                    0x00000116   Lc    1  Sect  De 
    308  .ARM.Collect$$libshutdown$$0000000E
                                    0x00000116   Lc    1  Sect  De 
    309  .ARM.Collect$$libshutdown$$0000000F
                                    0x00000116   Lc    1  Sect  De   0x2
    310  ../clib/angel/rt.s         0x00000000   Lc  Abs  File  De 
    311  ../clib/signal.c           0x00000000   Lc  Abs  File  De 
    312  ../clib/signal.c           0x00000000   Lc  Abs  File  De 
    313  ../clib/signal.c           0x00000000   Lc  Abs  File  De 
    314  ../clib/signal.c           0x00000000   Lc  Abs  File  De 
    315  ../clib/angel/sysapp.c     0x00000000   Lc  Abs  File  De 
    316  ../clib/signal.s           0x00000000   Lc  Abs  File  De 
    317  ../clib/signal.c           0x00000000   Lc  Abs  File  De 
    318  ../clib/signal.c           0x00000000   Lc  Abs  File  De 
    319  ../clib/signal.c           0x00000000   Lc  Abs  File  De 
    320  ../clib/signal.c           0x00000000   Lc  Abs  File  De 
    321  ../clib/signal.c           0x00000000   Lc  Abs  File  De 
    322  ../clib/signal.c           0x00000000   Lc  Abs  File  De 
    323  ../clib/signal.c           0x00000000   Lc  Abs  File  De 
    324  ../clib/signal.c           0x00000000   Lc  Abs  File  De 
    325  ../clib/angel/scatter.s    0x00000000   Lc  Abs  File  De 
    326  !!!scatter                 0x000000a0   Lc    1  Sect  De   0x34
    327  ../clib/angel/handlers.s   0x00000000   Lc  Abs  File  De 
    328  !!handler_copy             0x000000d4   Lc    1  Sect  De   0x1a
    329  ../clib/angel/handlers.s   0x00000000   Lc  Abs  File  De 
    330  !!handler_zi               0x000000f0   Lc    1  Sect  De   0x1c
    331  BuildAttributes$$THM_ISAv4$E$P$D$K$B$S$7EM$VFPi3$EXTD16$VFPS$VFMA$PE$A:L22UL41UL21$X:L11$S22US41US21$IEEE1$IW$USESV6$~STKCKD$USESV7$~SHL$OTIME$ROPI$EBA8$UX$STANDARDLIB$REQ8$PRES8$EABIv2
                                    0x00000000   Gb  Abs   --   Hi 
    332  __ARM_use_no_argv          0x00000000   Gb  Abs   --   Hi 
    333  __Vectors                  0x00000000   Gb    1  Data  Hi 
    334  Reset_Handler              0x00000071   Wk    1  Code  Hi   0x14
    335  am_nmi_isr                 0x00000085   Wk    1  Code  Hi   0x2
    336  am_memmanage_isr           0x00000089   Wk    1  Code  Hi   0x2
    337  am_mpufault_isr            0x0000008b   Wk    1  Code  Hi   0x2
    338  am_busfault_isr            0x0000008d   Wk    1  Code  Hi   0x2
    339  am_usagefault_isr          0x0000008f   Wk    1  Code  Hi   0x2
    340  am_adc_isr                 0x00000091   Wk    1  Code  Hi 
    341  am_brownout_isr            0x00000091   Wk    1  Code  Hi 
    342  am_clkgen_isr              0x00000091   Wk    1  Code  Hi 
    343  am_ctimer_isr              0x00000091   Wk    1  Code  Hi 
    344  am_debugmon_isr            0x00000091   Wk    1  Code  Hi 
    345  am_ioslave_acc_isr         0x00000091   Wk    1  Code  Hi 
    346  am_ioslave_ios_isr         0x00000091   Wk    1  Code  Hi 
    347  am_pendsv_isr              0x00000091   Wk    1  Code  Hi 
    348  am_svcall_isr              0x00000091   Wk    1  Code  Hi 
    349  am_systick_isr             0x00000091   Wk    1  Code  Hi 
    350  am_uart_isr                0x00000091   Wk    1  Code  Hi 
    351  am_vcomp_isr               0x00000091   Wk    1  Code  Hi 
    352  am_watchdog_isr            0x00000091   Wk    1  Code  Hi 
    353  __main                     0x00000099   Gb    1  Code  Hi   0x8
    354  __scatterload              0x000000a1   Gb    1  Code  Hi 
    355  __scatterload_rt2          0x000000a1   Gb    1  Code  Hi   0x2c
    356  __scatterload_rt2_thumb_only
                                    0x000000a1   Gb    1  Code  Hi 
    357  __scatterload_null         0x000000af   Gb    1  Code  Hi 
    358  __scatterload_copy         0x000000d5   Gb    1  Code  Hi   0x1a
    359  __scatterload_zeroinit     0x000000f1   Gb    1  Code  Hi   0x1c
    360  __rt_lib_init              0x0000010d   Gb    1  Code  De 
    361  __rt_lib_init_fp_1         0x0000010f   Gb    1  Code  Hi 
    362  __rt_lib_init_alloca_1     0x00000113   Gb    1  Code  Hi 
    363  __rt_lib_init_argv_1       0x00000113   Gb    1  Code  Hi 
    364  __rt_lib_init_atexit_1     0x00000113   Gb    1  Code  Hi 
    365  __rt_lib_init_clock_1      0x00000113   Gb    1  Code  Hi 
    366  __rt_lib_init_cpp_1        0x00000113   Gb    1  Code  Hi 
    367  __rt_lib_init_exceptions_1 0x00000113   Gb    1  Code  Hi 
    368  __rt_lib_init_fp_trap_1    0x00000113   Gb    1  Code  Hi 
    369  __rt_lib_init_getenv_1     0x00000113   Gb    1  Code  Hi 
    370  __rt_lib_init_heap_1       0x00000113   Gb    1  Code  Hi 
    371  __rt_lib_init_lc_collate_1 0x00000113   Gb    1  Code  Hi 
    372  __rt_lib_init_lc_ctype_1   0x00000113   Gb    1  Code  Hi 
    373  __rt_lib_init_lc_monetary_1
                                    0x00000113   Gb    1  Code  Hi 
    374  __rt_lib_init_lc_numeric_1 0x00000113   Gb    1  Code  Hi 
    375  __rt_lib_init_lc_time_1    0x00000113   Gb    1  Code  Hi 
    376  __rt_lib_init_preinit_1    0x00000113   Gb    1  Code  Hi 
    377  __rt_lib_init_rand_1       0x00000113   Gb    1  Code  Hi 
    378  __rt_lib_init_return       0x00000113   Gb    1  Code  Hi 
    379  __rt_lib_init_signal_1     0x00000113   Gb    1  Code  Hi 
    380  __rt_lib_init_stdio_1      0x00000113   Gb    1  Code  Hi 
    381  __rt_lib_init_user_alloc_1 0x00000113   Gb    1  Code  Hi 
    382  __rt_lib_shutdown          0x00000115   Gb    1  Code  De 
    383  __rt_lib_shutdown_fp_trap_1
                                    0x00000117   Gb    1  Code  Hi 
    384  __rt_lib_shutdown_heap_1   0x00000117   Gb    1  Code  Hi 
    385  __rt_lib_shutdown_return   0x00000117   Gb    1  Code  Hi 
    386  __rt_lib_shutdown_signal_1 0x00000117   Gb    1  Code  Hi 
    387  __rt_lib_shutdown_stdio_1  0x00000117   Gb    1  Code  Hi 
    388  __rt_lib_shutdown_user_alloc_1
                                    0x00000117   Gb    1  Code  Hi 
    389  __rt_entry                 0x00000119   Gb    1  Code  Hi 
    390  __rt_entry_presh_1         0x00000119   Gb    1  Code  Hi 
    391  __rt_entry_sh              0x00000119   Gb    1  Code  Hi 
    392  __rt_entry_li              0x0000011f   Gb    1  Code  Hi 
    393  __rt_entry_postsh_1        0x0000011f   Gb    1  Code  Hi 
    394  __rt_entry_main            0x00000123   Gb    1  Code  Hi 
    395  __rt_entry_postli_1        0x00000123   Gb    1  Code  Hi 
    396  __rt_exit                  0x0000012b   Gb    1  Code  De 
    397  __rt_exit_ls               0x0000012d   Gb    1  Code  Hi 
    398  __rt_exit_prels_1          0x0000012d   Gb    1  Code  Hi 
    399  __rt_exit_exit             0x00000131   Gb    1  Code  Hi 
    400  am_util_delay_cycles       0x00000139   Gb    1  Code  Hi   0x6
    401  am_fault_isr               0x00000141   Gb    1  Code  Hi   0xc
    402  getStackedReg              0x0000014d   Gb    1  Code  Hi   0x8
    403  am_hal_interrupt_master_enable
                                    0x00000155   Gb    1  Code  Hi   0x8
    404  am_hal_interrupt_master_disable
                                    0x0000015d   Gb    1  Code  Hi   0x8
    405  am_hal_interrupt_master_set
                                    0x00000165   Gb    1  Code  Hi   0x6
    406  __asm___12_am_hal_itm_c_0782d9ac__am_itm_delay_cycles
                                    0x0000016d   Gb    1  Code  Hi   0x6
    407  __user_initial_stackheap   0x00000175   Gb    1  Code  Hi   0xa
    408  __use_two_region_memory    0x0000018d   Gb    1  Code  Hi   0x2
    409  __rt_heap_escrow$2region   0x0000018f   Gb    1  Code  De   0x2
    410  __rt_heap_expand$2region   0x00000191   Gb    1  Code  De   0x2
    411  __user_setup_stackheap     0x00000193   Gb    1  Code  De   0x4a
    412  exit                       0x000001dd   Gb    1  Code  De   0xc
    413  __user_libspace            0x000001e9   Wk    1  Code  De   0x8
    414  __user_perproc_libspace    0x000001e9   Wk    1  Code  De 
    415  __user_perthread_libspace  0x000001e9   Wk    1  Code  De 
    416  _sys_exit                  0x000001f1   Gb    1  Code  De   0x8
    417  __I$use$semihosting        0x000001fd   Gb    1  Code  Hi 
    418  __use_no_semihosting_swi   0x000001fd   Gb    1  Code  Hi   0x2
    419  __semihosting_library_function
                                    0x000001ff   Gb    1  Code  Hi 
    420  am_bsp_debug_printf_disable
                                    0x00000201   Gb    1  Code  Hi   0x3c
    421  am_bsp_debug_printf_enable 0x00000245   Gb    1  Code  Hi   0x32
    422  am_bsp_iom_spi_pins_enable 0x00000281   Gb    1  Code  Hi   0x56
    423  am_bsp_low_power_init      0x000002dd   Gb    1  Code  Hi   0x28
    424  am_devices_bmi160_config   0x00000305   Gb    1  Code  Hi   0xc6
    425  am_devices_bmi160_reg_block_read
                                    0x000003cb   Gb    1  Code  Hi   0x84
    426  am_devices_bmi160_reg_read 0x0000044f   Gb    1  Code  Hi   0x46
    427  am_devices_bmi160_reg_write
                                    0x00000495   Gb    1  Code  Hi   0x4e
    428  am_devices_bmi160_reset    0x000004e3   Gb    1  Code  Hi   0x10
    429  am_devices_bmi160_sample_get
                                    0x000004f3   Gb    1  Code  Hi   0x34
    430  am_gpio_isr                0x00000529   Gb    1  Code  Hi   0x4e
    431  am_hal_clkgen_osc_stop     0x00000589   Gb    1  Code  Hi   0xc
    432  am_hal_clkgen_sysclk_get   0x00000595   Gb    1  Code  Hi   0x40
    433  am_hal_clkgen_sysclk_select
                                    0x000005f5   Gb    1  Code  Hi   0x10
    434  am_hal_debug_error         0x00000605   Wk    1  Code  Hi   0x2
    435  am_hal_gpio_int_clear      0x00000609   Gb    1  Code  Hi   0xc
    436  am_hal_gpio_int_enable     0x00000619   Gb    1  Code  Hi   0x18
    437  am_hal_gpio_int_status_get 0x00000635   Gb    1  Code  Hi   0x34
    438  am_hal_i2c_bit_bang_receive
                                    0x0000066d   Gb    1  Code  Hi   0x1e4
    439  am_hal_i2c_bit_bang_send   0x00000855   Gb    1  Code  Hi   0x11a
    440  am_hal_interrupt_enable    0x00000975   Gb    1  Code  Hi   0x46
    441  am_hal_iom_config          0x000009c1   Gb    1  Code  Hi   0x52
    442  am_hal_iom_disable         0x00000a19   Gb    1  Code  Hi   0x7e
    443  am_hal_iom_enable          0x00000aa1   Gb    1  Code  Hi   0x68
    444  am_hal_iom_fifo_read       0x00000b11   Gb    1  Code  Hi   0x88
    445  am_hal_iom_fifo_write      0x00000be1   Gb    1  Code  Hi   0x8c
    446  am_hal_iom_i2c_read        0x00000cb1   Gb    1  Code  Hi   0xe2
    447  am_hal_iom_i2c_read_nb     0x00000dc1   Gb    1  Code  Hi   0xac
    448  am_hal_iom_i2c_write       0x00000e9d   Gb    1  Code  Hi   0xe0
    449  am_hal_iom_int_clear       0x00000fa9   Gb    1  Code  Hi   0x10
    450  am_hal_iom_int_enable      0x00000fb9   Gb    1  Code  Hi   0x16
    451  am_hal_iom_int_service     0x00000fd1   Gb    1  Code  Hi   0xca
    452  am_hal_iom_int_status_get  0x000010a1   Gb    1  Code  Hi   0x20
    453  am_hal_iom_poll_complete   0x000010c1   Gb    1  Code  Hi   0x18
    454  am_hal_iom_spi_read        0x000010d9   Gb    1  Code  Hi   0xb4
    455  am_hal_iom_spi_read_nb     0x000011b9   Gb    1  Code  Hi   0x76
    456  am_hal_iom_spi_write       0x00001261   Gb    1  Code  Hi   0xbc
    457  am_hal_itm_delay_us        0x00001349   Gb    1  Code  Hi   0x18
    458  am_hal_itm_enable          0x00001365   Gb    1  Code  Hi   0x38
    459  am_hal_itm_not_busy        0x000013bd   Gb    1  Code  Hi   0x22
    460  am_hal_itm_print           0x000013e9   Gb    1  Code  Hi   0x56
    461  am_hal_itm_stimulus_reg_word_write
                                    0x00001445   Gb    1  Code  Hi   0x12
    462  am_hal_itm_sync_send       0x00001459   Gb    1  Code  Hi   0x10
    463  am_hal_mcuctrl_bandgap_disable
                                    0x0000146d   Gb    1  Code  Hi   0xc
    464  am_hal_mcuctrl_bucks_enable
                                    0x0000147d   Gb    1  Code  Hi   0x24
    465  am_hal_rtc_osc_disable     0x000014a5   Gb    1  Code  Hi   0xe
    466  am_hal_rtc_osc_select      0x000014b3   Gb    1  Code  Hi   0x16
    467  am_hal_sysctrl_sleep       0x000014c9   Gb    1  Code  Hi   0x2a
    468  am_hal_tpiu_disable        0x000014fd   Gb    1  Code  Hi   0xa
    469  am_hal_tpiu_enable         0x0000150d   Gb    1  Code  Hi   0x28
    470  am_hal_vcomp_disable       0x00001541   Gb    1  Code  Hi   0x8
    471  am_iomaster0_isr           0x0000154d   Gb    1  Code  Hi   0x1e
    472  am_iomaster1_isr           0x0000156b   Gb    1  Code  Hi   0x1e
    473  am_util_delay_ms           0x00001589   Gb    1  Code  Hi   0x1c
    474  am_util_delay_us           0x000015a5   Gb    1  Code  Hi   0x1a
    475  am_util_faultisr_collect_data
                                    0x000015c5   Gb    1  Code  Hi   0xa4
    476  am_util_plot_init          0x0000166d   Gb    1  Code  Hi   0xe
    477  am_util_plot_int           0x00001681   Gb    1  Code  Hi   0x2c
    478  am_util_stdio_printf_init  0x000016b1   Gb    1  Code  Hi   0x6
    479  configure_bmi160_pins      0x000016bd   Gb    1  Code  Hi   0x86
    480  data_handler               0x00001749   Gb    1  Code  Hi   0x58
    481  main                       0x000018a5   Gb    1  Code  Hi   0xac
    482  start_bmi160               0x0000195d   Gb    1  Code  Hi   0x1c
    483  _fp_init                   0x0000197d   Gb    1  Code  De   0xa
    484  __fplib_config_fpu_vfp     0x00001985   Gb    1  Code  De 
    485  __fplib_config_pureend_doubles
                                    0x00001985   Gb    1  Code  De 
    486  g_sIOMConfig               0x00001988   Gb    1  Data  Hi   0xc
    487  g_sBMI160                  0x00001994   Gb    1  Data  Hi   0x14
    488  Region$$Table$$Base        0x000019a8   Gb    1   --   Hi 
    489  Region$$Table$$Limit       0x000019c8   Gb    1   --   Hi 
    490  g_bIOMIdle                 0x10000000   Gb    2  Data  Hi   0x1
    491  g_ui32Sync                 0x10000004   Gb    2  Data  Hi   0x4
    492  g_pfnCharPrint             0x10000008   Gb    2  Data  Hi   0x4
    493  g_ui32HALflags             0x10000010   Gb    2  Data  Hi   0x4
    494  g_ui32Mod0Interface        0x10000014   Gb    2  Data  Hi   0x4
    495  g_ui32Mod1Interface        0x10000018   Gb    2  Data  Hi   0x4
    496  g_am_hal_itm_print_registers
                                    0x1000001c   Gb    2  Data  Hi   0x4
    497  g_pui32StimReg             0x10000020   Gb    2  Data  Hi   0x4
    498  g_psIOMBuffers             0x10000060   Gb    3  Data  Hi   0x20
    499  __libspace_start           0x1000008c   Gb    3  Data  De   0x60
    500  __temporary_stack_top$libspace
                                    0x100000ec   Gb    3  Data  De 


** Section #12 '.strtab' (SHT_STRTAB)
    Size   : 7756 bytes

            #  Offset String
        ====================================

            1      1: $d
            2      4: $t
            3      7: $d.realdata
            4     19: ../src/bmi160_read.c
            5     40: i.am_gpio_isr
            6     54: i.am_iomaster0_isr
            7     73: i.am_iomaster1_isr
            8     92: i.configure_bmi160_pins
            9    116: i.data_handler
           10    131: i.main
           11    138: i.start_bmi160
           12    153: .bss
           13    158: g_psSampleBuffer
           14    175: .constdata
           15    186: .data
           16    192: ..\..\..\..\..\utils\am_util_delay.c
           17    229: .emb_text
           18    239: $v0
           19    243: ../../../../../utils/am_util_delay.c
           20    280: i.am_util_delay_ms
           21    299: i.am_util_delay_us
           22    318: ..\..\..\..\..\utils\am_util_faultisr.c
           23    358: ../../../../../utils/am_util_faultisr.c
           24    398: i.am_util_faultisr_collect_data
           25    430: ../../../../../utils/am_util_plot.c
           26    466: i.am_util_plot_init
           27    486: i.am_util_plot_int
           28    505: ../../../../../utils/am_util_stdio.c
           29    542: i.am_util_stdio_printf_init
           30    570: g_bTxtXlate
           31    582: ../../../../../devices/am_devices_bmi160.c
           32    625: i.am_devices_bmi160_config
           33    652: i.am_devices_bmi160_reg_block_read
           34    687: i.am_devices_bmi160_reg_read
           35    716: i.am_devices_bmi160_reg_write
           36    746: i.am_devices_bmi160_reset
           37    772: i.am_devices_bmi160_sample_get
           38    803: ../keil/startup_keil.s
           39    826: STACK
           40    832: StackMem
           41    841: HEAP
           42    846: HeapMem
           43    854: RESET
           44    860: .text
           45    866: ../am_hal_global.c
           46    885: ../am_hal_clkgen.c
           47    904: i.am_hal_clkgen_osc_stop
           48    929: i.am_hal_clkgen_sysclk_get
           49    956: i.am_hal_clkgen_sysclk_select
           50    986: ../am_hal_gpio.c
           51   1003: i.am_hal_gpio_int_clear
           52   1027: i.am_hal_gpio_int_enable
           53   1052: i.am_hal_gpio_int_status_get
           54   1081: ..\am_hal_interrupt.c
           55   1103: ../am_hal_interrupt.c
           56   1125: i.am_hal_interrupt_enable
           57   1151: ../am_hal_iom.c
           58   1167: i.am_hal_iom_config
           59   1187: i.am_hal_iom_disable
           60   1208: i.am_hal_iom_enable
           61   1228: i.am_hal_iom_fifo_read
           62   1251: i.am_hal_iom_fifo_write
           63   1275: i.am_hal_iom_i2c_read
           64   1297: i.am_hal_iom_i2c_read_nb
           65   1322: i.am_hal_iom_i2c_write
           66   1345: i.am_hal_iom_int_clear
           67   1368: i.am_hal_iom_int_enable
           68   1392: i.am_hal_iom_int_service
           69   1417: i.am_hal_iom_int_status_get
           70   1445: i.am_hal_iom_poll_complete
           71   1472: i.am_hal_iom_spi_read
           72   1494: i.am_hal_iom_spi_read_nb
           73   1519: i.am_hal_iom_spi_write
           74   1542: ..\am_hal_itm.c
           75   1558: ../am_hal_itm.c
           76   1574: i.am_hal_itm_delay_us
           77   1596: i.am_hal_itm_enable
           78   1616: i.am_hal_itm_not_busy
           79   1638: i.am_hal_itm_print
           80   1657: i.am_hal_itm_stimulus_reg_word_write
           81   1694: i.am_hal_itm_sync_send
           82   1717: ../am_hal_sysctrl.c
           83   1737: i.am_hal_sysctrl_sleep
           84   1760: ../am_bsp.c
           85   1772: i.am_bsp_debug_printf_disable
           86   1802: i.am_bsp_debug_printf_enable
           87   1831: i.am_bsp_iom_spi_pins_enable
           88   1860: i.am_bsp_low_power_init
           89   1884: ../am_hal_debug.c
           90   1902: i.am_hal_debug_error
           91   1923: ../am_hal_i2c_bit_bang.c
           92   1948: i.am_hal_i2c_bit_bang_receive
           93   1978: i.am_hal_i2c_bit_bang_send
           94   2005: i.i2c_send_byte
           95   2021: i2c_send_byte
           96   2035: am_hal_i2c_bit_bang_priv
           97   2060: ../am_hal_mcuctrl.c
           98   2080: i.am_hal_mcuctrl_bandgap_disable
           99   2113: i.am_hal_mcuctrl_bucks_enable
          100   2143: ../am_hal_rtc.c
          101   2159: i.am_hal_rtc_osc_disable
          102   2184: i.am_hal_rtc_osc_select
          103   2208: ../am_hal_tpiu.c
          104   2225: i.am_hal_tpiu_disable
          105   2247: i.am_hal_tpiu_enable
          106   2268: ../am_hal_vcomp.c
          107   2286: i.am_hal_vcomp_disable
          108   2309: dc.s
          109   2314: ../clib/heapaux.c
          110   2332: ../clib/angel/startup.s
          111   2356: !!!main
          112   2364: ../fplib/d2f.s
          113   2379: ../clib/angel/kernel.s
          114   2402: .ARM.Collect$$rtentry$$00000000
          115   2434: ../fplib/dnaninf.s
          116   2453: ../fplib/fretinf.s
          117   2472: ../fplib/usenofp.s
          118   2491: .ARM.Collect$$rtentry$$00000002
          119   2523: .ARM.Collect$$rtentry$$00000009
          120   2555: .ARM.Collect$$rtentry$$0000000A
          121   2587: .ARM.Collect$$rtentry$$0000000C
          122   2619: .ARM.Collect$$rtentry$$0000000D
          123   2651: .ARM.Collect$$rtentry$$00000004
          124   2683: ../clib/angel/sys.s
          125   2703: ../clib/stdlib.c
          126   2720: ../clib/angel/boardlib.s
          127   2745: ../clib/libinit.s
          128   2763: .ARM.Collect$$libinit$$00000000
          129   2795: .ARM.Collect$$rtexit$$00000000
          130   2826: .ARM.Collect$$libinit$$00000001
          131   2858: .ARM.Collect$$libinit$$00000004
          132   2890: .ARM.Collect$$libinit$$0000000A
          133   2922: .ARM.Collect$$libinit$$0000000C
          134   2954: .ARM.Collect$$libinit$$0000000E
          135   2986: .ARM.Collect$$libinit$$00000011
          136   3018: .ARM.Collect$$libinit$$00000013
          137   3050: .ARM.Collect$$libinit$$00000015
          138   3082: .ARM.Collect$$libinit$$00000017
          139   3114: .ARM.Collect$$libinit$$00000019
          140   3146: .ARM.Collect$$libinit$$0000001B
          141   3178: .ARM.Collect$$libinit$$0000001D
          142   3210: .ARM.Collect$$libinit$$0000001F
          143   3242: .ARM.Collect$$libinit$$00000021
          144   3274: .ARM.Collect$$libinit$$00000023
          145   3306: .ARM.Collect$$libinit$$00000025
          146   3338: .ARM.Collect$$libinit$$0000002C
          147   3370: .ARM.Collect$$libinit$$0000002E
          148   3402: .ARM.Collect$$libinit$$00000030
          149   3434: .ARM.Collect$$libinit$$00000032
          150   3466: .ARM.Collect$$libinit$$00000033
          151   3498: .ARM.Collect$$rtexit$$00000002
          152   3529: .ARM.Collect$$rtexit$$00000003
          153   3560: .ARM.Collect$$rtexit$$00000004
          154   3591: ../clib/armsys.c
          155   3608: ../fplib/fpinit.s
          156   3626: x$fpl$fpinit
          157   3639: ../clib/angel/sysapp.c
          158   3662: .ARM.Collect$$libshutdown$$00000000
          159   3698: ../clib/heapalloc.c
          160   3718: ../clib/signal.c
          161   3735: .ARM.Collect$$libshutdown$$00000003
          162   3771: .ARM.Collect$$libshutdown$$00000006
          163   3807: .ARM.Collect$$libshutdown$$00000009
          164   3843: .ARM.Collect$$libshutdown$$0000000B
          165   3879: .ARM.Collect$$libshutdown$$0000000E
          166   3915: .ARM.Collect$$libshutdown$$0000000F
          167   3951: ../clib/angel/rt.s
          168   3970: ../clib/signal.s
          169   3987: ../clib/angel/scatter.s
          170   4011: !!!scatter
          171   4022: ../clib/angel/handlers.s
          172   4047: !!handler_copy
          173   4062: !!handler_zi
          174   4075: BuildAttributes$$THM_ISAv4$E$P$D$K$B$S$7EM$VFPi3$EXTD16$VFPS$VFMA$PE$A:L22UL41UL21$X:L11$S22US41US21$IEEE1$IW$USESV6$~STKCKD$USESV7$~SHL$OTIME$ROPI$EBA8$UX$STANDARDLIB$REQ8$PRES8$EABIv2
          175   4261: __ARM_use_no_argv
          176   4279: __Vectors
          177   4289: Reset_Handler
          178   4303: am_nmi_isr
          179   4314: am_memmanage_isr
          180   4331: am_mpufault_isr
          181   4347: am_busfault_isr
          182   4363: am_usagefault_isr
          183   4381: am_adc_isr
          184   4392: am_brownout_isr
          185   4408: am_clkgen_isr
          186   4422: am_ctimer_isr
          187   4436: am_debugmon_isr
          188   4452: am_ioslave_acc_isr
          189   4471: am_ioslave_ios_isr
          190   4490: am_pendsv_isr
          191   4504: am_svcall_isr
          192   4518: am_systick_isr
          193   4533: am_uart_isr
          194   4545: am_vcomp_isr
          195   4558: am_watchdog_isr
          196   4574: __main
          197   4581: __scatterload
          198   4595: __scatterload_rt2
          199   4613: __scatterload_rt2_thumb_only
          200   4642: __scatterload_null
          201   4661: __scatterload_copy
          202   4680: __scatterload_zeroinit
          203   4703: __rt_lib_init
          204   4717: __rt_lib_init_fp_1
          205   4736: __rt_lib_init_alloca_1
          206   4759: __rt_lib_init_argv_1
          207   4780: __rt_lib_init_atexit_1
          208   4803: __rt_lib_init_clock_1
          209   4825: __rt_lib_init_cpp_1
          210   4845: __rt_lib_init_exceptions_1
          211   4872: __rt_lib_init_fp_trap_1
          212   4896: __rt_lib_init_getenv_1
          213   4919: __rt_lib_init_heap_1
          214   4940: __rt_lib_init_lc_collate_1
          215   4967: __rt_lib_init_lc_ctype_1
          216   4992: __rt_lib_init_lc_monetary_1
          217   5020: __rt_lib_init_lc_numeric_1
          218   5047: __rt_lib_init_lc_time_1
          219   5071: __rt_lib_init_preinit_1
          220   5095: __rt_lib_init_rand_1
          221   5116: __rt_lib_init_return
          222   5137: __rt_lib_init_signal_1
          223   5160: __rt_lib_init_stdio_1
          224   5182: __rt_lib_init_user_alloc_1
          225   5209: __rt_lib_shutdown
          226   5227: __rt_lib_shutdown_fp_trap_1
          227   5255: __rt_lib_shutdown_heap_1
          228   5280: __rt_lib_shutdown_return
          229   5305: __rt_lib_shutdown_signal_1
          230   5332: __rt_lib_shutdown_stdio_1
          231   5358: __rt_lib_shutdown_user_alloc_1
          232   5389: __rt_entry
          233   5400: __rt_entry_presh_1
          234   5419: __rt_entry_sh
          235   5433: __rt_entry_li
          236   5447: __rt_entry_postsh_1
          237   5467: __rt_entry_main
          238   5483: __rt_entry_postli_1
          239   5503: __rt_exit
          240   5513: __rt_exit_ls
          241   5526: __rt_exit_prels_1
          242   5544: __rt_exit_exit
          243   5559: am_util_delay_cycles
          244   5580: am_fault_isr
          245   5593: getStackedReg
          246   5607: am_hal_interrupt_master_enable
          247   5638: am_hal_interrupt_master_disable
          248   5670: am_hal_interrupt_master_set
          249   5698: __asm___12_am_hal_itm_c_0782d9ac__am_itm_delay_cycles
          250   5752: __user_initial_stackheap
          251   5777: __use_two_region_memory
          252   5801: __rt_heap_escrow$2region
          253   5826: __rt_heap_expand$2region
          254   5851: __user_setup_stackheap
          255   5874: exit
          256   5879: __user_libspace
          257   5895: __user_perproc_libspace
          258   5919: __user_perthread_libspace
          259   5945: _sys_exit
          260   5955: __I$use$semihosting
          261   5975: __use_no_semihosting_swi
          262   6000: __semihosting_library_function
          263   6031: am_bsp_debug_printf_disable
          264   6059: am_bsp_debug_printf_enable
          265   6086: am_bsp_iom_spi_pins_enable
          266   6113: am_bsp_low_power_init
          267   6135: am_devices_bmi160_config
          268   6160: am_devices_bmi160_reg_block_read
          269   6193: am_devices_bmi160_reg_read
          270   6220: am_devices_bmi160_reg_write
          271   6248: am_devices_bmi160_reset
          272   6272: am_devices_bmi160_sample_get
          273   6301: am_gpio_isr
          274   6313: am_hal_clkgen_osc_stop
          275   6336: am_hal_clkgen_sysclk_get
          276   6361: am_hal_clkgen_sysclk_select
          277   6389: am_hal_debug_error
          278   6408: am_hal_gpio_int_clear
          279   6430: am_hal_gpio_int_enable
          280   6453: am_hal_gpio_int_status_get
          281   6480: am_hal_i2c_bit_bang_receive
          282   6508: am_hal_i2c_bit_bang_send
          283   6533: am_hal_interrupt_enable
          284   6557: am_hal_iom_config
          285   6575: am_hal_iom_disable
          286   6594: am_hal_iom_enable
          287   6612: am_hal_iom_fifo_read
          288   6633: am_hal_iom_fifo_write
          289   6655: am_hal_iom_i2c_read
          290   6675: am_hal_iom_i2c_read_nb
          291   6698: am_hal_iom_i2c_write
          292   6719: am_hal_iom_int_clear
          293   6740: am_hal_iom_int_enable
          294   6762: am_hal_iom_int_service
          295   6785: am_hal_iom_int_status_get
          296   6811: am_hal_iom_poll_complete
          297   6836: am_hal_iom_spi_read
          298   6856: am_hal_iom_spi_read_nb
          299   6879: am_hal_iom_spi_write
          300   6900: am_hal_itm_delay_us
          301   6920: am_hal_itm_enable
          302   6938: am_hal_itm_not_busy
          303   6958: am_hal_itm_print
          304   6975: am_hal_itm_stimulus_reg_word_write
          305   7010: am_hal_itm_sync_send
          306   7031: am_hal_mcuctrl_bandgap_disable
          307   7062: am_hal_mcuctrl_bucks_enable
          308   7090: am_hal_rtc_osc_disable
          309   7113: am_hal_rtc_osc_select
          310   7135: am_hal_sysctrl_sleep
          311   7156: am_hal_tpiu_disable
          312   7176: am_hal_tpiu_enable
          313   7195: am_hal_vcomp_disable
          314   7216: am_iomaster0_isr
          315   7233: am_iomaster1_isr
          316   7250: am_util_delay_ms
          317   7267: am_util_delay_us
          318   7284: am_util_faultisr_collect_data
          319   7314: am_util_plot_init
          320   7332: am_util_plot_int
          321   7349: am_util_stdio_printf_init
          322   7375: configure_bmi160_pins
          323   7397: data_handler
          324   7410: main
          325   7415: start_bmi160
          326   7428: _fp_init
          327   7437: __fplib_config_fpu_vfp
          328   7460: __fplib_config_pureend_doubles
          329   7491: g_sIOMConfig
          330   7504: g_sBMI160
          331   7514: Region$$Table$$Base
          332   7534: Region$$Table$$Limit
          333   7555: g_bIOMIdle
          334   7566: g_ui32Sync
          335   7577: g_pfnCharPrint
          336   7592: g_ui32HALflags
          337   7607: g_ui32Mod0Interface
          338   7627: g_ui32Mod1Interface
          339   7647: g_am_hal_itm_print_registers
          340   7676: g_pui32StimReg
          341   7691: g_psIOMBuffers
          342   7706: __libspace_start
          343   7723: __temporary_stack_top$libspace
          344   7754: 
          345   7755: 


** Section #13 '.note' (SHT_NOTE)
    Size   : 28 bytes (alignment 4)


** Section #14 '.comment' (SHT_PROGBITS)
    Size   : 15176 bytes


** Section #15 '.shstrtab' (SHT_STRTAB)
    Size   : 148 bytes

            #  Offset String
        ====================================

            1      1: FLASH
            2      7: SRAM
            3     12: .debug_abbrev
            4     26: .debug_frame
            5     39: .debug_info
            6     51: .debug_line
            7     63: .debug_loc
            8     74: .debug_macinfo
            9     89: .debug_pubnames
           10    105: .symtab
           11    113: .strtab
           12    121: .note
           13    127: .comment
           14    136: .shstrtab
           15    146: 
           16    147: 


