
========================================================================

** ELF Header Information

    File Name: bin\uart2spi.axf

    Machine class: ELFCLASS32 (32-bit)
    Data encoding: ELFDATA2LSB (Little endian)
    Header version: EV_CURRENT (Current version)
    Operating System ABI: none
    ABI Version: 0
    File Type: ET_EXEC (Executable) (2)
    Machine: EM_ARM (ARM)

    Image Entry point: 0x00000099
    Flags: EF_ARM_HASENTRY (0x05000002)

    ARM ELF revision: 5 (ABI version 2)

    Built with
    Component: ARM Compiler 5.05 update 1 (build 106) Tool: armasm [4d0efa]
    Component: ARM Compiler 5.05 update 1 (build 106) Tool: armlink [4d0efa]

    Header size: 52 bytes (0x34)
    Program header entry size: 32 bytes (0x20)
    Section header entry size: 40 bytes (0x28)

    Program header entries: 1
    Section header entries: 16

    Program header offset: 83984 (0x00014810)
    Section header offset: 84016 (0x00014830)

    Section header string table index: 15

========================================================================

** Program header #0 (PT_LOAD) [PF_X + PF_W + PF_R + PF_ARM_ENTRY]
    Size : 12344 bytes (8460 bytes in file)
    Virtual address: 0x00000000 (Alignment 8)


========================================================================

** Section #1 'FLASH' (SHT_PROGBITS) [SHF_ALLOC + SHF_EXECINSTR]
    Size   : 8400 bytes (alignment 4)
    Address: 0x00000000

    $d
    RESET
    __Vectors
        0x00000000:    10000f68    h...    DCD    268439400
        0x00000004:    00000071    q...    DCD    113
        0x00000008:    00000085    ....    DCD    133
        0x0000000c:    00000141    A...    DCD    321
        0x00000010:    0000008b    ....    DCD    139
        0x00000014:    0000008d    ....    DCD    141
        0x00000018:    0000008f    ....    DCD    143
        0x0000001c:    00000000    ....    DCD    0
        0x00000020:    00000000    ....    DCD    0
        0x00000024:    00000000    ....    DCD    0
        0x00000028:    00000000    ....    DCD    0
        0x0000002c:    00000091    ....    DCD    145
        0x00000030:    00000091    ....    DCD    145
        0x00000034:    00000000    ....    DCD    0
        0x00000038:    00000091    ....    DCD    145
        0x0000003c:    00000091    ....    DCD    145
        0x00000040:    00000091    ....    DCD    145
        0x00000044:    00000091    ....    DCD    145
        0x00000048:    00000091    ....    DCD    145
        0x0000004c:    00000091    ....    DCD    145
        0x00000050:    00000091    ....    DCD    145
        0x00000054:    00000091    ....    DCD    145
        0x00000058:    00000d2d    -...    DCD    3373
        0x0000005c:    00000091    ....    DCD    145
        0x00000060:    00000091    ....    DCD    145
        0x00000064:    00000265    e...    DCD    613
        0x00000068:    00000091    ....    DCD    145
        0x0000006c:    00000d4b    K...    DCD    3403
    $t
    $v0
    Reset_Handler
        0x00000070:    f64e5088    N..P    MOV      r0,#0xed88
        0x00000074:    f2ce0000    ....    MOVT     r0,#0xe000
        0x00000078:    6801        .h      LDR      r1,[r0,#0]
        0x0000007a:    f4410170    A.p.    ORR      r1,r1,#0xf00000
        0x0000007e:    6001        .`      STR      r1,[r0,#0]
        0x00000080:    4804        .H      LDR      r0,[pc,#16] ; [0x94] = 0x99
        0x00000082:    4700        .G      BX       r0
    am_nmi_isr
        0x00000084:    e7fe        ..      B        am_nmi_isr ; 0x84
        0x00000086:    e7fe        ..      B        0x86 ; am_nmi_isr + 2
    am_memmanage_isr
        0x00000088:    e7fe        ..      B        am_memmanage_isr ; 0x88
    am_mpufault_isr
        0x0000008a:    e7fe        ..      B        am_mpufault_isr ; 0x8a
    am_busfault_isr
        0x0000008c:    e7fe        ..      B        am_busfault_isr ; 0x8c
    am_usagefault_isr
        0x0000008e:    e7fe        ..      B        am_usagefault_isr ; 0x8e
    am_adc_isr
    am_brownout_isr
    am_clkgen_isr
    am_ctimer_isr
    am_debugmon_isr
    am_iomaster1_isr
    am_ioslave_acc_isr
    am_ioslave_ios_isr
    am_pendsv_isr
    am_svcall_isr
    am_systick_isr
    am_vcomp_isr
    am_watchdog_isr
        0x00000090:    e7fe        ..      B        am_adc_isr ; 0x90
    $d
        0x00000092:    0000        ..      DCW    0
        0x00000094:    00000099    ....    DCD    153
    $t
    !!!main
    __main
        0x00000098:    f000f802    ....    BL       __scatterload ; 0xa0
        0x0000009c:    f000f83c    ..<.    BL       __rt_entry ; 0x118
    !!!scatter
    __scatterload
    __scatterload_rt2
    __scatterload_rt2_thumb_only
        0x000000a0:    a00a        ..      ADR      r0,{pc}+0x2c ; 0xcc
        0x000000a2:    e8900c00    ....    LDM      r0,{r10,r11}
        0x000000a6:    4482        .D      ADD      r10,r10,r0
        0x000000a8:    4483        .D      ADD      r11,r11,r0
        0x000000aa:    f1aa0701    ....    SUB      r7,r10,#1
    __scatterload_null
        0x000000ae:    45da        .E      CMP      r10,r11
        0x000000b0:    d101        ..      BNE      0xb6 ; __scatterload_null + 8
        0x000000b2:    f000f831    ..1.    BL       __rt_entry ; 0x118
        0x000000b6:    f2af0e09    ....    ADR      lr,{pc}-7 ; 0xaf
        0x000000ba:    e8ba000f    ....    LDM      r10!,{r0-r3}
        0x000000be:    f0130f01    ....    TST      r3,#1
        0x000000c2:    bf18        ..      IT       NE
        0x000000c4:    1afb        ..      SUBNE    r3,r7,r3
        0x000000c6:    f0430301    C...    ORR      r3,r3,#1
        0x000000ca:    4718        .G      BX       r3
    $d
        0x000000cc:    00001fe4    ....    DCD    8164
        0x000000d0:    00002004    . ..    DCD    8196
    $t
    !!handler_copy
    __scatterload_copy
        0x000000d4:    3a10        .:      SUBS     r2,r2,#0x10
        0x000000d6:    bf24        $.      ITT      CS
        0x000000d8:    c878        x.      LDMCS    r0!,{r3-r6}
        0x000000da:    c178        x.      STMCS    r1!,{r3-r6}
        0x000000dc:    d8fa        ..      BHI      __scatterload_copy ; 0xd4
        0x000000de:    0752        R.      LSLS     r2,r2,#29
        0x000000e0:    bf24        $.      ITT      CS
        0x000000e2:    c830        0.      LDMCS    r0!,{r4,r5}
        0x000000e4:    c130        0.      STMCS    r1!,{r4,r5}
        0x000000e6:    bf44        D.      ITT      MI
        0x000000e8:    6804        .h      LDRMI    r4,[r0,#0]
        0x000000ea:    600c        .`      STRMI    r4,[r1,#0]
        0x000000ec:    4770        pG      BX       lr
        0x000000ee:    0000        ..      MOVS     r0,r0
    !!handler_zi
    __scatterload_zeroinit
        0x000000f0:    2300        .#      MOVS     r3,#0
        0x000000f2:    2400        .$      MOVS     r4,#0
        0x000000f4:    2500        .%      MOVS     r5,#0
        0x000000f6:    2600        .&      MOVS     r6,#0
        0x000000f8:    3a10        .:      SUBS     r2,r2,#0x10
        0x000000fa:    bf28        (.      IT       CS
        0x000000fc:    c178        x.      STMCS    r1!,{r3-r6}
        0x000000fe:    d8fb        ..      BHI      0xf8 ; __scatterload_zeroinit + 8
        0x00000100:    0752        R.      LSLS     r2,r2,#29
        0x00000102:    bf28        (.      IT       CS
        0x00000104:    c130        0.      STMCS    r1!,{r4,r5}
        0x00000106:    bf48        H.      IT       MI
        0x00000108:    600b        .`      STRMI    r3,[r1,#0]
        0x0000010a:    4770        pG      BX       lr
    .ARM.Collect$$libinit$$00000000
    __rt_lib_init
        0x0000010c:    b51f        ..      PUSH     {r0-r4,lr}
    .ARM.Collect$$libinit$$00000001
    __rt_lib_init_fp_1
        0x0000010e:    f001ff9c    ....    BL       _fp_init ; 0x204a
    .ARM.Collect$$libinit$$00000004
    .ARM.Collect$$libinit$$0000000A
    .ARM.Collect$$libinit$$0000000C
    .ARM.Collect$$libinit$$0000000E
    .ARM.Collect$$libinit$$00000011
    .ARM.Collect$$libinit$$00000013
    .ARM.Collect$$libinit$$00000015
    .ARM.Collect$$libinit$$00000017
    .ARM.Collect$$libinit$$00000019
    .ARM.Collect$$libinit$$0000001B
    .ARM.Collect$$libinit$$0000001D
    .ARM.Collect$$libinit$$0000001F
    .ARM.Collect$$libinit$$00000021
    .ARM.Collect$$libinit$$00000023
    .ARM.Collect$$libinit$$00000025
    .ARM.Collect$$libinit$$0000002C
    .ARM.Collect$$libinit$$0000002E
    .ARM.Collect$$libinit$$00000030
    .ARM.Collect$$libinit$$00000032
    .ARM.Collect$$libinit$$00000033
    __rt_lib_init_alloca_1
    __rt_lib_init_argv_1
    __rt_lib_init_atexit_1
    __rt_lib_init_clock_1
    __rt_lib_init_cpp_1
    __rt_lib_init_exceptions_1
    __rt_lib_init_fp_trap_1
    __rt_lib_init_getenv_1
    __rt_lib_init_heap_1
    __rt_lib_init_lc_collate_1
    __rt_lib_init_lc_ctype_1
    __rt_lib_init_lc_monetary_1
    __rt_lib_init_lc_numeric_1
    __rt_lib_init_lc_time_1
    __rt_lib_init_preinit_1
    __rt_lib_init_rand_1
    __rt_lib_init_return
    __rt_lib_init_signal_1
    __rt_lib_init_stdio_1
    __rt_lib_init_user_alloc_1
        0x00000112:    bd1f        ..      POP      {r0-r4,pc}
    .ARM.Collect$$libshutdown$$00000000
    __rt_lib_shutdown
        0x00000114:    b510        ..      PUSH     {r4,lr}
    .ARM.Collect$$libshutdown$$00000003
    .ARM.Collect$$libshutdown$$00000006
    .ARM.Collect$$libshutdown$$00000009
    .ARM.Collect$$libshutdown$$0000000B
    .ARM.Collect$$libshutdown$$0000000E
    .ARM.Collect$$libshutdown$$0000000F
    __rt_lib_shutdown_fp_trap_1
    __rt_lib_shutdown_heap_1
    __rt_lib_shutdown_return
    __rt_lib_shutdown_signal_1
    __rt_lib_shutdown_stdio_1
    __rt_lib_shutdown_user_alloc_1
        0x00000116:    bd10        ..      POP      {r4,pc}
    .ARM.Collect$$rtentry$$00000000
    .ARM.Collect$$rtentry$$00000002
    .ARM.Collect$$rtentry$$00000004
    __rt_entry
    __rt_entry_presh_1
    __rt_entry_sh
        0x00000118:    f000f83b    ..;.    BL       __user_setup_stackheap ; 0x192
        0x0000011c:    4611        .F      MOV      r1,r2
    .ARM.Collect$$rtentry$$00000009
    .ARM.Collect$$rtentry$$0000000A
    __rt_entry_li
    __rt_entry_postsh_1
        0x0000011e:    f7fffff5    ....    BL       __rt_lib_init ; 0x10c
    .ARM.Collect$$rtentry$$0000000C
    .ARM.Collect$$rtentry$$0000000D
    __rt_entry_main
    __rt_entry_postli_1
        0x00000122:    f001fb4f    ..O.    BL       main ; 0x17c4
        0x00000126:    f000f859    ..Y.    BL       exit ; 0x1dc
    .ARM.Collect$$rtexit$$00000000
    __rt_exit
        0x0000012a:    b403        ..      PUSH     {r0,r1}
    .ARM.Collect$$rtexit$$00000002
    .ARM.Collect$$rtexit$$00000003
    __rt_exit_ls
    __rt_exit_prels_1
        0x0000012c:    f7fffff2    ....    BL       __rt_lib_shutdown ; 0x114
    .ARM.Collect$$rtexit$$00000004
    __rt_exit_exit
        0x00000130:    bc03        ..      POP      {r0,r1}
        0x00000132:    f000f85d    ..].    BL       _sys_exit ; 0x1f0
        0x00000136:    0000        ..      MOVS     r0,r0
    .emb_text
    $v0
    am_util_delay_cycles
        0x00000138:    3801        .8      SUBS     r0,#1
        0x0000013a:    d1fd        ..      BNE      am_util_delay_cycles ; 0x138
        0x0000013c:    4770        pG      BX       lr
        0x0000013e:    0000        ..      MOVS     r0,r0
    .emb_text
    $v0
    am_fault_isr
        0x00000140:    b580        ..      PUSH     {r7,lr}
        0x00000142:    4668        hF      MOV      r0,sp
        0x00000144:    3008        .0      ADDS     r0,r0,#8
        0x00000146:    f000fe2b    ..+.    BL       am_util_faultisr_collect_data ; 0xda0
        0x0000014a:    bd01        ..      POP      {r0,pc}
    getStackedReg
        0x0000014c:    0080        ..      LSLS     r0,r0,#2
        0x0000014e:    1840        @.      ADDS     r0,r0,r1
        0x00000150:    6800        .h      LDR      r0,[r0,#0]
        0x00000152:    4770        pG      BX       lr
    .emb_text
    $v0
    am_hal_interrupt_master_enable
        0x00000154:    f3ef8010    ....    MRS      r0,PRIMASK
        0x00000158:    b662        b.      CPSIE    i
        0x0000015a:    4770        pG      BX       lr
    am_hal_interrupt_master_disable
        0x0000015c:    f3ef8010    ....    MRS      r0,PRIMASK
        0x00000160:    b672        r.      CPSID    i
        0x00000162:    4770        pG      BX       lr
    am_hal_interrupt_master_set
        0x00000164:    f3808810    ....    MSR      PRIMASK,r0
        0x00000168:    4770        pG      BX       lr
        0x0000016a:    0000        ..      MOVS     r0,r0
    .emb_text
    $v0
    __asm___12_am_hal_itm_c_0782d9ac__am_itm_delay_cycles
        0x0000016c:    3801        .8      SUBS     r0,#1
        0x0000016e:    d1fd        ..      BNE      __asm___12_am_hal_itm_c_0782d9ac__am_itm_delay_cycles ; 0x16c
        0x00000170:    4770        pG      BX       lr
        0x00000172:    0000        ..      MOVS     r0,r0
    .text
    $v0
    __user_initial_stackheap
        0x00000174:    4802        .H      LDR      r0,[pc,#8] ; [0x180] = 0x10000d68
        0x00000176:    4903        .I      LDR      r1,[pc,#12] ; [0x184] = 0x10000f68
        0x00000178:    4a01        .J      LDR      r2,[pc,#4] ; [0x180] = 0x10000d68
        0x0000017a:    4b03        .K      LDR      r3,[pc,#12] ; [0x188] = 0x10000d68
        0x0000017c:    4770        pG      BX       lr
    $d
        0x0000017e:    0000        ..      DCW    0
        0x00000180:    10000d68    h...    DCD    268438888
        0x00000184:    10000f68    h...    DCD    268439400
        0x00000188:    10000d68    h...    DCD    268438888
    $t
    .text
    __use_two_region_memory
        0x0000018c:    4770        pG      BX       lr
    __rt_heap_escrow$2region
        0x0000018e:    4770        pG      BX       lr
    __rt_heap_expand$2region
        0x00000190:    4770        pG      BX       lr
    .text
    __user_setup_stackheap
        0x00000192:    4675        uF      MOV      r5,lr
        0x00000194:    f000f828    ..(.    BL       __user_libspace ; 0x1e8
        0x00000198:    46ae        .F      MOV      lr,r5
        0x0000019a:    0005        ..      MOVS     r5,r0
        0x0000019c:    4669        iF      MOV      r1,sp
        0x0000019e:    4653        SF      MOV      r3,r10
        0x000001a0:    f0200007     ...    BIC      r0,r0,#7
        0x000001a4:    4685        .F      MOV      sp,r0
        0x000001a6:    b018        ..      ADD      sp,sp,#0x60
        0x000001a8:    b520         .      PUSH     {r5,lr}
        0x000001aa:    f7ffffe3    ....    BL       __user_initial_stackheap ; 0x174
        0x000001ae:    e8bd4020    .. @    POP      {r5,lr}
        0x000001b2:    f04f0600    O...    MOV      r6,#0
        0x000001b6:    f04f0700    O...    MOV      r7,#0
        0x000001ba:    f04f0800    O...    MOV      r8,#0
        0x000001be:    f04f0b00    O...    MOV      r11,#0
        0x000001c2:    f0210107    !...    BIC      r1,r1,#7
        0x000001c6:    46ac        .F      MOV      r12,r5
        0x000001c8:    e8ac09c0    ....    STM      r12!,{r6-r8,r11}
        0x000001cc:    e8ac09c0    ....    STM      r12!,{r6-r8,r11}
        0x000001d0:    e8ac09c0    ....    STM      r12!,{r6-r8,r11}
        0x000001d4:    e8ac09c0    ....    STM      r12!,{r6-r8,r11}
        0x000001d8:    468d        .F      MOV      sp,r1
        0x000001da:    4770        pG      BX       lr
    .text
    exit
        0x000001dc:    4604        .F      MOV      r4,r0
        0x000001de:    f3af8000    ....    NOP.W    
        0x000001e2:    4620         F      MOV      r0,r4
        0x000001e4:    f7ffffa1    ....    BL       __rt_exit ; 0x12a
    .text
    __user_libspace
    __user_perproc_libspace
    __user_perthread_libspace
        0x000001e8:    4800        .H      LDR      r0,[pc,#0] ; [0x1ec] = 0x10000d04
        0x000001ea:    4770        pG      BX       lr
    $d
        0x000001ec:    10000d04    ....    DCD    268438788
    $t
    .text
    _sys_exit
        0x000001f0:    4901        .I      LDR      r1,[pc,#4] ; [0x1f8] = 0x20026
        0x000001f2:    2018        .       MOVS     r0,#0x18
        0x000001f4:    beab        ..      BKPT     #0xab
        0x000001f6:    e7fe        ..      B        0x1f6 ; _sys_exit + 6
    $d
        0x000001f8:    00020026    &...    DCD    131110
    $t
    .text
    __I$use$semihosting
    __use_no_semihosting_swi
        0x000001fc:    4770        pG      BX       lr
    .text
    __semihosting_library_function
        0x000001fe:    0000        ..      MOVS     r0,r0
    i.am_bsp_debug_printf_enable
    am_bsp_debug_printf_enable
        0x00000200:    480c        .H      LDR      r0,[pc,#48] ; [0x234] = 0x10000028
        0x00000202:    6800        .h      LDR      r0,[r0,#0]
        0x00000204:    f0100f01    ....    TST      r0,#1
        0x00000208:    bf18        ..      IT       NE
        0x0000020a:    4770        pG      BXNE     lr
        0x0000020c:    b510        ..      PUSH     {r4,lr}
        0x0000020e:    f000fc31    ..1.    BL       am_hal_tpiu_enable ; 0xa74
        0x00000212:    4809        .H      LDR      r0,[pc,#36] ; [0x238] = 0x40010000
        0x00000214:    2173        s!      MOVS     r1,#0x73
        0x00000216:    6601        .f      STR      r1,[r0,#0x60]
        0x00000218:    6d41        Am      LDR      r1,[r0,#0x54]
        0x0000021a:    f0210170    !.p.    BIC      r1,r1,#0x70
        0x0000021e:    6541        Ae      STR      r1,[r0,#0x54]
        0x00000220:    6a81        .j      LDR      r1,[r0,#0x28]
        0x00000222:    f421417f    !..A    BIC      r1,r1,#0xff00
        0x00000226:    f4415180    A..Q    ORR      r1,r1,#0x1000
        0x0000022a:    6281        .b      STR      r1,[r0,#0x28]
        0x0000022c:    2100        .!      MOVS     r1,#0
        0x0000022e:    6601        .f      STR      r1,[r0,#0x60]
        0x00000230:    bd10        ..      POP      {r4,pc}
    $d
        0x00000232:    0000        ..      DCW    0
        0x00000234:    10000028    (...    DCD    268435496
        0x00000238:    40010000    ...@    DCD    1073807360
    $t
    i.am_bsp_low_power_init
    am_bsp_low_power_init
        0x0000023c:    b510        ..      PUSH     {r4,lr}
        0x0000023e:    f000fbf3    ....    BL       am_hal_mcuctrl_bucks_enable ; 0xa28
        0x00000242:    f000fd6d    ..m.    BL       am_hal_vcomp_disable ; 0xd20
        0x00000246:    2001        .       MOVS     r0,#1
        0x00000248:    f000fc09    ....    BL       am_hal_rtc_osc_select ; 0xa5e
        0x0000024c:    2001        .       MOVS     r0,#1
        0x0000024e:    f000f84b    ..K.    BL       am_hal_clkgen_osc_stop ; 0x2e8
        0x00000252:    2002        .       MOVS     r0,#2
        0x00000254:    f000f848    ..H.    BL       am_hal_clkgen_osc_stop ; 0x2e8
        0x00000258:    f000fbfa    ....    BL       am_hal_rtc_osc_disable ; 0xa50
        0x0000025c:    e8bd4010    ...@    POP      {r4,lr}
        0x00000260:    f000bbda    ....    B.W      am_hal_mcuctrl_bandgap_disable ; 0xa18
    i.am_gpio_isr
    am_gpio_isr
        0x00000264:    b570        p.      PUSH     {r4-r6,lr}
        0x00000266:    2000        .       MOVS     r0,#0
        0x00000268:    f000f894    ....    BL       am_hal_gpio_int_status_get ; 0x394
        0x0000026c:    4604        .F      MOV      r4,r0
        0x0000026e:    460d        .F      MOV      r5,r1
        0x00000270:    4620         F      MOV      r0,r4
        0x00000272:    4629        )F      MOV      r1,r5
        0x00000274:    f000f878    ..x.    BL       am_hal_gpio_int_clear ; 0x368
        0x00000278:    2301        .#      MOVS     r3,#1
        0x0000027a:    ea040003    ....    AND      r0,r4,r3
        0x0000027e:    2100        .!      MOVS     r1,#0
        0x00000280:    4048        H@      EORS     r0,r0,r1
        0x00000282:    4049        I@      EORS     r1,r1,r1
        0x00000284:    4308        .C      ORRS     r0,r0,r1
        0x00000286:    d026        &.      BEQ      0x2d6 ; am_gpio_isr + 114
        0x00000288:    4813        .H      LDR      r0,[pc,#76] ; [0x2d8] = 0x10000002
        0x0000028a:    7800        .x      LDRB     r0,[r0,#0]
        0x0000028c:    b188        ..      CBZ      r0,0x2b2 ; am_gpio_isr + 78
        0x0000028e:    2001        .       MOVS     r0,#1
        0x00000290:    4912        .I      LDR      r1,[pc,#72] ; [0x2dc] = 0x10000000
        0x00000292:    7008        .p      STRB     r0,[r1,#0]
        0x00000294:    bf00        ..      NOP      
        0x00000296:    2073        s       MOVS     r0,#0x73
        0x00000298:    4911        .I      LDR      r1,[pc,#68] ; [0x2e0] = 0x40010000
        0x0000029a:    6608        .f      STR      r0,[r1,#0x60]
        0x0000029c:    4608        .F      MOV      r0,r1
        0x0000029e:    6c00        .l      LDR      r0,[r0,#0x40]
        0x000002a0:    f0400008    @...    ORR      r0,r0,#8
        0x000002a4:    6408        .d      STR      r0,[r1,#0x40]
        0x000002a6:    2000        .       MOVS     r0,#0
        0x000002a8:    6608        .f      STR      r0,[r1,#0x60]
        0x000002aa:    bf00        ..      NOP      
        0x000002ac:    490a        .I      LDR      r1,[pc,#40] ; [0x2d8] = 0x10000002
        0x000002ae:    7008        .p      STRB     r0,[r1,#0]
        0x000002b0:    e011        ..      B        0x2d6 ; am_gpio_isr + 114
        0x000002b2:    2001        .       MOVS     r0,#1
        0x000002b4:    490b        .I      LDR      r1,[pc,#44] ; [0x2e4] = 0x10000001
        0x000002b6:    7008        .p      STRB     r0,[r1,#0]
        0x000002b8:    bf00        ..      NOP      
        0x000002ba:    2073        s       MOVS     r0,#0x73
        0x000002bc:    4908        .I      LDR      r1,[pc,#32] ; [0x2e0] = 0x40010000
        0x000002be:    6608        .f      STR      r0,[r1,#0x60]
        0x000002c0:    4608        .F      MOV      r0,r1
        0x000002c2:    6c00        .l      LDR      r0,[r0,#0x40]
        0x000002c4:    f0200008     ...    BIC      r0,r0,#8
        0x000002c8:    6408        .d      STR      r0,[r1,#0x40]
        0x000002ca:    2000        .       MOVS     r0,#0
        0x000002cc:    6608        .f      STR      r0,[r1,#0x60]
        0x000002ce:    bf00        ..      NOP      
        0x000002d0:    2001        .       MOVS     r0,#1
        0x000002d2:    4901        .I      LDR      r1,[pc,#4] ; [0x2d8] = 0x10000002
        0x000002d4:    7008        .p      STRB     r0,[r1,#0]
        0x000002d6:    bd70        p.      POP      {r4-r6,pc}
    $d
        0x000002d8:    10000002    ....    DCD    268435458
        0x000002dc:    10000000    ....    DCD    268435456
        0x000002e0:    40010000    ...@    DCD    1073807360
        0x000002e4:    10000001    ....    DCD    268435457
    $t
    i.am_hal_clkgen_osc_stop
    am_hal_clkgen_osc_stop
        0x000002e8:    f04f2140    O.@!    MOV      r1,#0x40004000
        0x000002ec:    68ca        .h      LDR      r2,[r1,#0xc]
        0x000002ee:    4310        .C      ORRS     r0,r0,r2
        0x000002f0:    60c8        .`      STR      r0,[r1,#0xc]
        0x000002f2:    4770        pG      BX       lr
    i.am_hal_clkgen_sysclk_get
    am_hal_clkgen_sysclk_get
        0x000002f4:    f04f2040    O.@     MOV      r0,#0x40004000
        0x000002f8:    6980        .i      LDR      r0,[r0,#0x18]
        0x000002fa:    f0000007    ....    AND      r0,r0,#7
        0x000002fe:    2808        .(      CMP      r0,#8
        0x00000300:    d215        ..      BCS      0x32e ; am_hal_clkgen_sysclk_get + 58
        0x00000302:    e8dff000    ....    TBB      [pc,r0]
    $d
        0x00000306:    0604        ..      DCW    1540
        0x00000308:    0e0c0a08    ....    DCD    235670024
        0x0000030c:    1210        ..      DCW    4624
    $t
        0x0000030e:    4809        .H      LDR      r0,[pc,#36] ; [0x334] = 0x16e3600
        0x00000310:    4770        pG      BX       lr
        0x00000312:    4809        .H      LDR      r0,[pc,#36] ; [0x338] = 0xb71b00
        0x00000314:    4770        pG      BX       lr
        0x00000316:    4809        .H      LDR      r0,[pc,#36] ; [0x33c] = 0x7a1200
        0x00000318:    4770        pG      BX       lr
        0x0000031a:    4809        .H      LDR      r0,[pc,#36] ; [0x340] = 0x5b8d80
        0x0000031c:    4770        pG      BX       lr
        0x0000031e:    4809        .H      LDR      r0,[pc,#36] ; [0x344] = 0x493e00
        0x00000320:    4770        pG      BX       lr
        0x00000322:    4809        .H      LDR      r0,[pc,#36] ; [0x348] = 0x3d0900
        0x00000324:    4770        pG      BX       lr
        0x00000326:    4809        .H      LDR      r0,[pc,#36] ; [0x34c] = 0x3450db
        0x00000328:    4770        pG      BX       lr
        0x0000032a:    4809        .H      LDR      r0,[pc,#36] ; [0x350] = 0x2dc6c0
        0x0000032c:    4770        pG      BX       lr
        0x0000032e:    f04f30ff    O..0    MOV      r0,#0xffffffff
        0x00000332:    4770        pG      BX       lr
    $d
        0x00000334:    016e3600    .6n.    DCD    24000000
        0x00000338:    00b71b00    ....    DCD    12000000
        0x0000033c:    007a1200    ..z.    DCD    8000000
        0x00000340:    005b8d80    ..[.    DCD    6000000
        0x00000344:    00493e00    .>I.    DCD    4800000
        0x00000348:    003d0900    ..=.    DCD    4000000
        0x0000034c:    003450db    .P4.    DCD    3428571
        0x00000350:    002dc6c0    ..-.    DCD    3000000
    $t
    i.am_hal_clkgen_sysclk_select
    am_hal_clkgen_sysclk_select
        0x00000354:    f04f2140    O.@!    MOV      r1,#0x40004000
        0x00000358:    2247        G"      MOVS     r2,#0x47
        0x0000035a:    614a        Ja      STR      r2,[r1,#0x14]
        0x0000035c:    6188        .a      STR      r0,[r1,#0x18]
        0x0000035e:    2000        .       MOVS     r0,#0
        0x00000360:    6148        Ha      STR      r0,[r1,#0x14]
        0x00000362:    4770        pG      BX       lr
    i.am_hal_debug_error
    am_hal_debug_error
        0x00000364:    e7fe        ..      B        am_hal_debug_error ; 0x364
        0x00000366:    0000        ..      MOVS     r0,r0
    i.am_hal_gpio_int_clear
    am_hal_gpio_int_clear
        0x00000368:    4a02        .J      LDR      r2,[pc,#8] ; [0x374] = 0x40010000
        0x0000036a:    f8c21218    ....    STR      r1,[r2,#0x218]
        0x0000036e:    f8c20208    ....    STR      r0,[r2,#0x208]
        0x00000372:    4770        pG      BX       lr
    $d
        0x00000374:    40010000    ...@    DCD    1073807360
    $t
    i.am_hal_gpio_int_enable
    am_hal_gpio_int_enable
        0x00000378:    4a05        .J      LDR      r2,[pc,#20] ; [0x390] = 0x40010000
        0x0000037a:    f8d23210    ...2    LDR      r3,[r2,#0x210]
        0x0000037e:    4319        .C      ORRS     r1,r1,r3
        0x00000380:    f8c21210    ....    STR      r1,[r2,#0x210]
        0x00000384:    f8d21200    ....    LDR      r1,[r2,#0x200]
        0x00000388:    4308        .C      ORRS     r0,r0,r1
        0x0000038a:    f8c20200    ....    STR      r0,[r2,#0x200]
        0x0000038e:    4770        pG      BX       lr
    $d
        0x00000390:    40010000    ...@    DCD    1073807360
    $t
    i.am_hal_gpio_int_status_get
    am_hal_gpio_int_status_get
        0x00000394:    4a0c        .J      LDR      r2,[pc,#48] ; [0x3c8] = 0x40010000
        0x00000396:    2100        .!      MOVS     r1,#0
        0x00000398:    b178        x.      CBZ      r0,0x3ba ; am_hal_gpio_int_status_get + 38
        0x0000039a:    f8d23210    ...2    LDR      r3,[r2,#0x210]
        0x0000039e:    f8d20200    ....    LDR      r0,[r2,#0x200]
        0x000003a2:    f8d2c214    ....    LDR      r12,[r2,#0x214]
        0x000003a6:    4308        .C      ORRS     r0,r0,r1
        0x000003a8:    430b        .C      ORRS     r3,r3,r1
        0x000003aa:    f8d22204    ..."    LDR      r2,[r2,#0x204]
        0x000003ae:    430a        .C      ORRS     r2,r2,r1
        0x000003b0:    ea41010c    A...    ORR      r1,r1,r12
        0x000003b4:    4010        .@      ANDS     r0,r0,r2
        0x000003b6:    4019        .@      ANDS     r1,r1,r3
        0x000003b8:    4770        pG      BX       lr
        0x000003ba:    f8d23214    ...2    LDR      r3,[r2,#0x214]
        0x000003be:    f8d20204    ....    LDR      r0,[r2,#0x204]
        0x000003c2:    4308        .C      ORRS     r0,r0,r1
        0x000003c4:    4319        .C      ORRS     r1,r1,r3
        0x000003c6:    4770        pG      BX       lr
    $d
        0x000003c8:    40010000    ...@    DCD    1073807360
    $t
    i.am_hal_interrupt_enable
    am_hal_interrupt_enable
        0x000003cc:    280f        .(      CMP      r0,#0xf
        0x000003ce:    d90a        ..      BLS      0x3e6 ; am_hal_interrupt_enable + 26
        0x000003d0:    3810        .8      SUBS     r0,r0,#0x10
        0x000003d2:    f000001f    ....    AND      r0,r0,#0x1f
        0x000003d6:    2101        .!      MOVS     r1,#1
        0x000003d8:    fa01f000    ....    LSL      r0,r1,r0
        0x000003dc:    f04f21e0    O..!    MOV      r1,#0xe000e000
        0x000003e0:    f8c10100    ....    STR      r0,[r1,#0x100]
        0x000003e4:    4770        pG      BX       lr
        0x000003e6:    490b        .I      LDR      r1,[pc,#44] ; [0x414] = 0xe000ed24
        0x000003e8:    2804        .(      CMP      r0,#4
        0x000003ea:    d00d        ..      BEQ      0x408 ; am_hal_interrupt_enable + 60
        0x000003ec:    2805        .(      CMP      r0,#5
        0x000003ee:    bf04        ..      ITT      EQ
        0x000003f0:    6808        .h      LDREQ    r0,[r1,#0]
        0x000003f2:    f4403000    @..0    ORREQ    r0,r0,#0x20000
        0x000003f6:    d005        ..      BEQ      0x404 ; am_hal_interrupt_enable + 56
        0x000003f8:    2806        .(      CMP      r0,#6
        0x000003fa:    bf06        ..      ITTE     EQ
        0x000003fc:    6808        .h      LDREQ    r0,[r1,#0]
        0x000003fe:    f4402080    @..     ORREQ    r0,r0,#0x40000
        0x00000402:    4770        pG      BXNE     lr
        0x00000404:    6008        .`      STR      r0,[r1,#0]
        0x00000406:    4770        pG      BX       lr
        0x00000408:    6808        .h      LDR      r0,[r1,#0]
        0x0000040a:    f4403080    @..0    ORR      r0,r0,#0x10000
        0x0000040e:    6008        .`      STR      r0,[r1,#0]
        0x00000410:    4770        pG      BX       lr
    $d
        0x00000412:    0000        ..      DCW    0
        0x00000414:    e000ed24    $...    DCD    3758157092
    $t
    i.am_hal_iom_config
    am_hal_iom_config
        0x00000418:    680a        .h      LDR      r2,[r1,#0]
        0x0000041a:    4b14        .K      LDR      r3,[pc,#80] ; [0x46c] = 0x1000002c
        0x0000041c:    2800        .(      CMP      r0,#0
        0x0000041e:    4694        .F      MOV      r12,r2
        0x00000420:    bf0c        ..      ITE      EQ
        0x00000422:    f8c3c000    ....    STREQ    r12,[r3,#0]
        0x00000426:    f8c3c004    ....    STRNE    r12,[r3,#4]
        0x0000042a:    7a0b        .z      LDRB     r3,[r1,#8]
        0x0000042c:    2b00        .+      CMP      r3,#0
        0x0000042e:    bf18        ..      IT       NE
        0x00000430:    f0420204    B...    ORRNE    r2,r2,#4
        0x00000434:    7a4b        Kz      LDRB     r3,[r1,#9]
        0x00000436:    2b00        .+      CMP      r3,#0
        0x00000438:    bf18        ..      IT       NE
        0x0000043a:    f0420202    B...    ORRNE    r2,r2,#2
        0x0000043e:    0300        ..      LSLS     r0,r0,#12
        0x00000440:    f10040a0    ...@    ADD      r0,r0,#0x50000000
        0x00000444:    f5004080    ...@    ADD      r0,r0,#0x4000
        0x00000448:    f8c0211c    ...!    STR      r2,[r0,#0x11c]
        0x0000044c:    7a8a        .z      LDRB     r2,[r1,#0xa]
        0x0000044e:    f44f537c    O.|S    MOV      r3,#0x3f00
        0x00000452:    ea032202    ..."    AND      r2,r3,r2,LSL #8
        0x00000456:    7acb        .z      LDRB     r3,[r1,#0xb]
        0x00000458:    f003033f    ..?.    AND      r3,r3,#0x3f
        0x0000045c:    431a        .C      ORRS     r2,r2,r3
        0x0000045e:    f8c02108    ...!    STR      r2,[r0,#0x108]
        0x00000462:    6849        Ih      LDR      r1,[r1,#4]
        0x00000464:    f8c0110c    ....    STR      r1,[r0,#0x10c]
        0x00000468:    4770        pG      BX       lr
    $d
        0x0000046a:    0000        ..      DCW    0
        0x0000046c:    1000002c    ,...    DCD    268435500
    $t
    i.am_hal_iom_enable
    am_hal_iom_enable
        0x00000470:    0301        ..      LSLS     r1,r0,#12
        0x00000472:    f10141a0    ...A    ADD      r1,r1,#0x50000000
        0x00000476:    f5014180    ...A    ADD      r1,r1,#0x4000
        0x0000047a:    f8d1211c    ...!    LDR      r2,[r1,#0x11c]
        0x0000047e:    f0424200    B..B    ORR      r2,r2,#0x80000000
        0x00000482:    f8c1211c    ...!    STR      r2,[r1,#0x11c]
        0x00000486:    2200        ."      MOVS     r2,#0
        0x00000488:    4913        .I      LDR      r1,[pc,#76] ; [0x4d8] = 0x40010000
        0x0000048a:    f8dfc050    ..P.    LDR      r12,[pc,#80] ; [0x4dc] = 0x1000002c
        0x0000048e:    2373        s#      MOVS     r3,#0x73
        0x00000490:    b188        ..      CBZ      r0,0x4b6 ; am_hal_iom_enable + 70
        0x00000492:    f8dc0004    ....    LDR      r0,[r12,#4]
        0x00000496:    2801        .(      CMP      r0,#1
        0x00000498:    bf18        ..      IT       NE
        0x0000049a:    4770        pG      BXNE     lr
        0x0000049c:    660b        .f      STR      r3,[r1,#0x60]
        0x0000049e:    6c48        Hl      LDR      r0,[r1,#0x44]
        0x000004a0:    f0200070     .p.    BIC      r0,r0,#0x70
        0x000004a4:    6448        Hd      STR      r0,[r1,#0x44]
        0x000004a6:    6888        .h      LDR      r0,[r1,#8]
        0x000004a8:    f420407f     ..@    BIC      r0,r0,#0xff00
        0x000004ac:    f4406020    @. `    ORR      r0,r0,#0xa00
        0x000004b0:    6088        .`      STR      r0,[r1,#8]
        0x000004b2:    660a        .f      STR      r2,[r1,#0x60]
        0x000004b4:    4770        pG      BX       lr
        0x000004b6:    f8dc0000    ....    LDR      r0,[r12,#0]
        0x000004ba:    2801        .(      CMP      r0,#1
        0x000004bc:    bf18        ..      IT       NE
        0x000004be:    4770        pG      BXNE     lr
        0x000004c0:    660b        .f      STR      r3,[r1,#0x60]
        0x000004c2:    6c08        .l      LDR      r0,[r1,#0x40]
        0x000004c4:    f02060e0     ..`    BIC      r0,r0,#0x7000000
        0x000004c8:    6408        .d      STR      r0,[r1,#0x40]
        0x000004ca:    6848        Hh      LDR      r0,[r1,#4]
        0x000004cc:    f420007f     ...    BIC      r0,r0,#0xff0000
        0x000004d0:    f4402020    @.      ORR      r0,r0,#0xa0000
        0x000004d4:    6048        H`      STR      r0,[r1,#4]
        0x000004d6:    e7ec        ..      B        0x4b2 ; am_hal_iom_enable + 66
    $d
        0x000004d8:    40010000    ...@    DCD    1073807360
        0x000004dc:    1000002c    ,...    DCD    268435500
    $t
    i.am_hal_iom_fifo_read
    am_hal_iom_fifo_read
        0x000004e0:    b570        p.      PUSH     {r4-r6,lr}
        0x000004e2:    0300        ..      LSLS     r0,r0,#12
        0x000004e4:    f10045a0    ...E    ADD      r5,r0,#0x50000000
        0x000004e8:    f5054580    ...E    ADD      r5,r5,#0x4000
        0x000004ec:    4614        .F      MOV      r4,r2
        0x000004ee:    f8d50100    ....    LDR      r0,[r5,#0x100]
        0x000004f2:    460e        .F      MOV      r6,r1
        0x000004f4:    f000007f    ....    AND      r0,r0,#0x7f
        0x000004f8:    42a0        .B      CMP      r0,r4
        0x000004fa:    d205        ..      BCS      0x508 ; am_hal_iom_fifo_read + 40
        0x000004fc:    a21a        ..      ADR      r2,{pc}+0x6c ; 0x568
        0x000004fe:    f44f6199    O..a    MOV      r1,#0x4c8
        0x00000502:    a027        '.      ADR      r0,{pc}+0x9e ; 0x5a0
        0x00000504:    f7ffff2e    ....    BL       am_hal_debug_error ; 0x364
        0x00000508:    2300        .#      MOVS     r3,#0
        0x0000050a:    1ce2        ..      ADDS     r2,r4,#3
        0x0000050c:    2a03        .*      CMP      r2,#3
        0x0000050e:    d921        !.      BLS      0x554 ; am_hal_iom_fifo_read + 116
        0x00000510:    f1b44f00    ...O    CMP      r4,#0x80000000
        0x00000514:    d21e        ..      BCS      0x554 ; am_hal_iom_fifo_read + 116
        0x00000516:    17d1        ..      ASRS     r1,r2,#31
        0x00000518:    eb027191    ...q    ADD      r1,r2,r1,LSR #30
        0x0000051c:    2a03        .*      CMP      r2,#3
        0x0000051e:    bfd8        ..      IT       LE
        0x00000520:    2000        .       MOVLE    r0,#0
        0x00000522:    dd05        ..      BLE      0x530 ; am_hal_iom_fifo_read + 80
        0x00000524:    f3c10080    ....    UBFX     r0,r1,#2,#1
        0x00000528:    b110        ..      CBZ      r0,0x530 ; am_hal_iom_fifo_read + 80
        0x0000052a:    682a        *h      LDR      r2,[r5,#0]
        0x0000052c:    2301        .#      MOVS     r3,#1
        0x0000052e:    6032        2`      STR      r2,[r6,#0]
        0x00000530:    2201        ."      MOVS     r2,#1
        0x00000532:    eb0202a1    ....    ADD      r2,r2,r1,ASR #2
        0x00000536:    1c40        @.      ADDS     r0,r0,#1
        0x00000538:    e008        ..      B        0x54c ; am_hal_iom_fifo_read + 108
        0x0000053a:    6829        )h      LDR      r1,[r5,#0]
        0x0000053c:    f8461023    F.#.    STR      r1,[r6,r3,LSL #2]
        0x00000540:    1c59        Y.      ADDS     r1,r3,#1
        0x00000542:    682b        +h      LDR      r3,[r5,#0]
        0x00000544:    f8463021    F.!0    STR      r3,[r6,r1,LSL #2]
        0x00000548:    1c4b        K.      ADDS     r3,r1,#1
        0x0000054a:    1c80        ..      ADDS     r0,r0,#2
        0x0000054c:    4282        .B      CMP      r2,r0
        0x0000054e:    dcf4        ..      BGT      0x53a ; am_hal_iom_fifo_read + 90
        0x00000550:    4620         F      MOV      r0,r4
        0x00000552:    bd70        p.      POP      {r4-r6,pc}
        0x00000554:    2c00        .,      CMP      r4,#0
        0x00000556:    d9fb        ..      BLS      0x550 ; am_hal_iom_fifo_read + 112
        0x00000558:    6828        (h      LDR      r0,[r5,#0]
        0x0000055a:    f8460023    F.#.    STR      r0,[r6,r3,LSL #2]
        0x0000055e:    1c5b        [.      ADDS     r3,r3,#1
        0x00000560:    ebb40f83    ....    CMP      r4,r3,LSL #2
        0x00000564:    d8f8        ..      BHI      0x558 ; am_hal_iom_fifo_read + 120
        0x00000566:    e7f3        ..      B        0x550 ; am_hal_iom_fifo_read + 112
    $d
        0x00000568:    20656854    The     DCD    543516756
        0x0000056c:    6f666966    fifo    DCD    1868982630
        0x00000570:    656f6420     doe    DCD    1701798944
        0x00000574:    74276e73    sn't    DCD    1948741235
        0x00000578:    6e6f6320     con    DCD    1852793632
        0x0000057c:    6e696174    tain    DCD    1852399988
        0x00000580:    65687420     the    DCD    1701344288
        0x00000584:    71657220     req    DCD    1902473760
        0x00000588:    74736575    uest    DCD    1953719669
        0x0000058c:    6e206465    ed n    DCD    1847616613
        0x00000590:    65626d75    umbe    DCD    1700949365
        0x00000594:    666f2072    r of    DCD    1718558834
        0x00000598:    74796220     byt    DCD    1954112032
        0x0000059c:    002e7365    es..    DCD    3044197
        0x000005a0:    612f2e2e    ../a    DCD    1630481966
        0x000005a4:    61685f6d    m_ha    DCD    1634230125
        0x000005a8:    6f695f6c    l_io    DCD    1869176684
        0x000005ac:    00632e6d    m.c.    DCD    6499949
    $t
    i.am_hal_iom_fifo_write
    am_hal_iom_fifo_write
        0x000005b0:    b570        p.      PUSH     {r4-r6,lr}
        0x000005b2:    0300        ..      LSLS     r0,r0,#12
        0x000005b4:    f10045a0    ...E    ADD      r5,r0,#0x50000000
        0x000005b8:    f5054580    ...E    ADD      r5,r5,#0x4000
        0x000005bc:    4614        .F      MOV      r4,r2
        0x000005be:    f8d50100    ....    LDR      r0,[r5,#0x100]
        0x000005c2:    460e        .F      MOV      r6,r1
        0x000005c4:    f3c04006    ...@    UBFX     r0,r0,#16,#7
        0x000005c8:    42a0        .B      CMP      r0,r4
        0x000005ca:    d205        ..      BCS      0x5d8 ; am_hal_iom_fifo_write + 40
        0x000005cc:    a21b        ..      ADR      r2,{pc}+0x70 ; 0x63c
        0x000005ce:    f240419a    @..A    MOV      r1,#0x49a
        0x000005d2:    a027        '.      ADR      r0,{pc}+0x9e ; 0x670
        0x000005d4:    f7fffec6    ....    BL       am_hal_debug_error ; 0x364
        0x000005d8:    2300        .#      MOVS     r3,#0
        0x000005da:    1ce0        ..      ADDS     r0,r4,#3
        0x000005dc:    2803        .(      CMP      r0,#3
        0x000005de:    d922        ".      BLS      0x626 ; am_hal_iom_fifo_write + 118
        0x000005e0:    f1b44f00    ...O    CMP      r4,#0x80000000
        0x000005e4:    d21f        ..      BCS      0x626 ; am_hal_iom_fifo_write + 118
        0x000005e6:    17c2        ..      ASRS     r2,r0,#31
        0x000005e8:    eb007292    ...r    ADD      r2,r0,r2,LSR #30
        0x000005ec:    2803        .(      CMP      r0,#3
        0x000005ee:    bfd8        ..      IT       LE
        0x000005f0:    2000        .       MOVLE    r0,#0
        0x000005f2:    dd05        ..      BLE      0x600 ; am_hal_iom_fifo_write + 80
        0x000005f4:    f3c20080    ....    UBFX     r0,r2,#2,#1
        0x000005f8:    b110        ..      CBZ      r0,0x600 ; am_hal_iom_fifo_write + 80
        0x000005fa:    6831        1h      LDR      r1,[r6,#0]
        0x000005fc:    6029        )`      STR      r1,[r5,#0]
        0x000005fe:    2301        .#      MOVS     r3,#1
        0x00000600:    2101        .!      MOVS     r1,#1
        0x00000602:    eb0102a2    ....    ADD      r2,r1,r2,ASR #2
        0x00000606:    1c40        @.      ADDS     r0,r0,#1
        0x00000608:    e009        ..      B        0x61e ; am_hal_iom_fifo_write + 110
        0x0000060a:    bf00        ..      NOP      
        0x0000060c:    f8561023    V.#.    LDR      r1,[r6,r3,LSL #2]
        0x00000610:    6029        )`      STR      r1,[r5,#0]
        0x00000612:    1c59        Y.      ADDS     r1,r3,#1
        0x00000614:    f8563021    V.!0    LDR      r3,[r6,r1,LSL #2]
        0x00000618:    602b        +`      STR      r3,[r5,#0]
        0x0000061a:    1c4b        K.      ADDS     r3,r1,#1
        0x0000061c:    1c80        ..      ADDS     r0,r0,#2
        0x0000061e:    4282        .B      CMP      r2,r0
        0x00000620:    dcf4        ..      BGT      0x60c ; am_hal_iom_fifo_write + 92
        0x00000622:    4620         F      MOV      r0,r4
        0x00000624:    bd70        p.      POP      {r4-r6,pc}
        0x00000626:    2c00        .,      CMP      r4,#0
        0x00000628:    d9fb        ..      BLS      0x622 ; am_hal_iom_fifo_write + 114
        0x0000062a:    bf00        ..      NOP      
        0x0000062c:    f8560023    V.#.    LDR      r0,[r6,r3,LSL #2]
        0x00000630:    6028        (`      STR      r0,[r5,#0]
        0x00000632:    1c5b        [.      ADDS     r3,r3,#1
        0x00000634:    ebb40f83    ....    CMP      r4,r3,LSL #2
        0x00000638:    d8f8        ..      BHI      0x62c ; am_hal_iom_fifo_write + 124
        0x0000063a:    e7f2        ..      B        0x622 ; am_hal_iom_fifo_write + 114
    $d
        0x0000063c:    20656854    The     DCD    543516756
        0x00000640:    6f666966    fifo    DCD    1868982630
        0x00000644:    756f6320     cou    DCD    1970234144
        0x00000648:    276e646c    ldn'    DCD    661546092
        0x0000064c:    69662074    t fi    DCD    1768300660
        0x00000650:    68742074    t th    DCD    1752440948
        0x00000654:    65722065    e re    DCD    1701978213
        0x00000658:    73657571    ques    DCD    1936029041
        0x0000065c:    20646574    ted     DCD    543450484
        0x00000660:    626d756e    numb    DCD    1651340654
        0x00000664:    6f207265    er o    DCD    1864397413
        0x00000668:    79622066    f by    DCD    2036473958
        0x0000066c:    00736574    tes.    DCD    7562612
        0x00000670:    612f2e2e    ../a    DCD    1630481966
        0x00000674:    61685f6d    m_ha    DCD    1634230125
        0x00000678:    6f695f6c    l_io    DCD    1869176684
        0x0000067c:    00632e6d    m.c.    DCD    6499949
    $t
    i.am_hal_iom_int_clear
    am_hal_iom_int_clear
        0x00000680:    0300        ..      LSLS     r0,r0,#12
        0x00000682:    f10040a0    ...@    ADD      r0,r0,#0x50000000
        0x00000686:    f5004080    ...@    ADD      r0,r0,#0x4000
        0x0000068a:    f8c01208    ....    STR      r1,[r0,#0x208]
        0x0000068e:    4770        pG      BX       lr
    i.am_hal_iom_int_service
    am_hal_iom_int_service
        0x00000690:    b570        p.      PUSH     {r4-r6,lr}
        0x00000692:    4a32        2J      LDR      r2,[pc,#200] ; [0x75c] = 0x10000cbc
        0x00000694:    eb021400    ....    ADD      r4,r2,r0,LSL #4
        0x00000698:    6822        "h      LDR      r2,[r4,#0]
        0x0000069a:    2a00        .*      CMP      r2,#0
        0x0000069c:    bf08        ..      IT       EQ
        0x0000069e:    bd70        p.      POPEQ    {r4-r6,pc}
        0x000006a0:    f0110f01    ....    TST      r1,#1
        0x000006a4:    ea4f3300    O..3    LSL      r3,r0,#12
        0x000006a8:    f10343a0    ...C    ADD      r3,r3,#0x50000000
        0x000006ac:    f5034380    ...C    ADD      r3,r3,#0x4000
        0x000006b0:    d011        ..      BEQ      0x6d6 ; am_hal_iom_int_service + 70
        0x000006b2:    2a02        .*      CMP      r2,#2
        0x000006b4:    d106        ..      BNE      0x6c4 ; am_hal_iom_int_service + 52
        0x000006b6:    f8d31100    ....    LDR      r1,[r3,#0x100]
        0x000006ba:    f001027f    ....    AND      r2,r1,#0x7f
        0x000006be:    6861        ah      LDR      r1,[r4,#4]
        0x000006c0:    f7ffff0e    ....    BL       am_hal_iom_fifo_read ; 0x4e0
        0x000006c4:    2000        .       MOVS     r0,#0
        0x000006c6:    6020         `      STR      r0,[r4,#0]
        0x000006c8:    68e0        .h      LDR      r0,[r4,#0xc]
        0x000006ca:    2800        .(      CMP      r0,#0
        0x000006cc:    bf08        ..      IT       EQ
        0x000006ce:    bd70        p.      POPEQ    {r4-r6,pc}
        0x000006d0:    e8bd4070    ..p@    POP      {r4-r6,lr}
        0x000006d4:    4700        .G      BX       r0
        0x000006d6:    f0110f02    ....    TST      r1,#2
        0x000006da:    bf08        ..      IT       EQ
        0x000006dc:    bd70        p.      POPEQ    {r4-r6,pc}
        0x000006de:    2a01        .*      CMP      r2,#1
        0x000006e0:    f8d31100    ....    LDR      r1,[r3,#0x100]
        0x000006e4:    d009        ..      BEQ      0x6fa ; am_hal_iom_int_service + 106
        0x000006e6:    68a2        .h      LDR      r2,[r4,#8]
        0x000006e8:    f001017f    ....    AND      r1,r1,#0x7f
        0x000006ec:    4291        .B      CMP      r1,r2
        0x000006ee:    d11c        ..      BNE      0x72a ; am_hal_iom_int_service + 154
        0x000006f0:    6861        ah      LDR      r1,[r4,#4]
        0x000006f2:    e8bd4070    ..p@    POP      {r4-r6,lr}
        0x000006f6:    f7ffbef3    ....    B.W      am_hal_iom_fifo_read ; 0x4e0
        0x000006fa:    68a5        .h      LDR      r5,[r4,#8]
        0x000006fc:    f3c14106    ...A    UBFX     r1,r1,#16,#7
        0x00000700:    42a9        .B      CMP      r1,r5
        0x00000702:    d205        ..      BCS      0x710 ; am_hal_iom_int_service + 128
        0x00000704:    f8d31100    ....    LDR      r1,[r3,#0x100]
        0x00000708:    f3c14106    ...A    UBFX     r1,r1,#16,#7
        0x0000070c:    f0210503    !...    BIC      r5,r1,#3
        0x00000710:    462a        *F      MOV      r2,r5
        0x00000712:    6861        ah      LDR      r1,[r4,#4]
        0x00000714:    f7ffff4c    ..L.    BL       am_hal_iom_fifo_write ; 0x5b0
        0x00000718:    68a0        .h      LDR      r0,[r4,#8]
        0x0000071a:    f0250103    %...    BIC      r1,r5,#3
        0x0000071e:    1b40        @.      SUBS     r0,r0,r5
        0x00000720:    60a0        .`      STR      r0,[r4,#8]
        0x00000722:    6860        `h      LDR      r0,[r4,#4]
        0x00000724:    4408        .D      ADD      r0,r0,r1
        0x00000726:    6060        ``      STR      r0,[r4,#4]
        0x00000728:    bd70        p.      POP      {r4-r6,pc}
        0x0000072a:    f8d31100    ....    LDR      r1,[r3,#0x100]
        0x0000072e:    f001017f    ....    AND      r1,r1,#0x7f
        0x00000732:    2904        .)      CMP      r1,#4
        0x00000734:    bf38        8.      IT       CC
        0x00000736:    bd70        p.      POPCC    {r4-r6,pc}
        0x00000738:    f8d31100    ....    LDR      r1,[r3,#0x100]
        0x0000073c:    f001057c    ..|.    AND      r5,r1,#0x7c
        0x00000740:    462a        *F      MOV      r2,r5
        0x00000742:    6861        ah      LDR      r1,[r4,#4]
        0x00000744:    f7fffecc    ....    BL       am_hal_iom_fifo_read ; 0x4e0
        0x00000748:    68a0        .h      LDR      r0,[r4,#8]
        0x0000074a:    f0250103    %...    BIC      r1,r5,#3
        0x0000074e:    1b40        @.      SUBS     r0,r0,r5
        0x00000750:    60a0        .`      STR      r0,[r4,#8]
        0x00000752:    6860        `h      LDR      r0,[r4,#4]
        0x00000754:    4408        .D      ADD      r0,r0,r1
        0x00000756:    6060        ``      STR      r0,[r4,#4]
        0x00000758:    bd70        p.      POP      {r4-r6,pc}
    $d
        0x0000075a:    0000        ..      DCW    0
        0x0000075c:    10000cbc    ....    DCD    268438716
    $t
    i.am_hal_iom_int_status_get
    am_hal_iom_int_status_get
        0x00000760:    0300        ..      LSLS     r0,r0,#12
        0x00000762:    f10040a0    ...@    ADD      r0,r0,#0x50000000
        0x00000766:    f5004080    ...@    ADD      r0,r0,#0x4000
        0x0000076a:    2900        .)      CMP      r1,#0
        0x0000076c:    bf04        ..      ITT      EQ
        0x0000076e:    f8d00204    ....    LDREQ    r0,[r0,#0x204]
        0x00000772:    4770        pG      BXEQ     lr
        0x00000774:    f8d01204    ....    LDR      r1,[r0,#0x204]
        0x00000778:    f8d00200    ....    LDR      r0,[r0,#0x200]
        0x0000077c:    4008        .@      ANDS     r0,r0,r1
        0x0000077e:    4770        pG      BX       lr
    i.am_hal_iom_spi_read
    am_hal_iom_spi_read
        0x00000780:    e92d41f0    -..A    PUSH     {r4-r8,lr}
        0x00000784:    461c        .F      MOV      r4,r3
        0x00000786:    f8dd8018    ....    LDR      r8,[sp,#0x18]
        0x0000078a:    4616        .F      MOV      r6,r2
        0x0000078c:    460d        .F      MOV      r5,r1
        0x0000078e:    4607        .F      MOV      r7,r0
        0x00000790:    f5b35f80    ..._    CMP      r3,#0x1000
        0x00000794:    d305        ..      BCC      0x7a2 ; am_hal_iom_spi_read + 34
        0x00000796:    a227        '.      ADR      r2,{pc}+0x9e ; 0x834
        0x00000798:    f240117b    @.{.    MOV      r1,#0x17b
        0x0000079c:    a02b        +.      ADR      r0,{pc}+0xb0 ; 0x84c
        0x0000079e:    f7fffde1    ....    BL       am_hal_debug_error ; 0x364
        0x000007a2:    0338        8.      LSLS     r0,r7,#12
        0x000007a4:    f10041a0    ...A    ADD      r1,r0,#0x50000000
        0x000007a8:    f5014180    ...A    ADD      r1,r1,#0x4000
        0x000007ac:    f8d10118    ....    LDR      r0,[r1,#0x118]
        0x000007b0:    f0100f04    ....    TST      r0,#4
        0x000007b4:    d0fa        ..      BEQ      0x7ac ; am_hal_iom_spi_read + 44
        0x000007b6:    f04f4000    O..@    MOV      r0,#0x80000000
        0x000007ba:    f4046170    ..pa    AND      r1,r4,#0xf00
        0x000007be:    ea4030c1    @..0    ORR      r0,r0,r1,LSL #15
        0x000007c2:    b2e1        ..      UXTB     r1,r4
        0x000007c4:    4308        .C      ORRS     r0,r0,r1
        0x000007c6:    f44f21e0    O..!    MOV      r1,#0x70000
        0x000007ca:    ea014105    ...A    AND      r1,r1,r5,LSL #16
        0x000007ce:    4308        .C      ORRS     r0,r0,r1
        0x000007d0:    4922        "I      LDR      r1,[pc,#136] ; [0x85c] = 0x5c00ff00
        0x000007d2:    ea080101    ....    AND      r1,r8,r1
        0x000007d6:    4308        .C      ORRS     r0,r0,r1
        0x000007d8:    0339        9.      LSLS     r1,r7,#12
        0x000007da:    f10145a0    ...E    ADD      r5,r1,#0x50000000
        0x000007de:    f5054580    ...E    ADD      r5,r5,#0x4000
        0x000007e2:    f8c50110    ....    STR      r0,[r5,#0x110]
        0x000007e6:    f8d50118    ....    LDR      r0,[r5,#0x118]
        0x000007ea:    f0100f04    ....    TST      r0,#4
        0x000007ee:    bf18        ..      IT       NE
        0x000007f0:    e8bd81f0    ....    POPNE    {r4-r8,pc}
        0x000007f4:    f8d50100    ....    LDR      r0,[r5,#0x100]
        0x000007f8:    f000017f    ....    AND      r1,r0,#0x7f
        0x000007fc:    42a1        .B      CMP      r1,r4
        0x000007fe:    d105        ..      BNE      0x80c ; am_hal_iom_spi_read + 140
        0x00000800:    4622        "F      MOV      r2,r4
        0x00000802:    4631        1F      MOV      r1,r6
        0x00000804:    4638        8F      MOV      r0,r7
        0x00000806:    f7fffe6b    ..k.    BL       am_hal_iom_fifo_read ; 0x4e0
        0x0000080a:    e00c        ..      B        0x826 ; am_hal_iom_spi_read + 166
        0x0000080c:    f8d50100    ....    LDR      r0,[r5,#0x100]
        0x00000810:    f000007f    ....    AND      r0,r0,#0x7f
        0x00000814:    2804        .(      CMP      r0,#4
        0x00000816:    d306        ..      BCC      0x826 ; am_hal_iom_spi_read + 166
        0x00000818:    2204        ."      MOVS     r2,#4
        0x0000081a:    4631        1F      MOV      r1,r6
        0x0000081c:    4638        8F      MOV      r0,r7
        0x0000081e:    f7fffe5f    .._.    BL       am_hal_iom_fifo_read ; 0x4e0
        0x00000822:    1f24        $.      SUBS     r4,r4,#4
        0x00000824:    1d36        6.      ADDS     r6,r6,#4
        0x00000826:    f8d50118    ....    LDR      r0,[r5,#0x118]
        0x0000082a:    f0100f04    ....    TST      r0,#4
        0x0000082e:    d0e1        ..      BEQ      0x7f4 ; am_hal_iom_spi_read + 116
        0x00000830:    e8bd81f0    ....    POP      {r4-r8,pc}
    $d
        0x00000834:    20495053    SPI     DCD    541675603
        0x00000838:    6e617274    tran    DCD    1851880052
        0x0000083c:    72656673    sfer    DCD    1919247987
        0x00000840:    6f6f7420     too    DCD    1869575200
        0x00000844:    67696220     big    DCD    1734959648
        0x00000848:    0000002e    ....    DCD    46
        0x0000084c:    612f2e2e    ../a    DCD    1630481966
        0x00000850:    61685f6d    m_ha    DCD    1634230125
        0x00000854:    6f695f6c    l_io    DCD    1869176684
        0x00000858:    00632e6d    m.c.    DCD    6499949
        0x0000085c:    5c00ff00    ...\    DCD    1543569152
    $t
    i.am_hal_iom_spi_write
    am_hal_iom_spi_write
        0x00000860:    e92d47f0    -..G    PUSH     {r4-r10,lr}
        0x00000864:    461c        .F      MOV      r4,r3
        0x00000866:    9f08        ..      LDR      r7,[sp,#0x20]
        0x00000868:    4691        .F      MOV      r9,r2
        0x0000086a:    460e        .F      MOV      r6,r1
        0x0000086c:    4680        .F      MOV      r8,r0
        0x0000086e:    f5b35f80    ..._    CMP      r3,#0x1000
        0x00000872:    d305        ..      BCC      0x880 ; am_hal_iom_spi_write + 32
        0x00000874:    a229        ).      ADR      r2,{pc}+0xa8 ; 0x91c
        0x00000876:    f44f718f    O..q    MOV      r1,#0x11e
        0x0000087a:    a02e        ..      ADR      r0,{pc}+0xba ; 0x934
        0x0000087c:    f7fffd72    ..r.    BL       am_hal_debug_error ; 0x364
        0x00000880:    2c40        @,      CMP      r4,#0x40
        0x00000882:    bf94        ..      ITE      LS
        0x00000884:    4625        %F      MOVLS    r5,r4
        0x00000886:    2540        @%      MOVHI    r5,#0x40
        0x00000888:    ea4f3008    O..0    LSL      r0,r8,#12
        0x0000088c:    f10040a0    ...@    ADD      r0,r0,#0x50000000
        0x00000890:    f5004080    ...@    ADD      r0,r0,#0x4000
        0x00000894:    f8d01118    ....    LDR      r1,[r0,#0x118]
        0x00000898:    f0110f04    ....    TST      r1,#4
        0x0000089c:    d0fa        ..      BEQ      0x894 ; am_hal_iom_spi_write + 52
        0x0000089e:    462a        *F      MOV      r2,r5
        0x000008a0:    4649        IF      MOV      r1,r9
        0x000008a2:    4640        @F      MOV      r0,r8
        0x000008a4:    f7fffe84    ....    BL       am_hal_iom_fifo_write ; 0x5b0
        0x000008a8:    2000        .       MOVS     r0,#0
        0x000008aa:    f4046170    ..pa    AND      r1,r4,#0xf00
        0x000008ae:    ea4030c1    @..0    ORR      r0,r0,r1,LSL #15
        0x000008b2:    b2e1        ..      UXTB     r1,r4
        0x000008b4:    4308        .C      ORRS     r0,r0,r1
        0x000008b6:    f44f21e0    O..!    MOV      r1,#0x70000
        0x000008ba:    ea014106    ...A    AND      r1,r1,r6,LSL #16
        0x000008be:    4308        .C      ORRS     r0,r0,r1
        0x000008c0:    4920         I      LDR      r1,[pc,#128] ; [0x944] = 0x5c00ff00
        0x000008c2:    4039        9@      ANDS     r1,r1,r7
        0x000008c4:    4308        .C      ORRS     r0,r0,r1
        0x000008c6:    ea4f3108    O..1    LSL      r1,r8,#12
        0x000008ca:    f10147a0    ...G    ADD      r7,r1,#0x50000000
        0x000008ce:    f5074780    ...G    ADD      r7,r7,#0x4000
        0x000008d2:    f8c70110    ....    STR      r0,[r7,#0x110]
        0x000008d6:    f0250003    %...    BIC      r0,r5,#3
        0x000008da:    1b64        d.      SUBS     r4,r4,r5
        0x000008dc:    eb000609    ....    ADD      r6,r0,r9
        0x000008e0:    bf08        ..      IT       EQ
        0x000008e2:    e8bd87f0    ....    POPEQ    {r4-r10,pc}
        0x000008e6:    bf00        ..      NOP      
        0x000008e8:    f8d70100    ....    LDR      r0,[r7,#0x100]
        0x000008ec:    f3c04006    ...@    UBFX     r0,r0,#16,#7
        0x000008f0:    42a0        .B      CMP      r0,r4
        0x000008f2:    bf28        (.      IT       CS
        0x000008f4:    4625        %F      MOVCS    r5,r4
        0x000008f6:    d205        ..      BCS      0x904 ; am_hal_iom_spi_write + 164
        0x000008f8:    f8d70100    ....    LDR      r0,[r7,#0x100]
        0x000008fc:    f3c04006    ...@    UBFX     r0,r0,#16,#7
        0x00000900:    f0200503     ...    BIC      r5,r0,#3
        0x00000904:    462a        *F      MOV      r2,r5
        0x00000906:    4631        1F      MOV      r1,r6
        0x00000908:    4640        @F      MOV      r0,r8
        0x0000090a:    f7fffe51    ..Q.    BL       am_hal_iom_fifo_write ; 0x5b0
        0x0000090e:    f0250003    %...    BIC      r0,r5,#3
        0x00000912:    1b64        d.      SUBS     r4,r4,r5
        0x00000914:    4406        .D      ADD      r6,r6,r0
        0x00000916:    d1e7        ..      BNE      0x8e8 ; am_hal_iom_spi_write + 136
        0x00000918:    e8bd87f0    ....    POP      {r4-r10,pc}
    $d
        0x0000091c:    20495053    SPI     DCD    541675603
        0x00000920:    6e617274    tran    DCD    1851880052
        0x00000924:    72656673    sfer    DCD    1919247987
        0x00000928:    6f6f7420     too    DCD    1869575200
        0x0000092c:    67696220     big    DCD    1734959648
        0x00000930:    0000002e    ....    DCD    46
        0x00000934:    612f2e2e    ../a    DCD    1630481966
        0x00000938:    61685f6d    m_ha    DCD    1634230125
        0x0000093c:    6f695f6c    l_io    DCD    1869176684
        0x00000940:    00632e6d    m.c.    DCD    6499949
        0x00000944:    5c00ff00    ...\    DCD    1543569152
    $t
    i.am_hal_itm_delay_us
    am_hal_itm_delay_us
        0x00000948:    b510        ..      PUSH     {r4,lr}
        0x0000094a:    4604        .F      MOV      r4,r0
        0x0000094c:    f7fffcd2    ....    BL       am_hal_clkgen_sysclk_get ; 0x2f4
        0x00000950:    4903        .I      LDR      r1,[pc,#12] ; [0x960] = 0x2dc6c0
        0x00000952:    fbb0f0f1    ....    UDIV     r0,r0,r1
        0x00000956:    4360        `C      MULS     r0,r4,r0
        0x00000958:    e8bd4010    ...@    POP      {r4,lr}
        0x0000095c:    f7ffbc06    ....    B.W      __asm___12_am_hal_itm_c_0782d9ac__am_itm_delay_cycles ; 0x16c
    $d
        0x00000960:    002dc6c0    ..-.    DCD    3000000
    $t
    i.am_hal_itm_enable
    am_hal_itm_enable
        0x00000964:    480d        .H      LDR      r0,[pc,#52] ; [0x99c] = 0x10000028
        0x00000966:    6800        .h      LDR      r0,[r0,#0]
        0x00000968:    f0100f01    ....    TST      r0,#1
        0x0000096c:    bf18        ..      IT       NE
        0x0000096e:    4770        pG      BXNE     lr
        0x00000970:    480b        .H      LDR      r0,[pc,#44] ; [0x9a0] = 0xe000edfc
        0x00000972:    6801        .h      LDR      r1,[r0,#0]
        0x00000974:    f0417180    A..q    ORR      r1,r1,#0x1000000
        0x00000978:    6001        .`      STR      r1,[r0,#0]
        0x0000097a:    6801        .h      LDR      r1,[r0,#0]
        0x0000097c:    f0117f80    ....    TST      r1,#0x1000000
        0x00000980:    d0fb        ..      BEQ      0x97a ; am_hal_itm_enable + 22
        0x00000982:    4909        .I      LDR      r1,[pc,#36] ; [0x9a8] = 0xe0000fb0
        0x00000984:    4807        .H      LDR      r0,[pc,#28] ; [0x9a4] = 0xc5acce55
        0x00000986:    6008        .`      STR      r0,[r1,#0]
        0x00000988:    4908        .I      LDR      r1,[pc,#32] ; [0x9ac] = 0xe0000e40
        0x0000098a:    200f        .       MOVS     r0,#0xf
        0x0000098c:    6008        .`      STR      r0,[r1,#0]
        0x0000098e:    1748        H.      ASRS     r0,r1,#29
        0x00000990:    4907        .I      LDR      r1,[pc,#28] ; [0x9b0] = 0xe0000e00
        0x00000992:    6008        .`      STR      r0,[r1,#0]
        0x00000994:    4908        .I      LDR      r1,[pc,#32] ; [0x9b8] = 0xe0000e80
        0x00000996:    4807        .H      LDR      r0,[pc,#28] ; [0x9b4] = 0x150511
        0x00000998:    6008        .`      STR      r0,[r1,#0]
        0x0000099a:    4770        pG      BX       lr
    $d
        0x0000099c:    10000028    (...    DCD    268435496
        0x000009a0:    e000edfc    ....    DCD    3758157308
        0x000009a4:    c5acce55    U...    DCD    3316436565
        0x000009a8:    e0000fb0    ....    DCD    3758100400
        0x000009ac:    e0000e40    @...    DCD    3758100032
        0x000009b0:    e0000e00    ....    DCD    3758099968
        0x000009b4:    00150511    ....    DCD    1377553
        0x000009b8:    e0000e80    ....    DCD    3758100096
    $t
    i.am_hal_itm_print
    am_hal_itm_print
        0x000009bc:    7802        .x      LDRB     r2,[r0,#0]
        0x000009be:    2100        .!      MOVS     r1,#0
        0x000009c0:    2a00        .*      CMP      r2,#0
        0x000009c2:    bf08        ..      IT       EQ
        0x000009c4:    4770        pG      BXEQ     lr
        0x000009c6:    1c49        I.      ADDS     r1,r1,#1
        0x000009c8:    5c42        B\      LDRB     r2,[r0,r1]
        0x000009ca:    2a00        .*      CMP      r2,#0
        0x000009cc:    d1fb        ..      BNE      0x9c6 ; am_hal_itm_print + 10
        0x000009ce:    2900        .)      CMP      r1,#0
        0x000009d0:    bf08        ..      IT       EQ
        0x000009d2:    4770        pG      BXEQ     lr
        0x000009d4:    b4f0        ..      PUSH     {r4-r7}
        0x000009d6:    4e0f        .N      LDR      r6,[pc,#60] ; [0xa14] = 0x10000034
        0x000009d8:    f04f4760    O.`G    MOV      r7,#0xe0000000
        0x000009dc:    1d34        4.      ADDS     r4,r6,#4
        0x000009de:    46b4        .F      MOV      r12,r6
        0x000009e0:    f8dc2004    ...     LDR      r2,[r12,#4]
        0x000009e4:    f8523b04    R..;    LDR      r3,[r2],#4
        0x000009e8:    f8cc2004    ...     STR      r2,[r12,#4]
        0x000009ec:    f8105b01    ...[    LDRB     r5,[r0],#1
        0x000009f0:    eb070283    ....    ADD      r2,r7,r3,LSL #2
        0x000009f4:    6813        .h      LDR      r3,[r2,#0]
        0x000009f6:    2b00        .+      CMP      r3,#0
        0x000009f8:    d0fc        ..      BEQ      0x9f4 ; am_hal_itm_print + 56
        0x000009fa:    7015        .p      STRB     r5,[r2,#0]
        0x000009fc:    f8dc2004    ...     LDR      r2,[r12,#4]
        0x00000a00:    1e49        I.      SUBS     r1,r1,#1
        0x00000a02:    42a2        .B      CMP      r2,r4
        0x00000a04:    bf28        (.      IT       CS
        0x00000a06:    f8cc6004    ...`    STRCS    r6,[r12,#4]
        0x00000a0a:    2900        .)      CMP      r1,#0
        0x00000a0c:    d1e8        ..      BNE      0x9e0 ; am_hal_itm_print + 36
        0x00000a0e:    bcf0        ..      POP      {r4-r7}
        0x00000a10:    4770        pG      BX       lr
    $d
        0x00000a12:    0000        ..      DCW    0
        0x00000a14:    10000034    4...    DCD    268435508
    $t
    i.am_hal_mcuctrl_bandgap_disable
    am_hal_mcuctrl_bandgap_disable
        0x00000a18:    4902        .I      LDR      r1,[pc,#8] ; [0xa24] = 0x40020000
        0x00000a1a:    f06f0001    o...    MVN      r0,#1
        0x00000a1e:    f8c100fc    ....    STR      r0,[r1,#0xfc]
        0x00000a22:    4770        pG      BX       lr
    $d
        0x00000a24:    40020000    ...@    DCD    1073872896
    $t
    i.am_hal_mcuctrl_bucks_enable
    am_hal_mcuctrl_bucks_enable
        0x00000a28:    4808        .H      LDR      r0,[pc,#32] ; [0xa4c] = 0x40020000
        0x00000a2a:    6901        .i      LDR      r1,[r0,#0x10]
        0x00000a2c:    f0410102    A...    ORR      r1,r1,#2
        0x00000a30:    6101        .a      STR      r1,[r0,#0x10]
        0x00000a32:    6901        .i      LDR      r1,[r0,#0x10]
        0x00000a34:    f0410101    A...    ORR      r1,r1,#1
        0x00000a38:    6101        .a      STR      r1,[r0,#0x10]
        0x00000a3a:    6941        Ai      LDR      r1,[r0,#0x14]
        0x00000a3c:    f0110f02    ....    TST      r1,#2
        0x00000a40:    d0fb        ..      BEQ      0xa3a ; am_hal_mcuctrl_bucks_enable + 18
        0x00000a42:    6941        Ai      LDR      r1,[r0,#0x14]
        0x00000a44:    f0110f01    ....    TST      r1,#1
        0x00000a48:    d0fb        ..      BEQ      0xa42 ; am_hal_mcuctrl_bucks_enable + 26
        0x00000a4a:    4770        pG      BX       lr
    $d
        0x00000a4c:    40020000    ...@    DCD    1073872896
    $t
    i.am_hal_rtc_osc_disable
    am_hal_rtc_osc_disable
        0x00000a50:    f04f2040    O.@     MOV      r0,#0x40004000
        0x00000a54:    6d01        .m      LDR      r1,[r0,#0x50]
        0x00000a56:    f0410110    A...    ORR      r1,r1,#0x10
        0x00000a5a:    6501        .e      STR      r1,[r0,#0x50]
        0x00000a5c:    4770        pG      BX       lr
    i.am_hal_rtc_osc_select
    am_hal_rtc_osc_select
        0x00000a5e:    f04f2140    O.@!    MOV      r1,#0x40004000
        0x00000a62:    2800        .(      CMP      r0,#0
        0x00000a64:    68c8        .h      LDR      r0,[r1,#0xc]
        0x00000a66:    bf14        ..      ITE      NE
        0x00000a68:    f0400080    @...    ORRNE    r0,r0,#0x80
        0x00000a6c:    f0200080     ...    BICEQ    r0,r0,#0x80
        0x00000a70:    60c8        .`      STR      r0,[r1,#0xc]
        0x00000a72:    4770        pG      BX       lr
    i.am_hal_tpiu_enable
    am_hal_tpiu_enable
        0x00000a74:    4809        .H      LDR      r0,[pc,#36] ; [0xa9c] = 0xe0040000
        0x00000a76:    2100        .!      MOVS     r1,#0
        0x00000a78:    f8c01304    ....    STR      r1,[r0,#0x304]
        0x00000a7c:    2201        ."      MOVS     r2,#1
        0x00000a7e:    6042        B`      STR      r2,[r0,#4]
        0x00000a80:    2202        ."      MOVS     r2,#2
        0x00000a82:    6102        .a      STR      r2,[r0,#0x10]
        0x00000a84:    f8c020f0    ...     STR      r2,[r0,#0xf0]
        0x00000a88:    4805        .H      LDR      r0,[pc,#20] ; [0xaa0] = 0xe0040f00
        0x00000a8a:    6001        .`      STR      r1,[r0,#0]
        0x00000a8c:    4905        .I      LDR      r1,[pc,#20] ; [0xaa4] = 0x40020000
        0x00000a8e:    f2402001    @..     MOV      r0,#0x201
        0x00000a92:    f8c10250    ..P.    STR      r0,[r1,#0x250]
        0x00000a96:    2032        2       MOVS     r0,#0x32
        0x00000a98:    f7ffbf56    ..V.    B.W      am_hal_itm_delay_us ; 0x948
    $d
        0x00000a9c:    e0040000    ....    DCD    3758358528
        0x00000aa0:    e0040f00    ....    DCD    3758362368
        0x00000aa4:    40020000    ...@    DCD    1073872896
    $t
    i.am_hal_uart_char_receive_buffered
    am_hal_uart_char_receive_buffered
        0x00000aa8:    b430        0.      PUSH     {r4,r5}
        0x00000aaa:    2300        .#      MOVS     r3,#0
        0x00000aac:    4a14        .J      LDR      r2,[pc,#80] ; [0xb00] = 0x10000cf0
        0x00000aae:    e01c        ..      B        0xaea ; am_hal_uart_char_receive_buffered + 66
        0x00000ab0:    68d4        .h      LDR      r4,[r2,#0xc]
        0x00000ab2:    2c01        .,      CMP      r4,#1
        0x00000ab4:    d316        ..      BCC      0xae4 ; am_hal_uart_char_receive_buffered + 60
        0x00000ab6:    f8d2c000    ....    LDR      r12,[r2,#0]
        0x00000aba:    6894        .h      LDR      r4,[r2,#8]
        0x00000abc:    f81c4004    ...@    LDRB     r4,[r12,r4]
        0x00000ac0:    7004        .p      STRB     r4,[r0,#0]
        0x00000ac2:    f8d2c008    ....    LDR      r12,[r2,#8]
        0x00000ac6:    6914        .i      LDR      r4,[r2,#0x10]
        0x00000ac8:    f10c0c01    ....    ADD      r12,r12,#1
        0x00000acc:    fbbcf5f4    ....    UDIV     r5,r12,r4
        0x00000ad0:    fb04cc15    ....    MLS      r12,r4,r5,r12
        0x00000ad4:    f8c2c008    ....    STR      r12,[r2,#8]
        0x00000ad8:    f8d2c00c    ....    LDR      r12,[r2,#0xc]
        0x00000adc:    f1ac0c01    ....    SUB      r12,r12,#1
        0x00000ae0:    f8c2c00c    ....    STR      r12,[r2,#0xc]
        0x00000ae4:    1c40        @.      ADDS     r0,r0,#1
        0x00000ae6:    1e49        I.      SUBS     r1,r1,#1
        0x00000ae8:    1c5b        [.      ADDS     r3,r3,#1
        0x00000aea:    f8d2c00c    ....    LDR      r12,[r2,#0xc]
        0x00000aee:    f1bc0f00    ....    CMP      r12,#0
        0x00000af2:    bf18        ..      IT       NE
        0x00000af4:    2900        .)      CMPNE    r1,#0
        0x00000af6:    d1db        ..      BNE      0xab0 ; am_hal_uart_char_receive_buffered + 8
        0x00000af8:    bc30        0.      POP      {r4,r5}
        0x00000afa:    4618        .F      MOV      r0,r3
        0x00000afc:    4770        pG      BX       lr
    $d
        0x00000afe:    0000        ..      DCW    0
        0x00000b00:    10000cf0    ....    DCD    268438768
    $t
    i.am_hal_uart_char_transmit_buffered
    am_hal_uart_char_transmit_buffered
        0x00000b04:    490f        .I      LDR      r1,[pc,#60] ; [0xb44] = 0x10000cdc
        0x00000b06:    68ca        .h      LDR      r2,[r1,#0xc]
        0x00000b08:    b932        2.      CBNZ     r2,0xb18 ; am_hal_uart_char_transmit_buffered + 20
        0x00000b0a:    4a0f        .J      LDR      r2,[pc,#60] ; [0xb48] = 0x4001c000
        0x00000b0c:    6993        .i      LDR      r3,[r2,#0x18]
        0x00000b0e:    f0130f20    .. .    TST      r3,#0x20
        0x00000b12:    bf04        ..      ITT      EQ
        0x00000b14:    6010        .`      STREQ    r0,[r2,#0]
        0x00000b16:    4770        pG      BXEQ     lr
        0x00000b18:    690a        .i      LDR      r2,[r1,#0x10]
        0x00000b1a:    68cb        .h      LDR      r3,[r1,#0xc]
        0x00000b1c:    1ad2        ..      SUBS     r2,r2,r3
        0x00000b1e:    2a01        .*      CMP      r2,#1
        0x00000b20:    bf38        8.      IT       CC
        0x00000b22:    4770        pG      BXCC     lr
        0x00000b24:    684b        Kh      LDR      r3,[r1,#4]
        0x00000b26:    680a        .h      LDR      r2,[r1,#0]
        0x00000b28:    54d0        .T      STRB     r0,[r2,r3]
        0x00000b2a:    6848        Hh      LDR      r0,[r1,#4]
        0x00000b2c:    690a        .i      LDR      r2,[r1,#0x10]
        0x00000b2e:    1c40        @.      ADDS     r0,r0,#1
        0x00000b30:    fbb0f3f2    ....    UDIV     r3,r0,r2
        0x00000b34:    fb020013    ....    MLS      r0,r2,r3,r0
        0x00000b38:    6048        H`      STR      r0,[r1,#4]
        0x00000b3a:    68c8        .h      LDR      r0,[r1,#0xc]
        0x00000b3c:    1c40        @.      ADDS     r0,r0,#1
        0x00000b3e:    60c8        .`      STR      r0,[r1,#0xc]
        0x00000b40:    4770        pG      BX       lr
    $d
        0x00000b42:    0000        ..      DCW    0
        0x00000b44:    10000cdc    ....    DCD    268438748
        0x00000b48:    4001c000    ...@    DCD    1073856512
    $t
    i.am_hal_uart_clock_enable
    am_hal_uart_clock_enable
        0x00000b4c:    f04f2040    O.@     MOV      r0,#0x40004000
        0x00000b50:    6ac1        .j      LDR      r1,[r0,#0x2c]
        0x00000b52:    f0410101    A...    ORR      r1,r1,#1
        0x00000b56:    62c1        .b      STR      r1,[r0,#0x2c]
        0x00000b58:    4804        .H      LDR      r0,[pc,#16] ; [0xb6c] = 0x4001c000
        0x00000b5a:    6b01        .k      LDR      r1,[r0,#0x30]
        0x00000b5c:    f0410108    A...    ORR      r1,r1,#8
        0x00000b60:    6301        .c      STR      r1,[r0,#0x30]
        0x00000b62:    6b01        .k      LDR      r1,[r0,#0x30]
        0x00000b64:    f0410110    A...    ORR      r1,r1,#0x10
        0x00000b68:    6301        .c      STR      r1,[r0,#0x30]
        0x00000b6a:    4770        pG      BX       lr
    $d
        0x00000b6c:    4001c000    ...@    DCD    1073856512
    $t
    i.am_hal_uart_config
    am_hal_uart_config
        0x00000b70:    b570        p.      PUSH     {r4-r6,lr}
        0x00000b72:    4604        .F      MOV      r4,r0
        0x00000b74:    6805        .h      LDR      r5,[r0,#0]
        0x00000b76:    f7fffbbd    ....    BL       am_hal_clkgen_sysclk_get ; 0x2f4
        0x00000b7a:    0129        ).      LSLS     r1,r5,#4
        0x00000b7c:    fbb0f2f1    ....    UDIV     r2,r0,r1
        0x00000b80:    0180        ..      LSLS     r0,r0,#6
        0x00000b82:    fbb0f0f1    ....    UDIV     r0,r0,r1
        0x00000b86:    0191        ..      LSLS     r1,r2,#6
        0x00000b88:    1a40        @.      SUBS     r0,r0,r1
        0x00000b8a:    b1ba        ..      CBZ      r2,0xbbc ; am_hal_uart_config + 76
        0x00000b8c:    490c        .I      LDR      r1,[pc,#48] ; [0xbc0] = 0x4001c000
        0x00000b8e:    624a        Jb      STR      r2,[r1,#0x24]
        0x00000b90:    624a        Jb      STR      r2,[r1,#0x24]
        0x00000b92:    6288        .b      STR      r0,[r1,#0x28]
        0x00000b94:    7a22        "z      LDRB     r2,[r4,#8]
        0x00000b96:    6860        `h      LDR      r0,[r4,#4]
        0x00000b98:    2a00        .*      CMP      r2,#0
        0x00000b9a:    bf18        ..      IT       NE
        0x00000b9c:    2208        ."      MOVNE    r2,#8
        0x00000b9e:    4310        .C      ORRS     r0,r0,r2
        0x00000ba0:    68e2        .h      LDR      r2,[r4,#0xc]
        0x00000ba2:    4310        .C      ORRS     r0,r0,r2
        0x00000ba4:    6aca        .j      LDR      r2,[r1,#0x2c]
        0x00000ba6:    4310        .C      ORRS     r0,r0,r2
        0x00000ba8:    62c8        .b      STR      r0,[r1,#0x2c]
        0x00000baa:    6b08        .k      LDR      r0,[r1,#0x30]
        0x00000bac:    6922        "i      LDR      r2,[r4,#0x10]
        0x00000bae:    4310        .C      ORRS     r0,r0,r2
        0x00000bb0:    6308        .c      STR      r0,[r1,#0x30]
        0x00000bb2:    6b08        .k      LDR      r0,[r1,#0x30]
        0x00000bb4:    f0400010    @...    ORR      r0,r0,#0x10
        0x00000bb8:    6308        .c      STR      r0,[r1,#0x30]
        0x00000bba:    bd70        p.      POP      {r4-r6,pc}
        0x00000bbc:    e7fe        ..      B        0xbbc ; am_hal_uart_config + 76
    $d
        0x00000bbe:    0000        ..      DCW    0
        0x00000bc0:    4001c000    ...@    DCD    1073856512
    $t
    i.am_hal_uart_disable
    am_hal_uart_disable
        0x00000bc4:    4803        .H      LDR      r0,[pc,#12] ; [0xbd4] = 0x4001c000
        0x00000bc6:    6b01        .k      LDR      r1,[r0,#0x30]
        0x00000bc8:    f0210101    !...    BIC      r1,r1,#1
        0x00000bcc:    f4217140    !.@q    BIC      r1,r1,#0x300
        0x00000bd0:    6301        .c      STR      r1,[r0,#0x30]
        0x00000bd2:    4770        pG      BX       lr
    $d
        0x00000bd4:    4001c000    ...@    DCD    1073856512
    $t
    i.am_hal_uart_enable
    am_hal_uart_enable
        0x00000bd8:    4803        .H      LDR      r0,[pc,#12] ; [0xbe8] = 0x4001c000
        0x00000bda:    6b01        .k      LDR      r1,[r0,#0x30]
        0x00000bdc:    f2403201    @..2    MOV      r2,#0x301
        0x00000be0:    4311        .C      ORRS     r1,r1,r2
        0x00000be2:    6301        .c      STR      r1,[r0,#0x30]
        0x00000be4:    4770        pG      BX       lr
    $d
        0x00000be6:    0000        ..      DCW    0
        0x00000be8:    4001c000    ...@    DCD    1073856512
    $t
    i.am_hal_uart_fifo_config
    am_hal_uart_fifo_config
        0x00000bec:    4903        .I      LDR      r1,[pc,#12] ; [0xbfc] = 0x4001c000
        0x00000bee:    6aca        .j      LDR      r2,[r1,#0x2c]
        0x00000bf0:    f0420210    B...    ORR      r2,r2,#0x10
        0x00000bf4:    62ca        .b      STR      r2,[r1,#0x2c]
        0x00000bf6:    6348        Hc      STR      r0,[r1,#0x34]
        0x00000bf8:    4770        pG      BX       lr
    $d
        0x00000bfa:    0000        ..      DCW    0
        0x00000bfc:    4001c000    ...@    DCD    1073856512
    $t
    i.am_hal_uart_init_buffered
    am_hal_uart_init_buffered
        0x00000c00:    f8dfc03c    ..<.    LDR      r12,[pc,#60] ; [0xc40] = 0x4001c000
        0x00000c04:    b410        ..      PUSH     {r4}
        0x00000c06:    f8dc4038    ..8@    LDR      r4,[r12,#0x38]
        0x00000c0a:    f0440460    D.`.    ORR      r4,r4,#0x60
        0x00000c0e:    f8cc4038    ..8@    STR      r4,[r12,#0x38]
        0x00000c12:    4c0c        .L      LDR      r4,[pc,#48] ; [0xc44] = 0x10000cf0
        0x00000c14:    f04f0c00    O...    MOV      r12,#0
        0x00000c18:    f8c4c004    ....    STR      r12,[r4,#4]
        0x00000c1c:    f8c4c008    ....    STR      r12,[r4,#8]
        0x00000c20:    f8c4c00c    ....    STR      r12,[r4,#0xc]
        0x00000c24:    6121        !a      STR      r1,[r4,#0x10]
        0x00000c26:    6020         `      STR      r0,[r4,#0]
        0x00000c28:    f1a40014    ....    SUB      r0,r4,#0x14
        0x00000c2c:    f8c0c004    ....    STR      r12,[r0,#4]
        0x00000c30:    f8c0c008    ....    STR      r12,[r0,#8]
        0x00000c34:    f8c0c00c    ....    STR      r12,[r0,#0xc]
        0x00000c38:    6103        .a      STR      r3,[r0,#0x10]
        0x00000c3a:    6002        .`      STR      r2,[r0,#0]
        0x00000c3c:    bc10        ..      POP      {r4}
        0x00000c3e:    4770        pG      BX       lr
    $d
        0x00000c40:    4001c000    ...@    DCD    1073856512
        0x00000c44:    10000cf0    ....    DCD    268438768
    $t
    i.am_hal_uart_int_clear
    am_hal_uart_int_clear
        0x00000c48:    4901        .I      LDR      r1,[pc,#4] ; [0xc50] = 0x4001c000
        0x00000c4a:    6448        Hd      STR      r0,[r1,#0x44]
        0x00000c4c:    4770        pG      BX       lr
    $d
        0x00000c4e:    0000        ..      DCW    0
        0x00000c50:    4001c000    ...@    DCD    1073856512
    $t
    i.am_hal_uart_int_enable
    am_hal_uart_int_enable
        0x00000c54:    4902        .I      LDR      r1,[pc,#8] ; [0xc60] = 0x4001c000
        0x00000c56:    6b8a        .k      LDR      r2,[r1,#0x38]
        0x00000c58:    4310        .C      ORRS     r0,r0,r2
        0x00000c5a:    6388        .c      STR      r0,[r1,#0x38]
        0x00000c5c:    4770        pG      BX       lr
    $d
        0x00000c5e:    0000        ..      DCW    0
        0x00000c60:    4001c000    ...@    DCD    1073856512
    $t
    i.am_hal_uart_int_status_get
    am_hal_uart_int_status_get
        0x00000c64:    4902        .I      LDR      r1,[pc,#8] ; [0xc70] = 0x4001c000
        0x00000c66:    2800        .(      CMP      r0,#0
        0x00000c68:    bf14        ..      ITE      NE
        0x00000c6a:    6c08        .l      LDRNE    r0,[r1,#0x40]
        0x00000c6c:    6bc8        .k      LDREQ    r0,[r1,#0x3c]
        0x00000c6e:    4770        pG      BX       lr
    $d
        0x00000c70:    4001c000    ...@    DCD    1073856512
    $t
    i.am_hal_uart_service_buffered
    am_hal_uart_service_buffered
        0x00000c74:    b430        0.      PUSH     {r4,r5}
        0x00000c76:    2200        ."      MOVS     r2,#0
        0x00000c78:    f8dfc098    ....    LDR      r12,[pc,#152] ; [0xd14] = 0x4001c000
        0x00000c7c:    f0100f50    ..P.    TST      r0,#0x50
        0x00000c80:    d021        !.      BEQ      0xcc6 ; am_hal_uart_service_buffered + 82
        0x00000c82:    f8dc1018    ....    LDR      r1,[r12,#0x18]
        0x00000c86:    f0110f10    ....    TST      r1,#0x10
        0x00000c8a:    bf08        ..      IT       EQ
        0x00000c8c:    4922        "I      LDREQ    r1,[pc,#136] ; [0xd18] = 0x10000cf0
        0x00000c8e:    d11a        ..      BNE      0xcc6 ; am_hal_uart_service_buffered + 82
        0x00000c90:    f8dc2000    ...     LDR      r2,[r12,#0]
        0x00000c94:    690b        .i      LDR      r3,[r1,#0x10]
        0x00000c96:    b2d2        ..      UXTB     r2,r2
        0x00000c98:    68cc        .h      LDR      r4,[r1,#0xc]
        0x00000c9a:    1b1b        ..      SUBS     r3,r3,r4
        0x00000c9c:    2b01        .+      CMP      r3,#1
        0x00000c9e:    d30d        ..      BCC      0xcbc ; am_hal_uart_service_buffered + 72
        0x00000ca0:    684d        Mh      LDR      r5,[r1,#4]
        0x00000ca2:    680b        .h      LDR      r3,[r1,#0]
        0x00000ca4:    555a        ZU      STRB     r2,[r3,r5]
        0x00000ca6:    684b        Kh      LDR      r3,[r1,#4]
        0x00000ca8:    690c        .i      LDR      r4,[r1,#0x10]
        0x00000caa:    1c5b        [.      ADDS     r3,r3,#1
        0x00000cac:    fbb3f5f4    ....    UDIV     r5,r3,r4
        0x00000cb0:    fb043315    ...3    MLS      r3,r4,r5,r3
        0x00000cb4:    604b        K`      STR      r3,[r1,#4]
        0x00000cb6:    68cb        .h      LDR      r3,[r1,#0xc]
        0x00000cb8:    1c5b        [.      ADDS     r3,r3,#1
        0x00000cba:    60cb        .`      STR      r3,[r1,#0xc]
        0x00000cbc:    f8dc3018    ...0    LDR      r3,[r12,#0x18]
        0x00000cc0:    f0130f10    ....    TST      r3,#0x10
        0x00000cc4:    d0e4        ..      BEQ      0xc90 ; am_hal_uart_service_buffered + 28
        0x00000cc6:    f0100f20    .. .    TST      r0,#0x20
        0x00000cca:    4814        .H      LDR      r0,[pc,#80] ; [0xd1c] = 0x10000cdc
        0x00000ccc:    bf12        ..      ITEE     NE
        0x00000cce:    6803        .h      LDRNE    r3,[r0,#0]
        0x00000cd0:    bc30        0.      POPEQ    {r4,r5}
        0x00000cd2:    4770        pG      BXEQ     lr
        0x00000cd4:    68c1        .h      LDR      r1,[r0,#0xc]
        0x00000cd6:    2900        .)      CMP      r1,#0
        0x00000cd8:    bf04        ..      ITT      EQ
        0x00000cda:    bc30        0.      POPEQ    {r4,r5}
        0x00000cdc:    4770        pG      BXEQ     lr
        0x00000cde:    f8dc1018    ....    LDR      r1,[r12,#0x18]
        0x00000ce2:    f0110f20    .. .    TST      r1,#0x20
        0x00000ce6:    bf1c        ..      ITT      NE
        0x00000ce8:    bc30        0.      POPNE    {r4,r5}
        0x00000cea:    4770        pG      BXNE     lr
        0x00000cec:    68c4        .h      LDR      r4,[r0,#0xc]
        0x00000cee:    2c01        .,      CMP      r4,#1
        0x00000cf0:    d30c        ..      BCC      0xd0c ; am_hal_uart_service_buffered + 152
        0x00000cf2:    6881        .h      LDR      r1,[r0,#8]
        0x00000cf4:    5c5a        Z\      LDRB     r2,[r3,r1]
        0x00000cf6:    6881        .h      LDR      r1,[r0,#8]
        0x00000cf8:    6904        .i      LDR      r4,[r0,#0x10]
        0x00000cfa:    1c49        I.      ADDS     r1,r1,#1
        0x00000cfc:    fbb1f5f4    ....    UDIV     r5,r1,r4
        0x00000d00:    fb041115    ....    MLS      r1,r4,r5,r1
        0x00000d04:    6081        .`      STR      r1,[r0,#8]
        0x00000d06:    68c1        .h      LDR      r1,[r0,#0xc]
        0x00000d08:    1e49        I.      SUBS     r1,r1,#1
        0x00000d0a:    60c1        .`      STR      r1,[r0,#0xc]
        0x00000d0c:    f8cc2000    ...     STR      r2,[r12,#0]
        0x00000d10:    e7e0        ..      B        0xcd4 ; am_hal_uart_service_buffered + 96
    $d
        0x00000d12:    0000        ..      DCW    0
        0x00000d14:    4001c000    ...@    DCD    1073856512
        0x00000d18:    10000cf0    ....    DCD    268438768
        0x00000d1c:    10000cdc    ....    DCD    268438748
    $t
    i.am_hal_vcomp_disable
    am_hal_vcomp_disable
        0x00000d20:    4901        .I      LDR      r1,[pc,#4] ; [0xd28] = 0x4000c000
        0x00000d22:    2037        7       MOVS     r0,#0x37
        0x00000d24:    6088        .`      STR      r0,[r1,#8]
        0x00000d26:    4770        pG      BX       lr
    $d
        0x00000d28:    4000c000    ...@    DCD    1073790976
    $t
    i.am_iomaster0_isr
    am_iomaster0_isr
        0x00000d2c:    b510        ..      PUSH     {r4,lr}
        0x00000d2e:    2100        .!      MOVS     r1,#0
        0x00000d30:    4608        .F      MOV      r0,r1
        0x00000d32:    f7fffd15    ....    BL       am_hal_iom_int_status_get ; 0x760
        0x00000d36:    4604        .F      MOV      r4,r0
        0x00000d38:    4621        !F      MOV      r1,r4
        0x00000d3a:    2000        .       MOVS     r0,#0
        0x00000d3c:    f7fffca0    ....    BL       am_hal_iom_int_clear ; 0x680
        0x00000d40:    4621        !F      MOV      r1,r4
        0x00000d42:    2000        .       MOVS     r0,#0
        0x00000d44:    f7fffca4    ....    BL       am_hal_iom_int_service ; 0x690
        0x00000d48:    bd10        ..      POP      {r4,pc}
    i.am_uart_isr
    am_uart_isr
        0x00000d4a:    b510        ..      PUSH     {r4,lr}
        0x00000d4c:    2001        .       MOVS     r0,#1
        0x00000d4e:    f7ffff89    ....    BL       am_hal_uart_int_status_get ; 0xc64
        0x00000d52:    4604        .F      MOV      r4,r0
        0x00000d54:    4620         F      MOV      r0,r4
        0x00000d56:    f7ffff8d    ....    BL       am_hal_uart_service_buffered ; 0xc74
        0x00000d5a:    4620         F      MOV      r0,r4
        0x00000d5c:    f7ffff74    ..t.    BL       am_hal_uart_int_clear ; 0xc48
        0x00000d60:    bd10        ..      POP      {r4,pc}
    i.am_util_delay_ms
    am_util_delay_ms
        0x00000d62:    b570        p.      PUSH     {r4-r6,lr}
        0x00000d64:    4604        .F      MOV      r4,r0
        0x00000d66:    f7fffac5    ....    BL       am_hal_clkgen_sysclk_get ; 0x2f4
        0x00000d6a:    f64031b8    @..1    MOV      r1,#0xbb8
        0x00000d6e:    fbb0f0f1    ....    UDIV     r0,r0,r1
        0x00000d72:    fb00f504    ....    MUL      r5,r0,r4
        0x00000d76:    4628        (F      MOV      r0,r5
        0x00000d78:    f7fff9de    ....    BL       am_util_delay_cycles ; 0x138
        0x00000d7c:    bd70        p.      POP      {r4-r6,pc}
        0x00000d7e:    0000        ..      MOVS     r0,r0
    i.am_util_delay_us
    am_util_delay_us
        0x00000d80:    b570        p.      PUSH     {r4-r6,lr}
        0x00000d82:    4604        .F      MOV      r4,r0
        0x00000d84:    f7fffab6    ....    BL       am_hal_clkgen_sysclk_get ; 0x2f4
        0x00000d88:    4904        .I      LDR      r1,[pc,#16] ; [0xd9c] = 0x2dc6c0
        0x00000d8a:    fbb0f0f1    ....    UDIV     r0,r0,r1
        0x00000d8e:    fb00f504    ....    MUL      r5,r0,r4
        0x00000d92:    4628        (F      MOV      r0,r5
        0x00000d94:    f7fff9d0    ....    BL       am_util_delay_cycles ; 0x138
        0x00000d98:    bd70        p.      POP      {r4-r6,pc}
    $d
        0x00000d9a:    0000        ..      DCW    0
        0x00000d9c:    002dc6c0    ..-.    DCD    3000000
    $t
    i.am_util_faultisr_collect_data
    am_util_faultisr_collect_data
        0x00000da0:    b08c        ..      SUB      sp,sp,#0x30
        0x00000da2:    4604        .F      MOV      r4,r0
        0x00000da4:    2500        .%      MOVS     r5,#0
        0x00000da6:    950a        ..      STR      r5,[sp,#0x28]
        0x00000da8:    4826        &H      LDR      r0,[pc,#152] ; [0xe44] = 0xe000ed28
        0x00000daa:    6800        .h      LDR      r0,[r0,#0]
        0x00000dac:    900a        ..      STR      r0,[sp,#0x28]
        0x00000dae:    980a        ..      LDR      r0,[sp,#0x28]
        0x00000db0:    b2c0        ..      UXTB     r0,r0
        0x00000db2:    f88d002c    ..,.    STRB     r0,[sp,#0x2c]
        0x00000db6:    980a        ..      LDR      r0,[sp,#0x28]
        0x00000db8:    0a00        ..      LSRS     r0,r0,#8
        0x00000dba:    f88d002d    ..-.    STRB     r0,[sp,#0x2d]
        0x00000dbe:    980a        ..      LDR      r0,[sp,#0x28]
        0x00000dc0:    f64f71ff    O..q    MOV      r1,#0xffff
        0x00000dc4:    ea014010    ...@    AND      r0,r1,r0,LSR #16
        0x00000dc8:    f8ad002e    ....    STRH     r0,[sp,#0x2e]
        0x00000dcc:    481d        .H      LDR      r0,[pc,#116] ; [0xe44] = 0xe000ed28
        0x00000dce:    3010        .0      ADDS     r0,r0,#0x10
        0x00000dd0:    6800        .h      LDR      r0,[r0,#0]
        0x00000dd2:    9009        ..      STR      r0,[sp,#0x24]
        0x00000dd4:    f89d002d    ..-.    LDRB     r0,[sp,#0x2d]
        0x00000dd8:    f0000002    ....    AND      r0,r0,#2
        0x00000ddc:    b120         .      CBZ      r0,0xde8 ; am_util_faultisr_collect_data + 72
        0x00000dde:    4621        !F      MOV      r1,r4
        0x00000de0:    2006        .       MOVS     r0,#6
        0x00000de2:    f7fff9b3    ....    BL       getStackedReg ; 0x14c
        0x00000de6:    e001        ..      B        0xdec ; am_util_faultisr_collect_data + 76
        0x00000de8:    f04f30ff    O..0    MOV      r0,#0xffffffff
        0x00000dec:    9008        ..      STR      r0,[sp,#0x20]
        0x00000dee:    4621        !F      MOV      r1,r4
        0x00000df0:    2000        .       MOVS     r0,#0
        0x00000df2:    f7fff9ab    ....    BL       getStackedReg ; 0x14c
        0x00000df6:    9000        ..      STR      r0,[sp,#0]
        0x00000df8:    4621        !F      MOV      r1,r4
        0x00000dfa:    2001        .       MOVS     r0,#1
        0x00000dfc:    f7fff9a6    ....    BL       getStackedReg ; 0x14c
        0x00000e00:    9001        ..      STR      r0,[sp,#4]
        0x00000e02:    4621        !F      MOV      r1,r4
        0x00000e04:    2002        .       MOVS     r0,#2
        0x00000e06:    f7fff9a1    ....    BL       getStackedReg ; 0x14c
        0x00000e0a:    9002        ..      STR      r0,[sp,#8]
        0x00000e0c:    4621        !F      MOV      r1,r4
        0x00000e0e:    2003        .       MOVS     r0,#3
        0x00000e10:    f7fff99c    ....    BL       getStackedReg ; 0x14c
        0x00000e14:    9003        ..      STR      r0,[sp,#0xc]
        0x00000e16:    4621        !F      MOV      r1,r4
        0x00000e18:    2004        .       MOVS     r0,#4
        0x00000e1a:    f7fff997    ....    BL       getStackedReg ; 0x14c
        0x00000e1e:    9004        ..      STR      r0,[sp,#0x10]
        0x00000e20:    4621        !F      MOV      r1,r4
        0x00000e22:    2005        .       MOVS     r0,#5
        0x00000e24:    f7fff992    ....    BL       getStackedReg ; 0x14c
        0x00000e28:    9005        ..      STR      r0,[sp,#0x14]
        0x00000e2a:    4621        !F      MOV      r1,r4
        0x00000e2c:    2006        .       MOVS     r0,#6
        0x00000e2e:    f7fff98d    ....    BL       getStackedReg ; 0x14c
        0x00000e32:    9006        ..      STR      r0,[sp,#0x18]
        0x00000e34:    4621        !F      MOV      r1,r4
        0x00000e36:    2007        .       MOVS     r0,#7
        0x00000e38:    f7fff988    ....    BL       getStackedReg ; 0x14c
        0x00000e3c:    9007        ..      STR      r0,[sp,#0x1c]
        0x00000e3e:    bf00        ..      NOP      
        0x00000e40:    bf00        ..      NOP      
        0x00000e42:    e7fe        ..      B        0xe42 ; am_util_faultisr_collect_data + 162
    $d
        0x00000e44:    e000ed28    (...    DCD    3758157096
    $t
    i.am_util_stdio_printf
    am_util_stdio_printf
        0x00000e48:    b40f        ..      PUSH     {r0-r3}
        0x00000e4a:    b538        8.      PUSH     {r3-r5,lr}
        0x00000e4c:    a805        ..      ADD      r0,sp,#0x14
        0x00000e4e:    9000        ..      STR      r0,[sp,#0]
        0x00000e50:    4807        .H      LDR      r0,[pc,#28] ; [0xe70] = 0x10000bbc
        0x00000e52:    9a00        ..      LDR      r2,[sp,#0]
        0x00000e54:    9904        ..      LDR      r1,[sp,#0x10]
        0x00000e56:    f000f831    ..1.    BL       am_util_stdio_vsprintf ; 0xebc
        0x00000e5a:    4604        .F      MOV      r4,r0
        0x00000e5c:    2000        .       MOVS     r0,#0
        0x00000e5e:    9000        ..      STR      r0,[sp,#0]
        0x00000e60:    4803        .H      LDR      r0,[pc,#12] ; [0xe70] = 0x10000bbc
        0x00000e62:    4904        .I      LDR      r1,[pc,#16] ; [0xe74] = 0x10000018
        0x00000e64:    6809        .h      LDR      r1,[r1,#0]
        0x00000e66:    4788        .G      BLX      r1
        0x00000e68:    4620         F      MOV      r0,r4
        0x00000e6a:    bc38        8.      POP      {r3-r5}
        0x00000e6c:    f85dfb14    ]...    LDR      pc,[sp],#0x14
    $d
        0x00000e70:    10000bbc    ....    DCD    268438460
        0x00000e74:    10000018    ....    DCD    268435480
    $t
    i.am_util_stdio_printf_init
    am_util_stdio_printf_init
        0x00000e78:    4901        .I      LDR      r1,[pc,#4] ; [0xe80] = 0x10000018
        0x00000e7a:    6008        .`      STR      r0,[r1,#0]
        0x00000e7c:    4770        pG      BX       lr
    $d
        0x00000e7e:    0000        ..      DCW    0
        0x00000e80:    10000018    ....    DCD    268435480
    $t
    i.am_util_stdio_terminal_clear
    am_util_stdio_terminal_clear
        0x00000e84:    b510        ..      PUSH     {r4,lr}
        0x00000e86:    a003        ..      ADR      r0,{pc}+0xe ; 0xe94
        0x00000e88:    f7ffffde    ....    BL       am_util_stdio_printf ; 0xe48
        0x00000e8c:    a009        ..      ADR      r0,{pc}+0x28 ; 0xeb4
        0x00000e8e:    f7ffffdb    ....    BL       am_util_stdio_printf ; 0xe48
        0x00000e92:    bd10        ..      POP      {r4,pc}
    $d
        0x00000e94:    20202020            DCD    538976288
        0x00000e98:    20202020            DCD    538976288
        0x00000e9c:    20202020            DCD    538976288
        0x00000ea0:    20202020            DCD    538976288
        0x00000ea4:    20202020            DCD    538976288
        0x00000ea8:    20202020            DCD    538976288
        0x00000eac:    20202020            DCD    538976288
        0x00000eb0:    00002020      ..    DCD    8224
        0x00000eb4:    4a325b1b    .[2J    DCD    1244814107
        0x00000eb8:    00485b1b    .[H.    DCD    4741915
    $t
    i.am_util_stdio_vsprintf
    am_util_stdio_vsprintf
        0x00000ebc:    e92d4ff7    -..O    PUSH     {r0-r2,r4-r11,lr}
        0x00000ec0:    ed2d8b02    -...    VPUSH    {d8}
        0x00000ec4:    b08a        ..      SUB      sp,sp,#0x28
        0x00000ec6:    4604        .F      MOV      r4,r0
        0x00000ec8:    460d        .F      MOV      r5,r1
        0x00000eca:    2600        .&      MOVS     r6,#0
        0x00000ecc:    e182        ..      B        0x11d4 ; am_util_stdio_vsprintf + 792
        0x00000ece:    2006        .       MOVS     r0,#6
        0x00000ed0:    9004        ..      STR      r0,[sp,#0x10]
        0x00000ed2:    7828        (x      LDRB     r0,[r5,#0]
        0x00000ed4:    2825        %(      CMP      r0,#0x25
        0x00000ed6:    d010        ..      BEQ      0xefa ; am_util_stdio_vsprintf + 62
        0x00000ed8:    b164        d.      CBZ      r4,0xef4 ; am_util_stdio_vsprintf + 56
        0x00000eda:    7828        (x      LDRB     r0,[r5,#0]
        0x00000edc:    280a        .(      CMP      r0,#0xa
        0x00000ede:    d106        ..      BNE      0xeee ; am_util_stdio_vsprintf + 50
        0x00000ee0:    48c2        .H      LDR      r0,[pc,#776] ; [0x11ec] = 0x1000001c
        0x00000ee2:    7800        .x      LDRB     r0,[r0,#0]
        0x00000ee4:    b118        ..      CBZ      r0,0xeee ; am_util_stdio_vsprintf + 50
        0x00000ee6:    200d        .       MOVS     r0,#0xd
        0x00000ee8:    f8040b01    ....    STRB     r0,[r4],#1
        0x00000eec:    1c76        v.      ADDS     r6,r6,#1
        0x00000eee:    7828        (x      LDRB     r0,[r5,#0]
        0x00000ef0:    f8040b01    ....    STRB     r0,[r4],#1
        0x00000ef4:    1c6d        m.      ADDS     r5,r5,#1
        0x00000ef6:    1c76        v.      ADDS     r6,r6,#1
        0x00000ef8:    e16c        l.      B        0x11d4 ; am_util_stdio_vsprintf + 792
        0x00000efa:    1c6d        m.      ADDS     r5,r5,#1
        0x00000efc:    2000        .       MOVS     r0,#0
        0x00000efe:    9001        ..      STR      r0,[sp,#4]
        0x00000f00:    9002        ..      STR      r0,[sp,#8]
        0x00000f02:    f04f0b20    O. .    MOV      r11,#0x20
        0x00000f06:    7828        (x      LDRB     r0,[r5,#0]
        0x00000f08:    2830        0(      CMP      r0,#0x30
        0x00000f0a:    d101        ..      BNE      0xf10 ; am_util_stdio_vsprintf + 84
        0x00000f0c:    4683        .F      MOV      r11,r0
        0x00000f0e:    1c6d        m.      ADDS     r5,r5,#1
        0x00000f10:    a905        ..      ADD      r1,sp,#0x14
        0x00000f12:    4628        (F      MOV      r0,r5
        0x00000f14:    f000fb18    ....    BL       decstr_to_u ; 0x1548
        0x00000f18:    4682        .F      MOV      r10,r0
        0x00000f1a:    9805        ..      LDR      r0,[sp,#0x14]
        0x00000f1c:    4405        .D      ADD      r5,r5,r0
        0x00000f1e:    7828        (x      LDRB     r0,[r5,#0]
        0x00000f20:    282e        .(      CMP      r0,#0x2e
        0x00000f22:    d107        ..      BNE      0xf34 ; am_util_stdio_vsprintf + 120
        0x00000f24:    1c6d        m.      ADDS     r5,r5,#1
        0x00000f26:    a905        ..      ADD      r1,sp,#0x14
        0x00000f28:    4628        (F      MOV      r0,r5
        0x00000f2a:    f000fb0d    ....    BL       decstr_to_u ; 0x1548
        0x00000f2e:    9004        ..      STR      r0,[sp,#0x10]
        0x00000f30:    9805        ..      LDR      r0,[sp,#0x14]
        0x00000f32:    4405        .D      ADD      r5,r5,r0
        0x00000f34:    7828        (x      LDRB     r0,[r5,#0]
        0x00000f36:    286c        l(      CMP      r0,#0x6c
        0x00000f38:    d106        ..      BNE      0xf48 ; am_util_stdio_vsprintf + 140
        0x00000f3a:    1c6d        m.      ADDS     r5,r5,#1
        0x00000f3c:    7828        (x      LDRB     r0,[r5,#0]
        0x00000f3e:    286c        l(      CMP      r0,#0x6c
        0x00000f40:    d102        ..      BNE      0xf48 ; am_util_stdio_vsprintf + 140
        0x00000f42:    1c6d        m.      ADDS     r5,r5,#1
        0x00000f44:    2001        .       MOVS     r0,#1
        0x00000f46:    9001        ..      STR      r0,[sp,#4]
        0x00000f48:    7828        (x      LDRB     r0,[r5,#0]
        0x00000f4a:    2866        f(      CMP      r0,#0x66
        0x00000f4c:    d078        x.      BEQ      0x1040 ; am_util_stdio_vsprintf + 388
        0x00000f4e:    dc08        ..      BGT      0xf62 ; am_util_stdio_vsprintf + 166
        0x00000f50:    2846        F(      CMP      r0,#0x46
        0x00000f52:    d076        v.      BEQ      0x1042 ; am_util_stdio_vsprintf + 390
        0x00000f54:    2858        X(      CMP      r0,#0x58
        0x00000f56:    d031        1.      BEQ      0xfbc ; am_util_stdio_vsprintf + 256
        0x00000f58:    2863        c(      CMP      r0,#0x63
        0x00000f5a:    d00b        ..      BEQ      0xf74 ; am_util_stdio_vsprintf + 184
        0x00000f5c:    2864        d(      CMP      r0,#0x64
        0x00000f5e:    d171        q.      BNE      0x1044 ; am_util_stdio_vsprintf + 392
        0x00000f60:    e097        ..      B        0x1092 ; am_util_stdio_vsprintf + 470
        0x00000f62:    2869        i(      CMP      r0,#0x69
        0x00000f64:    d06f        o.      BEQ      0x1046 ; am_util_stdio_vsprintf + 394
        0x00000f66:    2873        s(      CMP      r0,#0x73
        0x00000f68:    d010        ..      BEQ      0xf8c ; am_util_stdio_vsprintf + 208
        0x00000f6a:    2875        u(      CMP      r0,#0x75
        0x00000f6c:    d05a        Z.      BEQ      0x1024 ; am_util_stdio_vsprintf + 360
        0x00000f6e:    2878        x(      CMP      r0,#0x78
        0x00000f70:    d1f5        ..      BNE      0xf5e ; am_util_stdio_vsprintf + 162
        0x00000f72:    e020         .      B        0xfb6 ; am_util_stdio_vsprintf + 250
        0x00000f74:    980e        ..      LDR      r0,[sp,#0x38]
        0x00000f76:    f8101b04    ....    LDRB     r1,[r0],#4
        0x00000f7a:    900e        ..      STR      r0,[sp,#0x38]
        0x00000f7c:    b2c8        ..      UXTB     r0,r1
        0x00000f7e:    9003        ..      STR      r0,[sp,#0xc]
        0x00000f80:    b114        ..      CBZ      r4,0xf88 ; am_util_stdio_vsprintf + 204
        0x00000f82:    9803        ..      LDR      r0,[sp,#0xc]
        0x00000f84:    f8040b01    ....    STRB     r0,[r4],#1
        0x00000f88:    1c76        v.      ADDS     r6,r6,#1
        0x00000f8a:    e120         .      B        0x11ce ; am_util_stdio_vsprintf + 786
        0x00000f8c:    980e        ..      LDR      r0,[sp,#0x38]
        0x00000f8e:    6800        .h      LDR      r0,[r0,#0]
        0x00000f90:    9008        ..      STR      r0,[sp,#0x20]
        0x00000f92:    980e        ..      LDR      r0,[sp,#0x38]
        0x00000f94:    1d00        ..      ADDS     r0,r0,#4
        0x00000f96:    900e        ..      STR      r0,[sp,#0x38]
        0x00000f98:    e008        ..      B        0xfac ; am_util_stdio_vsprintf + 240
        0x00000f9a:    b11c        ..      CBZ      r4,0xfa4 ; am_util_stdio_vsprintf + 232
        0x00000f9c:    9808        ..      LDR      r0,[sp,#0x20]
        0x00000f9e:    7800        .x      LDRB     r0,[r0,#0]
        0x00000fa0:    f8040b01    ....    STRB     r0,[r4],#1
        0x00000fa4:    9808        ..      LDR      r0,[sp,#0x20]
        0x00000fa6:    1c40        @.      ADDS     r0,r0,#1
        0x00000fa8:    9008        ..      STR      r0,[sp,#0x20]
        0x00000faa:    1c76        v.      ADDS     r6,r6,#1
        0x00000fac:    9808        ..      LDR      r0,[sp,#0x20]
        0x00000fae:    7800        .x      LDRB     r0,[r0,#0]
        0x00000fb0:    2800        .(      CMP      r0,#0
        0x00000fb2:    d1f2        ..      BNE      0xf9a ; am_util_stdio_vsprintf + 222
        0x00000fb4:    e10b        ..      B        0x11ce ; am_util_stdio_vsprintf + 786
        0x00000fb6:    2001        .       MOVS     r0,#1
        0x00000fb8:    9002        ..      STR      r0,[sp,#8]
        0x00000fba:    bf00        ..      NOP      
        0x00000fbc:    9801        ..      LDR      r0,[sp,#4]
        0x00000fbe:    b158        X.      CBZ      r0,0xfd8 ; am_util_stdio_vsprintf + 284
        0x00000fc0:    980e        ..      LDR      r0,[sp,#0x38]
        0x00000fc2:    1dc0        ..      ADDS     r0,r0,#7
        0x00000fc4:    f0200007     ...    BIC      r0,r0,#7
        0x00000fc8:    4601        .F      MOV      r1,r0
        0x00000fca:    900e        ..      STR      r0,[sp,#0x38]
        0x00000fcc:    6800        .h      LDR      r0,[r0,#0]
        0x00000fce:    6849        Ih      LDR      r1,[r1,#4]
        0x00000fd0:    9a0e        ..      LDR      r2,[sp,#0x38]
        0x00000fd2:    3208        .2      ADDS     r2,r2,#8
        0x00000fd4:    920e        ..      STR      r2,[sp,#0x38]
        0x00000fd6:    e005        ..      B        0xfe4 ; am_util_stdio_vsprintf + 296
        0x00000fd8:    980e        ..      LDR      r0,[sp,#0x38]
        0x00000fda:    6800        .h      LDR      r0,[r0,#0]
        0x00000fdc:    990e        ..      LDR      r1,[sp,#0x38]
        0x00000fde:    1d09        ..      ADDS     r1,r1,#4
        0x00000fe0:    910e        ..      STR      r1,[sp,#0x38]
        0x00000fe2:    2100        .!      MOVS     r1,#0
        0x00000fe4:    4607        .F      MOV      r7,r0
        0x00000fe6:    4688        .F      MOV      r8,r1
        0x00000fe8:    f1ba0f00    ....    CMP      r10,#0
        0x00000fec:    d00f        ..      BEQ      0x100e ; am_util_stdio_vsprintf + 338
        0x00000fee:    4638        8F      MOV      r0,r7
        0x00000ff0:    4641        AF      MOV      r1,r8
        0x00000ff2:    f000fcb7    ....    BL       ndigits_in_hex ; 0x1964
        0x00000ff6:    ebaa0a00    ....    SUB      r10,r10,r0
        0x00000ffa:    e003        ..      B        0x1004 ; am_util_stdio_vsprintf + 328
        0x00000ffc:    b10c        ..      CBZ      r4,0x1002 ; am_util_stdio_vsprintf + 326
        0x00000ffe:    f804bb01    ....    STRB     r11,[r4],#1
        0x00001002:    1c76        v.      ADDS     r6,r6,#1
        0x00001004:    f1ba0000    ....    SUBS     r0,r10,#0
        0x00001008:    f1aa0a01    ....    SUB      r10,r10,#1
        0x0000100c:    dcf6        ..      BGT      0xffc ; am_util_stdio_vsprintf + 320
        0x0000100e:    4622        "F      MOV      r2,r4
        0x00001010:    4638        8F      MOV      r0,r7
        0x00001012:    4641        AF      MOV      r1,r8
        0x00001014:    9b02        ..      LDR      r3,[sp,#8]
        0x00001016:    f000ff1b    ....    BL       uint64_to_hexstr ; 0x1e50
        0x0000101a:    4681        .F      MOV      r9,r0
        0x0000101c:    b104        ..      CBZ      r4,0x1020 ; am_util_stdio_vsprintf + 356
        0x0000101e:    444c        LD      ADD      r4,r4,r9
        0x00001020:    444e        ND      ADD      r6,r6,r9
        0x00001022:    e0d4        ..      B        0x11ce ; am_util_stdio_vsprintf + 786
        0x00001024:    9801        ..      LDR      r0,[sp,#4]
        0x00001026:    b178        x.      CBZ      r0,0x1048 ; am_util_stdio_vsprintf + 396
        0x00001028:    980e        ..      LDR      r0,[sp,#0x38]
        0x0000102a:    1dc0        ..      ADDS     r0,r0,#7
        0x0000102c:    f0200007     ...    BIC      r0,r0,#7
        0x00001030:    4601        .F      MOV      r1,r0
        0x00001032:    900e        ..      STR      r0,[sp,#0x38]
        0x00001034:    6800        .h      LDR      r0,[r0,#0]
        0x00001036:    6849        Ih      LDR      r1,[r1,#4]
        0x00001038:    9a0e        ..      LDR      r2,[sp,#0x38]
        0x0000103a:    3208        .2      ADDS     r2,r2,#8
        0x0000103c:    920e        ..      STR      r2,[sp,#0x38]
        0x0000103e:    e009        ..      B        0x1054 ; am_util_stdio_vsprintf + 408
        0x00001040:    e08c        ..      B        0x115c ; am_util_stdio_vsprintf + 672
        0x00001042:    e08c        ..      B        0x115e ; am_util_stdio_vsprintf + 674
        0x00001044:    e0bd        ..      B        0x11c2 ; am_util_stdio_vsprintf + 774
        0x00001046:    e025        %.      B        0x1094 ; am_util_stdio_vsprintf + 472
        0x00001048:    980e        ..      LDR      r0,[sp,#0x38]
        0x0000104a:    6800        .h      LDR      r0,[r0,#0]
        0x0000104c:    990e        ..      LDR      r1,[sp,#0x38]
        0x0000104e:    1d09        ..      ADDS     r1,r1,#4
        0x00001050:    910e        ..      STR      r1,[sp,#0x38]
        0x00001052:    2100        .!      MOVS     r1,#0
        0x00001054:    4607        .F      MOV      r7,r0
        0x00001056:    4688        .F      MOV      r8,r1
        0x00001058:    f1ba0f00    ....    CMP      r10,#0
        0x0000105c:    d00f        ..      BEQ      0x107e ; am_util_stdio_vsprintf + 450
        0x0000105e:    4638        8F      MOV      r0,r7
        0x00001060:    4641        AF      MOV      r1,r8
        0x00001062:    f000fcab    ....    BL       ndigits_in_u64 ; 0x19bc
        0x00001066:    ebaa0a00    ....    SUB      r10,r10,r0
        0x0000106a:    e003        ..      B        0x1074 ; am_util_stdio_vsprintf + 440
        0x0000106c:    b10c        ..      CBZ      r4,0x1072 ; am_util_stdio_vsprintf + 438
        0x0000106e:    f804bb01    ....    STRB     r11,[r4],#1
        0x00001072:    1c76        v.      ADDS     r6,r6,#1
        0x00001074:    f1ba0000    ....    SUBS     r0,r10,#0
        0x00001078:    f1aa0a01    ....    SUB      r10,r10,#1
        0x0000107c:    dcf6        ..      BGT      0x106c ; am_util_stdio_vsprintf + 432
        0x0000107e:    4622        "F      MOV      r2,r4
        0x00001080:    4638        8F      MOV      r0,r7
        0x00001082:    4641        AF      MOV      r1,r8
        0x00001084:    f000ff29    ..).    BL       uint64_to_str ; 0x1eda
        0x00001088:    4681        .F      MOV      r9,r0
        0x0000108a:    b104        ..      CBZ      r4,0x108e ; am_util_stdio_vsprintf + 466
        0x0000108c:    444c        LD      ADD      r4,r4,r9
        0x0000108e:    444e        ND      ADD      r6,r6,r9
        0x00001090:    e09d        ..      B        0x11ce ; am_util_stdio_vsprintf + 786
        0x00001092:    bf00        ..      NOP      
        0x00001094:    9801        ..      LDR      r0,[sp,#4]
        0x00001096:    b158        X.      CBZ      r0,0x10b0 ; am_util_stdio_vsprintf + 500
        0x00001098:    980e        ..      LDR      r0,[sp,#0x38]
        0x0000109a:    1dc0        ..      ADDS     r0,r0,#7
        0x0000109c:    f0200007     ...    BIC      r0,r0,#7
        0x000010a0:    4601        .F      MOV      r1,r0
        0x000010a2:    900e        ..      STR      r0,[sp,#0x38]
        0x000010a4:    6800        .h      LDR      r0,[r0,#0]
        0x000010a6:    6849        Ih      LDR      r1,[r1,#4]
        0x000010a8:    9a0e        ..      LDR      r2,[sp,#0x38]
        0x000010aa:    3208        .2      ADDS     r2,r2,#8
        0x000010ac:    920e        ..      STR      r2,[sp,#0x38]
        0x000010ae:    e005        ..      B        0x10bc ; am_util_stdio_vsprintf + 512
        0x000010b0:    980e        ..      LDR      r0,[sp,#0x38]
        0x000010b2:    6800        .h      LDR      r0,[r0,#0]
        0x000010b4:    990e        ..      LDR      r1,[sp,#0x38]
        0x000010b6:    1d09        ..      ADDS     r1,r1,#4
        0x000010b8:    910e        ..      STR      r1,[sp,#0x38]
        0x000010ba:    17c1        ..      ASRS     r1,r0,#31
        0x000010bc:    e9cd0106    ....    STRD     r0,r1,[sp,#0x18]
        0x000010c0:    2300        .#      MOVS     r3,#0
        0x000010c2:    e9dd0106    ....    LDRD     r0,r1,[sp,#0x18]
        0x000010c6:    1ac0        ..      SUBS     r0,r0,r3
        0x000010c8:    4199        .A      SBCS     r1,r1,r3
        0x000010ca:    da08        ..      BGE      0x10de ; am_util_stdio_vsprintf + 546
        0x000010cc:    2200        ."      MOVS     r2,#0
        0x000010ce:    e9dd1006    ....    LDRD     r1,r0,[sp,#0x18]
        0x000010d2:    424f        OB      RSBS     r7,r1,#0
        0x000010d4:    eb620800    b...    SBC      r8,r2,r0
        0x000010d8:    2001        .       MOVS     r0,#1
        0x000010da:    9000        ..      STR      r0,[sp,#0]
        0x000010dc:    e003        ..      B        0x10e6 ; am_util_stdio_vsprintf + 554
        0x000010de:    e9dd7806    ...x    LDRD     r7,r8,[sp,#0x18]
        0x000010e2:    2000        .       MOVS     r0,#0
        0x000010e4:    9000        ..      STR      r0,[sp,#0]
        0x000010e6:    f1ba0f00    ....    CMP      r10,#0
        0x000010ea:    d026        &.      BEQ      0x113a ; am_util_stdio_vsprintf + 638
        0x000010ec:    4638        8F      MOV      r0,r7
        0x000010ee:    4641        AF      MOV      r1,r8
        0x000010f0:    f000fc52    ..R.    BL       ndigits_in_i64 ; 0x1998
        0x000010f4:    ebaa0a00    ....    SUB      r10,r10,r0
        0x000010f8:    9800        ..      LDR      r0,[sp,#0]
        0x000010fa:    b148        H.      CBZ      r0,0x1110 ; am_util_stdio_vsprintf + 596
        0x000010fc:    f1aa0a01    ....    SUB      r10,r10,#1
        0x00001100:    f1bb0f30    ..0.    CMP      r11,#0x30
        0x00001104:    d104        ..      BNE      0x1110 ; am_util_stdio_vsprintf + 596
        0x00001106:    b114        ..      CBZ      r4,0x110e ; am_util_stdio_vsprintf + 594
        0x00001108:    202d        -       MOVS     r0,#0x2d
        0x0000110a:    f8040b01    ....    STRB     r0,[r4],#1
        0x0000110e:    1c76        v.      ADDS     r6,r6,#1
        0x00001110:    e003        ..      B        0x111a ; am_util_stdio_vsprintf + 606
        0x00001112:    b10c        ..      CBZ      r4,0x1118 ; am_util_stdio_vsprintf + 604
        0x00001114:    f804bb01    ....    STRB     r11,[r4],#1
        0x00001118:    1c76        v.      ADDS     r6,r6,#1
        0x0000111a:    f1ba0000    ....    SUBS     r0,r10,#0
        0x0000111e:    f1aa0a01    ....    SUB      r10,r10,#1
        0x00001122:    dcf6        ..      BGT      0x1112 ; am_util_stdio_vsprintf + 598
        0x00001124:    9800        ..      LDR      r0,[sp,#0]
        0x00001126:    b178        x.      CBZ      r0,0x1148 ; am_util_stdio_vsprintf + 652
        0x00001128:    f1bb0f20    .. .    CMP      r11,#0x20
        0x0000112c:    d10c        ..      BNE      0x1148 ; am_util_stdio_vsprintf + 652
        0x0000112e:    b114        ..      CBZ      r4,0x1136 ; am_util_stdio_vsprintf + 634
        0x00001130:    202d        -       MOVS     r0,#0x2d
        0x00001132:    f8040b01    ....    STRB     r0,[r4],#1
        0x00001136:    1c76        v.      ADDS     r6,r6,#1
        0x00001138:    e006        ..      B        0x1148 ; am_util_stdio_vsprintf + 652
        0x0000113a:    9800        ..      LDR      r0,[sp,#0]
        0x0000113c:    b120         .      CBZ      r0,0x1148 ; am_util_stdio_vsprintf + 652
        0x0000113e:    b114        ..      CBZ      r4,0x1146 ; am_util_stdio_vsprintf + 650
        0x00001140:    202d        -       MOVS     r0,#0x2d
        0x00001142:    f8040b01    ....    STRB     r0,[r4],#1
        0x00001146:    1c76        v.      ADDS     r6,r6,#1
        0x00001148:    4622        "F      MOV      r2,r4
        0x0000114a:    4638        8F      MOV      r0,r7
        0x0000114c:    4641        AF      MOV      r1,r8
        0x0000114e:    f000fec4    ....    BL       uint64_to_str ; 0x1eda
        0x00001152:    4681        .F      MOV      r9,r0
        0x00001154:    b104        ..      CBZ      r4,0x1158 ; am_util_stdio_vsprintf + 668
        0x00001156:    444c        LD      ADD      r4,r4,r9
        0x00001158:    444e        ND      ADD      r6,r6,r9
        0x0000115a:    e038        8.      B        0x11ce ; am_util_stdio_vsprintf + 786
        0x0000115c:    bf00        ..      NOP      
        0x0000115e:    b37c        |.      CBZ      r4,0x11c0 ; am_util_stdio_vsprintf + 772
        0x00001160:    980e        ..      LDR      r0,[sp,#0x38]
        0x00001162:    1dc0        ..      ADDS     r0,r0,#7
        0x00001164:    f0200007     ...    BIC      r0,r0,#7
        0x00001168:    900e        ..      STR      r0,[sp,#0x38]
        0x0000116a:    ecb01b02    ....    VLDM     r0!,{d1}
        0x0000116e:    eeb00a41    ..A.    VMOV.F32 s0,s2
        0x00001172:    eef00a61    ..a.    VMOV.F32 s1,s3
        0x00001176:    900e        ..      STR      r0,[sp,#0x38]
        0x00001178:    ec510b10    Q...    VMOV     r0,r1,d0
        0x0000117c:    f000fee6    ....    BL       __aeabi_d2f ; 0x1f4c
        0x00001180:    ee080a10    ....    VMOV     s16,r0
        0x00001184:    2014        .       MOVS     r0,#0x14
        0x00001186:    6020         `      STR      r0,[r4,#0]
        0x00001188:    4620         F      MOV      r0,r4
        0x0000118a:    eeb00a48    ..H.    VMOV.F32 s0,s16
        0x0000118e:    9904        ..      LDR      r1,[sp,#0x10]
        0x00001190:    f000fa56    ..V.    BL       ftoa ; 0x1640
        0x00001194:    4681        .F      MOV      r9,r0
        0x00001196:    f1b90f00    ....    CMP      r9,#0
        0x0000119a:    da0e        ..      BGE      0x11ba ; am_util_stdio_vsprintf + 766
        0x0000119c:    f1090101    ....    ADD      r1,r9,#1
        0x000011a0:    b909        ..      CBNZ     r1,0x11a6 ; am_util_stdio_vsprintf + 746
        0x000011a2:    4813        .H      LDR      r0,[pc,#76] ; [0x11f0] = 0x302e30
        0x000011a4:    e005        ..      B        0x11b2 ; am_util_stdio_vsprintf + 758
        0x000011a6:    f1090102    ....    ADD      r1,r9,#2
        0x000011aa:    b909        ..      CBNZ     r1,0x11b0 ; am_util_stdio_vsprintf + 756
        0x000011ac:    4811        .H      LDR      r0,[pc,#68] ; [0x11f4] = 0x232e23
        0x000011ae:    e000        ..      B        0x11b2 ; am_util_stdio_vsprintf + 758
        0x000011b0:    4811        .H      LDR      r0,[pc,#68] ; [0x11f8] = 0x3f2e3f
        0x000011b2:    6020         `      STR      r0,[r4,#0]
        0x000011b4:    f04f0903    O...    MOV      r9,#3
        0x000011b8:    bf00        ..      NOP      
        0x000011ba:    444e        ND      ADD      r6,r6,r9
        0x000011bc:    444c        LD      ADD      r4,r4,r9
        0x000011be:    bf00        ..      NOP      
        0x000011c0:    e005        ..      B        0x11ce ; am_util_stdio_vsprintf + 786
        0x000011c2:    b114        ..      CBZ      r4,0x11ca ; am_util_stdio_vsprintf + 782
        0x000011c4:    7828        (x      LDRB     r0,[r5,#0]
        0x000011c6:    f8040b01    ....    STRB     r0,[r4],#1
        0x000011ca:    1c76        v.      ADDS     r6,r6,#1
        0x000011cc:    bf00        ..      NOP      
        0x000011ce:    bf00        ..      NOP      
        0x000011d0:    1c6d        m.      ADDS     r5,r5,#1
        0x000011d2:    bf00        ..      NOP      
        0x000011d4:    7828        (x      LDRB     r0,[r5,#0]
        0x000011d6:    2800        .(      CMP      r0,#0
        0x000011d8:    f47fae79    ..y.    BNE      0xece ; am_util_stdio_vsprintf + 18
        0x000011dc:    b104        ..      CBZ      r4,0x11e0 ; am_util_stdio_vsprintf + 804
        0x000011de:    7020         p      STRB     r0,[r4,#0]
        0x000011e0:    4630        0F      MOV      r0,r6
        0x000011e2:    b00a        ..      ADD      sp,sp,#0x28
        0x000011e4:    ecbd8b02    ....    VPOP     {d8}
        0x000011e8:    e8bd8ffe    ....    POP      {r1-r11,pc}
    $d
        0x000011ec:    1000001c    ....    DCD    268435484
        0x000011f0:    00302e30    0.0.    DCD    3157552
        0x000011f4:    00232e23    #.#.    DCD    2305571
        0x000011f8:    003f2e3f    ?.?.    DCD    4140607
    $t
    i.am_util_stxetx_init
    am_util_stxetx_init
        0x000011fc:    4902        .I      LDR      r1,[pc,#8] ; [0x1208] = 0x10000020
        0x000011fe:    6008        .`      STR      r0,[r1,#0]
        0x00001200:    2100        .!      MOVS     r1,#0
        0x00001202:    4a01        .J      LDR      r2,[pc,#4] ; [0x1208] = 0x10000020
        0x00001204:    7111        .q      STRB     r1,[r2,#4]
        0x00001206:    4770        pG      BX       lr
    $d
        0x00001208:    10000020     ...    DCD    268435488
    $t
    i.am_util_stxetx_rx
    am_util_stxetx_rx
        0x0000120c:    b5f8        ..      PUSH     {r3-r7,lr}
        0x0000120e:    4606        .F      MOV      r6,r0
        0x00001210:    460c        .F      MOV      r4,r1
        0x00001212:    2500        .%      MOVS     r5,#0
        0x00001214:    e030        0.      B        0x1278 ; am_util_stxetx_rx + 108
        0x00001216:    bf00        ..      NOP      
        0x00001218:    2101        .!      MOVS     r1,#1
        0x0000121a:    4668        hF      MOV      r0,sp
        0x0000121c:    f7fffc44    ..D.    BL       am_hal_uart_char_receive_buffered ; 0xaa8
        0x00001220:    2801        .(      CMP      r0,#1
        0x00001222:    d1f9        ..      BNE      0x1218 ; am_util_stxetx_rx + 12
        0x00001224:    f89d1000    ....    LDRB     r1,[sp,#0]
        0x00001228:    a019        ..      ADR      r0,{pc}+0x68 ; 0x1290
        0x0000122a:    f7fffe0d    ....    BL       am_util_stdio_printf ; 0xe48
        0x0000122e:    42b5        .B      CMP      r5,r6
        0x00001230:    d302        ..      BCC      0x1238 ; am_util_stxetx_rx + 44
        0x00001232:    f04f30ff    O..0    MOV      r0,#0xffffffff
        0x00001236:    bdf8        ..      POP      {r3-r7,pc}
        0x00001238:    f89d0000    ....    LDRB     r0,[sp,#0]
        0x0000123c:    289b        .(      CMP      r0,#0x9b
        0x0000123e:    d100        ..      BNE      0x1242 ; am_util_stxetx_rx + 54
        0x00001240:    e01b        ..      B        0x127a ; am_util_stxetx_rx + 110
        0x00001242:    f89d0000    ....    LDRB     r0,[sp,#0]
        0x00001246:    2899        .(      CMP      r0,#0x99
        0x00001248:    d111        ..      BNE      0x126e ; am_util_stxetx_rx + 98
        0x0000124a:    bf00        ..      NOP      
        0x0000124c:    2101        .!      MOVS     r1,#1
        0x0000124e:    4668        hF      MOV      r0,sp
        0x00001250:    f7fffc2a    ..*.    BL       am_hal_uart_char_receive_buffered ; 0xaa8
        0x00001254:    2801        .(      CMP      r0,#1
        0x00001256:    d1f9        ..      BNE      0x124c ; am_util_stxetx_rx + 64
        0x00001258:    f89d1000    ....    LDRB     r1,[sp,#0]
        0x0000125c:    a00f        ..      ADR      r0,{pc}+0x40 ; 0x129c
        0x0000125e:    f7fffdf3    ....    BL       am_util_stdio_printf ; 0xe48
        0x00001262:    1c6d        m.      ADDS     r5,r5,#1
        0x00001264:    f89d0000    ....    LDRB     r0,[sp,#0]
        0x00001268:    f8040b01    ....    STRB     r0,[r4],#1
        0x0000126c:    e004        ..      B        0x1278 ; am_util_stxetx_rx + 108
        0x0000126e:    1c6d        m.      ADDS     r5,r5,#1
        0x00001270:    f89d0000    ....    LDRB     r0,[sp,#0]
        0x00001274:    f8040b01    ....    STRB     r0,[r4],#1
        0x00001278:    e7cd        ..      B        0x1216 ; am_util_stxetx_rx + 10
        0x0000127a:    bf00        ..      NOP      
        0x0000127c:    480b        .H      LDR      r0,[pc,#44] ; [0x12ac] = 0x10000020
        0x0000127e:    6800        .h      LDR      r0,[r0,#0]
        0x00001280:    b120         .      CBZ      r0,0x128c ; am_util_stxetx_rx + 128
        0x00001282:    480a        .H      LDR      r0,[pc,#40] ; [0x12ac] = 0x10000020
        0x00001284:    4621        !F      MOV      r1,r4
        0x00001286:    6802        .h      LDR      r2,[r0,#0]
        0x00001288:    4628        (F      MOV      r0,r5
        0x0000128a:    4790        .G      BLX      r2
        0x0000128c:    4628        (F      MOV      r0,r5
        0x0000128e:    e7d2        ..      B        0x1236 ; am_util_stxetx_rx + 42
    $d
        0x00001290:    25583020     0X%    DCD    626536480
        0x00001294:    78322e32    2.2x    DCD    2016554546
        0x00001298:    00000000    ....    DCD    0
        0x0000129c:    454c4420     DLE    DCD    1162626080
        0x000012a0:    5830203a    : 0X    DCD    1479548986
        0x000012a4:    322e3225    %2.2    DCD    841888293
        0x000012a8:    00000078    x...    DCD    120
        0x000012ac:    10000020     ...    DCD    268435488
    $t
    i.am_util_stxetx_rx_wait4start
    am_util_stxetx_rx_wait4start
        0x000012b0:    b508        ..      PUSH     {r3,lr}
        0x000012b2:    e021        !.      B        0x12f8 ; am_util_stxetx_rx_wait4start + 72
        0x000012b4:    bf00        ..      NOP      
        0x000012b6:    2101        .!      MOVS     r1,#1
        0x000012b8:    4668        hF      MOV      r0,sp
        0x000012ba:    f7fffbf5    ....    BL       am_hal_uart_char_receive_buffered ; 0xaa8
        0x000012be:    2801        .(      CMP      r0,#1
        0x000012c0:    d1f9        ..      BNE      0x12b6 ; am_util_stxetx_rx_wait4start + 6
        0x000012c2:    f89d1000    ....    LDRB     r1,[sp,#0]
        0x000012c6:    a00d        ..      ADR      r0,{pc}+0x36 ; 0x12fc
        0x000012c8:    f7fffdbe    ....    BL       am_util_stdio_printf ; 0xe48
        0x000012cc:    f89d0000    ....    LDRB     r0,[sp,#0]
        0x000012d0:    289a        .(      CMP      r0,#0x9a
        0x000012d2:    d101        ..      BNE      0x12d8 ; am_util_stxetx_rx_wait4start + 40
        0x000012d4:    2001        .       MOVS     r0,#1
        0x000012d6:    bd08        ..      POP      {r3,pc}
        0x000012d8:    f89d0000    ....    LDRB     r0,[sp,#0]
        0x000012dc:    2899        .(      CMP      r0,#0x99
        0x000012de:    d106        ..      BNE      0x12ee ; am_util_stxetx_rx_wait4start + 62
        0x000012e0:    bf00        ..      NOP      
        0x000012e2:    2101        .!      MOVS     r1,#1
        0x000012e4:    4668        hF      MOV      r0,sp
        0x000012e6:    f7fffbdf    ....    BL       am_hal_uart_char_receive_buffered ; 0xaa8
        0x000012ea:    2801        .(      CMP      r0,#1
        0x000012ec:    d1f9        ..      BNE      0x12e2 ; am_util_stxetx_rx_wait4start + 50
        0x000012ee:    4806        .H      LDR      r0,[pc,#24] ; [0x1308] = 0x10000020
        0x000012f0:    7900        .y      LDRB     r0,[r0,#4]
        0x000012f2:    b108        ..      CBZ      r0,0x12f8 ; am_util_stxetx_rx_wait4start + 72
        0x000012f4:    2000        .       MOVS     r0,#0
        0x000012f6:    e7ee        ..      B        0x12d6 ; am_util_stxetx_rx_wait4start + 38
        0x000012f8:    e7dc        ..      B        0x12b4 ; am_util_stxetx_rx_wait4start + 4
    $d
        0x000012fa:    0000        ..      DCW    0
        0x000012fc:    25583020     0X%    DCD    626536480
        0x00001300:    78322e32    2.2x    DCD    2016554546
        0x00001304:    00000000    ....    DCD    0
        0x00001308:    10000020     ...    DCD    268435488
    $t
    i.am_util_stxetx_tx
    am_util_stxetx_tx
        0x0000130c:    e92d47f0    -..G    PUSH     {r4-r10,lr}
        0x00001310:    4607        .F      MOV      r7,r0
        0x00001312:    4688        .F      MOV      r8,r1
        0x00001314:    4691        .F      MOV      r9,r2
        0x00001316:    461c        .F      MOV      r4,r3
        0x00001318:    46ca        .F      MOV      r10,r9
        0x0000131a:    2500        .%      MOVS     r5,#0
        0x0000131c:    b11f        ..      CBZ      r7,0x1326 ; am_util_stxetx_tx + 26
        0x0000131e:    209a        .       MOVS     r0,#0x9a
        0x00001320:    f7fffbf0    ....    BL       am_hal_uart_char_transmit_buffered ; 0xb04
        0x00001324:    1c6d        m.      ADDS     r5,r5,#1
        0x00001326:    2600        .&      MOVS     r6,#0
        0x00001328:    e018        ..      B        0x135c ; am_util_stxetx_tx + 80
        0x0000132a:    6820         h      LDR      r0,[r4,#0]
        0x0000132c:    7800        .x      LDRB     r0,[r0,#0]
        0x0000132e:    289a        .(      CMP      r0,#0x9a
        0x00001330:    d007        ..      BEQ      0x1342 ; am_util_stxetx_tx + 54
        0x00001332:    6820         h      LDR      r0,[r4,#0]
        0x00001334:    7800        .x      LDRB     r0,[r0,#0]
        0x00001336:    289b        .(      CMP      r0,#0x9b
        0x00001338:    d003        ..      BEQ      0x1342 ; am_util_stxetx_tx + 54
        0x0000133a:    6820         h      LDR      r0,[r4,#0]
        0x0000133c:    7800        .x      LDRB     r0,[r0,#0]
        0x0000133e:    2899        .(      CMP      r0,#0x99
        0x00001340:    d103        ..      BNE      0x134a ; am_util_stxetx_tx + 62
        0x00001342:    2099        .       MOVS     r0,#0x99
        0x00001344:    f7fffbde    ....    BL       am_hal_uart_char_transmit_buffered ; 0xb04
        0x00001348:    1c6d        m.      ADDS     r5,r5,#1
        0x0000134a:    6821        !h      LDR      r1,[r4,#0]
        0x0000134c:    7808        .x      LDRB     r0,[r1,#0]
        0x0000134e:    f7fffbd9    ....    BL       am_hal_uart_char_transmit_buffered ; 0xb04
        0x00001352:    6820         h      LDR      r0,[r4,#0]
        0x00001354:    1c40        @.      ADDS     r0,r0,#1
        0x00001356:    6020         `      STR      r0,[r4,#0]
        0x00001358:    1c6d        m.      ADDS     r5,r5,#1
        0x0000135a:    1c76        v.      ADDS     r6,r6,#1
        0x0000135c:    4556        VE      CMP      r6,r10
        0x0000135e:    dbe4        ..      BLT      0x132a ; am_util_stxetx_tx + 30
        0x00001360:    f1b80f00    ....    CMP      r8,#0
        0x00001364:    d003        ..      BEQ      0x136e ; am_util_stxetx_tx + 98
        0x00001366:    209b        .       MOVS     r0,#0x9b
        0x00001368:    f7fffbcc    ....    BL       am_hal_uart_char_transmit_buffered ; 0xb04
        0x0000136c:    1c6d        m.      ADDS     r5,r5,#1
        0x0000136e:    4628        (F      MOV      r0,r5
        0x00001370:    e8bd87f0    ....    POP      {r4-r10,pc}
    i.configure_pins
    configure_pins
        0x00001374:    b510        ..      PUSH     {r4,lr}
        0x00001376:    bf00        ..      NOP      
        0x00001378:    2073        s       MOVS     r0,#0x73
        0x0000137a:    4944        DI      LDR      r1,[pc,#272] ; [0x148c] = 0x40010000
        0x0000137c:    6608        .f      STR      r0,[r1,#0x60]
        0x0000137e:    4608        .F      MOV      r0,r1
        0x00001380:    6c00        .l      LDR      r0,[r0,#0x40]
        0x00001382:    f42000e0     ...    BIC      r0,r0,#0x700000
        0x00001386:    6408        .d      STR      r0,[r1,#0x40]
        0x00001388:    4608        .F      MOV      r0,r1
        0x0000138a:    6840        @h      LDR      r0,[r0,#4]
        0x0000138c:    f420407f     ..@    BIC      r0,r0,#0xff00
        0x00001390:    f4406020    @. `    ORR      r0,r0,#0xa00
        0x00001394:    6048        H`      STR      r0,[r1,#4]
        0x00001396:    2000        .       MOVS     r0,#0
        0x00001398:    6608        .f      STR      r0,[r1,#0x60]
        0x0000139a:    bf00        ..      NOP      
        0x0000139c:    bf00        ..      NOP      
        0x0000139e:    2073        s       MOVS     r0,#0x73
        0x000013a0:    6608        .f      STR      r0,[r1,#0x60]
        0x000013a2:    4608        .F      MOV      r0,r1
        0x000013a4:    6c00        .l      LDR      r0,[r0,#0x40]
        0x000013a6:    f02060e0     ..`    BIC      r0,r0,#0x7000000
        0x000013aa:    f0406080    @..`    ORR      r0,r0,#0x4000000
        0x000013ae:    6408        .d      STR      r0,[r1,#0x40]
        0x000013b0:    4608        .F      MOV      r0,r1
        0x000013b2:    6840        @h      LDR      r0,[r0,#4]
        0x000013b4:    f420007f     ...    BIC      r0,r0,#0xff0000
        0x000013b8:    f4403000    @..0    ORR      r0,r0,#0x20000
        0x000013bc:    6048        H`      STR      r0,[r1,#4]
        0x000013be:    2000        .       MOVS     r0,#0
        0x000013c0:    6608        .f      STR      r0,[r1,#0x60]
        0x000013c2:    bf00        ..      NOP      
        0x000013c4:    bf00        ..      NOP      
        0x000013c6:    2073        s       MOVS     r0,#0x73
        0x000013c8:    6608        .f      STR      r0,[r1,#0x60]
        0x000013ca:    4608        .F      MOV      r0,r1
        0x000013cc:    6c00        .l      LDR      r0,[r0,#0x40]
        0x000013ce:    f02040e0     ..@    BIC      r0,r0,#0x70000000
        0x000013d2:    6408        .d      STR      r0,[r1,#0x40]
        0x000013d4:    4608        .F      MOV      r0,r1
        0x000013d6:    6840        @h      LDR      r0,[r0,#4]
        0x000013d8:    f020407f     ..@    BIC      r0,r0,#0xff000000
        0x000013dc:    f0406000    @..`    ORR      r0,r0,#0x8000000
        0x000013e0:    6048        H`      STR      r0,[r1,#4]
        0x000013e2:    2000        .       MOVS     r0,#0
        0x000013e4:    6608        .f      STR      r0,[r1,#0x60]
        0x000013e6:    bf00        ..      NOP      
        0x000013e8:    bf00        ..      NOP      
        0x000013ea:    2073        s       MOVS     r0,#0x73
        0x000013ec:    6608        .f      STR      r0,[r1,#0x60]
        0x000013ee:    4608        .F      MOV      r0,r1
        0x000013f0:    6c00        .l      LDR      r0,[r0,#0x40]
        0x000013f2:    f42020e0     ..     BIC      r0,r0,#0x70000
        0x000013f6:    6408        .d      STR      r0,[r1,#0x40]
        0x000013f8:    4608        .F      MOV      r0,r1
        0x000013fa:    6840        @h      LDR      r0,[r0,#4]
        0x000013fc:    f02000ff     ...    BIC      r0,r0,#0xff
        0x00001400:    f0400010    @...    ORR      r0,r0,#0x10
        0x00001404:    6048        H`      STR      r0,[r1,#4]
        0x00001406:    2000        .       MOVS     r0,#0
        0x00001408:    6608        .f      STR      r0,[r1,#0x60]
        0x0000140a:    bf00        ..      NOP      
        0x0000140c:    2002        .       MOVS     r0,#2
        0x0000140e:    491f        .I      LDR      r1,[pc,#124] ; [0x148c] = 0x40010000
        0x00001410:    3190        .1      ADDS     r1,r1,#0x90
        0x00001412:    6008        .`      STR      r0,[r1,#0]
        0x00001414:    bf00        ..      NOP      
        0x00001416:    2073        s       MOVS     r0,#0x73
        0x00001418:    491c        .I      LDR      r1,[pc,#112] ; [0x148c] = 0x40010000
        0x0000141a:    6608        .f      STR      r0,[r1,#0x60]
        0x0000141c:    4608        .F      MOV      r0,r1
        0x0000141e:    6c00        .l      LDR      r0,[r0,#0x40]
        0x00001420:    f0200070     .p.    BIC      r0,r0,#0x70
        0x00001424:    f0400020    @. .    ORR      r0,r0,#0x20
        0x00001428:    6408        .d      STR      r0,[r1,#0x40]
        0x0000142a:    4608        .F      MOV      r0,r1
        0x0000142c:    6800        .h      LDR      r0,[r0,#0]
        0x0000142e:    f420407f     ..@    BIC      r0,r0,#0xff00
        0x00001432:    f44050c0    @..P    ORR      r0,r0,#0x1800
        0x00001436:    6008        .`      STR      r0,[r1,#0]
        0x00001438:    2000        .       MOVS     r0,#0
        0x0000143a:    6608        .f      STR      r0,[r1,#0x60]
        0x0000143c:    bf00        ..      NOP      
        0x0000143e:    bf00        ..      NOP      
        0x00001440:    2073        s       MOVS     r0,#0x73
        0x00001442:    6608        .f      STR      r0,[r1,#0x60]
        0x00001444:    4608        .F      MOV      r0,r1
        0x00001446:    6c00        .l      LDR      r0,[r0,#0x40]
        0x00001448:    f0200007     ...    BIC      r0,r0,#7
        0x0000144c:    6408        .d      STR      r0,[r1,#0x40]
        0x0000144e:    4608        .F      MOV      r0,r1
        0x00001450:    6800        .h      LDR      r0,[r0,#0]
        0x00001452:    f02000ff     ...    BIC      r0,r0,#0xff
        0x00001456:    f040001a    @...    ORR      r0,r0,#0x1a
        0x0000145a:    6008        .`      STR      r0,[r1,#0]
        0x0000145c:    2000        .       MOVS     r0,#0
        0x0000145e:    6608        .f      STR      r0,[r1,#0x60]
        0x00001460:    bf00        ..      NOP      
        0x00001462:    bf00        ..      NOP      
        0x00001464:    2073        s       MOVS     r0,#0x73
        0x00001466:    6608        .f      STR      r0,[r1,#0x60]
        0x00001468:    4608        .F      MOV      r0,r1
        0x0000146a:    6c00        .l      LDR      r0,[r0,#0x40]
        0x0000146c:    f0200008     ...    BIC      r0,r0,#8
        0x00001470:    6408        .d      STR      r0,[r1,#0x40]
        0x00001472:    2000        .       MOVS     r0,#0
        0x00001474:    6608        .f      STR      r0,[r1,#0x60]
        0x00001476:    bf00        ..      NOP      
        0x00001478:    2001        .       MOVS     r0,#1
        0x0000147a:    2100        .!      MOVS     r1,#0
        0x0000147c:    f7feff74    ..t.    BL       am_hal_gpio_int_clear ; 0x368
        0x00001480:    2001        .       MOVS     r0,#1
        0x00001482:    2100        .!      MOVS     r1,#0
        0x00001484:    f7feff78    ..x.    BL       am_hal_gpio_int_enable ; 0x378
        0x00001488:    bd10        ..      POP      {r4,pc}
    $d
        0x0000148a:    0000        ..      DCW    0
        0x0000148c:    40010000    ...@    DCD    1073807360
    $t
    i.configure_uart
    configure_uart
        0x00001490:    b510        ..      PUSH     {r4,lr}
        0x00001492:    f7fffb5b    ..[.    BL       am_hal_uart_clock_enable ; 0xb4c
        0x00001496:    f7fffb95    ....    BL       am_hal_uart_disable ; 0xbc4
        0x0000149a:    4804        .H      LDR      r0,[pc,#16] ; [0x14ac] = 0x10000004
        0x0000149c:    f7fffb68    ..h.    BL       am_hal_uart_config ; 0xb70
        0x000014a0:    2012        .       MOVS     r0,#0x12
        0x000014a2:    f7fffba3    ....    BL       am_hal_uart_fifo_config ; 0xbec
        0x000014a6:    f7fffb97    ....    BL       am_hal_uart_enable ; 0xbd8
        0x000014aa:    bd10        ..      POP      {r4,pc}
    $d
        0x000014ac:    10000004    ....    DCD    268435460
    $t
    i.configure_uart_pins
    configure_uart_pins
        0x000014b0:    bf00        ..      NOP      
        0x000014b2:    2073        s       MOVS     r0,#0x73
        0x000014b4:    4923        #I      LDR      r1,[pc,#140] ; [0x1544] = 0x40010000
        0x000014b6:    6608        .f      STR      r0,[r1,#0x60]
        0x000014b8:    4608        .F      MOV      r0,r1
        0x000014ba:    6d00        .m      LDR      r0,[r0,#0x50]
        0x000014bc:    f42040e0     ..@    BIC      r0,r0,#0x7000
        0x000014c0:    6508        .e      STR      r0,[r1,#0x50]
        0x000014c2:    4608        .F      MOV      r0,r1
        0x000014c4:    6a00        .j      LDR      r0,[r0,#0x20]
        0x000014c6:    f020407f     ..@    BIC      r0,r0,#0xff000000
        0x000014ca:    f0405080    @..P    ORR      r0,r0,#0x10000000
        0x000014ce:    6208        .b      STR      r0,[r1,#0x20]
        0x000014d0:    2000        .       MOVS     r0,#0
        0x000014d2:    6608        .f      STR      r0,[r1,#0x60]
        0x000014d4:    bf00        ..      NOP      
        0x000014d6:    bf00        ..      NOP      
        0x000014d8:    2073        s       MOVS     r0,#0x73
        0x000014da:    6608        .f      STR      r0,[r1,#0x60]
        0x000014dc:    4608        .F      MOV      r0,r1
        0x000014de:    6d00        .m      LDR      r0,[r0,#0x50]
        0x000014e0:    f42020e0     ..     BIC      r0,r0,#0x70000
        0x000014e4:    6508        .e      STR      r0,[r1,#0x50]
        0x000014e6:    4608        .F      MOV      r0,r1
        0x000014e8:    6a40        @j      LDR      r0,[r0,#0x24]
        0x000014ea:    f02000ff     ...    BIC      r0,r0,#0xff
        0x000014ee:    f0400012    @...    ORR      r0,r0,#0x12
        0x000014f2:    6248        Hb      STR      r0,[r1,#0x24]
        0x000014f4:    2000        .       MOVS     r0,#0
        0x000014f6:    6608        .f      STR      r0,[r1,#0x60]
        0x000014f8:    bf00        ..      NOP      
        0x000014fa:    bf00        ..      NOP      
        0x000014fc:    2073        s       MOVS     r0,#0x73
        0x000014fe:    6608        .f      STR      r0,[r1,#0x60]
        0x00001500:    4608        .F      MOV      r0,r1
        0x00001502:    6d00        .m      LDR      r0,[r0,#0x50]
        0x00001504:    f42000e0     ...    BIC      r0,r0,#0x700000
        0x00001508:    6508        .e      STR      r0,[r1,#0x50]
        0x0000150a:    4608        .F      MOV      r0,r1
        0x0000150c:    6a40        @j      LDR      r0,[r0,#0x24]
        0x0000150e:    f420407f     ..@    BIC      r0,r0,#0xff00
        0x00001512:    f44050d0    @..P    ORR      r0,r0,#0x1a00
        0x00001516:    6248        Hb      STR      r0,[r1,#0x24]
        0x00001518:    2000        .       MOVS     r0,#0
        0x0000151a:    6608        .f      STR      r0,[r1,#0x60]
        0x0000151c:    bf00        ..      NOP      
        0x0000151e:    bf00        ..      NOP      
        0x00001520:    2073        s       MOVS     r0,#0x73
        0x00001522:    6608        .f      STR      r0,[r1,#0x60]
        0x00001524:    4608        .F      MOV      r0,r1
        0x00001526:    6d00        .m      LDR      r0,[r0,#0x50]
        0x00001528:    f02060e0     ..`    BIC      r0,r0,#0x7000000
        0x0000152c:    6508        .e      STR      r0,[r1,#0x50]
        0x0000152e:    4608        .F      MOV      r0,r1
        0x00001530:    6a40        @j      LDR      r0,[r0,#0x24]
        0x00001532:    f420007f     ...    BIC      r0,r0,#0xff0000
        0x00001536:    f44010d0    @...    ORR      r0,r0,#0x1a0000
        0x0000153a:    6248        Hb      STR      r0,[r1,#0x24]
        0x0000153c:    2000        .       MOVS     r0,#0
        0x0000153e:    6608        .f      STR      r0,[r1,#0x60]
        0x00001540:    bf00        ..      NOP      
        0x00001542:    4770        pG      BX       lr
    $d
        0x00001544:    40010000    ...@    DCD    1073807360
    $t
    i.decstr_to_u
    decstr_to_u
        0x00001548:    b510        ..      PUSH     {r4,lr}
        0x0000154a:    4602        .F      MOV      r2,r0
        0x0000154c:    2000        .       MOVS     r0,#0
        0x0000154e:    2300        .#      MOVS     r3,#0
        0x00001550:    e007        ..      B        0x1562 ; decstr_to_u + 26
        0x00001552:    1c5b        [.      ADDS     r3,r3,#1
        0x00001554:    eb000480    ....    ADD      r4,r0,r0,LSL #2
        0x00001558:    0060        `.      LSLS     r0,r4,#1
        0x0000155a:    7814        .x      LDRB     r4,[r2,#0]
        0x0000155c:    3c30        0<      SUBS     r4,r4,#0x30
        0x0000155e:    4420         D      ADD      r0,r0,r4
        0x00001560:    1c52        R.      ADDS     r2,r2,#1
        0x00001562:    7814        .x      LDRB     r4,[r2,#0]
        0x00001564:    2c30        0,      CMP      r4,#0x30
        0x00001566:    db02        ..      BLT      0x156e ; decstr_to_u + 38
        0x00001568:    7814        .x      LDRB     r4,[r2,#0]
        0x0000156a:    2c39        9,      CMP      r4,#0x39
        0x0000156c:    ddf1        ..      BLE      0x1552 ; decstr_to_u + 10
        0x0000156e:    b101        ..      CBZ      r1,0x1572 ; decstr_to_u + 42
        0x00001570:    600b        .`      STR      r3,[r1,#0]
        0x00001572:    bd10        ..      POP      {r4,pc}
    i.divu64_10
    divu64_10
        0x00001574:    e92d4ff0    -..O    PUSH     {r4-r11,lr}
        0x00001578:    4604        .F      MOV      r4,r0
        0x0000157a:    460d        .F      MOV      r5,r1
        0x0000157c:    2000        .       MOVS     r0,#0
        0x0000157e:    ea850100    ....    EOR      r1,r5,r0
        0x00001582:    4040        @@      EORS     r0,r0,r0
        0x00001584:    4301        .C      ORRS     r1,r1,r0
        0x00001586:    d044        D.      BEQ      0x1612 ; divu64_10 + 158
        0x00001588:    ea5f0a55    _.U.    LSRS     r10,r5,#1
        0x0000158c:    ea4f0134    O.4.    RRX      r1,r4
        0x00001590:    ea4f0b94    O...    LSR      r11,r4,#2
        0x00001594:    ea4b7085    K..p    ORR      r0,r11,r5,LSL #30
        0x00001598:    180a        ..      ADDS     r2,r1,r0
        0x0000159a:    eb4a0395    J...    ADC      r3,r10,r5,LSR #2
        0x0000159e:    ea4f1012    O...    LSR      r0,r2,#4
        0x000015a2:    ea407a03    @..z    ORR      r10,r0,r3,LSL #28
        0x000015a6:    eb1a0202    ....    ADDS     r2,r10,r2
        0x000015aa:    eb431313    C...    ADC      r3,r3,r3,LSR #4
        0x000015ae:    ea4f2012    O..     LSR      r0,r2,#8
        0x000015b2:    ea406a03    @..j    ORR      r10,r0,r3,LSL #24
        0x000015b6:    eb1a0202    ....    ADDS     r2,r10,r2
        0x000015ba:    eb432313    C..#    ADC      r3,r3,r3,LSR #8
        0x000015be:    ea4f4012    O..@    LSR      r0,r2,#16
        0x000015c2:    ea404a03    @..J    ORR      r10,r0,r3,LSL #16
        0x000015c6:    eb1a0202    ....    ADDS     r2,r10,r2
        0x000015ca:    eb434313    C..C    ADC      r3,r3,r3,LSR #16
        0x000015ce:    189a        ..      ADDS     r2,r3,r2
        0x000015d0:    f1430300    C...    ADC      r3,r3,#0
        0x000015d4:    08d0        ..      LSRS     r0,r2,#3
        0x000015d6:    ea407243    @.Cr    ORR      r2,r0,r3,LSL #29
        0x000015da:    08db        ..      LSRS     r3,r3,#3
        0x000015dc:    210a        .!      MOVS     r1,#0xa
        0x000015de:    f04f0a00    O...    MOV      r10,#0
        0x000015e2:    fba20b01    ....    UMULL    r0,r11,r2,r1
        0x000015e6:    fb03b101    ....    MLA      r1,r3,r1,r11
        0x000015ea:    fb02110a    ....    MLA      r1,r2,r10,r1
        0x000015ee:    1a26        &.      SUBS     r6,r4,r0
        0x000015f0:    eb650701    e...    SBC      r7,r5,r1
        0x000015f4:    2106        .!      MOVS     r1,#6
        0x000015f6:    eb160a01    ....    ADDS     r10,r6,r1
        0x000015fa:    f1470100    G...    ADC      r1,r7,#0
        0x000015fe:    ea4f101a    O...    LSR      r0,r10,#4
        0x00001602:    ea407a01    @..z    ORR      r10,r0,r1,LSL #28
        0x00001606:    eb1a0002    ....    ADDS     r0,r10,r2
        0x0000160a:    eb431111    C...    ADC      r1,r3,r1,LSR #4
        0x0000160e:    e8bd8ff0    ....    POP      {r4-r11,pc}
        0x00001612:    46a0        .F      MOV      r8,r4
        0x00001614:    ea4f0058    O.X.    LSR      r0,r8,#1
        0x00001618:    eb000c98    ....    ADD      r12,r0,r8,LSR #2
        0x0000161c:    eb0c1c1c    ....    ADD      r12,r12,r12,LSR #4
        0x00001620:    eb0c2c1c    ...,    ADD      r12,r12,r12,LSR #8
        0x00001624:    eb0c4c1c    ...L    ADD      r12,r12,r12,LSR #16
        0x00001628:    ea4f0cdc    O...    LSR      r12,r12,#3
        0x0000162c:    eb0c008c    ....    ADD      r0,r12,r12,LSL #2
        0x00001630:    eba80940    ..@.    SUB      r9,r8,r0,LSL #1
        0x00001634:    f1090006    ....    ADD      r0,r9,#6
        0x00001638:    eb0c1010    ....    ADD      r0,r12,r0,LSR #4
        0x0000163c:    2100        .!      MOVS     r1,#0
        0x0000163e:    e7e6        ..      B        0x160e ; divu64_10 + 154
    i.ftoa
    ftoa
        0x00001640:    e92d4ff0    -..O    PUSH     {r4-r11,lr}
        0x00001644:    ed2d8b02    -...    VPUSH    {d8}
        0x00001648:    b081        ..      SUB      sp,sp,#4
        0x0000164a:    eeb08a40    ..@.    VMOV.F32 s16,s0
        0x0000164e:    4604        .F      MOV      r4,r0
        0x00001650:    468a        .F      MOV      r10,r1
        0x00001652:    f8d4b000    ....    LDR      r11,[r4,#0]
        0x00001656:    f1bb0f04    ....    CMP      r11,#4
        0x0000165a:    da06        ..      BGE      0x166a ; ftoa + 42
        0x0000165c:    f06f0002    o...    MVN      r0,#2
        0x00001660:    b001        ..      ADD      sp,sp,#4
        0x00001662:    ecbd8b02    ....    VPOP     {d8}
        0x00001666:    e8bd8ff0    ....    POP      {r4-r11,pc}
        0x0000166a:    eeb58ac0    ....    VCMPE.F32 s16,#0.0
        0x0000166e:    eef1fa10    ....    VMRS     APSR_nzcv,FPSCR
        0x00001672:    d103        ..      BNE      0x167c ; ftoa + 60
        0x00001674:    4846        FH      LDR      r0,[pc,#280] ; [0x1790] = 0x302e30
        0x00001676:    6020         `      STR      r0,[r4,#0]
        0x00001678:    2003        .       MOVS     r0,#3
        0x0000167a:    e7f1        ..      B        0x1660 ; ftoa + 32
        0x0000167c:    46a1        .F      MOV      r9,r4
        0x0000167e:    ed8d8a00    ....    VSTR     s16,[sp,#0]
        0x00001682:    9800        ..      LDR      r0,[sp,#0]
        0x00001684:    f3c050c7    ...P    UBFX     r0,r0,#23,#8
        0x00001688:    f1a0057f    ....    SUB      r5,r0,#0x7f
        0x0000168c:    9800        ..      LDR      r0,[sp,#0]
        0x0000168e:    f020407f     ..@    BIC      r0,r0,#0xff000000
        0x00001692:    f4400700    @...    ORR      r7,r0,#0x800000
        0x00001696:    f04f0800    O...    MOV      r8,#0
        0x0000169a:    2600        .&      MOVS     r6,#0
        0x0000169c:    2d1f        .-      CMP      r5,#0x1f
        0x0000169e:    db01        ..      BLT      0x16a4 ; ftoa + 100
        0x000016a0:    1eb0        ..      SUBS     r0,r6,#2
        0x000016a2:    e7dd        ..      B        0x1660 ; ftoa + 32
        0x000016a4:    f1150f17    ....    CMN      r5,#0x17
        0x000016a8:    da02        ..      BGE      0x16b0 ; ftoa + 112
        0x000016aa:    f04f30ff    O..0    MOV      r0,#0xffffffff
        0x000016ae:    e7d7        ..      B        0x1660 ; ftoa + 32
        0x000016b0:    2d17        .-      CMP      r5,#0x17
        0x000016b2:    db04        ..      BLT      0x16be ; ftoa + 126
        0x000016b4:    f1a50017    ....    SUB      r0,r5,#0x17
        0x000016b8:    fa07f600    ....    LSL      r6,r7,r0
        0x000016bc:    e011        ..      B        0x16e2 ; ftoa + 162
        0x000016be:    2d00        .-      CMP      r5,#0
        0x000016c0:    db09        ..      BLT      0x16d6 ; ftoa + 150
        0x000016c2:    f1c50017    ....    RSB      r0,r5,#0x17
        0x000016c6:    fa47f600    G...    ASR      r6,r7,r0
        0x000016ca:    1c68        h.      ADDS     r0,r5,#1
        0x000016cc:    fa07f000    ....    LSL      r0,r7,r0
        0x000016d0:    f020487f     ..H    BIC      r8,r0,#0xff000000
        0x000016d4:    e005        ..      B        0x16e2 ; ftoa + 162
        0x000016d6:    f027407f    '..@    BIC      r0,r7,#0xff000000
        0x000016da:    1c69        i.      ADDS     r1,r5,#1
        0x000016dc:    4249        IB      RSBS     r1,r1,#0
        0x000016de:    fa40f801    @...    ASR      r8,r0,r1
        0x000016e2:    9800        ..      LDR      r0,[sp,#0]
        0x000016e4:    2800        .(      CMP      r0,#0
        0x000016e6:    da02        ..      BGE      0x16ee ; ftoa + 174
        0x000016e8:    202d        -       MOVS     r0,#0x2d
        0x000016ea:    f8040b01    ....    STRB     r0,[r4],#1
        0x000016ee:    b91e        ..      CBNZ     r6,0x16f8 ; ftoa + 184
        0x000016f0:    2030        0       MOVS     r0,#0x30
        0x000016f2:    f8040b01    ....    STRB     r0,[r4],#1
        0x000016f6:    e014        ..      B        0x1722 ; ftoa + 226
        0x000016f8:    2e00        ..      CMP      r6,#0
        0x000016fa:    dd05        ..      BLE      0x1708 ; ftoa + 200
        0x000016fc:    4622        "F      MOV      r2,r4
        0x000016fe:    4630        0F      MOV      r0,r6
        0x00001700:    17f1        ..      ASRS     r1,r6,#31
        0x00001702:    f000fbea    ....    BL       uint64_to_str ; 0x1eda
        0x00001706:    e007        ..      B        0x1718 ; ftoa + 216
        0x00001708:    202d        -       MOVS     r0,#0x2d
        0x0000170a:    f8040b01    ....    STRB     r0,[r4],#1
        0x0000170e:    4622        "F      MOV      r2,r4
        0x00001710:    4270        pB      RSBS     r0,r6,#0
        0x00001712:    17c1        ..      ASRS     r1,r0,#31
        0x00001714:    f000fbe1    ....    BL       uint64_to_str ; 0x1eda
        0x00001718:    e000        ..      B        0x171c ; ftoa + 220
        0x0000171a:    1c64        d.      ADDS     r4,r4,#1
        0x0000171c:    7820         x      LDRB     r0,[r4,#0]
        0x0000171e:    2800        .(      CMP      r0,#0
        0x00001720:    d1fb        ..      BNE      0x171a ; ftoa + 218
        0x00001722:    202e        .       MOVS     r0,#0x2e
        0x00001724:    f8040b01    ....    STRB     r0,[r4],#1
        0x00001728:    f1b80f00    ....    CMP      r8,#0
        0x0000172c:    d103        ..      BNE      0x1736 ; ftoa + 246
        0x0000172e:    2030        0       MOVS     r0,#0x30
        0x00001730:    f8040b01    ....    STRB     r0,[r4],#1
        0x00001734:    e026        &.      B        0x1784 ; ftoa + 324
        0x00001736:    eba40209    ....    SUB      r2,r4,r9
        0x0000173a:    ebab0202    ....    SUB      r2,r11,r2
        0x0000173e:    1e51        Q.      SUBS     r1,r2,#1
        0x00001740:    4551        QE      CMP      r1,r10
        0x00001742:    dd01        ..      BLE      0x1748 ; ftoa + 264
        0x00001744:    4652        RF      MOV      r2,r10
        0x00001746:    e000        ..      B        0x174a ; ftoa + 266
        0x00001748:    460a        .F      MOV      r2,r1
        0x0000174a:    4611        .F      MOV      r1,r2
        0x0000174c:    2000        .       MOVS     r0,#0
        0x0000174e:    e00b        ..      B        0x1768 ; ftoa + 296
        0x00001750:    eb080288    ....    ADD      r2,r8,r8,LSL #2
        0x00001754:    ea4f0842    O.B.    LSL      r8,r2,#1
        0x00001758:    2230        0"      MOVS     r2,#0x30
        0x0000175a:    eb026228    ..(b    ADD      r2,r2,r8,ASR #24
        0x0000175e:    f8042b01    ...+    STRB     r2,[r4],#1
        0x00001762:    f028487f    (..H    BIC      r8,r8,#0xff000000
        0x00001766:    1c40        @.      ADDS     r0,r0,#1
        0x00001768:    4288        .B      CMP      r0,r1
        0x0000176a:    dbf1        ..      BLT      0x1750 ; ftoa + 272
        0x0000176c:    1e64        d.      SUBS     r4,r4,#1
        0x0000176e:    e000        ..      B        0x1772 ; ftoa + 306
        0x00001770:    1e64        d.      SUBS     r4,r4,#1
        0x00001772:    7822        "x      LDRB     r2,[r4,#0]
        0x00001774:    2a30        0*      CMP      r2,#0x30
        0x00001776:    d103        ..      BNE      0x1780 ; ftoa + 320
        0x00001778:    f8142c01    ...,    LDRB     r2,[r4,#-1]
        0x0000177c:    2a2e        .*      CMP      r2,#0x2e
        0x0000177e:    d1f7        ..      BNE      0x1770 ; ftoa + 304
        0x00001780:    1c64        d.      ADDS     r4,r4,#1
        0x00001782:    bf00        ..      NOP      
        0x00001784:    2000        .       MOVS     r0,#0
        0x00001786:    7020         p      STRB     r0,[r4,#0]
        0x00001788:    eba40009    ....    SUB      r0,r4,r9
        0x0000178c:    e768        h.      B        0x1660 ; ftoa + 32
    $d
        0x0000178e:    0000        ..      DCW    0
        0x00001790:    00302e30    0.0.    DCD    3157552
    $t
    i.host_emulation_reset
    host_emulation_reset
        0x00001794:    b510        ..      PUSH     {r4,lr}
        0x00001796:    a002        ..      ADR      r0,{pc}+0xa ; 0x17a0
        0x00001798:    f7fffb56    ..V.    BL       am_util_stdio_printf ; 0xe48
        0x0000179c:    bd10        ..      POP      {r4,pc}
    $d
        0x0000179e:    0000        ..      DCW    0
        0x000017a0:    65736552    Rese    DCD    1702061394
        0x000017a4:    68742074    t th    DCD    1752440948
        0x000017a8:    48207369    is H    DCD    1210086249
        0x000017ac:    2074736f    ost     DCD    544502639
        0x000017b0:    6c756d45    Emul    DCD    1819635013
        0x000017b4:    6f697461    atio    DCD    1869182049
        0x000017b8:    6c50206e    n Pl    DCD    1817190510
        0x000017bc:    6f667461    atfo    DCD    1868985441
        0x000017c0:    000a6d72    rm..    DCD    683378
    $t
    i.main
    main
        0x000017c4:    b508        ..      PUSH     {r3,lr}
        0x000017c6:    2000        .       MOVS     r0,#0
        0x000017c8:    f7fefdc4    ....    BL       am_hal_clkgen_sysclk_select ; 0x354
        0x000017cc:    f7fefd36    ..6.    BL       am_bsp_low_power_init ; 0x23c
        0x000017d0:    484b        KH      LDR      r0,[pc,#300] ; [0x1900] = 0x9bd
        0x000017d2:    f7fffb51    ..Q.    BL       am_util_stdio_printf_init ; 0xe78
        0x000017d6:    bf00        ..      NOP      
        0x000017d8:    2073        s       MOVS     r0,#0x73
        0x000017da:    494a        JI      LDR      r1,[pc,#296] ; [0x1904] = 0x40010000
        0x000017dc:    6608        .f      STR      r0,[r1,#0x60]
        0x000017de:    4608        .F      MOV      r0,r1
        0x000017e0:    6d40        @m      LDR      r0,[r0,#0x54]
        0x000017e2:    f0200070     .p.    BIC      r0,r0,#0x70
        0x000017e6:    6548        He      STR      r0,[r1,#0x54]
        0x000017e8:    4608        .F      MOV      r0,r1
        0x000017ea:    6a80        .j      LDR      r0,[r0,#0x28]
        0x000017ec:    f420407f     ..@    BIC      r0,r0,#0xff00
        0x000017f0:    f4405080    @..P    ORR      r0,r0,#0x1000
        0x000017f4:    6288        .b      STR      r0,[r1,#0x28]
        0x000017f6:    2000        .       MOVS     r0,#0
        0x000017f8:    6608        .f      STR      r0,[r1,#0x60]
        0x000017fa:    bf00        ..      NOP      
        0x000017fc:    f7fff8b2    ....    BL       am_hal_itm_enable ; 0x964
        0x00001800:    f7fefcfe    ....    BL       am_bsp_debug_printf_enable ; 0x200
        0x00001804:    f7fffb3e    ..>.    BL       am_util_stdio_terminal_clear ; 0xe84
        0x00001808:    a03f        ?.      ADR      r0,{pc}+0x100 ; 0x1908
        0x0000180a:    f7fffb1d    ....    BL       am_util_stdio_printf ; 0xe48
        0x0000180e:    f7fffe4f    ..O.    BL       configure_uart_pins ; 0x14b0
        0x00001812:    f7fffe3d    ..=.    BL       configure_uart ; 0x1490
        0x00001816:    f000fab3    ....    BL       uart_enable ; 0x1d80
        0x0000181a:    f44f6380    O..c    MOV      r3,#0x400
        0x0000181e:    4a40        @J      LDR      r2,[pc,#256] ; [0x1920] = 0x1000003c
        0x00001820:    4619        .F      MOV      r1,r3
        0x00001822:    4840        @H      LDR      r0,[pc,#256] ; [0x1924] = 0x1000043c
        0x00001824:    f7fff9ec    ....    BL       am_hal_uart_init_buffered ; 0xc00
        0x00001828:    2000        .       MOVS     r0,#0
        0x0000182a:    f7fffce7    ....    BL       am_util_stxetx_init ; 0x11fc
        0x0000182e:    f7fffda1    ....    BL       configure_pins ; 0x1374
        0x00001832:    2016        .       MOVS     r0,#0x16
        0x00001834:    f7fefdca    ....    BL       am_hal_interrupt_enable ; 0x3cc
        0x00001838:    2019        .       MOVS     r0,#0x19
        0x0000183a:    f7fefdc7    ....    BL       am_hal_interrupt_enable ; 0x3cc
        0x0000183e:    f7fefc89    ....    BL       am_hal_interrupt_master_enable ; 0x154
        0x00001842:    4939        9I      LDR      r1,[pc,#228] ; [0x1928] = 0x2060
        0x00001844:    2000        .       MOVS     r0,#0
        0x00001846:    f7fefde7    ....    BL       am_hal_iom_config ; 0x418
        0x0000184a:    2000        .       MOVS     r0,#0
        0x0000184c:    f7fefe10    ....    BL       am_hal_iom_enable ; 0x470
        0x00001850:    e054        T.      B        0x18fc ; main + 312
        0x00001852:    4836        6H      LDR      r0,[pc,#216] ; [0x192c] = 0x10000000
        0x00001854:    7800        .x      LDRB     r0,[r0,#0]
        0x00001856:    b178        x.      CBZ      r0,0x1878 ; main + 180
        0x00001858:    2002        .       MOVS     r0,#2
        0x0000185a:    4935        5I      LDR      r1,[pc,#212] ; [0x1930] = 0x1000083c
        0x0000185c:    7008        .p      STRB     r0,[r1,#0]
        0x0000185e:    2005        .       MOVS     r0,#5
        0x00001860:    7048        Hp      STRB     r0,[r1,#1]
        0x00001862:    4608        .F      MOV      r0,r1
        0x00001864:    9000        ..      STR      r0,[sp,#0]
        0x00001866:    466b        kF      MOV      r3,sp
        0x00001868:    2202        ."      MOVS     r2,#2
        0x0000186a:    2101        .!      MOVS     r1,#1
        0x0000186c:    4608        .F      MOV      r0,r1
        0x0000186e:    f7fffd4d    ..M.    BL       am_util_stxetx_tx ; 0x130c
        0x00001872:    2000        .       MOVS     r0,#0
        0x00001874:    492d        -I      LDR      r1,[pc,#180] ; [0x192c] = 0x10000000
        0x00001876:    7008        .p      STRB     r0,[r1,#0]
        0x00001878:    482e        .H      LDR      r0,[pc,#184] ; [0x1934] = 0x10000001
        0x0000187a:    7800        .x      LDRB     r0,[r0,#0]
        0x0000187c:    b178        x.      CBZ      r0,0x189e ; main + 218
        0x0000187e:    2002        .       MOVS     r0,#2
        0x00001880:    492b        +I      LDR      r1,[pc,#172] ; [0x1930] = 0x1000083c
        0x00001882:    7008        .p      STRB     r0,[r1,#0]
        0x00001884:    2006        .       MOVS     r0,#6
        0x00001886:    7048        Hp      STRB     r0,[r1,#1]
        0x00001888:    4608        .F      MOV      r0,r1
        0x0000188a:    9000        ..      STR      r0,[sp,#0]
        0x0000188c:    466b        kF      MOV      r3,sp
        0x0000188e:    2202        ."      MOVS     r2,#2
        0x00001890:    2101        .!      MOVS     r1,#1
        0x00001892:    4608        .F      MOV      r0,r1
        0x00001894:    f7fffd3a    ..:.    BL       am_util_stxetx_tx ; 0x130c
        0x00001898:    2000        .       MOVS     r0,#0
        0x0000189a:    4926        &I      LDR      r1,[pc,#152] ; [0x1934] = 0x10000001
        0x0000189c:    7008        .p      STRB     r0,[r1,#0]
        0x0000189e:    bf00        ..      NOP      
        0x000018a0:    f7fffd06    ....    BL       am_util_stxetx_rx_wait4start ; 0x12b0
        0x000018a4:    2800        .(      CMP      r0,#0
        0x000018a6:    d0fb        ..      BEQ      0x18a0 ; main + 220
        0x000018a8:    a023        #.      ADR      r0,{pc}+0x90 ; 0x1938
        0x000018aa:    f7fffacd    ....    BL       am_util_stdio_printf ; 0xe48
        0x000018ae:    4920         I      LDR      r1,[pc,#128] ; [0x1930] = 0x1000083c
        0x000018b0:    f44f7000    O..p    MOV      r0,#0x200
        0x000018b4:    f7fffcaa    ....    BL       am_util_stxetx_rx ; 0x120c
        0x000018b8:    4604        .F      MOV      r4,r0
        0x000018ba:    2c00        .,      CMP      r4,#0
        0x000018bc:    dd1e        ..      BLE      0x18fc ; main + 312
        0x000018be:    a023        #.      ADR      r0,{pc}+0x8e ; 0x194c
        0x000018c0:    f7fffac2    ....    BL       am_util_stdio_printf ; 0xe48
        0x000018c4:    481a        .H      LDR      r0,[pc,#104] ; [0x1930] = 0x1000083c
        0x000018c6:    7840        @x      LDRB     r0,[r0,#1]
        0x000018c8:    f08000ff    ....    EOR      r0,r0,#0xff
        0x000018cc:    4918        .I      LDR      r1,[pc,#96] ; [0x1930] = 0x1000083c
        0x000018ce:    7048        Hp      STRB     r0,[r1,#1]
        0x000018d0:    4608        .F      MOV      r0,r1
        0x000018d2:    9000        ..      STR      r0,[sp,#0]
        0x000018d4:    466b        kF      MOV      r3,sp
        0x000018d6:    4622        "F      MOV      r2,r4
        0x000018d8:    2101        .!      MOVS     r1,#1
        0x000018da:    4608        .F      MOV      r0,r1
        0x000018dc:    f7fffd16    ....    BL       am_util_stxetx_tx ; 0x130c
        0x000018e0:    4813        .H      LDR      r0,[pc,#76] ; [0x1930] = 0x1000083c
        0x000018e2:    7840        @x      LDRB     r0,[r0,#1]
        0x000018e4:    f08000ff    ....    EOR      r0,r0,#0xff
        0x000018e8:    4911        .I      LDR      r1,[pc,#68] ; [0x1930] = 0x1000083c
        0x000018ea:    7048        Hp      STRB     r0,[r1,#1]
        0x000018ec:    4620         F      MOV      r0,r4
        0x000018ee:    f000f983    ....    BL       uart2spi_fsm ; 0x1bf8
        0x000018f2:    4a0f        .J      LDR      r2,[pc,#60] ; [0x1930] = 0x1000083c
        0x000018f4:    4621        !F      MOV      r1,r4
        0x000018f6:    a01a        ..      ADR      r0,{pc}+0x6a ; 0x1960
        0x000018f8:    f000f87e    ..~.    BL       packet_hex_dump ; 0x19f8
        0x000018fc:    e7a9        ..      B        0x1852 ; main + 142
    $d
        0x000018fe:    0000        ..      DCW    0
        0x00001900:    000009bd    ....    DCD    2493
        0x00001904:    40010000    ...@    DCD    1073807360
        0x00001908:    54524155    UART    DCD    1414676821
        0x0000190c:    206f7420     to     DCD    544175136
        0x00001910:    20495053    SPI     DCD    541675603
        0x00001914:    6d617845    Exam    DCD    1835104325
        0x00001918:    0a656c70    ple.    DCD    174419056
        0x0000191c:    00000000    ....    DCD    0
        0x00001920:    1000003c    <...    DCD    268435516
        0x00001924:    1000043c    <...    DCD    268436540
        0x00001928:    00002060    ` ..    DCD    8288
        0x0000192c:    10000000    ....    DCD    268435456
        0x00001930:    1000083c    <...    DCD    268437564
        0x00001934:    10000001    ....    DCD    268435457
        0x00001938:    2065570a    .We     DCD    543512330
        0x0000193c:    20657261    are     DCD    543519329
        0x00001940:    72617473    star    DCD    1918989427
        0x00001944:    0a646574    ted.    DCD    174351732
        0x00001948:    00000000    ....    DCD    0
        0x0000194c:    6f47200a    . Go    DCD    1866932234
        0x00001950:    20612074    t a     DCD    543236212
        0x00001954:    6b636170    pack    DCD    1801675120
        0x00001958:    0d0a7465    et..    DCD    218788965
        0x0000195c:    00000000    ....    DCD    0
        0x00001960:    00005852    RX..    DCD    22610
    $t
    i.ndigits_in_hex
    ndigits_in_hex
        0x00001964:    b530        0.      PUSH     {r4,r5,lr}
        0x00001966:    4602        .F      MOV      r2,r0
        0x00001968:    460b        .F      MOV      r3,r1
        0x0000196a:    2400        .$      MOVS     r4,#0
        0x0000196c:    ea820104    ....    EOR      r1,r2,r4
        0x00001970:    405c        \@      EORS     r4,r4,r3
        0x00001972:    4321        !C      ORRS     r1,r1,r4
        0x00001974:    d101        ..      BNE      0x197a ; ndigits_in_hex + 22
        0x00001976:    2101        .!      MOVS     r1,#1
        0x00001978:    e000        ..      B        0x197c ; ndigits_in_hex + 24
        0x0000197a:    2100        .!      MOVS     r1,#0
        0x0000197c:    4608        .F      MOV      r0,r1
        0x0000197e:    e004        ..      B        0x198a ; ndigits_in_hex + 38
        0x00001980:    0911        ..      LSRS     r1,r2,#4
        0x00001982:    ea417203    A..r    ORR      r2,r1,r3,LSL #28
        0x00001986:    091b        ..      LSRS     r3,r3,#4
        0x00001988:    1c40        @.      ADDS     r0,r0,#1
        0x0000198a:    2400        .$      MOVS     r4,#0
        0x0000198c:    ea820104    ....    EOR      r1,r2,r4
        0x00001990:    405c        \@      EORS     r4,r4,r3
        0x00001992:    4321        !C      ORRS     r1,r1,r4
        0x00001994:    d1f4        ..      BNE      0x1980 ; ndigits_in_hex + 28
        0x00001996:    bd30        0.      POP      {r4,r5,pc}
    i.ndigits_in_i64
    ndigits_in_i64
        0x00001998:    b570        p.      PUSH     {r4-r6,lr}
        0x0000199a:    4604        .F      MOV      r4,r0
        0x0000199c:    460d        .F      MOV      r5,r1
        0x0000199e:    2100        .!      MOVS     r1,#0
        0x000019a0:    4608        .F      MOV      r0,r1
        0x000019a2:    1a61        a.      SUBS     r1,r4,r1
        0x000019a4:    eb750000    u...    SBCS     r0,r5,r0
        0x000019a8:    da03        ..      BGE      0x19b2 ; ndigits_in_i64 + 26
        0x000019aa:    2200        ."      MOVS     r2,#0
        0x000019ac:    4264        dB      RSBS     r4,r4,#0
        0x000019ae:    eb620505    b...    SBC      r5,r2,r5
        0x000019b2:    4620         F      MOV      r0,r4
        0x000019b4:    4629        )F      MOV      r1,r5
        0x000019b6:    f000f801    ....    BL       ndigits_in_u64 ; 0x19bc
        0x000019ba:    bd70        p.      POP      {r4-r6,pc}
    i.ndigits_in_u64
    ndigits_in_u64
        0x000019bc:    b570        p.      PUSH     {r4-r6,lr}
        0x000019be:    4604        .F      MOV      r4,r0
        0x000019c0:    460d        .F      MOV      r5,r1
        0x000019c2:    2100        .!      MOVS     r1,#0
        0x000019c4:    ea840001    ....    EOR      r0,r4,r1
        0x000019c8:    4069        i@      EORS     r1,r1,r5
        0x000019ca:    4308        .C      ORRS     r0,r0,r1
        0x000019cc:    d101        ..      BNE      0x19d2 ; ndigits_in_u64 + 22
        0x000019ce:    2001        .       MOVS     r0,#1
        0x000019d0:    e000        ..      B        0x19d4 ; ndigits_in_u64 + 24
        0x000019d2:    2000        .       MOVS     r0,#0
        0x000019d4:    4606        .F      MOV      r6,r0
        0x000019d6:    e006        ..      B        0x19e6 ; ndigits_in_u64 + 42
        0x000019d8:    4620         F      MOV      r0,r4
        0x000019da:    4629        )F      MOV      r1,r5
        0x000019dc:    f7fffdca    ....    BL       divu64_10 ; 0x1574
        0x000019e0:    4604        .F      MOV      r4,r0
        0x000019e2:    460d        .F      MOV      r5,r1
        0x000019e4:    1c76        v.      ADDS     r6,r6,#1
        0x000019e6:    2100        .!      MOVS     r1,#0
        0x000019e8:    ea840001    ....    EOR      r0,r4,r1
        0x000019ec:    4069        i@      EORS     r1,r1,r5
        0x000019ee:    4308        .C      ORRS     r0,r0,r1
        0x000019f0:    d1f2        ..      BNE      0x19d8 ; ndigits_in_u64 + 28
        0x000019f2:    4630        0F      MOV      r0,r6
        0x000019f4:    bd70        p.      POP      {r4-r6,pc}
        0x000019f6:    0000        ..      MOVS     r0,r0
    i.packet_hex_dump
    packet_hex_dump
        0x000019f8:    e92d41f0    -..A    PUSH     {r4-r8,lr}
        0x000019fc:    4607        .F      MOV      r7,r0
        0x000019fe:    460c        .F      MOV      r4,r1
        0x00001a00:    4616        .F      MOV      r6,r2
        0x00001a02:    4622        "F      MOV      r2,r4
        0x00001a04:    4639        9F      MOV      r1,r7
        0x00001a06:    a011        ..      ADR      r0,{pc}+0x46 ; 0x1a4c
        0x00001a08:    f7fffa1e    ....    BL       am_util_stdio_printf ; 0xe48
        0x00001a0c:    2c00        .,      CMP      r4,#0
        0x00001a0e:    da04        ..      BGE      0x1a1a ; packet_hex_dump + 34
        0x00001a10:    a013        ..      ADR      r0,{pc}+0x50 ; 0x1a60
        0x00001a12:    f7fffa19    ....    BL       am_util_stdio_printf ; 0xe48
        0x00001a16:    e8bd81f0    ....    POP      {r4-r8,pc}
        0x00001a1a:    a018        ..      ADR      r0,{pc}+0x62 ; 0x1a7c
        0x00001a1c:    f7fffa14    ....    BL       am_util_stdio_printf ; 0xe48
        0x00001a20:    2500        .%      MOVS     r5,#0
        0x00001a22:    e00c        ..      B        0x1a3e ; packet_hex_dump + 70
        0x00001a24:    7831        1x      LDRB     r1,[r6,#0]
        0x00001a26:    a016        ..      ADR      r0,{pc}+0x5a ; 0x1a80
        0x00001a28:    f7fffa0e    ....    BL       am_util_stdio_printf ; 0xe48
        0x00001a2c:    f0050007    ....    AND      r0,r5,#7
        0x00001a30:    2807        .(      CMP      r0,#7
        0x00001a32:    d102        ..      BNE      0x1a3a ; packet_hex_dump + 66
        0x00001a34:    a015        ..      ADR      r0,{pc}+0x58 ; 0x1a8c
        0x00001a36:    f7fffa07    ....    BL       am_util_stdio_printf ; 0xe48
        0x00001a3a:    1c76        v.      ADDS     r6,r6,#1
        0x00001a3c:    1c6d        m.      ADDS     r5,r5,#1
        0x00001a3e:    42a5        .B      CMP      r5,r4
        0x00001a40:    dbf0        ..      BLT      0x1a24 ; packet_hex_dump + 44
        0x00001a42:    a013        ..      ADR      r0,{pc}+0x4e ; 0x1a90
        0x00001a44:    f7fffa00    ....    BL       am_util_stdio_printf ; 0xe48
        0x00001a48:    bf00        ..      NOP      
        0x00001a4a:    e7e4        ..      B        0x1a16 ; packet_hex_dump + 30
    $d
        0x00001a4c:    2073250a    .%s     DCD    544417034
        0x00001a50:    4b434150    PACK    DCD    1262698832
        0x00001a54:    25285445    ET(%    DCD    623400005
        0x00001a58:    0a3a2964    d):.    DCD    171583844
        0x00001a5c:    0000000d    ....    DCD    13
        0x00001a60:    564e4920     INV    DCD    1447971104
        0x00001a64:    44494c41    ALID    DCD    1145654337
        0x00001a68:    43415020     PAC    DCD    1128353824
        0x00001a6c:    2054454b    KET     DCD    542393675
        0x00001a70:    474e454c    LENG    DCD    1196311884
        0x00001a74:    0d0a4854    TH..    DCD    218777684
        0x00001a78:    00000000    ....    DCD    0
        0x00001a7c:    00000009    ....    DCD    9
        0x00001a80:    25783020     0x%    DCD    628633632
        0x00001a84:    78322e32    2.2x    DCD    2016554546
        0x00001a88:    00000000    ....    DCD    0
        0x00001a8c:    00090d0a    ....    DCD    593162
        0x00001a90:    0d0a0d0a    ....    DCD    218762506
        0x00001a94:    00000000    ....    DCD    0
    $t
    i.spi_read
    spi_read
        0x00001a98:    b57c        |.      PUSH     {r2-r6,lr}
        0x00001a9a:    4604        .F      MOV      r4,r0
        0x00001a9c:    460d        .F      MOV      r5,r1
        0x00001a9e:    4616        .F      MOV      r6,r2
        0x00001aa0:    480f        .H      LDR      r0,[pc,#60] ; [0x1ae0] = 0x10000a3c
        0x00001aa2:    9001        ..      STR      r0,[sp,#4]
        0x00001aa4:    462a        *F      MOV      r2,r5
        0x00001aa6:    4621        !F      MOV      r1,r4
        0x00001aa8:    a00e        ..      ADR      r0,{pc}+0x3c ; 0x1ae4
        0x00001aaa:    f7fff9cd    ....    BL       am_util_stdio_printf ; 0xe48
        0x00001aae:    2000        .       MOVS     r0,#0
        0x00001ab0:    f7fefcde    ....    BL       am_hal_iom_enable ; 0x470
        0x00001ab4:    2103        .!      MOVS     r1,#3
        0x00001ab6:    2000        .       MOVS     r0,#0
        0x00001ab8:    f7fefde2    ....    BL       am_hal_iom_int_clear ; 0x680
        0x00001abc:    f44f407f    O..@    MOV      r0,#0xff00
        0x00001ac0:    ea002005    ...     AND      r0,r0,r5,LSL #8
        0x00001ac4:    4623        #F      MOV      r3,r4
        0x00001ac6:    4a06        .J      LDR      r2,[pc,#24] ; [0x1ae0] = 0x10000a3c
        0x00001ac8:    2105        .!      MOVS     r1,#5
        0x00001aca:    9000        ..      STR      r0,[sp,#0]
        0x00001acc:    2000        .       MOVS     r0,#0
        0x00001ace:    f7fefe57    ..W.    BL       am_hal_iom_spi_read ; 0x780
        0x00001ad2:    ab01        ..      ADD      r3,sp,#4
        0x00001ad4:    4622        "F      MOV      r2,r4
        0x00001ad6:    2101        .!      MOVS     r1,#1
        0x00001ad8:    4608        .F      MOV      r0,r1
        0x00001ada:    f7fffc17    ....    BL       am_util_stxetx_tx ; 0x130c
        0x00001ade:    bd7c        |.      POP      {r2-r6,pc}
    $d
        0x00001ae0:    10000a3c    <...    DCD    268438076
        0x00001ae4:    61655209    .Rea    DCD    1634030089
        0x00001ae8:    68742064    d th    DCD    1752440932
        0x00001aec:    70207369    is p    DCD    1881174889
        0x00001af0:    656b6361    acke    DCD    1701536609
        0x00001af4:    4c203a74    t: L    DCD    1277180532
        0x00001af8:    74676e65    engt    DCD    1952935525
        0x00001afc:    203d2068    h =     DCD    540876904
        0x00001b00:    4f206425    %d O    DCD    1327522853
        0x00001b04:    65736666    ffse    DCD    1702061670
        0x00001b08:    203d2074    t =     DCD    540876916
        0x00001b0c:    32257830    0x%2    DCD    841316400
        0x00001b10:    0a78322e    .2x.    DCD    175649326
        0x00001b14:    00000000    ....    DCD    0
    $t
    i.spi_write
    spi_write
        0x00001b18:    e92d43f8    -..C    PUSH     {r3-r9,lr}
        0x00001b1c:    4604        .F      MOV      r4,r0
        0x00001b1e:    460e        .F      MOV      r6,r1
        0x00001b20:    4615        .F      MOV      r5,r2
        0x00001b22:    f8df803c    ..<.    LDR      r8,[pc,#60] ; [0x1b60] = 0x10000a3c
        0x00001b26:    782b        +x      LDRB     r3,[r5,#0]
        0x00001b28:    4632        2F      MOV      r2,r6
        0x00001b2a:    4621        !F      MOV      r1,r4
        0x00001b2c:    480d        .H      LDR      r0,[pc,#52] ; [0x1b64] = 0x206c
        0x00001b2e:    f7fff98b    ....    BL       am_util_stdio_printf ; 0xe48
        0x00001b32:    2700        .'      MOVS     r7,#0
        0x00001b34:    e004        ..      B        0x1b40 ; spi_write + 40
        0x00001b36:    f8150b01    ....    LDRB     r0,[r5],#1
        0x00001b3a:    f8080b01    ....    STRB     r0,[r8],#1
        0x00001b3e:    1c7f        ..      ADDS     r7,r7,#1
        0x00001b40:    42a7        .B      CMP      r7,r4
        0x00001b42:    dbf8        ..      BLT      0x1b36 ; spi_write + 30
        0x00001b44:    f44f407f    O..@    MOV      r0,#0xff00
        0x00001b48:    ea002006    ...     AND      r0,r0,r6,LSL #8
        0x00001b4c:    4623        #F      MOV      r3,r4
        0x00001b4e:    4a04        .J      LDR      r2,[pc,#16] ; [0x1b60] = 0x10000a3c
        0x00001b50:    2105        .!      MOVS     r1,#5
        0x00001b52:    9000        ..      STR      r0,[sp,#0]
        0x00001b54:    2000        .       MOVS     r0,#0
        0x00001b56:    f7fefe83    ....    BL       am_hal_iom_spi_write ; 0x860
        0x00001b5a:    e8bd83f8    ....    POP      {r3-r9,pc}
    $d
        0x00001b5e:    0000        ..      DCW    0
        0x00001b60:    10000a3c    <...    DCD    268438076
        0x00001b64:    0000206c    l ..    DCD    8300
    $t
    i.target_reset
    target_reset
        0x00001b68:    b510        ..      PUSH     {r4,lr}
        0x00001b6a:    4604        .F      MOV      r4,r0
        0x00001b6c:    b11c        ..      CBZ      r4,0x1b76 ; target_reset + 14
        0x00001b6e:    2020                MOVS     r0,#0x20
        0x00001b70:    4920         I      LDR      r1,[pc,#128] ; [0x1bf4] = 0x40010090
        0x00001b72:    6008        .`      STR      r0,[r1,#0]
        0x00001b74:    e003        ..      B        0x1b7e ; target_reset + 22
        0x00001b76:    2020                MOVS     r0,#0x20
        0x00001b78:    491e        .I      LDR      r1,[pc,#120] ; [0x1bf4] = 0x40010090
        0x00001b7a:    3108        .1      ADDS     r1,r1,#8
        0x00001b7c:    6008        .`      STR      r0,[r1,#0]
        0x00001b7e:    bf00        ..      NOP      
        0x00001b80:    2073        s       MOVS     r0,#0x73
        0x00001b82:    491c        .I      LDR      r1,[pc,#112] ; [0x1bf4] = 0x40010090
        0x00001b84:    3990        .9      SUBS     r1,r1,#0x90
        0x00001b86:    6608        .f      STR      r0,[r1,#0x60]
        0x00001b88:    4608        .F      MOV      r0,r1
        0x00001b8a:    6c00        .l      LDR      r0,[r0,#0x40]
        0x00001b8c:    f42000e0     ...    BIC      r0,r0,#0x700000
        0x00001b90:    f4401000    @...    ORR      r0,r0,#0x200000
        0x00001b94:    6408        .d      STR      r0,[r1,#0x40]
        0x00001b96:    4608        .F      MOV      r0,r1
        0x00001b98:    6840        @h      LDR      r0,[r0,#4]
        0x00001b9a:    f420407f     ..@    BIC      r0,r0,#0xff00
        0x00001b9e:    f44050c0    @..P    ORR      r0,r0,#0x1800
        0x00001ba2:    6048        H`      STR      r0,[r1,#4]
        0x00001ba4:    2000        .       MOVS     r0,#0
        0x00001ba6:    6608        .f      STR      r0,[r1,#0x60]
        0x00001ba8:    bf00        ..      NOP      
        0x00001baa:    2002        .       MOVS     r0,#2
        0x00001bac:    4911        .I      LDR      r1,[pc,#68] ; [0x1bf4] = 0x40010090
        0x00001bae:    3108        .1      ADDS     r1,r1,#8
        0x00001bb0:    6008        .`      STR      r0,[r1,#0]
        0x00001bb2:    200a        .       MOVS     r0,#0xa
        0x00001bb4:    f7fff8e4    ....    BL       am_util_delay_us ; 0xd80
        0x00001bb8:    2002        .       MOVS     r0,#2
        0x00001bba:    490e        .I      LDR      r1,[pc,#56] ; [0x1bf4] = 0x40010090
        0x00001bbc:    3990        .9      SUBS     r1,r1,#0x90
        0x00001bbe:    f8c10090    ....    STR      r0,[r1,#0x90]
        0x00001bc2:    f44f707a    O.zp    MOV      r0,#0x3e8
        0x00001bc6:    f7fff8cc    ....    BL       am_util_delay_ms ; 0xd62
        0x00001bca:    bf00        ..      NOP      
        0x00001bcc:    2073        s       MOVS     r0,#0x73
        0x00001bce:    4909        .I      LDR      r1,[pc,#36] ; [0x1bf4] = 0x40010090
        0x00001bd0:    3990        .9      SUBS     r1,r1,#0x90
        0x00001bd2:    6608        .f      STR      r0,[r1,#0x60]
        0x00001bd4:    4608        .F      MOV      r0,r1
        0x00001bd6:    6c00        .l      LDR      r0,[r0,#0x40]
        0x00001bd8:    f42000e0     ...    BIC      r0,r0,#0x700000
        0x00001bdc:    6408        .d      STR      r0,[r1,#0x40]
        0x00001bde:    4608        .F      MOV      r0,r1
        0x00001be0:    6840        @h      LDR      r0,[r0,#4]
        0x00001be2:    f420407f     ..@    BIC      r0,r0,#0xff00
        0x00001be6:    f4406020    @. `    ORR      r0,r0,#0xa00
        0x00001bea:    6048        H`      STR      r0,[r1,#4]
        0x00001bec:    2000        .       MOVS     r0,#0
        0x00001bee:    6608        .f      STR      r0,[r1,#0x60]
        0x00001bf0:    bf00        ..      NOP      
        0x00001bf2:    bd10        ..      POP      {r4,pc}
    $d
        0x00001bf4:    40010090    ...@    DCD    1073807504
    $t
    i.uart2spi_fsm
    uart2spi_fsm
        0x00001bf8:    e92d41f0    -..A    PUSH     {r4-r8,lr}
        0x00001bfc:    4606        .F      MOV      r6,r0
        0x00001bfe:    460c        .F      MOV      r4,r1
        0x00001c00:    7867        gx      LDRB     r7,[r4,#1]
        0x00001c02:    4631        1F      MOV      r1,r6
        0x00001c04:    a025        %.      ADR      r0,{pc}+0x98 ; 0x1c9c
        0x00001c06:    f7fff91f    ....    BL       am_util_stdio_printf ; 0xe48
        0x00001c0a:    2500        .%      MOVS     r5,#0
        0x00001c0c:    e00b        ..      B        0x1c26 ; uart2spi_fsm + 46
        0x00001c0e:    5d61        a]      LDRB     r1,[r4,r5]
        0x00001c10:    a02d        -.      ADR      r0,{pc}+0xb8 ; 0x1cc8
        0x00001c12:    f7fff919    ....    BL       am_util_stdio_printf ; 0xe48
        0x00001c16:    f0050007    ....    AND      r0,r5,#7
        0x00001c1a:    2807        .(      CMP      r0,#7
        0x00001c1c:    d102        ..      BNE      0x1c24 ; uart2spi_fsm + 44
        0x00001c1e:    a02d        -.      ADR      r0,{pc}+0xb6 ; 0x1cd4
        0x00001c20:    f7fff912    ....    BL       am_util_stdio_printf ; 0xe48
        0x00001c24:    1c6d        m.      ADDS     r5,r5,#1
        0x00001c26:    42b5        .B      CMP      r5,r6
        0x00001c28:    dbf1        ..      BLT      0x1c0e ; uart2spi_fsm + 22
        0x00001c2a:    a02b        +.      ADR      r0,{pc}+0xae ; 0x1cd8
        0x00001c2c:    f7fff90c    ....    BL       am_util_stdio_printf ; 0xe48
        0x00001c30:    b137        7.      CBZ      r7,0x1c40 ; uart2spi_fsm + 72
        0x00001c32:    2f01        ./      CMP      r7,#1
        0x00001c34:    d00a        ..      BEQ      0x1c4c ; uart2spi_fsm + 84
        0x00001c36:    2f02        ./      CMP      r7,#2
        0x00001c38:    d012        ..      BEQ      0x1c60 ; uart2spi_fsm + 104
        0x00001c3a:    2f03        ./      CMP      r7,#3
        0x00001c3c:    d126        &.      BNE      0x1c8c ; uart2spi_fsm + 148
        0x00001c3e:    e019        ..      B        0x1c74 ; uart2spi_fsm + 124
        0x00001c40:    a026        &.      ADR      r0,{pc}+0x9c ; 0x1cdc
        0x00001c42:    f7fff901    ....    BL       am_util_stdio_printf ; 0xe48
        0x00001c46:    f7fffda5    ....    BL       host_emulation_reset ; 0x1794
        0x00001c4a:    e023        #.      B        0x1c94 ; uart2spi_fsm + 156
        0x00001c4c:    a02d        -.      ADR      r0,{pc}+0xb8 ; 0x1d04
        0x00001c4e:    f7fff8fb    ....    BL       am_util_stdio_printf ; 0xe48
        0x00001c52:    78a1        .x      LDRB     r1,[r4,#2]
        0x00001c54:    7822        "x      LDRB     r2,[r4,#0]
        0x00001c56:    1ed0        ..      SUBS     r0,r2,#3
        0x00001c58:    1ce2        ..      ADDS     r2,r4,#3
        0x00001c5a:    f7ffff5d    ..].    BL       spi_write ; 0x1b18
        0x00001c5e:    e019        ..      B        0x1c94 ; uart2spi_fsm + 156
        0x00001c60:    a02f        /.      ADR      r0,{pc}+0xc0 ; 0x1d20
        0x00001c62:    f7fff8f1    ....    BL       am_util_stdio_printf ; 0xe48
        0x00001c66:    78a1        .x      LDRB     r1,[r4,#2]
        0x00001c68:    7822        "x      LDRB     r2,[r4,#0]
        0x00001c6a:    1ed0        ..      SUBS     r0,r2,#3
        0x00001c6c:    4a33        3J      LDR      r2,[pc,#204] ; [0x1d3c] = 0x10000abc
        0x00001c6e:    f7ffff13    ....    BL       spi_read ; 0x1a98
        0x00001c72:    e00f        ..      B        0x1c94 ; uart2spi_fsm + 156
        0x00001c74:    a032        2.      ADR      r0,{pc}+0xcc ; 0x1d40
        0x00001c76:    f7fff8e7    ....    BL       am_util_stdio_printf ; 0xe48
        0x00001c7a:    78a1        .x      LDRB     r1,[r4,#2]
        0x00001c7c:    b109        ..      CBZ      r1,0x1c82 ; uart2spi_fsm + 138
        0x00001c7e:    2101        .!      MOVS     r1,#1
        0x00001c80:    e000        ..      B        0x1c84 ; uart2spi_fsm + 140
        0x00001c82:    2100        .!      MOVS     r1,#0
        0x00001c84:    4608        .F      MOV      r0,r1
        0x00001c86:    f7ffff6f    ..o.    BL       target_reset ; 0x1b68
        0x00001c8a:    e003        ..      B        0x1c94 ; uart2spi_fsm + 156
        0x00001c8c:    a034        4.      ADR      r0,{pc}+0xd4 ; 0x1d60
        0x00001c8e:    f7fff8db    ....    BL       am_util_stdio_printf ; 0xe48
        0x00001c92:    bf00        ..      NOP      
        0x00001c94:    bf00        ..      NOP      
        0x00001c96:    e8bd81f0    ....    POP      {r4-r8,pc}
    $d
        0x00001c9a:    0000        ..      DCW    0
        0x00001c9c:    3d3d200a    . ==    DCD    1027416074
        0x00001ca0:    6175203e    > ua    DCD    1635065918
        0x00001ca4:    73327472    rt2s    DCD    1932686450
        0x00001ca8:    665f6970    pi_f    DCD    1717528944
        0x00001cac:    203a6d73    sm:     DCD    540700019
        0x00001cb0:    4b434150    PACK    DCD    1262698832
        0x00001cb4:    4c205445    ET L    DCD    1277187141
        0x00001cb8:    74676e65    engt    DCD    1952935525
        0x00001cbc:    203d2068    h =     DCD    540876904
        0x00001cc0:    090a6425    %d..    DCD    151675941
        0x00001cc4:    00000000    ....    DCD    0
        0x00001cc8:    25783020     0x%    DCD    628633632
        0x00001ccc:    78322e32    2.2x    DCD    2016554546
        0x00001cd0:    00000000    ....    DCD    0
        0x00001cd4:    0000090a    ....    DCD    2314
        0x00001cd8:    0000000a    ....    DCD    10
        0x00001cdc:    72617509    .uar    DCD    1918989577
        0x00001ce0:    70733274    t2sp    DCD    1886597748
        0x00001ce4:    73665f69    i_fs    DCD    1936088937
        0x00001ce8:    72203a6d    m: r    DCD    1914714733
        0x00001cec:    74657365    eset    DCD    1952805733
        0x00001cf0:    736f6820     hos    DCD    1936680992
        0x00001cf4:    6d652074    t em    DCD    1835343988
        0x00001cf8:    74616c75    ulat    DCD    1952541813
        0x00001cfc:    0a6e6f69    ion.    DCD    175009641
        0x00001d00:    00000000    ....    DCD    0
        0x00001d04:    72617509    .uar    DCD    1918989577
        0x00001d08:    70733274    t2sp    DCD    1886597748
        0x00001d0c:    73665f69    i_fs    DCD    1936088937
        0x00001d10:    73203a6d    m: s    DCD    1931491949
        0x00001d14:    5f646e65    end_    DCD    1600417381
        0x00001d18:    0a697073    spi.    DCD    174682227
        0x00001d1c:    00000000    ....    DCD    0
        0x00001d20:    72617509    .uar    DCD    1918989577
        0x00001d24:    70733274    t2sp    DCD    1886597748
        0x00001d28:    73665f69    i_fs    DCD    1936088937
        0x00001d2c:    72203a6d    m: r    DCD    1914714733
        0x00001d30:    5f646165    ead_    DCD    1600414053
        0x00001d34:    0a697073    spi.    DCD    174682227
        0x00001d38:    00000000    ....    DCD    0
        0x00001d3c:    10000abc    ....    DCD    268438204
        0x00001d40:    72617509    .uar    DCD    1918989577
        0x00001d44:    70733274    t2sp    DCD    1886597748
        0x00001d48:    73665f69    i_fs    DCD    1936088937
        0x00001d4c:    72203a6d    m: r    DCD    1914714733
        0x00001d50:    74657365    eset    DCD    1952805733
        0x00001d54:    72617420     tar    DCD    1918989344
        0x00001d58:    0a746567    get.    DCD    175400295
        0x00001d5c:    00000000    ....    DCD    0
        0x00001d60:    4f525245    ERRO    DCD    1330795077
        0x00001d64:    69203a52    R: i    DCD    1763719762
        0x00001d68:    6c61766e    nval    DCD    1818326638
        0x00001d6c:    70206469    id p    DCD    1881171049
        0x00001d70:    656b6361    acke    DCD    1701536609
        0x00001d74:    79742074    t ty    DCD    2037653620
        0x00001d78:    0a0a6570    pe..    DCD    168453488
        0x00001d7c:    00000000    ....    DCD    0
    $t
    i.uart_enable
    uart_enable
        0x00001d80:    b510        ..      PUSH     {r4,lr}
        0x00001d82:    2000        .       MOVS     r0,#0
        0x00001d84:    492f        /I      LDR      r1,[pc,#188] ; [0x1e44] = 0x10000003
        0x00001d86:    7008        .p      STRB     r0,[r1,#0]
        0x00001d88:    bf00        ..      NOP      
        0x00001d8a:    2073        s       MOVS     r0,#0x73
        0x00001d8c:    492e        .I      LDR      r1,[pc,#184] ; [0x1e48] = 0x40010000
        0x00001d8e:    6608        .f      STR      r0,[r1,#0x60]
        0x00001d90:    4608        .F      MOV      r0,r1
        0x00001d92:    6d00        .m      LDR      r0,[r0,#0x50]
        0x00001d94:    f42040e0     ..@    BIC      r0,r0,#0x7000
        0x00001d98:    6508        .e      STR      r0,[r1,#0x50]
        0x00001d9a:    4608        .F      MOV      r0,r1
        0x00001d9c:    6a00        .j      LDR      r0,[r0,#0x20]
        0x00001d9e:    f020407f     ..@    BIC      r0,r0,#0xff000000
        0x00001da2:    f0405080    @..P    ORR      r0,r0,#0x10000000
        0x00001da6:    6208        .b      STR      r0,[r1,#0x20]
        0x00001da8:    2000        .       MOVS     r0,#0
        0x00001daa:    6608        .f      STR      r0,[r1,#0x60]
        0x00001dac:    bf00        ..      NOP      
        0x00001dae:    bf00        ..      NOP      
        0x00001db0:    2073        s       MOVS     r0,#0x73
        0x00001db2:    6608        .f      STR      r0,[r1,#0x60]
        0x00001db4:    4608        .F      MOV      r0,r1
        0x00001db6:    6d00        .m      LDR      r0,[r0,#0x50]
        0x00001db8:    f42020e0     ..     BIC      r0,r0,#0x70000
        0x00001dbc:    6508        .e      STR      r0,[r1,#0x50]
        0x00001dbe:    4608        .F      MOV      r0,r1
        0x00001dc0:    6a40        @j      LDR      r0,[r0,#0x24]
        0x00001dc2:    f02000ff     ...    BIC      r0,r0,#0xff
        0x00001dc6:    f0400012    @...    ORR      r0,r0,#0x12
        0x00001dca:    6248        Hb      STR      r0,[r1,#0x24]
        0x00001dcc:    2000        .       MOVS     r0,#0
        0x00001dce:    6608        .f      STR      r0,[r1,#0x60]
        0x00001dd0:    bf00        ..      NOP      
        0x00001dd2:    bf00        ..      NOP      
        0x00001dd4:    2073        s       MOVS     r0,#0x73
        0x00001dd6:    6608        .f      STR      r0,[r1,#0x60]
        0x00001dd8:    4608        .F      MOV      r0,r1
        0x00001dda:    6d00        .m      LDR      r0,[r0,#0x50]
        0x00001ddc:    f42000e0     ...    BIC      r0,r0,#0x700000
        0x00001de0:    6508        .e      STR      r0,[r1,#0x50]
        0x00001de2:    4608        .F      MOV      r0,r1
        0x00001de4:    6a40        @j      LDR      r0,[r0,#0x24]
        0x00001de6:    f420407f     ..@    BIC      r0,r0,#0xff00
        0x00001dea:    f44050d0    @..P    ORR      r0,r0,#0x1a00
        0x00001dee:    6248        Hb      STR      r0,[r1,#0x24]
        0x00001df0:    2000        .       MOVS     r0,#0
        0x00001df2:    6608        .f      STR      r0,[r1,#0x60]
        0x00001df4:    bf00        ..      NOP      
        0x00001df6:    bf00        ..      NOP      
        0x00001df8:    2073        s       MOVS     r0,#0x73
        0x00001dfa:    6608        .f      STR      r0,[r1,#0x60]
        0x00001dfc:    4608        .F      MOV      r0,r1
        0x00001dfe:    6d00        .m      LDR      r0,[r0,#0x50]
        0x00001e00:    f02060e0     ..`    BIC      r0,r0,#0x7000000
        0x00001e04:    6508        .e      STR      r0,[r1,#0x50]
        0x00001e06:    4608        .F      MOV      r0,r1
        0x00001e08:    6a40        @j      LDR      r0,[r0,#0x24]
        0x00001e0a:    f420007f     ...    BIC      r0,r0,#0xff0000
        0x00001e0e:    f44010d0    @...    ORR      r0,r0,#0x1a0000
        0x00001e12:    6248        Hb      STR      r0,[r1,#0x24]
        0x00001e14:    2000        .       MOVS     r0,#0
        0x00001e16:    6608        .f      STR      r0,[r1,#0x60]
        0x00001e18:    bf00        ..      NOP      
        0x00001e1a:    f7fefe97    ....    BL       am_hal_uart_clock_enable ; 0xb4c
        0x00001e1e:    480b        .H      LDR      r0,[pc,#44] ; [0x1e4c] = 0x10000004
        0x00001e20:    f7fefea6    ....    BL       am_hal_uart_config ; 0xb70
        0x00001e24:    f7fefed8    ....    BL       am_hal_uart_enable ; 0xbd8
        0x00001e28:    201b        .       MOVS     r0,#0x1b
        0x00001e2a:    f7fefacf    ....    BL       am_hal_interrupt_enable ; 0x3cc
        0x00001e2e:    2020                MOVS     r0,#0x20
        0x00001e30:    f7feff10    ....    BL       am_hal_uart_int_enable ; 0xc54
        0x00001e34:    2010        .       MOVS     r0,#0x10
        0x00001e36:    f7feff0d    ....    BL       am_hal_uart_int_enable ; 0xc54
        0x00001e3a:    2040        @       MOVS     r0,#0x40
        0x00001e3c:    f7feff0a    ....    BL       am_hal_uart_int_enable ; 0xc54
        0x00001e40:    bd10        ..      POP      {r4,pc}
    $d
        0x00001e42:    0000        ..      DCW    0
        0x00001e44:    10000003    ....    DCD    268435459
        0x00001e48:    40010000    ...@    DCD    1073807360
        0x00001e4c:    10000004    ....    DCD    268435460
    $t
    i.uint64_to_hexstr
    uint64_to_hexstr
        0x00001e50:    e92d41f0    -..A    PUSH     {r4-r8,lr}
        0x00001e54:    b085        ..      SUB      sp,sp,#0x14
        0x00001e56:    4604        .F      MOV      r4,r0
        0x00001e58:    460d        .F      MOV      r5,r1
        0x00001e5a:    461e        .F      MOV      r6,r3
        0x00001e5c:    2100        .!      MOVS     r1,#0
        0x00001e5e:    468c        .F      MOV      r12,r1
        0x00001e60:    ea84070c    ....    EOR      r7,r4,r12
        0x00001e64:    ea850c0c    ....    EOR      r12,r5,r12
        0x00001e68:    ea57070c    W...    ORRS     r7,r7,r12
        0x00001e6c:    d105        ..      BNE      0x1e7a ; uint64_to_hexstr + 42
        0x00001e6e:    f04f0830    O.0.    MOV      r8,#0x30
        0x00001e72:    460f        .F      MOV      r7,r1
        0x00001e74:    1c49        I.      ADDS     r1,r1,#1
        0x00001e76:    f80d8007    ....    STRB     r8,[sp,r7]
        0x00001e7a:    e016        ..      B        0x1eaa ; uint64_to_hexstr + 90
        0x00001e7c:    270f        .'      MOVS     r7,#0xf
        0x00001e7e:    4027        '@      ANDS     r7,r7,r4
        0x00001e80:    b2fb        ..      UXTB     r3,r7
        0x00001e82:    2b09        .+      CMP      r3,#9
        0x00001e84:    dd05        ..      BLE      0x1e92 ; uint64_to_hexstr + 66
        0x00001e86:    b10e        ..      CBZ      r6,0x1e8c ; uint64_to_hexstr + 60
        0x00001e88:    2727        ''      MOVS     r7,#0x27
        0x00001e8a:    e000        ..      B        0x1e8e ; uint64_to_hexstr + 62
        0x00001e8c:    2707        .'      MOVS     r7,#7
        0x00001e8e:    441f        .D      ADD      r7,r7,r3
        0x00001e90:    b2fb        ..      UXTB     r3,r7
        0x00001e92:    f1030730    ..0.    ADD      r7,r3,#0x30
        0x00001e96:    f00708ff    ....    AND      r8,r7,#0xff
        0x00001e9a:    460f        .F      MOV      r7,r1
        0x00001e9c:    1c49        I.      ADDS     r1,r1,#1
        0x00001e9e:    f80d8007    ....    STRB     r8,[sp,r7]
        0x00001ea2:    0927        '.      LSRS     r7,r4,#4
        0x00001ea4:    ea477405    G..t    ORR      r4,r7,r5,LSL #28
        0x00001ea8:    092d        -.      LSRS     r5,r5,#4
        0x00001eaa:    f04f0c00    O...    MOV      r12,#0
        0x00001eae:    ea84070c    ....    EOR      r7,r4,r12
        0x00001eb2:    ea850c0c    ....    EOR      r12,r5,r12
        0x00001eb6:    ea57070c    W...    ORRS     r7,r7,r12
        0x00001eba:    d1df        ..      BNE      0x1e7c ; uint64_to_hexstr + 44
        0x00001ebc:    4608        .F      MOV      r0,r1
        0x00001ebe:    b14a        J.      CBZ      r2,0x1ed4 ; uint64_to_hexstr + 132
        0x00001ec0:    e003        ..      B        0x1eca ; uint64_to_hexstr + 122
        0x00001ec2:    f81d7001    ...p    LDRB     r7,[sp,r1]
        0x00001ec6:    f8027b01    ...{    STRB     r7,[r2],#1
        0x00001eca:    000f        ..      MOVS     r7,r1
        0x00001ecc:    f1a10101    ....    SUB      r1,r1,#1
        0x00001ed0:    d1f7        ..      BNE      0x1ec2 ; uint64_to_hexstr + 114
        0x00001ed2:    7017        .p      STRB     r7,[r2,#0]
        0x00001ed4:    b005        ..      ADD      sp,sp,#0x14
        0x00001ed6:    e8bd81f0    ....    POP      {r4-r8,pc}
    i.uint64_to_str
    uint64_to_str
        0x00001eda:    e92d4ff0    -..O    PUSH     {r4-r11,lr}
        0x00001ede:    b087        ..      SUB      sp,sp,#0x1c
        0x00001ee0:    4607        .F      MOV      r7,r0
        0x00001ee2:    4688        .F      MOV      r8,r1
        0x00001ee4:    4616        .F      MOV      r6,r2
        0x00001ee6:    f04f0900    O...    MOV      r9,#0
        0x00001eea:    46cb        .F      MOV      r11,r9
        0x00001eec:    bf00        ..      NOP      
        0x00001eee:    4638        8F      MOV      r0,r7
        0x00001ef0:    4641        AF      MOV      r1,r8
        0x00001ef2:    f7fffb3f    ..?.    BL       divu64_10 ; 0x1574
        0x00001ef6:    4604        .F      MOV      r4,r0
        0x00001ef8:    460d        .F      MOV      r5,r1
        0x00001efa:    210a        .!      MOVS     r1,#0xa
        0x00001efc:    fba40101    ....    UMULL    r0,r1,r4,r1
        0x00001f00:    ebb70a00    ....    SUBS     r10,r7,r0
        0x00001f04:    f10a0030    ..0.    ADD      r0,r10,#0x30
        0x00001f08:    b2c2        ..      UXTB     r2,r0
        0x00001f0a:    4648        HF      MOV      r0,r9
        0x00001f0c:    f1090901    ....    ADD      r9,r9,#1
        0x00001f10:    f80d2000    ...     STRB     r2,[sp,r0]
        0x00001f14:    4627        'F      MOV      r7,r4
        0x00001f16:    46a8        .F      MOV      r8,r5
        0x00001f18:    f04f0200    O...    MOV      r2,#0
        0x00001f1c:    ea870002    ....    EOR      r0,r7,r2
        0x00001f20:    ea880102    ....    EOR      r1,r8,r2
        0x00001f24:    4308        .C      ORRS     r0,r0,r1
        0x00001f26:    d1e2        ..      BNE      0x1eee ; uint64_to_str + 20
        0x00001f28:    46cb        .F      MOV      r11,r9
        0x00001f2a:    b156        V.      CBZ      r6,0x1f42 ; uint64_to_str + 104
        0x00001f2c:    e003        ..      B        0x1f36 ; uint64_to_str + 92
        0x00001f2e:    f81d0009    ....    LDRB     r0,[sp,r9]
        0x00001f32:    f8060b01    ....    STRB     r0,[r6],#1
        0x00001f36:    ea5f0009    _...    MOVS     r0,r9
        0x00001f3a:    f1a90901    ....    SUB      r9,r9,#1
        0x00001f3e:    d1f6        ..      BNE      0x1f2e ; uint64_to_str + 84
        0x00001f40:    7030        0p      STRB     r0,[r6,#0]
        0x00001f42:    4658        XF      MOV      r0,r11
        0x00001f44:    b007        ..      ADD      sp,sp,#0x1c
        0x00001f46:    e8bd8ff0    ....    POP      {r4-r11,pc}
        0x00001f4a:    0000        ..      MOVS     r0,r0
    x$fpl$d2f
    $v0
    __aeabi_d2f
    _d2f
        0x00001f4c:    f0214200    !..B    BIC      r2,r1,#0x80000000
        0x00001f50:    f1a25260    ..`R    SUB      r2,r2,#0x38000000
        0x00001f54:    f5b21f80    ....    CMP      r2,#0x100000
        0x00001f58:    f0014300    ...C    AND      r3,r1,#0x80000000
        0x00001f5c:    bf28        (.      IT       CS
        0x00001f5e:    f1d26c7f    ...l    RSBSCS   r12,r2,#0xff00000
        0x00001f62:    d90b        ..      BLS      0x1f7c ; __aeabi_d2f + 48
        0x00001f64:    ea5f1c00    _...    LSLS     r12,r0,#4
        0x00001f68:    ea4302c2    C...    ORR      r2,r3,r2,LSL #3
        0x00001f6c:    eb427050    B.Pp    ADC      r0,r2,r0,LSR #29
        0x00001f70:    bf18        ..      IT       NE
        0x00001f72:    4770        pG      BXNE     lr
        0x00001f74:    bf28        (.      IT       CS
        0x00001f76:    f0200001     ...    BICCS    r0,r0,#1
        0x00001f7a:    4770        pG      BX       lr
        0x00001f7c:    f5b21f80    ....    CMP      r2,#0x100000
        0x00001f80:    bfbc        ..      ITT      LT
        0x00001f82:    4618        .F      MOVLT    r0,r3
        0x00001f84:    4770        pG      BXLT     lr
        0x00001f86:    ea4f0c41    O.A.    LSL      r12,r1,#1
        0x00001f8a:    f51c1f00    ....    CMN      r12,#0x200000
        0x00001f8e:    d202        ..      BCS      0x1f96 ; __aeabi_d2f + 74
        0x00001f90:    4608        .F      MOV      r0,r1
        0x00001f92:    f000b85f    .._.    B.W      __fpl_fretinf ; 0x2054
        0x00001f96:    b570        p.      PUSH     {r4-r6,lr}
        0x00001f98:    f000f809    ....    BL       __fpl_dnaninf ; 0x1fae
    $d
        0x00001f9c:    89000000    ....    DCD    2298478592
    $t
        0x00001fa0:    f7ffbff6    ....    B.W      0x1f90 ; __aeabi_d2f + 68
        0x00001fa4:    f04f4000    O..@    MOV      r0,#0x80000000
        0x00001fa8:    f5a00080    ....    SUB      r0,r0,#0x400000
        0x00001fac:    4770        pG      BX       lr
    x$fpl$dnaninf
    $v0
    __fpl_dnaninf
        0x00001fae:    f10e0e02    ....    ADD      lr,lr,#2
        0x00001fb2:    f02e0e03    ....    BIC      lr,lr,#3
        0x00001fb6:    f85e6b04    ^..k    LDR      r6,[lr],#4
        0x00001fba:    4236        6B      TST      r6,r6
        0x00001fbc:    d405        ..      BMI      0x1fca ; __fpl_dnaninf + 28
        0x00001fbe:    2a01        .*      CMP      r2,#1
        0x00001fc0:    eb430503    C...    ADC      r5,r3,r3
        0x00001fc4:    f5151f00    ....    CMN      r5,#0x200000
        0x00001fc8:    d812        ..      BHI      0x1ff0 ; __fpl_dnaninf + 66
        0x00001fca:    2801        .(      CMP      r0,#1
        0x00001fcc:    eb410c01    A...    ADC      r12,r1,r1
        0x00001fd0:    f51c1f00    ....    CMN      r12,#0x200000
        0x00001fd4:    d80c        ..      BHI      0x1ff0 ; __fpl_dnaninf + 66
        0x00001fd6:    d10e        ..      BNE      0x1ff6 ; __fpl_dnaninf + 72
        0x00001fd8:    ea4f7cd1    O..|    LSR      r12,r1,#31
        0x00001fdc:    f5151f00    ....    CMN      r5,#0x200000
        0x00001fe0:    eb0c0c4c    ..L.    ADD      r12,r12,r12,LSL #1
        0x00001fe4:    f10c0c02    ....    ADD      r12,r12,#2
        0x00001fe8:    bf08        ..      IT       EQ
        0x00001fea:    eb4c7cd3    L..|    ADCEQ    r12,r12,r3,LSR #31
        0x00001fee:    e004        ..      B        0x1ffa ; __fpl_dnaninf + 76
        0x00001ff0:    f04f0c08    O...    MOV      r12,#8
        0x00001ff4:    e001        ..      B        0x1ffa ; __fpl_dnaninf + 76
        0x00001ff6:    ea4f7cd3    O..|    LSR      r12,r3,#31
        0x00001ffa:    eb0c054c    ..L.    ADD      r5,r12,r12,LSL #1
        0x00001ffe:    fa26f605    &...    LSR      r6,r6,r5
        0x00002002:    f0060607    ....    AND      r6,r6,#7
        0x00002006:    f1b60c04    ....    SUBS     r12,r6,#4
        0x0000200a:    d206        ..      BCS      0x201a ; __fpl_dnaninf + 108
        0x0000200c:    eb0e0c86    ....    ADD      r12,lr,r6,LSL #2
        0x00002010:    e8bd4070    ..p@    POP      {r4-r6,lr}
        0x00002014:    f04c0c01    L...    ORR      r12,r12,#1
        0x00002018:    4760        `G      BX       r12
        0x0000201a:    e8dff00c    ....    TBB      [pc,r12]
    $d
        0x0000201e:    0b09        ..      DCW    2825
        0x00002020:    0202        ..      DCW    514
    $t
        0x00002022:    f04f4100    O..A    MOV      r1,#0x80000000
        0x00002026:    f04f0000    O...    MOV      r0,#0
        0x0000202a:    f5a12100    ...!    SUB      r1,r1,#0x80000
        0x0000202e:    bd70        p.      POP      {r4-r6,pc}
        0x00002030:    4619        .F      MOV      r1,r3
        0x00002032:    4610        .F      MOV      r0,r2
        0x00002034:    2801        .(      CMP      r0,#1
        0x00002036:    eb510401    Q...    ADCS     r4,r1,r1
        0x0000203a:    bf18        ..      IT       NE
        0x0000203c:    f5d41400    ....    RSBSNE   r4,r4,#0x200000
        0x00002040:    bf84        ..      ITT      HI
        0x00002042:    2000        .       MOVHI    r0,#0
        0x00002044:    f0014100    ...A    ANDHI    r1,r1,#0x80000000
        0x00002048:    bd70        p.      POP      {r4-r6,pc}
    x$fpl$fpinit
    $v0
    _fp_init
        0x0000204a:    f04f7040    O.@p    MOV      r0,#0x3000000
        0x0000204e:    eee10a10    ....    VMSR     FPSCR,r0
    __fplib_config_fpu_vfp
    __fplib_config_pureend_doubles
        0x00002052:    4770        pG      BX       lr
    x$fpl$fretinf
    $v0
    __fpl_fretinf
        0x00002054:    21ff        .!      MOVS     r1,#0xff
        0x00002056:    ea4150d0    A..P    ORR      r0,r1,r0,LSR #23
        0x0000205a:    05c0        ..      LSLS     r0,r0,#23
        0x0000205c:    4770        pG      BX       lr
    x$fpl$usenofp
    __I$use$fp
        0x0000205e:    0000        ..      MOVS     r0,r0
    $d.realdata
    .constdata
    g_sIOMConfig
        0x00002060:    00000001    ....    DCD    1
        0x00002064:    09041c00    ....    DCD    151264256
        0x00002068:    3c000000    ...<    DCD    1006632960
    .conststring
        0x0000206c:    6e655309    .Sen    DCD    1852134153
        0x00002070:    68742064    d th    DCD    1752440932
        0x00002074:    70207369    is p    DCD    1881174889
        0x00002078:    656b6361    acke    DCD    1701536609
        0x0000207c:    4c203a74    t: L    DCD    1277180532
        0x00002080:    74676e65    engt    DCD    1952935525
        0x00002084:    203d2068    h =     DCD    540876904
        0x00002088:    4f206425    %d O    DCD    1327522853
        0x0000208c:    65736666    ffse    DCD    1702061670
        0x00002090:    203d2074    t =     DCD    540876916
        0x00002094:    32257830    0x%2    DCD    841316400
        0x00002098:    2078322e    .2x     DCD    544748078
        0x0000209c:    73726966    firs    DCD    1936877926
        0x000020a0:    203d2074    t =     DCD    540876916
        0x000020a4:    32257830    0x%2    DCD    841316400
        0x000020a8:    0a78322e    .2x.    DCD    175649326
        0x000020ac:    00000000    ....    DCD    0
    Region$$Table$$Base
        0x000020b0:    000020d0    . ..    DCD    8400
        0x000020b4:    10000000    ....    DCD    268435456
        0x000020b8:    0000003c    <...    DCD    60
        0x000020bc:    000000d4    ....    DCD    212
        0x000020c0:    0000210c    .!..    DCD    8460
        0x000020c4:    1000003c    <...    DCD    268435516
        0x000020c8:    00000f2c    ,...    DCD    3884
        0x000020cc:    000000f0    ....    DCD    240
    Region$$Table$$Limit

** Section #2 'SRAM' (SHT_PROGBITS) [SHF_ALLOC + SHF_WRITE]
    Size   : 60 bytes (alignment 4)
    Address: 0x10000000

    0x10000000:   01 00 01 01 00 c2 01 00 60 00 00 00 00 00 00 00    ........`.......
    0x10000010:   00 00 00 00 00 00 00 00 00 00 00 00 00 00 00 00    ................
    0x10000020:   00 00 00 00 00 00 00 00 00 00 00 00 00 00 00 00    ................
    0x10000030:   00 00 00 00 00 00 00 00 34 00 00 10                ........4...


** Section #3 'SRAM' (SHT_NOBITS) [SHF_ALLOC + SHF_WRITE]
    Size   : 3884 bytes (alignment 8)
    Address: 0x1000003c


** Section #4 '.debug_abbrev' (SHT_PROGBITS)
    Size   : 1476 bytes


** Section #5 '.debug_frame' (SHT_PROGBITS)
    Size   : 3520 bytes


** Section #6 '.debug_info' (SHT_PROGBITS)
    Size   : 18252 bytes


** Section #7 '.debug_line' (SHT_PROGBITS)
    Size   : 7520 bytes


** Section #8 '.debug_loc' (SHT_PROGBITS)
    Size   : 2564 bytes


** Section #9 '.debug_macinfo' (SHT_PROGBITS)
    Size   : 8456 bytes


** Section #10 '.debug_pubnames' (SHT_PROGBITS)
    Size   : 1140 bytes


** Section #11 '.symtab' (SHT_SYMTAB)
    Size   : 9072 bytes (alignment 4)
    String table #12 '.strtab'
    Last local symbol no. 384

    Symbol table .symtab (566 symbols, 384 local)

      #  Symbol Name                Value      Bind  Sec  Type  Vis  Size
    ========================================================================

      1  $d                         0x00000000   Lc    1   --   De 
      2  $t                         0x00000070   Lc    1   --   De 
      3  $d                         0x00000092   Lc    1   --   De 
      4  $t                         0x00000098   Lc    1   --   De 
      5  $d                         0x000000cc   Lc    1   --   De 
      6  $t                         0x000000d4   Lc    1   --   De 
      7  $d                         0x0000017e   Lc    1   --   De 
      8  $t                         0x0000018c   Lc    1   --   De 
      9  $d                         0x000001ec   Lc    1   --   De 
     10  $t                         0x000001f0   Lc    1   --   De 
     11  $d                         0x000001f8   Lc    1   --   De 
     12  $t                         0x000001fc   Lc    1   --   De 
     13  $d                         0x00000232   Lc    1   --   De 
     14  $t                         0x0000023c   Lc    1   --   De 
     15  $d                         0x000002d8   Lc    1   --   De 
     16  $t                         0x000002e8   Lc    1   --   De 
     17  $d                         0x00000306   Lc    1   --   De 
     18  $t                         0x0000030e   Lc    1   --   De 
     19  $d                         0x00000334   Lc    1   --   De 
     20  $t                         0x00000354   Lc    1   --   De 
     21  $d                         0x00000374   Lc    1   --   De 
     22  $t                         0x00000378   Lc    1   --   De 
     23  $d                         0x00000390   Lc    1   --   De 
     24  $t                         0x00000394   Lc    1   --   De 
     25  $d                         0x000003c8   Lc    1   --   De 
     26  $t                         0x000003cc   Lc    1   --   De 
     27  $d                         0x00000412   Lc    1   --   De 
     28  $t                         0x00000418   Lc    1   --   De 
     29  $d                         0x0000046a   Lc    1   --   De 
     30  $t                         0x00000470   Lc    1   --   De 
     31  $d                         0x000004d8   Lc    1   --   De 
     32  $t                         0x000004e0   Lc    1   --   De 
     33  $d                         0x00000568   Lc    1   --   De 
     34  $t                         0x000005b0   Lc    1   --   De 
     35  $d                         0x0000063c   Lc    1   --   De 
     36  $t                         0x00000680   Lc    1   --   De 
     37  $d                         0x0000075a   Lc    1   --   De 
     38  $t                         0x00000760   Lc    1   --   De 
     39  $d                         0x00000834   Lc    1   --   De 
     40  $t                         0x00000860   Lc    1   --   De 
     41  $d                         0x0000091c   Lc    1   --   De 
     42  $t                         0x00000948   Lc    1   --   De 
     43  $d                         0x00000960   Lc    1   --   De 
     44  $t                         0x00000964   Lc    1   --   De 
     45  $d                         0x0000099c   Lc    1   --   De 
     46  $t                         0x000009bc   Lc    1   --   De 
     47  $d                         0x00000a12   Lc    1   --   De 
     48  $t                         0x00000a18   Lc    1   --   De 
     49  $d                         0x00000a24   Lc    1   --   De 
     50  $t                         0x00000a28   Lc    1   --   De 
     51  $d                         0x00000a4c   Lc    1   --   De 
     52  $t                         0x00000a50   Lc    1   --   De 
     53  $d                         0x00000a9c   Lc    1   --   De 
     54  $t                         0x00000aa8   Lc    1   --   De 
     55  $d                         0x00000afe   Lc    1   --   De 
     56  $t                         0x00000b04   Lc    1   --   De 
     57  $d                         0x00000b42   Lc    1   --   De 
     58  $t                         0x00000b4c   Lc    1   --   De 
     59  $d                         0x00000b6c   Lc    1   --   De 
     60  $t                         0x00000b70   Lc    1   --   De 
     61  $d                         0x00000bbe   Lc    1   --   De 
     62  $t                         0x00000bc4   Lc    1   --   De 
     63  $d                         0x00000bd4   Lc    1   --   De 
     64  $t                         0x00000bd8   Lc    1   --   De 
     65  $d                         0x00000be6   Lc    1   --   De 
     66  $t                         0x00000bec   Lc    1   --   De 
     67  $d                         0x00000bfa   Lc    1   --   De 
     68  $t                         0x00000c00   Lc    1   --   De 
     69  $d                         0x00000c40   Lc    1   --   De 
     70  $t                         0x00000c48   Lc    1   --   De 
     71  $d                         0x00000c4e   Lc    1   --   De 
     72  $t                         0x00000c54   Lc    1   --   De 
     73  $d                         0x00000c5e   Lc    1   --   De 
     74  $t                         0x00000c64   Lc    1   --   De 
     75  $d                         0x00000c70   Lc    1   --   De 
     76  $t                         0x00000c74   Lc    1   --   De 
     77  $d                         0x00000d12   Lc    1   --   De 
     78  $t                         0x00000d20   Lc    1   --   De 
     79  $d                         0x00000d28   Lc    1   --   De 
     80  $t                         0x00000d2c   Lc    1   --   De 
     81  $d                         0x00000d9a   Lc    1   --   De 
     82  $t                         0x00000da0   Lc    1   --   De 
     83  $d                         0x00000e44   Lc    1   --   De 
     84  $t                         0x00000e48   Lc    1   --   De 
     85  $d                         0x00000e70   Lc    1   --   De 
     86  $t                         0x00000e78   Lc    1   --   De 
     87  $d                         0x00000e7e   Lc    1   --   De 
     88  $t                         0x00000e84   Lc    1   --   De 
     89  $d                         0x00000e94   Lc    1   --   De 
     90  $t                         0x00000ebc   Lc    1   --   De 
     91  $d                         0x000011ec   Lc    1   --   De 
     92  $t                         0x000011fc   Lc    1   --   De 
     93  $d                         0x00001208   Lc    1   --   De 
     94  $t                         0x0000120c   Lc    1   --   De 
     95  $d                         0x00001290   Lc    1   --   De 
     96  $t                         0x000012b0   Lc    1   --   De 
     97  $d                         0x000012fa   Lc    1   --   De 
     98  $t                         0x0000130c   Lc    1   --   De 
     99  $d                         0x0000148a   Lc    1   --   De 
    100  $t                         0x00001490   Lc    1   --   De 
    101  $d                         0x000014ac   Lc    1   --   De 
    102  $t                         0x000014b0   Lc    1   --   De 
    103  $d                         0x00001544   Lc    1   --   De 
    104  $t                         0x00001548   Lc    1   --   De 
    105  $d                         0x0000178e   Lc    1   --   De 
    106  $t                         0x00001794   Lc    1   --   De 
    107  $d                         0x0000179e   Lc    1   --   De 
    108  $t                         0x000017c4   Lc    1   --   De 
    109  $d                         0x000018fe   Lc    1   --   De 
    110  $t                         0x00001964   Lc    1   --   De 
    111  $d                         0x00001a4c   Lc    1   --   De 
    112  $t                         0x00001a98   Lc    1   --   De 
    113  $d                         0x00001ae0   Lc    1   --   De 
    114  $t                         0x00001b18   Lc    1   --   De 
    115  $d                         0x00001b5e   Lc    1   --   De 
    116  $t                         0x00001b68   Lc    1   --   De 
    117  $d                         0x00001bf4   Lc    1   --   De 
    118  $t                         0x00001bf8   Lc    1   --   De 
    119  $d                         0x00001c9a   Lc    1   --   De 
    120  $t                         0x00001d80   Lc    1   --   De 
    121  $d                         0x00001e42   Lc    1   --   De 
    122  $t                         0x00001e50   Lc    1   --   De 
    123  $d                         0x00001f9c   Lc    1   --   De 
    124  $t                         0x00001fa0   Lc    1   --   De 
    125  $d                         0x0000201e   Lc    1   --   De 
    126  $t                         0x00002022   Lc    1   --   De 
    127  $d.realdata                0x00002060   Lc    1   --   De 
    128  $d.realdata                0x10000000   Lc    2   --   De 
    129  ../src/uart2spi.c          0x00000000   Lc  Abs  File  De 
    130  i.am_gpio_isr              0x00000264   Lc    1  Sect  De 
    131  i.am_iomaster0_isr         0x00000d2c   Lc    1  Sect  De 
    132  i.am_uart_isr              0x00000d4a   Lc    1  Sect  De 
    133  i.configure_pins           0x00001374   Lc    1  Sect  De 
    134  i.configure_uart           0x00001490   Lc    1  Sect  De 
    135  i.configure_uart_pins      0x000014b0   Lc    1  Sect  De 
    136  i.main                     0x000017c4   Lc    1  Sect  De 
    137  i.packet_hex_dump          0x000019f8   Lc    1  Sect  De 
    138  i.target_reset             0x00001b68   Lc    1  Sect  De 
    139  i.uart_enable              0x00001d80   Lc    1  Sect  De 
    140  .bss                       0x1000003c   Lc    3  Sect  De   0xa00
    141  .constdata                 0x00002060   Lc    1  Sect  De   0xc
    142  .data                      0x10000000   Lc    2  Sect  De   0x18
    143  ../src/uart2spi_fsm.c      0x00000000   Lc  Abs  File  De 
    144  i.host_emulation_reset     0x00001794   Lc    1  Sect  De 
    145  host_emulation_reset       0x00001795   Lc    1  Code  De   0xa
    146  i.spi_read                 0x00001a98   Lc    1  Sect  De 
    147  spi_read                   0x00001a99   Lc    1  Code  De   0x48
    148  i.spi_write                0x00001b18   Lc    1  Sect  De 
    149  spi_write                  0x00001b19   Lc    1  Code  De   0x46
    150  i.uart2spi_fsm             0x00001bf8   Lc    1  Sect  De 
    151  .bss                       0x10000a3c   Lc    3  Sect  De   0x180
    152  ui32WorkingBuffer          0x10000a3c   Lc    3  Data  De   0x80
    153  ui32RxBuffer               0x10000abc   Lc    3  Data  De   0x100
    154  .conststring               0x0000206c   Lc    1  Sect  De   0x41
    155  ..\..\..\..\..\utils\am_util_delay.c
                                    0x00000000   Lc  Abs  File  De 
    156  .emb_text                  0x00000138   Lc    1  Sect  De   0x6
    157  $v0                        0x00000138   Lc    1   --   De 
    158  ../../../../../utils/am_util_delay.c
                                    0x00000000   Lc  Abs  File  De 
    159  i.am_util_delay_ms         0x00000d62   Lc    1  Sect  De 
    160  i.am_util_delay_us         0x00000d80   Lc    1  Sect  De 
    161  ..\..\..\..\..\utils\am_util_faultisr.c
                                    0x00000000   Lc  Abs  File  De 
    162  .emb_text                  0x00000140   Lc    1  Sect  De   0x14
    163  $v0                        0x00000140   Lc    1   --   De 
    164  ../../../../../utils/am_util_faultisr.c
                                    0x00000000   Lc  Abs  File  De 
    165  i.am_util_faultisr_collect_data
                                    0x00000da0   Lc    1  Sect  De 
    166  ../../../../../utils/am_util_stdio.c
                                    0x00000000   Lc  Abs  File  De 
    167  i.am_util_stdio_printf     0x00000e48   Lc    1  Sect  De 
    168  i.am_util_stdio_printf_init
                                    0x00000e78   Lc    1  Sect  De 
    169  i.am_util_stdio_terminal_clear
                                    0x00000e84   Lc    1  Sect  De 
    170  i.am_util_stdio_vsprintf   0x00000ebc   Lc    1  Sect  De 
    171  i.decstr_to_u              0x00001548   Lc    1  Sect  De 
    172  decstr_to_u                0x00001549   Lc    1  Code  De   0x2c
    173  i.divu64_10                0x00001574   Lc    1  Sect  De 
    174  divu64_10                  0x00001575   Lc    1  Code  De   0xcc
    175  i.ftoa                     0x00001640   Lc    1  Sect  De 
    176  ftoa                       0x00001641   Lc    1  Code  De   0x14e
    177  i.ndigits_in_hex           0x00001964   Lc    1  Sect  De 
    178  ndigits_in_hex             0x00001965   Lc    1  Code  De   0x34
    179  i.ndigits_in_i64           0x00001998   Lc    1  Sect  De 
    180  ndigits_in_i64             0x00001999   Lc    1  Code  De   0x24
    181  i.ndigits_in_u64           0x000019bc   Lc    1  Sect  De 
    182  ndigits_in_u64             0x000019bd   Lc    1  Code  De   0x3a
    183  i.uint64_to_hexstr         0x00001e50   Lc    1  Sect  De 
    184  uint64_to_hexstr           0x00001e51   Lc    1  Code  De   0x8a
    185  i.uint64_to_str            0x00001eda   Lc    1  Sect  De 
    186  uint64_to_str              0x00001edb   Lc    1  Code  De   0x70
    187  .bss                       0x10000bbc   Lc    3  Sect  De   0x100
    188  g_prfbuf                   0x10000bbc   Lc    3  Data  De   0x100
    189  .data                      0x10000018   Lc    2  Sect  De   0x5
    190  g_bTxtXlate                0x1000001c   Lc    2  Data  De   0x1
    191  ../../../../../utils/am_util_stxetx.c
                                    0x00000000   Lc  Abs  File  De 
    192  i.am_util_stxetx_init      0x000011fc   Lc    1  Sect  De 
    193  i.am_util_stxetx_rx        0x0000120c   Lc    1  Sect  De 
    194  i.am_util_stxetx_rx_wait4start
                                    0x000012b0   Lc    1  Sect  De 
    195  i.am_util_stxetx_tx        0x0000130c   Lc    1  Sect  De 
    196  .data                      0x10000020   Lc    2  Sect  De   0x8
    197  ../keil/startup_keil.s     0x00000000   Lc  Abs  File  De 
    198  STACK                      0x10000d68   Lc    3  Sect  De   0x200
    199  StackMem                   0x10000d68   Lc    3  Data  De 
    200  HEAP                       0x10000d68   Lc    3  Sect  De 
    201  HeapMem                    0x10000d68   Lc    3  Data  De 
    202  RESET                      0x00000000   Lc    1  Sect  De   0x98
    203  $v0                        0x00000070   Lc    1   --   De 
    204  .text                      0x00000174   Lc    1  Sect  De   0x18
    205  $v0                        0x00000174   Lc    1   --   De 
    206  ../am_hal_global.c         0x00000000   Lc  Abs  File  De 
    207  .data                      0x10000028   Lc    2  Sect  De   0x4
    208  ../am_hal_clkgen.c         0x00000000   Lc  Abs  File  De 
    209  i.am_hal_clkgen_osc_stop   0x000002e8   Lc    1  Sect  De 
    210  i.am_hal_clkgen_sysclk_get 0x000002f4   Lc    1  Sect  De 
    211  i.am_hal_clkgen_sysclk_select
                                    0x00000354   Lc    1  Sect  De 
    212  ../am_hal_gpio.c           0x00000000   Lc  Abs  File  De 
    213  i.am_hal_gpio_int_clear    0x00000368   Lc    1  Sect  De 
    214  i.am_hal_gpio_int_enable   0x00000378   Lc    1  Sect  De 
    215  i.am_hal_gpio_int_status_get
                                    0x00000394   Lc    1  Sect  De 
    216  ..\am_hal_interrupt.c      0x00000000   Lc  Abs  File  De 
    217  .emb_text                  0x00000154   Lc    1  Sect  De   0x16
    218  $v0                        0x00000154   Lc    1   --   De 
    219  ../am_hal_interrupt.c      0x00000000   Lc  Abs  File  De 
    220  i.am_hal_interrupt_enable  0x000003cc   Lc    1  Sect  De 
    221  ../am_hal_iom.c            0x00000000   Lc  Abs  File  De 
    222  i.am_hal_iom_config        0x00000418   Lc    1  Sect  De 
    223  i.am_hal_iom_enable        0x00000470   Lc    1  Sect  De 
    224  i.am_hal_iom_fifo_read     0x000004e0   Lc    1  Sect  De 
    225  i.am_hal_iom_fifo_write    0x000005b0   Lc    1  Sect  De 
    226  i.am_hal_iom_int_clear     0x00000680   Lc    1  Sect  De 
    227  i.am_hal_iom_int_service   0x00000690   Lc    1  Sect  De 
    228  i.am_hal_iom_int_status_get
                                    0x00000760   Lc    1  Sect  De 
    229  i.am_hal_iom_spi_read      0x00000780   Lc    1  Sect  De 
    230  i.am_hal_iom_spi_write     0x00000860   Lc    1  Sect  De 
    231  .bss                       0x10000cbc   Lc    3  Sect  De   0x20
    232  .data                      0x1000002c   Lc    2  Sect  De   0x8
    233  ..\am_hal_itm.c            0x00000000   Lc  Abs  File  De 
    234  .emb_text                  0x0000016c   Lc    1  Sect  De   0x6
    235  $v0                        0x0000016c   Lc    1   --   De 
    236  ../am_hal_itm.c            0x00000000   Lc  Abs  File  De 
    237  i.am_hal_itm_delay_us      0x00000948   Lc    1  Sect  De 
    238  i.am_hal_itm_enable        0x00000964   Lc    1  Sect  De 
    239  i.am_hal_itm_print         0x000009bc   Lc    1  Sect  De 
    240  .data                      0x10000034   Lc    2  Sect  De   0x8
    241  ../am_hal_uart.c           0x00000000   Lc  Abs  File  De 
    242  i.am_hal_uart_char_receive_buffered
                                    0x00000aa8   Lc    1  Sect  De 
    243  i.am_hal_uart_char_transmit_buffered
                                    0x00000b04   Lc    1  Sect  De 
    244  i.am_hal_uart_clock_enable 0x00000b4c   Lc    1  Sect  De 
    245  i.am_hal_uart_config       0x00000b70   Lc    1  Sect  De 
    246  i.am_hal_uart_disable      0x00000bc4   Lc    1  Sect  De 
    247  i.am_hal_uart_enable       0x00000bd8   Lc    1  Sect  De 
    248  i.am_hal_uart_fifo_config  0x00000bec   Lc    1  Sect  De 
    249  i.am_hal_uart_init_buffered
                                    0x00000c00   Lc    1  Sect  De 
    250  i.am_hal_uart_int_clear    0x00000c48   Lc    1  Sect  De 
    251  i.am_hal_uart_int_enable   0x00000c54   Lc    1  Sect  De 
    252  i.am_hal_uart_int_status_get
                                    0x00000c64   Lc    1  Sect  De 
    253  i.am_hal_uart_service_buffered
                                    0x00000c74   Lc    1  Sect  De 
    254  .bss                       0x10000cdc   Lc    3  Sect  De   0x28
    255  ../am_bsp.c                0x00000000   Lc  Abs  File  De 
    256  i.am_bsp_debug_printf_enable
                                    0x00000200   Lc    1  Sect  De 
    257  i.am_bsp_low_power_init    0x0000023c   Lc    1  Sect  De 
    258  ../am_hal_debug.c          0x00000000   Lc  Abs  File  De 
    259  i.am_hal_debug_error       0x00000364   Lc    1  Sect  De 
    260  ../am_hal_i2c_bit_bang.c   0x00000000   Lc  Abs  File  De 
    261  ../am_hal_mcuctrl.c        0x00000000   Lc  Abs  File  De 
    262  i.am_hal_mcuctrl_bandgap_disable
                                    0x00000a18   Lc    1  Sect  De 
    263  i.am_hal_mcuctrl_bucks_enable
                                    0x00000a28   Lc    1  Sect  De 
    264  ../am_hal_rtc.c            0x00000000   Lc  Abs  File  De 
    265  i.am_hal_rtc_osc_disable   0x00000a50   Lc    1  Sect  De 
    266  i.am_hal_rtc_osc_select    0x00000a5e   Lc    1  Sect  De 
    267  ../am_hal_tpiu.c           0x00000000   Lc  Abs  File  De 
    268  i.am_hal_tpiu_enable       0x00000a74   Lc    1  Sect  De 
    269  ../am_hal_vcomp.c          0x00000000   Lc  Abs  File  De 
    270  i.am_hal_vcomp_disable     0x00000d20   Lc    1  Sect  De 
    271  dc.s                       0x00000000   Lc  Abs  File  De 
    272  ../clib/heapaux.c          0x00000000   Lc  Abs  File  De 
    273  .text                      0x0000018c   Lc    1  Sect  De 
    274  ../clib/angel/startup.s    0x00000000   Lc  Abs  File  De 
    275  !!!main                    0x00000098   Lc    1  Sect  De   0x8
    276  ../fplib/d2f.s             0x00000000   Lc  Abs  File  De 
    277  x$fpl$d2f                  0x00001f4c   Lc    1  Sect  De   0x62
    278  $v0                        0x00001f4c   Lc    1   --   De 
    279  ../clib/angel/kernel.s     0x00000000   Lc  Abs  File  De 
    280  .ARM.Collect$$rtentry$$00000000
                                    0x00000118   Lc    1  Sect  De 
    281  ../fplib/dnaninf.s         0x00000000   Lc  Abs  File  De 
    282  x$fpl$dnaninf              0x00001fae   Lc    1  Sect  De   0x9c
    283  $v0                        0x00001fae   Lc    1   --   De 
    284  ../fplib/fretinf.s         0x00000000   Lc  Abs  File  De 
    285  x$fpl$fretinf              0x00002054   Lc    1  Sect  De   0xa
    286  $v0                        0x00002054   Lc    1   --   De 
    287  ../fplib/usenofp.s         0x00000000   Lc  Abs  File  De 
    288  x$fpl$usenofp              0x0000205e   Lc    1  Sect  De 
    289  ../clib/angel/kernel.s     0x00000000   Lc  Abs  File  De 
    290  .ARM.Collect$$rtentry$$00000002
                                    0x00000118   Lc    1  Sect  De 
    291  .ARM.Collect$$rtentry$$00000009
                                    0x0000011e   Lc    1  Sect  De 
    292  .ARM.Collect$$rtentry$$0000000A
                                    0x0000011e   Lc    1  Sect  De   0x4
    293  .ARM.Collect$$rtentry$$0000000C
                                    0x00000122   Lc    1  Sect  De 
    294  .ARM.Collect$$rtentry$$0000000D
                                    0x00000122   Lc    1  Sect  De   0x8
    295  ../clib/angel/kernel.s     0x00000000   Lc  Abs  File  De 
    296  .ARM.Collect$$rtentry$$00000004
                                    0x00000118   Lc    1  Sect  De   0x6
    297  ../clib/angel/sys.s        0x00000000   Lc  Abs  File  De 
    298  .text                      0x00000192   Lc    1  Sect  De   0x4a
    299  ../clib/stdlib.c           0x00000000   Lc  Abs  File  De 
    300  .text                      0x000001dc   Lc    1  Sect  De 
    301  ../clib/angel/boardlib.s   0x00000000   Lc  Abs  File  De 
    302  ../clib/angel/boardlib.s   0x00000000   Lc  Abs  File  De 
    303  ../clib/angel/boardlib.s   0x00000000   Lc  Abs  File  De 
    304  ../clib/libinit.s          0x00000000   Lc  Abs  File  De 
    305  .ARM.Collect$$libinit$$00000000
                                    0x0000010c   Lc    1  Sect  De   0x2
    306  ../clib/angel/sys.s        0x00000000   Lc  Abs  File  De 
    307  .text                      0x000001e8   Lc    1  Sect  De   0x8
    308  .bss                       0x10000d04   Lc    3  Sect  De   0x60
    309  ../clib/angel/kernel.s     0x00000000   Lc  Abs  File  De 
    310  .ARM.Collect$$rtexit$$00000000
                                    0x0000012a   Lc    1  Sect  De   0x2
    311  ../clib/libinit.s          0x00000000   Lc  Abs  File  De 
    312  .ARM.Collect$$libinit$$00000001
                                    0x0000010e   Lc    1  Sect  De   0x4
    313  .ARM.Collect$$libinit$$00000004
                                    0x00000112   Lc    1  Sect  De 
    314  .ARM.Collect$$libinit$$0000000A
                                    0x00000112   Lc    1  Sect  De 
    315  .ARM.Collect$$libinit$$0000000C
                                    0x00000112   Lc    1  Sect  De 
    316  .ARM.Collect$$libinit$$0000000E
                                    0x00000112   Lc    1  Sect  De 
    317  .ARM.Collect$$libinit$$00000011
                                    0x00000112   Lc    1  Sect  De 
    318  .ARM.Collect$$libinit$$00000013
                                    0x00000112   Lc    1  Sect  De 
    319  .ARM.Collect$$libinit$$00000015
                                    0x00000112   Lc    1  Sect  De 
    320  .ARM.Collect$$libinit$$00000017
                                    0x00000112   Lc    1  Sect  De 
    321  .ARM.Collect$$libinit$$00000019
                                    0x00000112   Lc    1  Sect  De 
    322  .ARM.Collect$$libinit$$0000001B
                                    0x00000112   Lc    1  Sect  De 
    323  .ARM.Collect$$libinit$$0000001D
                                    0x00000112   Lc    1  Sect  De 
    324  .ARM.Collect$$libinit$$0000001F
                                    0x00000112   Lc    1  Sect  De 
    325  .ARM.Collect$$libinit$$00000021
                                    0x00000112   Lc    1  Sect  De 
    326  .ARM.Collect$$libinit$$00000023
                                    0x00000112   Lc    1  Sect  De 
    327  .ARM.Collect$$libinit$$00000025
                                    0x00000112   Lc    1  Sect  De 
    328  .ARM.Collect$$libinit$$0000002C
                                    0x00000112   Lc    1  Sect  De 
    329  .ARM.Collect$$libinit$$0000002E
                                    0x00000112   Lc    1  Sect  De 
    330  .ARM.Collect$$libinit$$00000030
                                    0x00000112   Lc    1  Sect  De 
    331  .ARM.Collect$$libinit$$00000032
                                    0x00000112   Lc    1  Sect  De 
    332  .ARM.Collect$$libinit$$00000033
                                    0x00000112   Lc    1  Sect  De   0x2
    333  ../clib/angel/kernel.s     0x00000000   Lc  Abs  File  De 
    334  .ARM.Collect$$rtexit$$00000002
                                    0x0000012c   Lc    1  Sect  De 
    335  .ARM.Collect$$rtexit$$00000003
                                    0x0000012c   Lc    1  Sect  De   0x4
    336  .ARM.Collect$$rtexit$$00000004
                                    0x00000130   Lc    1  Sect  De   0x6
    337  ../clib/armsys.c           0x00000000   Lc  Abs  File  De 
    338  ../clib/armsys.c           0x00000000   Lc  Abs  File  De 
    339  ../fplib/fpinit.s          0x00000000   Lc  Abs  File  De 
    340  x$fpl$fpinit               0x0000204a   Lc    1  Sect  De   0xa
    341  $v0                        0x0000204a   Lc    1   --   De 
    342  ../clib/angel/sysapp.c     0x00000000   Lc  Abs  File  De 
    343  .text                      0x000001f0   Lc    1  Sect  De 
    344  ../clib/angel/boardlib.s   0x00000000   Lc  Abs  File  De 
    345  ../clib/armsys.c           0x00000000   Lc  Abs  File  De 
    346  ../clib/armsys.c           0x00000000   Lc  Abs  File  De 
    347  ../clib/libinit.s          0x00000000   Lc  Abs  File  De 
    348  .ARM.Collect$$libshutdown$$00000000
                                    0x00000114   Lc    1  Sect  De   0x2
    349  ../clib/angel/sysapp.c     0x00000000   Lc  Abs  File  De 
    350  ../clib/angel/sys.s        0x00000000   Lc  Abs  File  De 
    351  .text                      0x000001fc   Lc    1  Sect  De   0x2
    352  ../clib/angel/sys.s        0x00000000   Lc  Abs  File  De 
    353  .text                      0x000001fe   Lc    1  Sect  De 
    354  ../clib/heapalloc.c        0x00000000   Lc  Abs  File  De 
    355  ../clib/signal.c           0x00000000   Lc  Abs  File  De 
    356  ../clib/signal.c           0x00000000   Lc  Abs  File  De 
    357  ../clib/libinit.s          0x00000000   Lc  Abs  File  De 
    358  .ARM.Collect$$libshutdown$$00000003
                                    0x00000116   Lc    1  Sect  De 
    359  .ARM.Collect$$libshutdown$$00000006
                                    0x00000116   Lc    1  Sect  De 
    360  .ARM.Collect$$libshutdown$$00000009
                                    0x00000116   Lc    1  Sect  De 
    361  .ARM.Collect$$libshutdown$$0000000B
                                    0x00000116   Lc    1  Sect  De 
    362  .ARM.Collect$$libshutdown$$0000000E
                                    0x00000116   Lc    1  Sect  De 
    363  .ARM.Collect$$libshutdown$$0000000F
                                    0x00000116   Lc    1  Sect  De   0x2
    364  ../clib/angel/rt.s         0x00000000   Lc  Abs  File  De 
    365  ../clib/signal.c           0x00000000   Lc  Abs  File  De 
    366  ../clib/signal.c           0x00000000   Lc  Abs  File  De 
    367  ../clib/signal.c           0x00000000   Lc  Abs  File  De 
    368  ../clib/signal.c           0x00000000   Lc  Abs  File  De 
    369  ../clib/angel/sysapp.c     0x00000000   Lc  Abs  File  De 
    370  ../clib/signal.s           0x00000000   Lc  Abs  File  De 
    371  ../clib/signal.c           0x00000000   Lc  Abs  File  De 
    372  ../clib/signal.c           0x00000000   Lc  Abs  File  De 
    373  ../clib/signal.c           0x00000000   Lc  Abs  File  De 
    374  ../clib/signal.c           0x00000000   Lc  Abs  File  De 
    375  ../clib/signal.c           0x00000000   Lc  Abs  File  De 
    376  ../clib/signal.c           0x00000000   Lc  Abs  File  De 
    377  ../clib/signal.c           0x00000000   Lc  Abs  File  De 
    378  ../clib/signal.c           0x00000000   Lc  Abs  File  De 
    379  ../clib/angel/scatter.s    0x00000000   Lc  Abs  File  De 
    380  !!!scatter                 0x000000a0   Lc    1  Sect  De   0x34
    381  ../clib/angel/handlers.s   0x00000000   Lc  Abs  File  De 
    382  !!handler_copy             0x000000d4   Lc    1  Sect  De   0x1a
    383  ../clib/angel/handlers.s   0x00000000   Lc  Abs  File  De 
    384  !!handler_zi               0x000000f0   Lc    1  Sect  De   0x1c
    385  BuildAttributes$$THM_ISAv4$E$P$D$K$B$S$7EM$VFPi3$EXTD16$VFPS$VFMA$PE$A:L22UL41UL21$X:L11$S22US41US21$IEEE1$IW$USESV6$~STKCKD$USESV7$~SHL$OTIME$ROPI$EBA8$UX$STANDARDLIB$REQ8$PRES8$EABIv2
                                    0x00000000   Gb  Abs   --   Hi 
    386  __ARM_use_no_argv          0x00000000   Gb  Abs   --   Hi 
    387  __Vectors                  0x00000000   Gb    1  Data  Hi 
    388  Reset_Handler              0x00000071   Wk    1  Code  Hi   0x14
    389  am_nmi_isr                 0x00000085   Wk    1  Code  Hi   0x2
    390  am_memmanage_isr           0x00000089   Wk    1  Code  Hi   0x2
    391  am_mpufault_isr            0x0000008b   Wk    1  Code  Hi   0x2
    392  am_busfault_isr            0x0000008d   Wk    1  Code  Hi   0x2
    393  am_usagefault_isr          0x0000008f   Wk    1  Code  Hi   0x2
    394  am_adc_isr                 0x00000091   Wk    1  Code  Hi 
    395  am_brownout_isr            0x00000091   Wk    1  Code  Hi 
    396  am_clkgen_isr              0x00000091   Wk    1  Code  Hi 
    397  am_ctimer_isr              0x00000091   Wk    1  Code  Hi 
    398  am_debugmon_isr            0x00000091   Wk    1  Code  Hi 
    399  am_iomaster1_isr           0x00000091   Wk    1  Code  Hi 
    400  am_ioslave_acc_isr         0x00000091   Wk    1  Code  Hi 
    401  am_ioslave_ios_isr         0x00000091   Wk    1  Code  Hi 
    402  am_pendsv_isr              0x00000091   Wk    1  Code  Hi 
    403  am_svcall_isr              0x00000091   Wk    1  Code  Hi 
    404  am_systick_isr             0x00000091   Wk    1  Code  Hi 
    405  am_vcomp_isr               0x00000091   Wk    1  Code  Hi 
    406  am_watchdog_isr            0x00000091   Wk    1  Code  Hi 
    407  __main                     0x00000099   Gb    1  Code  Hi   0x8
    408  __scatterload              0x000000a1   Gb    1  Code  Hi 
    409  __scatterload_rt2          0x000000a1   Gb    1  Code  Hi   0x2c
    410  __scatterload_rt2_thumb_only
                                    0x000000a1   Gb    1  Code  Hi 
    411  __scatterload_null         0x000000af   Gb    1  Code  Hi 
    412  __scatterload_copy         0x000000d5   Gb    1  Code  Hi   0x1a
    413  __scatterload_zeroinit     0x000000f1   Gb    1  Code  Hi   0x1c
    414  __rt_lib_init              0x0000010d   Gb    1  Code  De 
    415  __rt_lib_init_fp_1         0x0000010f   Gb    1  Code  Hi 
    416  __rt_lib_init_alloca_1     0x00000113   Gb    1  Code  Hi 
    417  __rt_lib_init_argv_1       0x00000113   Gb    1  Code  Hi 
    418  __rt_lib_init_atexit_1     0x00000113   Gb    1  Code  Hi 
    419  __rt_lib_init_clock_1      0x00000113   Gb    1  Code  Hi 
    420  __rt_lib_init_cpp_1        0x00000113   Gb    1  Code  Hi 
    421  __rt_lib_init_exceptions_1 0x00000113   Gb    1  Code  Hi 
    422  __rt_lib_init_fp_trap_1    0x00000113   Gb    1  Code  Hi 
    423  __rt_lib_init_getenv_1     0x00000113   Gb    1  Code  Hi 
    424  __rt_lib_init_heap_1       0x00000113   Gb    1  Code  Hi 
    425  __rt_lib_init_lc_collate_1 0x00000113   Gb    1  Code  Hi 
    426  __rt_lib_init_lc_ctype_1   0x00000113   Gb    1  Code  Hi 
    427  __rt_lib_init_lc_monetary_1
                                    0x00000113   Gb    1  Code  Hi 
    428  __rt_lib_init_lc_numeric_1 0x00000113   Gb    1  Code  Hi 
    429  __rt_lib_init_lc_time_1    0x00000113   Gb    1  Code  Hi 
    430  __rt_lib_init_preinit_1    0x00000113   Gb    1  Code  Hi 
    431  __rt_lib_init_rand_1       0x00000113   Gb    1  Code  Hi 
    432  __rt_lib_init_return       0x00000113   Gb    1  Code  Hi 
    433  __rt_lib_init_signal_1     0x00000113   Gb    1  Code  Hi 
    434  __rt_lib_init_stdio_1      0x00000113   Gb    1  Code  Hi 
    435  __rt_lib_init_user_alloc_1 0x00000113   Gb    1  Code  Hi 
    436  __rt_lib_shutdown          0x00000115   Gb    1  Code  De 
    437  __rt_lib_shutdown_fp_trap_1
                                    0x00000117   Gb    1  Code  Hi 
    438  __rt_lib_shutdown_heap_1   0x00000117   Gb    1  Code  Hi 
    439  __rt_lib_shutdown_return   0x00000117   Gb    1  Code  Hi 
    440  __rt_lib_shutdown_signal_1 0x00000117   Gb    1  Code  Hi 
    441  __rt_lib_shutdown_stdio_1  0x00000117   Gb    1  Code  Hi 
    442  __rt_lib_shutdown_user_alloc_1
                                    0x00000117   Gb    1  Code  Hi 
    443  __rt_entry                 0x00000119   Gb    1  Code  Hi 
    444  __rt_entry_presh_1         0x00000119   Gb    1  Code  Hi 
    445  __rt_entry_sh              0x00000119   Gb    1  Code  Hi 
    446  __rt_entry_li              0x0000011f   Gb    1  Code  Hi 
    447  __rt_entry_postsh_1        0x0000011f   Gb    1  Code  Hi 
    448  __rt_entry_main            0x00000123   Gb    1  Code  Hi 
    449  __rt_entry_postli_1        0x00000123   Gb    1  Code  Hi 
    450  __rt_exit                  0x0000012b   Gb    1  Code  De 
    451  __rt_exit_ls               0x0000012d   Gb    1  Code  Hi 
    452  __rt_exit_prels_1          0x0000012d   Gb    1  Code  Hi 
    453  __rt_exit_exit             0x00000131   Gb    1  Code  Hi 
    454  am_util_delay_cycles       0x00000139   Gb    1  Code  Hi   0x6
    455  am_fault_isr               0x00000141   Gb    1  Code  Hi   0xc
    456  getStackedReg              0x0000014d   Gb    1  Code  Hi   0x8
    457  am_hal_interrupt_master_enable
                                    0x00000155   Gb    1  Code  Hi   0x8
    458  am_hal_interrupt_master_disable
                                    0x0000015d   Gb    1  Code  Hi   0x8
    459  am_hal_interrupt_master_set
                                    0x00000165   Gb    1  Code  Hi   0x6
    460  __asm___12_am_hal_itm_c_0782d9ac__am_itm_delay_cycles
                                    0x0000016d   Gb    1  Code  Hi   0x6
    461  __user_initial_stackheap   0x00000175   Gb    1  Code  Hi   0xa
    462  __use_two_region_memory    0x0000018d   Gb    1  Code  Hi   0x2
    463  __rt_heap_escrow$2region   0x0000018f   Gb    1  Code  De   0x2
    464  __rt_heap_expand$2region   0x00000191   Gb    1  Code  De   0x2
    465  __user_setup_stackheap     0x00000193   Gb    1  Code  De   0x4a
    466  exit                       0x000001dd   Gb    1  Code  De   0xc
    467  __user_libspace            0x000001e9   Wk    1  Code  De   0x8
    468  __user_perproc_libspace    0x000001e9   Wk    1  Code  De 
    469  __user_perthread_libspace  0x000001e9   Wk    1  Code  De 
    470  _sys_exit                  0x000001f1   Gb    1  Code  De   0x8
    471  __I$use$semihosting        0x000001fd   Gb    1  Code  Hi 
    472  __use_no_semihosting_swi   0x000001fd   Gb    1  Code  Hi   0x2
    473  __semihosting_library_function
                                    0x000001ff   Gb    1  Code  Hi 
    474  am_bsp_debug_printf_enable 0x00000201   Gb    1  Code  Hi   0x32
    475  am_bsp_low_power_init      0x0000023d   Gb    1  Code  Hi   0x28
    476  am_gpio_isr                0x00000265   Gb    1  Code  Hi   0x74
    477  am_hal_clkgen_osc_stop     0x000002e9   Gb    1  Code  Hi   0xc
    478  am_hal_clkgen_sysclk_get   0x000002f5   Gb    1  Code  Hi   0x40
    479  am_hal_clkgen_sysclk_select
                                    0x00000355   Gb    1  Code  Hi   0x10
    480  am_hal_debug_error         0x00000365   Wk    1  Code  Hi   0x2
    481  am_hal_gpio_int_clear      0x00000369   Gb    1  Code  Hi   0xc
    482  am_hal_gpio_int_enable     0x00000379   Gb    1  Code  Hi   0x18
    483  am_hal_gpio_int_status_get 0x00000395   Gb    1  Code  Hi   0x34
    484  am_hal_interrupt_enable    0x000003cd   Gb    1  Code  Hi   0x46
    485  am_hal_iom_config          0x00000419   Gb    1  Code  Hi   0x52
    486  am_hal_iom_enable          0x00000471   Gb    1  Code  Hi   0x68
    487  am_hal_iom_fifo_read       0x000004e1   Gb    1  Code  Hi   0x88
    488  am_hal_iom_fifo_write      0x000005b1   Gb    1  Code  Hi   0x8c
    489  am_hal_iom_int_clear       0x00000681   Gb    1  Code  Hi   0x10
    490  am_hal_iom_int_service     0x00000691   Gb    1  Code  Hi   0xca
    491  am_hal_iom_int_status_get  0x00000761   Gb    1  Code  Hi   0x20
    492  am_hal_iom_spi_read        0x00000781   Gb    1  Code  Hi   0xb4
    493  am_hal_iom_spi_write       0x00000861   Gb    1  Code  Hi   0xbc
    494  am_hal_itm_delay_us        0x00000949   Gb    1  Code  Hi   0x18
    495  am_hal_itm_enable          0x00000965   Gb    1  Code  Hi   0x38
    496  am_hal_itm_print           0x000009bd   Gb    1  Code  Hi   0x56
    497  am_hal_mcuctrl_bandgap_disable
                                    0x00000a19   Gb    1  Code  Hi   0xc
    498  am_hal_mcuctrl_bucks_enable
                                    0x00000a29   Gb    1  Code  Hi   0x24
    499  am_hal_rtc_osc_disable     0x00000a51   Gb    1  Code  Hi   0xe
    500  am_hal_rtc_osc_select      0x00000a5f   Gb    1  Code  Hi   0x16
    501  am_hal_tpiu_enable         0x00000a75   Gb    1  Code  Hi   0x28
    502  am_hal_uart_char_receive_buffered
                                    0x00000aa9   Gb    1  Code  Hi   0x56
    503  am_hal_uart_char_transmit_buffered
                                    0x00000b05   Gb    1  Code  Hi   0x3e
    504  am_hal_uart_clock_enable   0x00000b4d   Gb    1  Code  Hi   0x20
    505  am_hal_uart_config         0x00000b71   Gb    1  Code  Hi   0x4e
    506  am_hal_uart_disable        0x00000bc5   Gb    1  Code  Hi   0x10
    507  am_hal_uart_enable         0x00000bd9   Gb    1  Code  Hi   0xe
    508  am_hal_uart_fifo_config    0x00000bed   Gb    1  Code  Hi   0xe
    509  am_hal_uart_init_buffered  0x00000c01   Gb    1  Code  Hi   0x40
    510  am_hal_uart_int_clear      0x00000c49   Gb    1  Code  Hi   0x6
    511  am_hal_uart_int_enable     0x00000c55   Gb    1  Code  Hi   0xa
    512  am_hal_uart_int_status_get 0x00000c65   Gb    1  Code  Hi   0xc
    513  am_hal_uart_service_buffered
                                    0x00000c75   Gb    1  Code  Hi   0x9e
    514  am_hal_vcomp_disable       0x00000d21   Gb    1  Code  Hi   0x8
    515  am_iomaster0_isr           0x00000d2d   Gb    1  Code  Hi   0x1e
    516  am_uart_isr                0x00000d4b   Gb    1  Code  Hi   0x18
    517  am_util_delay_ms           0x00000d63   Gb    1  Code  Hi   0x1c
    518  am_util_delay_us           0x00000d81   Gb    1  Code  Hi   0x1a
    519  am_util_faultisr_collect_data
                                    0x00000da1   Gb    1  Code  Hi   0xa4
    520  am_util_stdio_printf       0x00000e49   Gb    1  Code  Hi   0x28
    521  am_util_stdio_printf_init  0x00000e79   Gb    1  Code  Hi   0x6
    522  am_util_stdio_terminal_clear
                                    0x00000e85   Gb    1  Code  Hi   0x10
    523  am_util_stdio_vsprintf     0x00000ebd   Gb    1  Code  Hi   0x330
    524  am_util_stxetx_init        0x000011fd   Gb    1  Code  Hi   0xc
    525  am_util_stxetx_rx          0x0000120d   Gb    1  Code  Hi   0x84
    526  am_util_stxetx_rx_wait4start
                                    0x000012b1   Gb    1  Code  Hi   0x4a
    527  am_util_stxetx_tx          0x0000130d   Gb    1  Code  Hi   0x68
    528  configure_pins             0x00001375   Gb    1  Code  Hi   0x116
    529  configure_uart             0x00001491   Gb    1  Code  Hi   0x1c
    530  configure_uart_pins        0x000014b1   Gb    1  Code  Hi   0x94
    531  main                       0x000017c5   Gb    1  Code  Hi   0x13a
    532  packet_hex_dump            0x000019f9   Gb    1  Code  Hi   0x54
    533  target_reset               0x00001b69   Gb    1  Code  Hi   0x8c
    534  uart2spi_fsm               0x00001bf9   Gb    1  Code  Hi   0xa2
    535  uart_enable                0x00001d81   Gb    1  Code  Hi   0xc2
    536  __aeabi_d2f                0x00001f4d   Gb    1  Code  Hi 
    537  _d2f                       0x00001f4d   Gb    1  Code  De   0x62
    538  __fpl_dnaninf              0x00001faf   Gb    1  Code  De   0x9c
    539  _fp_init                   0x0000204b   Gb    1  Code  De   0xa
    540  __fplib_config_fpu_vfp     0x00002053   Gb    1  Code  De 
    541  __fplib_config_pureend_doubles
                                    0x00002053   Gb    1  Code  De 
    542  __fpl_fretinf              0x00002055   Gb    1  Code  De   0xa
    543  __I$use$fp                 0x0000205e   Gb    1   --   De 
    544  g_sIOMConfig               0x00002060   Gb    1  Data  Hi   0xc
    545  Region$$Table$$Base        0x000020b0   Gb    1   --   Hi 
    546  Region$$Table$$Limit       0x000020d0   Gb    1   --   Hi 
    547  g_bGPIORising              0x10000000   Gb    2  Data  Hi   0x1
    548  g_bGPIOFalling             0x10000001   Gb    2  Data  Hi   0x1
    549  g_bGPIODirection           0x10000002   Gb    2  Data  Hi   0x1
    550  g_bUARTIdle                0x10000003   Gb    2  Data  Hi   0x1
    551  g_sUartConfig              0x10000004   Gb    2  Data  Hi   0x14
    552  g_pfnCharPrint             0x10000018   Gb    2  Data  Hi   0x4
    553  g_am_util_stxetx           0x10000020   Gb    2  Data  Hi   0x8
    554  g_ui32HALflags             0x10000028   Gb    2  Data  Hi   0x4
    555  g_ui32Mod0Interface        0x1000002c   Gb    2  Data  Hi   0x4
    556  g_ui32Mod1Interface        0x10000030   Gb    2  Data  Hi   0x4
    557  g_am_hal_itm_print_registers
                                    0x10000034   Gb    2  Data  Hi   0x4
    558  g_pui32StimReg             0x10000038   Gb    2  Data  Hi   0x4
    559  g_pui8TxArray              0x1000003c   Gb    3  Data  Hi   0x400
    560  g_pui8RxArray              0x1000043c   Gb    3  Data  Hi   0x400
    561  g_ui8RcvBuffer             0x1000083c   Gb    3  Data  Hi   0x200
    562  g_psIOMBuffers             0x10000cbc   Gb    3  Data  Hi   0x20
    563  g_sTxBuffer                0x10000cdc   Gb    3  Data  Hi   0x14
    564  g_sRxBuffer                0x10000cf0   Gb    3  Data  Hi   0x14
    565  __libspace_start           0x10000d04   Gb    3  Data  De   0x60
    566  __temporary_stack_top$libspace
                                    0x10000d64   Gb    3  Data  De 


** Section #12 '.strtab' (SHT_STRTAB)
    Size   : 8120 bytes

            #  Offset String
        ====================================

            1      1: $d
            2      4: $t
            3      7: $d.realdata
            4     19: ../src/uart2spi.c
            5     37: i.am_gpio_isr
            6     51: i.am_iomaster0_isr
            7     70: i.am_uart_isr
            8     84: i.configure_pins
            9    101: i.configure_uart
           10    118: i.configure_uart_pins
           11    140: i.main
           12    147: i.packet_hex_dump
           13    165: i.target_reset
           14    180: i.uart_enable
           15    194: .bss
           16    199: .constdata
           17    210: .data
           18    216: ../src/uart2spi_fsm.c
           19    238: i.host_emulation_reset
           20    261: host_emulation_reset
           21    282: i.spi_read
           22    293: spi_read
           23    302: i.spi_write
           24    314: spi_write
           25    324: i.uart2spi_fsm
           26    339: ui32WorkingBuffer
           27    357: ui32RxBuffer
           28    370: .conststring
           29    383: ..\..\..\..\..\utils\am_util_delay.c
           30    420: .emb_text
           31    430: $v0
           32    434: ../../../../../utils/am_util_delay.c
           33    471: i.am_util_delay_ms
           34    490: i.am_util_delay_us
           35    509: ..\..\..\..\..\utils\am_util_faultisr.c
           36    549: ../../../../../utils/am_util_faultisr.c
           37    589: i.am_util_faultisr_collect_data
           38    621: ../../../../../utils/am_util_stdio.c
           39    658: i.am_util_stdio_printf
           40    681: i.am_util_stdio_printf_init
           41    709: i.am_util_stdio_terminal_clear
           42    740: i.am_util_stdio_vsprintf
           43    765: i.decstr_to_u
           44    779: decstr_to_u
           45    791: i.divu64_10
           46    803: divu64_10
           47    813: i.ftoa
           48    820: ftoa
           49    825: i.ndigits_in_hex
           50    842: ndigits_in_hex
           51    857: i.ndigits_in_i64
           52    874: ndigits_in_i64
           53    889: i.ndigits_in_u64
           54    906: ndigits_in_u64
           55    921: i.uint64_to_hexstr
           56    940: uint64_to_hexstr
           57    957: i.uint64_to_str
           58    973: uint64_to_str
           59    987: g_prfbuf
           60    996: g_bTxtXlate
           61   1008: ../../../../../utils/am_util_stxetx.c
           62   1046: i.am_util_stxetx_init
           63   1068: i.am_util_stxetx_rx
           64   1088: i.am_util_stxetx_rx_wait4start
           65   1119: i.am_util_stxetx_tx
           66   1139: ../keil/startup_keil.s
           67   1162: STACK
           68   1168: StackMem
           69   1177: HEAP
           70   1182: HeapMem
           71   1190: RESET
           72   1196: .text
           73   1202: ../am_hal_global.c
           74   1221: ../am_hal_clkgen.c
           75   1240: i.am_hal_clkgen_osc_stop
           76   1265: i.am_hal_clkgen_sysclk_get
           77   1292: i.am_hal_clkgen_sysclk_select
           78   1322: ../am_hal_gpio.c
           79   1339: i.am_hal_gpio_int_clear
           80   1363: i.am_hal_gpio_int_enable
           81   1388: i.am_hal_gpio_int_status_get
           82   1417: ..\am_hal_interrupt.c
           83   1439: ../am_hal_interrupt.c
           84   1461: i.am_hal_interrupt_enable
           85   1487: ../am_hal_iom.c
           86   1503: i.am_hal_iom_config
           87   1523: i.am_hal_iom_enable
           88   1543: i.am_hal_iom_fifo_read
           89   1566: i.am_hal_iom_fifo_write
           90   1590: i.am_hal_iom_int_clear
           91   1613: i.am_hal_iom_int_service
           92   1638: i.am_hal_iom_int_status_get
           93   1666: i.am_hal_iom_spi_read
           94   1688: i.am_hal_iom_spi_write
           95   1711: ..\am_hal_itm.c
           96   1727: ../am_hal_itm.c
           97   1743: i.am_hal_itm_delay_us
           98   1765: i.am_hal_itm_enable
           99   1785: i.am_hal_itm_print
          100   1804: ../am_hal_uart.c
          101   1821: i.am_hal_uart_char_receive_buffered
          102   1857: i.am_hal_uart_char_transmit_buffered
          103   1894: i.am_hal_uart_clock_enable
          104   1921: i.am_hal_uart_config
          105   1942: i.am_hal_uart_disable
          106   1964: i.am_hal_uart_enable
          107   1985: i.am_hal_uart_fifo_config
          108   2011: i.am_hal_uart_init_buffered
          109   2039: i.am_hal_uart_int_clear
          110   2063: i.am_hal_uart_int_enable
          111   2088: i.am_hal_uart_int_status_get
          112   2117: i.am_hal_uart_service_buffered
          113   2148: ../am_bsp.c
          114   2160: i.am_bsp_debug_printf_enable
          115   2189: i.am_bsp_low_power_init
          116   2213: ../am_hal_debug.c
          117   2231: i.am_hal_debug_error
          118   2252: ../am_hal_i2c_bit_bang.c
          119   2277: ../am_hal_mcuctrl.c
          120   2297: i.am_hal_mcuctrl_bandgap_disable
          121   2330: i.am_hal_mcuctrl_bucks_enable
          122   2360: ../am_hal_rtc.c
          123   2376: i.am_hal_rtc_osc_disable
          124   2401: i.am_hal_rtc_osc_select
          125   2425: ../am_hal_tpiu.c
          126   2442: i.am_hal_tpiu_enable
          127   2463: ../am_hal_vcomp.c
          128   2481: i.am_hal_vcomp_disable
          129   2504: dc.s
          130   2509: ../clib/heapaux.c
          131   2527: ../clib/angel/startup.s
          132   2551: !!!main
          133   2559: ../fplib/d2f.s
          134   2574: x$fpl$d2f
          135   2584: ../clib/angel/kernel.s
          136   2607: .ARM.Collect$$rtentry$$00000000
          137   2639: ../fplib/dnaninf.s
          138   2658: x$fpl$dnaninf
          139   2672: ../fplib/fretinf.s
          140   2691: x$fpl$fretinf
          141   2705: ../fplib/usenofp.s
          142   2724: x$fpl$usenofp
          143   2738: .ARM.Collect$$rtentry$$00000002
          144   2770: .ARM.Collect$$rtentry$$00000009
          145   2802: .ARM.Collect$$rtentry$$0000000A
          146   2834: .ARM.Collect$$rtentry$$0000000C
          147   2866: .ARM.Collect$$rtentry$$0000000D
          148   2898: .ARM.Collect$$rtentry$$00000004
          149   2930: ../clib/angel/sys.s
          150   2950: ../clib/stdlib.c
          151   2967: ../clib/angel/boardlib.s
          152   2992: ../clib/libinit.s
          153   3010: .ARM.Collect$$libinit$$00000000
          154   3042: .ARM.Collect$$rtexit$$00000000
          155   3073: .ARM.Collect$$libinit$$00000001
          156   3105: .ARM.Collect$$libinit$$00000004
          157   3137: .ARM.Collect$$libinit$$0000000A
          158   3169: .ARM.Collect$$libinit$$0000000C
          159   3201: .ARM.Collect$$libinit$$0000000E
          160   3233: .ARM.Collect$$libinit$$00000011
          161   3265: .ARM.Collect$$libinit$$00000013
          162   3297: .ARM.Collect$$libinit$$00000015
          163   3329: .ARM.Collect$$libinit$$00000017
          164   3361: .ARM.Collect$$libinit$$00000019
          165   3393: .ARM.Collect$$libinit$$0000001B
          166   3425: .ARM.Collect$$libinit$$0000001D
          167   3457: .ARM.Collect$$libinit$$0000001F
          168   3489: .ARM.Collect$$libinit$$00000021
          169   3521: .ARM.Collect$$libinit$$00000023
          170   3553: .ARM.Collect$$libinit$$00000025
          171   3585: .ARM.Collect$$libinit$$0000002C
          172   3617: .ARM.Collect$$libinit$$0000002E
          173   3649: .ARM.Collect$$libinit$$00000030
          174   3681: .ARM.Collect$$libinit$$00000032
          175   3713: .ARM.Collect$$libinit$$00000033
          176   3745: .ARM.Collect$$rtexit$$00000002
          177   3776: .ARM.Collect$$rtexit$$00000003
          178   3807: .ARM.Collect$$rtexit$$00000004
          179   3838: ../clib/armsys.c
          180   3855: ../fplib/fpinit.s
          181   3873: x$fpl$fpinit
          182   3886: ../clib/angel/sysapp.c
          183   3909: .ARM.Collect$$libshutdown$$00000000
          184   3945: ../clib/heapalloc.c
          185   3965: ../clib/signal.c
          186   3982: .ARM.Collect$$libshutdown$$00000003
          187   4018: .ARM.Collect$$libshutdown$$00000006
          188   4054: .ARM.Collect$$libshutdown$$00000009
          189   4090: .ARM.Collect$$libshutdown$$0000000B
          190   4126: .ARM.Collect$$libshutdown$$0000000E
          191   4162: .ARM.Collect$$libshutdown$$0000000F
          192   4198: ../clib/angel/rt.s
          193   4217: ../clib/signal.s
          194   4234: ../clib/angel/scatter.s
          195   4258: !!!scatter
          196   4269: ../clib/angel/handlers.s
          197   4294: !!handler_copy
          198   4309: !!handler_zi
          199   4322: BuildAttributes$$THM_ISAv4$E$P$D$K$B$S$7EM$VFPi3$EXTD16$VFPS$VFMA$PE$A:L22UL41UL21$X:L11$S22US41US21$IEEE1$IW$USESV6$~STKCKD$USESV7$~SHL$OTIME$ROPI$EBA8$UX$STANDARDLIB$REQ8$PRES8$EABIv2
          200   4508: __ARM_use_no_argv
          201   4526: __Vectors
          202   4536: Reset_Handler
          203   4550: am_nmi_isr
          204   4561: am_memmanage_isr
          205   4578: am_mpufault_isr
          206   4594: am_busfault_isr
          207   4610: am_usagefault_isr
          208   4628: am_adc_isr
          209   4639: am_brownout_isr
          210   4655: am_clkgen_isr
          211   4669: am_ctimer_isr
          212   4683: am_debugmon_isr
          213   4699: am_iomaster1_isr
          214   4716: am_ioslave_acc_isr
          215   4735: am_ioslave_ios_isr
          216   4754: am_pendsv_isr
          217   4768: am_svcall_isr
          218   4782: am_systick_isr
          219   4797: am_vcomp_isr
          220   4810: am_watchdog_isr
          221   4826: __main
          222   4833: __scatterload
          223   4847: __scatterload_rt2
          224   4865: __scatterload_rt2_thumb_only
          225   4894: __scatterload_null
          226   4913: __scatterload_copy
          227   4932: __scatterload_zeroinit
          228   4955: __rt_lib_init
          229   4969: __rt_lib_init_fp_1
          230   4988: __rt_lib_init_alloca_1
          231   5011: __rt_lib_init_argv_1
          232   5032: __rt_lib_init_atexit_1
          233   5055: __rt_lib_init_clock_1
          234   5077: __rt_lib_init_cpp_1
          235   5097: __rt_lib_init_exceptions_1
          236   5124: __rt_lib_init_fp_trap_1
          237   5148: __rt_lib_init_getenv_1
          238   5171: __rt_lib_init_heap_1
          239   5192: __rt_lib_init_lc_collate_1
          240   5219: __rt_lib_init_lc_ctype_1
          241   5244: __rt_lib_init_lc_monetary_1
          242   5272: __rt_lib_init_lc_numeric_1
          243   5299: __rt_lib_init_lc_time_1
          244   5323: __rt_lib_init_preinit_1
          245   5347: __rt_lib_init_rand_1
          246   5368: __rt_lib_init_return
          247   5389: __rt_lib_init_signal_1
          248   5412: __rt_lib_init_stdio_1
          249   5434: __rt_lib_init_user_alloc_1
          250   5461: __rt_lib_shutdown
          251   5479: __rt_lib_shutdown_fp_trap_1
          252   5507: __rt_lib_shutdown_heap_1
          253   5532: __rt_lib_shutdown_return
          254   5557: __rt_lib_shutdown_signal_1
          255   5584: __rt_lib_shutdown_stdio_1
          256   5610: __rt_lib_shutdown_user_alloc_1
          257   5641: __rt_entry
          258   5652: __rt_entry_presh_1
          259   5671: __rt_entry_sh
          260   5685: __rt_entry_li
          261   5699: __rt_entry_postsh_1
          262   5719: __rt_entry_main
          263   5735: __rt_entry_postli_1
          264   5755: __rt_exit
          265   5765: __rt_exit_ls
          266   5778: __rt_exit_prels_1
          267   5796: __rt_exit_exit
          268   5811: am_util_delay_cycles
          269   5832: am_fault_isr
          270   5845: getStackedReg
          271   5859: am_hal_interrupt_master_enable
          272   5890: am_hal_interrupt_master_disable
          273   5922: am_hal_interrupt_master_set
          274   5950: __asm___12_am_hal_itm_c_0782d9ac__am_itm_delay_cycles
          275   6004: __user_initial_stackheap
          276   6029: __use_two_region_memory
          277   6053: __rt_heap_escrow$2region
          278   6078: __rt_heap_expand$2region
          279   6103: __user_setup_stackheap
          280   6126: exit
          281   6131: __user_libspace
          282   6147: __user_perproc_libspace
          283   6171: __user_perthread_libspace
          284   6197: _sys_exit
          285   6207: __I$use$semihosting
          286   6227: __use_no_semihosting_swi
          287   6252: __semihosting_library_function
          288   6283: am_bsp_debug_printf_enable
          289   6310: am_bsp_low_power_init
          290   6332: am_gpio_isr
          291   6344: am_hal_clkgen_osc_stop
          292   6367: am_hal_clkgen_sysclk_get
          293   6392: am_hal_clkgen_sysclk_select
          294   6420: am_hal_debug_error
          295   6439: am_hal_gpio_int_clear
          296   6461: am_hal_gpio_int_enable
          297   6484: am_hal_gpio_int_status_get
          298   6511: am_hal_interrupt_enable
          299   6535: am_hal_iom_config
          300   6553: am_hal_iom_enable
          301   6571: am_hal_iom_fifo_read
          302   6592: am_hal_iom_fifo_write
          303   6614: am_hal_iom_int_clear
          304   6635: am_hal_iom_int_service
          305   6658: am_hal_iom_int_status_get
          306   6684: am_hal_iom_spi_read
          307   6704: am_hal_iom_spi_write
          308   6725: am_hal_itm_delay_us
          309   6745: am_hal_itm_enable
          310   6763: am_hal_itm_print
          311   6780: am_hal_mcuctrl_bandgap_disable
          312   6811: am_hal_mcuctrl_bucks_enable
          313   6839: am_hal_rtc_osc_disable
          314   6862: am_hal_rtc_osc_select
          315   6884: am_hal_tpiu_enable
          316   6903: am_hal_uart_char_receive_buffered
          317   6937: am_hal_uart_char_transmit_buffered
          318   6972: am_hal_uart_clock_enable
          319   6997: am_hal_uart_config
          320   7016: am_hal_uart_disable
          321   7036: am_hal_uart_enable
          322   7055: am_hal_uart_fifo_config
          323   7079: am_hal_uart_init_buffered
          324   7105: am_hal_uart_int_clear
          325   7127: am_hal_uart_int_enable
          326   7150: am_hal_uart_int_status_get
          327   7177: am_hal_uart_service_buffered
          328   7206: am_hal_vcomp_disable
          329   7227: am_iomaster0_isr
          330   7244: am_uart_isr
          331   7256: am_util_delay_ms
          332   7273: am_util_delay_us
          333   7290: am_util_faultisr_collect_data
          334   7320: am_util_stdio_printf
          335   7341: am_util_stdio_printf_init
          336   7367: am_util_stdio_terminal_clear
          337   7396: am_util_stdio_vsprintf
          338   7419: am_util_stxetx_init
          339   7439: am_util_stxetx_rx
          340   7457: am_util_stxetx_rx_wait4start
          341   7486: am_util_stxetx_tx
          342   7504: configure_pins
          343   7519: configure_uart
          344   7534: configure_uart_pins
          345   7554: main
          346   7559: packet_hex_dump
          347   7575: target_reset
          348   7588: uart2spi_fsm
          349   7601: uart_enable
          350   7613: __aeabi_d2f
          351   7625: _d2f
          352   7630: __fpl_dnaninf
          353   7644: _fp_init
          354   7653: __fplib_config_fpu_vfp
          355   7676: __fplib_config_pureend_doubles
          356   7707: __fpl_fretinf
          357   7721: __I$use$fp
          358   7732: g_sIOMConfig
          359   7745: Region$$Table$$Base
          360   7765: Region$$Table$$Limit
          361   7786: g_bGPIORising
          362   7800: g_bGPIOFalling
          363   7815: g_bGPIODirection
          364   7832: g_bUARTIdle
          365   7844: g_sUartConfig
          366   7858: g_pfnCharPrint
          367   7873: g_am_util_stxetx
          368   7890: g_ui32HALflags
          369   7905: g_ui32Mod0Interface
          370   7925: g_ui32Mod1Interface
          371   7945: g_am_hal_itm_print_registers
          372   7974: g_pui32StimReg
          373   7989: g_pui8TxArray
          374   8003: g_pui8RxArray
          375   8017: g_ui8RcvBuffer
          376   8032: g_psIOMBuffers
          377   8047: g_sTxBuffer
          378   8059: g_sRxBuffer
          379   8071: __libspace_start
          380   8088: __temporary_stack_top$libspace
          381   8119: 


** Section #13 '.note' (SHT_NOTE)
    Size   : 28 bytes (alignment 4)


** Section #14 '.comment' (SHT_PROGBITS)
    Size   : 15176 bytes


** Section #15 '.shstrtab' (SHT_STRTAB)
    Size   : 148 bytes

            #  Offset String
        ====================================

            1      1: FLASH
            2      7: SRAM
            3     12: .debug_abbrev
            4     26: .debug_frame
            5     39: .debug_info
            6     51: .debug_line
            7     63: .debug_loc
            8     74: .debug_macinfo
            9     89: .debug_pubnames
           10    105: .symtab
           11    113: .strtab
           12    121: .note
           13    127: .comment
           14    136: .shstrtab
           15    146: 
           16    147: 


