
========================================================================

** ELF Header Information

    File Name: bin\dsps_print.axf

    Machine class: ELFCLASS32 (32-bit)
    Data encoding: ELFDATA2LSB (Little endian)
    Header version: EV_CURRENT (Current version)
    Operating System ABI: none
    ABI Version: 0
    File Type: ET_EXEC (Executable) (2)
    Machine: EM_ARM (ARM)

    Image Entry point: 0x00000099
    Flags: EF_ARM_HASENTRY (0x05000002)

    ARM ELF revision: 5 (ABI version 2)

    Built with
    Component: ARM Compiler 5.05 update 1 (build 106) Tool: armasm [4d0efa]
    Component: ARM Compiler 5.05 update 1 (build 106) Tool: armlink [4d0efa]

    Header size: 52 bytes (0x34)
    Program header entry size: 32 bytes (0x20)
    Section header entry size: 40 bytes (0x28)

    Program header entries: 1
    Section header entries: 16

    Program header offset: 94376 (0x000170a8)
    Section header offset: 94408 (0x000170c8)

    Section header string table index: 15

========================================================================

** Program header #0 (PT_LOAD) [PF_X + PF_W + PF_R + PF_ARM_ENTRY]
    Size : 23288 bytes (20332 bytes in file)
    Virtual address: 0x00000000 (Alignment 8)


========================================================================

** Section #1 'FLASH' (SHT_PROGBITS) [SHF_ALLOC + SHF_EXECINSTR]
    Size   : 20200 bytes (alignment 4)
    Address: 0x00000000

    $d
    RESET
    __Vectors
        0x00000000:    10000c10    ....    DCD    268438544
        0x00000004:    00000071    q...    DCD    113
        0x00000008:    00000085    ....    DCD    133
        0x0000000c:    00000141    A...    DCD    321
        0x00000010:    0000008b    ....    DCD    139
        0x00000014:    0000008d    ....    DCD    141
        0x00000018:    0000008f    ....    DCD    143
        0x0000001c:    00000000    ....    DCD    0
        0x00000020:    00000000    ....    DCD    0
        0x00000024:    00000000    ....    DCD    0
        0x00000028:    00000000    ....    DCD    0
        0x0000002c:    00000091    ....    DCD    145
        0x00000030:    00000091    ....    DCD    145
        0x00000034:    00000000    ....    DCD    0
        0x00000038:    00000091    ....    DCD    145
        0x0000003c:    00000091    ....    DCD    145
        0x00000040:    00000091    ....    DCD    145
        0x00000044:    00000091    ....    DCD    145
        0x00000048:    00000091    ....    DCD    145
        0x0000004c:    00000091    ....    DCD    145
        0x00000050:    00000091    ....    DCD    145
        0x00000054:    00000091    ....    DCD    145
        0x00000058:    00000091    ....    DCD    145
        0x0000005c:    00000091    ....    DCD    145
        0x00000060:    00000091    ....    DCD    145
        0x00000064:    00000091    ....    DCD    145
        0x00000068:    00000221    !...    DCD    545
        0x0000006c:    00000b19    ....    DCD    2841
    $t
    $v0
    Reset_Handler
        0x00000070:    f64e5088    N..P    MOV      r0,#0xed88
        0x00000074:    f2ce0000    ....    MOVT     r0,#0xe000
        0x00000078:    6801        .h      LDR      r1,[r0,#0]
        0x0000007a:    f4410170    A.p.    ORR      r1,r1,#0xf00000
        0x0000007e:    6001        .`      STR      r1,[r0,#0]
        0x00000080:    4804        .H      LDR      r0,[pc,#16] ; [0x94] = 0x99
        0x00000082:    4700        .G      BX       r0
    am_nmi_isr
        0x00000084:    e7fe        ..      B        am_nmi_isr ; 0x84
        0x00000086:    e7fe        ..      B        0x86 ; am_nmi_isr + 2
    am_memmanage_isr
        0x00000088:    e7fe        ..      B        am_memmanage_isr ; 0x88
    am_mpufault_isr
        0x0000008a:    e7fe        ..      B        am_mpufault_isr ; 0x8a
    am_busfault_isr
        0x0000008c:    e7fe        ..      B        am_busfault_isr ; 0x8c
    am_usagefault_isr
        0x0000008e:    e7fe        ..      B        am_usagefault_isr ; 0x8e
    am_adc_isr
    am_brownout_isr
    am_clkgen_isr
    am_debugmon_isr
    am_gpio_isr
    am_iomaster0_isr
    am_iomaster1_isr
    am_ioslave_acc_isr
    am_ioslave_ios_isr
    am_pendsv_isr
    am_svcall_isr
    am_systick_isr
    am_vcomp_isr
    am_watchdog_isr
        0x00000090:    e7fe        ..      B        am_adc_isr ; 0x90
    $d
        0x00000092:    0000        ..      DCW    0
        0x00000094:    00000099    ....    DCD    153
    $t
    !!!main
    __main
        0x00000098:    f000f802    ....    BL       __scatterload ; 0xa0
        0x0000009c:    f000f83c    ..<.    BL       __rt_entry ; 0x118
    !!!scatter
    __scatterload
    __scatterload_rt2
    __scatterload_rt2_thumb_only
        0x000000a0:    a00a        ..      ADR      r0,{pc}+0x2c ; 0xcc
        0x000000a2:    e8900c00    ....    LDM      r0,{r10,r11}
        0x000000a6:    4482        .D      ADD      r10,r10,r0
        0x000000a8:    4483        .D      ADD      r11,r11,r0
        0x000000aa:    f1aa0701    ....    SUB      r7,r10,#1
    __scatterload_null
        0x000000ae:    45da        .E      CMP      r10,r11
        0x000000b0:    d101        ..      BNE      0xb6 ; __scatterload_null + 8
        0x000000b2:    f000f831    ..1.    BL       __rt_entry ; 0x118
        0x000000b6:    f2af0e09    ....    ADR      lr,{pc}-7 ; 0xaf
        0x000000ba:    e8ba000f    ....    LDM      r10!,{r0-r3}
        0x000000be:    f0130f01    ....    TST      r3,#1
        0x000000c2:    bf18        ..      IT       NE
        0x000000c4:    1afb        ..      SUBNE    r3,r7,r3
        0x000000c6:    f0430301    C...    ORR      r3,r3,#1
        0x000000ca:    4718        .G      BX       r3
    $d
        0x000000cc:    00004dfc    .M..    DCD    19964
        0x000000d0:    00004e1c    .N..    DCD    19996
    $t
    !!handler_copy
    __scatterload_copy
        0x000000d4:    3a10        .:      SUBS     r2,r2,#0x10
        0x000000d6:    bf24        $.      ITT      CS
        0x000000d8:    c878        x.      LDMCS    r0!,{r3-r6}
        0x000000da:    c178        x.      STMCS    r1!,{r3-r6}
        0x000000dc:    d8fa        ..      BHI      __scatterload_copy ; 0xd4
        0x000000de:    0752        R.      LSLS     r2,r2,#29
        0x000000e0:    bf24        $.      ITT      CS
        0x000000e2:    c830        0.      LDMCS    r0!,{r4,r5}
        0x000000e4:    c130        0.      STMCS    r1!,{r4,r5}
        0x000000e6:    bf44        D.      ITT      MI
        0x000000e8:    6804        .h      LDRMI    r4,[r0,#0]
        0x000000ea:    600c        .`      STRMI    r4,[r1,#0]
        0x000000ec:    4770        pG      BX       lr
        0x000000ee:    0000        ..      MOVS     r0,r0
    !!handler_zi
    __scatterload_zeroinit
        0x000000f0:    2300        .#      MOVS     r3,#0
        0x000000f2:    2400        .$      MOVS     r4,#0
        0x000000f4:    2500        .%      MOVS     r5,#0
        0x000000f6:    2600        .&      MOVS     r6,#0
        0x000000f8:    3a10        .:      SUBS     r2,r2,#0x10
        0x000000fa:    bf28        (.      IT       CS
        0x000000fc:    c178        x.      STMCS    r1!,{r3-r6}
        0x000000fe:    d8fb        ..      BHI      0xf8 ; __scatterload_zeroinit + 8
        0x00000100:    0752        R.      LSLS     r2,r2,#29
        0x00000102:    bf28        (.      IT       CS
        0x00000104:    c130        0.      STMCS    r1!,{r4,r5}
        0x00000106:    bf48        H.      IT       MI
        0x00000108:    600b        .`      STRMI    r3,[r1,#0]
        0x0000010a:    4770        pG      BX       lr
    .ARM.Collect$$libinit$$00000000
    __rt_lib_init
        0x0000010c:    b51f        ..      PUSH     {r0-r4,lr}
    .ARM.Collect$$libinit$$00000001
    __rt_lib_init_fp_1
        0x0000010e:    f001fb88    ....    BL       _fp_init ; 0x1822
    .ARM.Collect$$libinit$$00000004
    .ARM.Collect$$libinit$$0000000A
    .ARM.Collect$$libinit$$0000000C
    .ARM.Collect$$libinit$$0000000E
    .ARM.Collect$$libinit$$00000011
    .ARM.Collect$$libinit$$00000013
    .ARM.Collect$$libinit$$00000015
    .ARM.Collect$$libinit$$00000017
    .ARM.Collect$$libinit$$00000019
    .ARM.Collect$$libinit$$0000001B
    .ARM.Collect$$libinit$$0000001D
    .ARM.Collect$$libinit$$0000001F
    .ARM.Collect$$libinit$$00000021
    .ARM.Collect$$libinit$$00000023
    .ARM.Collect$$libinit$$00000025
    .ARM.Collect$$libinit$$0000002C
    .ARM.Collect$$libinit$$0000002E
    .ARM.Collect$$libinit$$00000030
    .ARM.Collect$$libinit$$00000032
    .ARM.Collect$$libinit$$00000033
    __rt_lib_init_alloca_1
    __rt_lib_init_argv_1
    __rt_lib_init_atexit_1
    __rt_lib_init_clock_1
    __rt_lib_init_cpp_1
    __rt_lib_init_exceptions_1
    __rt_lib_init_fp_trap_1
    __rt_lib_init_getenv_1
    __rt_lib_init_heap_1
    __rt_lib_init_lc_collate_1
    __rt_lib_init_lc_ctype_1
    __rt_lib_init_lc_monetary_1
    __rt_lib_init_lc_numeric_1
    __rt_lib_init_lc_time_1
    __rt_lib_init_preinit_1
    __rt_lib_init_rand_1
    __rt_lib_init_return
    __rt_lib_init_signal_1
    __rt_lib_init_stdio_1
    __rt_lib_init_user_alloc_1
        0x00000112:    bd1f        ..      POP      {r0-r4,pc}
    .ARM.Collect$$libshutdown$$00000000
    __rt_lib_shutdown
        0x00000114:    b510        ..      PUSH     {r4,lr}
    .ARM.Collect$$libshutdown$$00000003
    .ARM.Collect$$libshutdown$$00000006
    .ARM.Collect$$libshutdown$$00000009
    .ARM.Collect$$libshutdown$$0000000B
    .ARM.Collect$$libshutdown$$0000000E
    .ARM.Collect$$libshutdown$$0000000F
    __rt_lib_shutdown_fp_trap_1
    __rt_lib_shutdown_heap_1
    __rt_lib_shutdown_return
    __rt_lib_shutdown_signal_1
    __rt_lib_shutdown_stdio_1
    __rt_lib_shutdown_user_alloc_1
        0x00000116:    bd10        ..      POP      {r4,pc}
    .ARM.Collect$$rtentry$$00000000
    .ARM.Collect$$rtentry$$00000002
    .ARM.Collect$$rtentry$$00000004
    __rt_entry
    __rt_entry_presh_1
    __rt_entry_sh
        0x00000118:    f000f837    ..7.    BL       __user_setup_stackheap ; 0x18a
        0x0000011c:    4611        .F      MOV      r1,r2
    .ARM.Collect$$rtentry$$00000009
    .ARM.Collect$$rtentry$$0000000A
    __rt_entry_li
    __rt_entry_postsh_1
        0x0000011e:    f7fffff5    ....    BL       __rt_lib_init ; 0x10c
    .ARM.Collect$$rtentry$$0000000C
    .ARM.Collect$$rtentry$$0000000D
    __rt_entry_main
    __rt_entry_postli_1
        0x00000122:    f001f90d    ....    BL       main ; 0x1340
        0x00000126:    f000f855    ..U.    BL       exit ; 0x1d4
    .ARM.Collect$$rtexit$$00000000
    __rt_exit
        0x0000012a:    b403        ..      PUSH     {r0,r1}
    .ARM.Collect$$rtexit$$00000002
    .ARM.Collect$$rtexit$$00000003
    __rt_exit_ls
    __rt_exit_prels_1
        0x0000012c:    f7fffff2    ....    BL       __rt_lib_shutdown ; 0x114
    .ARM.Collect$$rtexit$$00000004
    __rt_exit_exit
        0x00000130:    bc03        ..      POP      {r0,r1}
        0x00000132:    f000f859    ..Y.    BL       _sys_exit ; 0x1e8
        0x00000136:    0000        ..      MOVS     r0,r0
    .emb_text
    $v0
    am_util_delay_cycles
        0x00000138:    3801        .8      SUBS     r0,#1
        0x0000013a:    d1fd        ..      BNE      am_util_delay_cycles ; 0x138
        0x0000013c:    4770        pG      BX       lr
        0x0000013e:    0000        ..      MOVS     r0,r0
    .emb_text
    $v0
    am_fault_isr
        0x00000140:    b580        ..      PUSH     {r7,lr}
        0x00000142:    4668        hF      MOV      r0,sp
        0x00000144:    3008        .0      ADDS     r0,r0,#8
        0x00000146:    f000fd0b    ....    BL       am_util_faultisr_collect_data ; 0xb60
        0x0000014a:    bd01        ..      POP      {r0,pc}
    getStackedReg
        0x0000014c:    0080        ..      LSLS     r0,r0,#2
        0x0000014e:    1840        @.      ADDS     r0,r0,r1
        0x00000150:    6800        .h      LDR      r0,[r0,#0]
        0x00000152:    4770        pG      BX       lr
    .emb_text
    $v0
    am_hal_interrupt_master_enable
        0x00000154:    f3ef8010    ....    MRS      r0,PRIMASK
        0x00000158:    b662        b.      CPSIE    i
        0x0000015a:    4770        pG      BX       lr
    am_hal_interrupt_master_disable
        0x0000015c:    f3ef8010    ....    MRS      r0,PRIMASK
        0x00000160:    b672        r.      CPSID    i
        0x00000162:    4770        pG      BX       lr
    am_hal_interrupt_master_set
        0x00000164:    f3808810    ....    MSR      PRIMASK,r0
        0x00000168:    4770        pG      BX       lr
        0x0000016a:    0000        ..      MOVS     r0,r0
    .text
    $v0
    __user_initial_stackheap
        0x0000016c:    4802        .H      LDR      r0,[pc,#8] ; [0x178] = 0x10000a10
        0x0000016e:    4903        .I      LDR      r1,[pc,#12] ; [0x17c] = 0x10000c10
        0x00000170:    4a01        .J      LDR      r2,[pc,#4] ; [0x178] = 0x10000a10
        0x00000172:    4b03        .K      LDR      r3,[pc,#12] ; [0x180] = 0x10000a10
        0x00000174:    4770        pG      BX       lr
    $d
        0x00000176:    0000        ..      DCW    0
        0x00000178:    10000a10    ....    DCD    268438032
        0x0000017c:    10000c10    ....    DCD    268438544
        0x00000180:    10000a10    ....    DCD    268438032
    $t
    .text
    __use_two_region_memory
        0x00000184:    4770        pG      BX       lr
    __rt_heap_escrow$2region
        0x00000186:    4770        pG      BX       lr
    __rt_heap_expand$2region
        0x00000188:    4770        pG      BX       lr
    .text
    __user_setup_stackheap
        0x0000018a:    4675        uF      MOV      r5,lr
        0x0000018c:    f000f828    ..(.    BL       __user_libspace ; 0x1e0
        0x00000190:    46ae        .F      MOV      lr,r5
        0x00000192:    0005        ..      MOVS     r5,r0
        0x00000194:    4669        iF      MOV      r1,sp
        0x00000196:    4653        SF      MOV      r3,r10
        0x00000198:    f0200007     ...    BIC      r0,r0,#7
        0x0000019c:    4685        .F      MOV      sp,r0
        0x0000019e:    b018        ..      ADD      sp,sp,#0x60
        0x000001a0:    b520         .      PUSH     {r5,lr}
        0x000001a2:    f7ffffe3    ....    BL       __user_initial_stackheap ; 0x16c
        0x000001a6:    e8bd4020    .. @    POP      {r5,lr}
        0x000001aa:    f04f0600    O...    MOV      r6,#0
        0x000001ae:    f04f0700    O...    MOV      r7,#0
        0x000001b2:    f04f0800    O...    MOV      r8,#0
        0x000001b6:    f04f0b00    O...    MOV      r11,#0
        0x000001ba:    f0210107    !...    BIC      r1,r1,#7
        0x000001be:    46ac        .F      MOV      r12,r5
        0x000001c0:    e8ac09c0    ....    STM      r12!,{r6-r8,r11}
        0x000001c4:    e8ac09c0    ....    STM      r12!,{r6-r8,r11}
        0x000001c8:    e8ac09c0    ....    STM      r12!,{r6-r8,r11}
        0x000001cc:    e8ac09c0    ....    STM      r12!,{r6-r8,r11}
        0x000001d0:    468d        .F      MOV      sp,r1
        0x000001d2:    4770        pG      BX       lr
    .text
    exit
        0x000001d4:    4604        .F      MOV      r4,r0
        0x000001d6:    f3af8000    ....    NOP.W    
        0x000001da:    4620         F      MOV      r0,r4
        0x000001dc:    f7ffffa5    ....    BL       __rt_exit ; 0x12a
    .text
    __user_libspace
    __user_perproc_libspace
    __user_perthread_libspace
        0x000001e0:    4800        .H      LDR      r0,[pc,#0] ; [0x1e4] = 0x100009ac
        0x000001e2:    4770        pG      BX       lr
    $d
        0x000001e4:    100009ac    ....    DCD    268437932
    $t
    .text
    _sys_exit
        0x000001e8:    4901        .I      LDR      r1,[pc,#4] ; [0x1f0] = 0x20026
        0x000001ea:    2018        .       MOVS     r0,#0x18
        0x000001ec:    beab        ..      BKPT     #0xab
        0x000001ee:    e7fe        ..      B        0x1ee ; _sys_exit + 6
    $d
        0x000001f0:    00020026    &...    DCD    131110
    $t
    .text
    __I$use$semihosting
    __use_no_semihosting_swi
        0x000001f4:    4770        pG      BX       lr
    i.am_bsp_low_power_init
    .text
    __semihosting_library_function
    am_bsp_low_power_init
        0x000001f6:    b510        ..      PUSH     {r4,lr}
        0x000001f8:    f000fb0c    ....    BL       am_hal_mcuctrl_bucks_enable ; 0x814
        0x000001fc:    f000fc86    ....    BL       am_hal_vcomp_disable ; 0xb0c
        0x00000200:    2001        .       MOVS     r0,#1
        0x00000202:    f000fb22    ..".    BL       am_hal_rtc_osc_select ; 0x84a
        0x00000206:    2001        .       MOVS     r0,#1
        0x00000208:    f000fa29    ..).    BL       am_hal_clkgen_osc_stop ; 0x65e
        0x0000020c:    2002        .       MOVS     r0,#2
        0x0000020e:    f000fa26    ..&.    BL       am_hal_clkgen_osc_stop ; 0x65e
        0x00000212:    f000fb13    ....    BL       am_hal_rtc_osc_disable ; 0x83c
        0x00000216:    e8bd4010    ...@    POP      {r4,lr}
        0x0000021a:    f000baf3    ....    B.W      am_hal_mcuctrl_bandgap_disable ; 0x804
        0x0000021e:    0000        ..      MOVS     r0,r0
    i.am_ctimer_isr
    am_ctimer_isr
        0x00000220:    b510        ..      PUSH     {r4,lr}
        0x00000222:    2001        .       MOVS     r0,#1
        0x00000224:    f000fa6e    ..n.    BL       am_hal_ctimer_int_clear ; 0x704
        0x00000228:    2104        .!      MOVS     r1,#4
        0x0000022a:    4808        .H      LDR      r0,[pc,#32] ; [0x24c] = 0x10000044
        0x0000022c:    f000f825    ..%.    BL       am_devices_button_array_tick ; 0x27a
        0x00000230:    4806        .H      LDR      r0,[pc,#24] ; [0x24c] = 0x10000044
        0x00000232:    7b00        .{      LDRB     r0,[r0,#0xc]
        0x00000234:    b940        @.      CBNZ     r0,0x248 ; am_ctimer_isr + 40
        0x00000236:    4805        .H      LDR      r0,[pc,#20] ; [0x24c] = 0x10000044
        0x00000238:    7b40        @{      LDRB     r0,[r0,#0xd]
        0x0000023a:    2801        .(      CMP      r0,#1
        0x0000023c:    d104        ..      BNE      0x248 ; am_ctimer_isr + 40
        0x0000023e:    f001f96d    ..m.    BL       radio_uart_enable ; 0x151c
        0x00000242:    a003        ..      ADR      r0,{pc}+0xe ; 0x250
        0x00000244:    f000fce0    ....    BL       am_util_stdio_printf ; 0xc08
        0x00000248:    bd10        ..      POP      {r4,pc}
    $d
        0x0000024a:    0000        ..      DCW    0
        0x0000024c:    10000044    D...    DCD    268435524
        0x00000250:    6c6c6548    Hell    DCD    1819043144
        0x00000254:    6f57206f    o Wo    DCD    1867980911
        0x00000258:    21646c72    rld!    DCD    560229490
        0x0000025c:    00002121    !!..    DCD    8481
    $t
    i.am_devices_button_array_init
    am_devices_button_array_init
        0x00000260:    b570        p.      PUSH     {r4-r6,lr}
        0x00000262:    4605        .F      MOV      r5,r0
        0x00000264:    460e        .F      MOV      r6,r1
        0x00000266:    2400        .$      MOVS     r4,#0
        0x00000268:    e004        ..      B        0x274 ; am_devices_button_array_init + 20
        0x0000026a:    eb051004    ....    ADD      r0,r5,r4,LSL #4
        0x0000026e:    f000f811    ....    BL       am_devices_button_init ; 0x294
        0x00000272:    1c64        d.      ADDS     r4,r4,#1
        0x00000274:    42b4        .B      CMP      r4,r6
        0x00000276:    d3f8        ..      BCC      0x26a ; am_devices_button_array_init + 10
        0x00000278:    bd70        p.      POP      {r4-r6,pc}
    i.am_devices_button_array_tick
    am_devices_button_array_tick
        0x0000027a:    b570        p.      PUSH     {r4-r6,lr}
        0x0000027c:    4605        .F      MOV      r5,r0
        0x0000027e:    460e        .F      MOV      r6,r1
        0x00000280:    2400        .$      MOVS     r4,#0
        0x00000282:    e004        ..      B        0x28e ; am_devices_button_array_tick + 20
        0x00000284:    eb051004    ....    ADD      r0,r5,r4,LSL #4
        0x00000288:    f000f848    ..H.    BL       am_devices_button_tick ; 0x31c
        0x0000028c:    1c64        d.      ADDS     r4,r4,#1
        0x0000028e:    42b4        .B      CMP      r4,r6
        0x00000290:    d3f8        ..      BCC      0x284 ; am_devices_button_array_tick + 10
        0x00000292:    bd70        p.      POP      {r4-r6,pc}
    i.am_devices_button_init
    am_devices_button_init
        0x00000294:    bf00        ..      NOP      
        0x00000296:    6801        .h      LDR      r1,[r0,#0]
        0x00000298:    2900        .)      CMP      r1,#0
        0x0000029a:    da00        ..      BGE      0x29e ; am_devices_button_init + 10
        0x0000029c:    e035        5.      B        0x30a ; am_devices_button_init + 118
        0x0000029e:    2173        s!      MOVS     r1,#0x73
        0x000002a0:    4a1d        .J      LDR      r2,[pc,#116] ; [0x318] = 0x40010000
        0x000002a2:    6611        .f      STR      r1,[r2,#0x60]
        0x000002a4:    7801        .x      LDRB     r1,[r0,#0]
        0x000002a6:    f00101f8    ....    AND      r1,r1,#0xf8
        0x000002aa:    eb020151    ..Q.    ADD      r1,r2,r1,LSR #1
        0x000002ae:    6c09        .l      LDR      r1,[r1,#0x40]
        0x000002b0:    7802        .x      LDRB     r2,[r0,#0]
        0x000002b2:    0752        R.      LSLS     r2,r2,#29
        0x000002b4:    0ed3        ..      LSRS     r3,r2,#27
        0x000002b6:    2207        ."      MOVS     r2,#7
        0x000002b8:    409a        .@      LSLS     r2,r2,r3
        0x000002ba:    4391        .C      BICS     r1,r1,r2
        0x000002bc:    7802        .x      LDRB     r2,[r0,#0]
        0x000002be:    0752        R.      LSLS     r2,r2,#29
        0x000002c0:    0ed3        ..      LSRS     r3,r2,#27
        0x000002c2:    2200        ."      MOVS     r2,#0
        0x000002c4:    409a        .@      LSLS     r2,r2,r3
        0x000002c6:    4311        .C      ORRS     r1,r1,r2
        0x000002c8:    7802        .x      LDRB     r2,[r0,#0]
        0x000002ca:    f00202f8    ....    AND      r2,r2,#0xf8
        0x000002ce:    4b12        .K      LDR      r3,[pc,#72] ; [0x318] = 0x40010000
        0x000002d0:    eb030252    ..R.    ADD      r2,r3,r2,LSR #1
        0x000002d4:    6411        .d      STR      r1,[r2,#0x40]
        0x000002d6:    7801        .x      LDRB     r1,[r0,#0]
        0x000002d8:    f00101fc    ....    AND      r1,r1,#0xfc
        0x000002dc:    461a        .F      MOV      r2,r3
        0x000002de:    5889        .X      LDR      r1,[r1,r2]
        0x000002e0:    7802        .x      LDRB     r2,[r0,#0]
        0x000002e2:    0792        ..      LSLS     r2,r2,#30
        0x000002e4:    0ed3        ..      LSRS     r3,r2,#27
        0x000002e6:    22ff        ."      MOVS     r2,#0xff
        0x000002e8:    409a        .@      LSLS     r2,r2,r3
        0x000002ea:    4391        .C      BICS     r1,r1,r2
        0x000002ec:    7802        .x      LDRB     r2,[r0,#0]
        0x000002ee:    0792        ..      LSLS     r2,r2,#30
        0x000002f0:    0ed3        ..      LSRS     r3,r2,#27
        0x000002f2:    2218        ."      MOVS     r2,#0x18
        0x000002f4:    409a        .@      LSLS     r2,r2,r3
        0x000002f6:    4311        .C      ORRS     r1,r1,r2
        0x000002f8:    7802        .x      LDRB     r2,[r0,#0]
        0x000002fa:    f00202fc    ....    AND      r2,r2,#0xfc
        0x000002fe:    4b06        .K      LDR      r3,[pc,#24] ; [0x318] = 0x40010000
        0x00000300:    50d1        .P      STR      r1,[r2,r3]
        0x00000302:    2100        .!      MOVS     r1,#0
        0x00000304:    461a        .F      MOV      r2,r3
        0x00000306:    6611        .f      STR      r1,[r2,#0x60]
        0x00000308:    bf00        ..      NOP      
        0x0000030a:    bf00        ..      NOP      
        0x0000030c:    2100        .!      MOVS     r1,#0
        0x0000030e:    6081        .`      STR      r1,[r0,#8]
        0x00000310:    7301        .s      STRB     r1,[r0,#0xc]
        0x00000312:    7341        As      STRB     r1,[r0,#0xd]
        0x00000314:    4770        pG      BX       lr
    $d
        0x00000316:    0000        ..      DCW    0
        0x00000318:    40010000    ...@    DCD    1073807360
    $t
    i.am_devices_button_tick
    am_devices_button_tick
        0x0000031c:    b530        0.      PUSH     {r4,r5,lr}
        0x0000031e:    bf00        ..      NOP      
        0x00000320:    6803        .h      LDR      r3,[r0,#0]
        0x00000322:    2b00        .+      CMP      r3,#0
        0x00000324:    da00        ..      BGE      0x328 ; am_devices_button_tick + 12
        0x00000326:    e035        5.      B        0x394 ; am_devices_button_tick + 120
        0x00000328:    2373        s#      MOVS     r3,#0x73
        0x0000032a:    4c50        PL      LDR      r4,[pc,#320] ; [0x46c] = 0x40010000
        0x0000032c:    6623        #f      STR      r3,[r4,#0x60]
        0x0000032e:    7803        .x      LDRB     r3,[r0,#0]
        0x00000330:    f00303f8    ....    AND      r3,r3,#0xf8
        0x00000334:    eb040353    ..S.    ADD      r3,r4,r3,LSR #1
        0x00000338:    6c1b        .l      LDR      r3,[r3,#0x40]
        0x0000033a:    7804        .x      LDRB     r4,[r0,#0]
        0x0000033c:    0764        d.      LSLS     r4,r4,#29
        0x0000033e:    0ee5        ..      LSRS     r5,r4,#27
        0x00000340:    2407        .$      MOVS     r4,#7
        0x00000342:    40ac        .@      LSLS     r4,r4,r5
        0x00000344:    43a3        .C      BICS     r3,r3,r4
        0x00000346:    7804        .x      LDRB     r4,[r0,#0]
        0x00000348:    0764        d.      LSLS     r4,r4,#29
        0x0000034a:    0ee5        ..      LSRS     r5,r4,#27
        0x0000034c:    2400        .$      MOVS     r4,#0
        0x0000034e:    40ac        .@      LSLS     r4,r4,r5
        0x00000350:    4323        #C      ORRS     r3,r3,r4
        0x00000352:    7804        .x      LDRB     r4,[r0,#0]
        0x00000354:    f00404f8    ....    AND      r4,r4,#0xf8
        0x00000358:    4d44        DM      LDR      r5,[pc,#272] ; [0x46c] = 0x40010000
        0x0000035a:    eb050454    ..T.    ADD      r4,r5,r4,LSR #1
        0x0000035e:    6423        #d      STR      r3,[r4,#0x40]
        0x00000360:    7803        .x      LDRB     r3,[r0,#0]
        0x00000362:    f00303fc    ....    AND      r3,r3,#0xfc
        0x00000366:    462c        ,F      MOV      r4,r5
        0x00000368:    591b        .Y      LDR      r3,[r3,r4]
        0x0000036a:    7804        .x      LDRB     r4,[r0,#0]
        0x0000036c:    07a4        ..      LSLS     r4,r4,#30
        0x0000036e:    0ee5        ..      LSRS     r5,r4,#27
        0x00000370:    24ff        .$      MOVS     r4,#0xff
        0x00000372:    40ac        .@      LSLS     r4,r4,r5
        0x00000374:    43a3        .C      BICS     r3,r3,r4
        0x00000376:    7804        .x      LDRB     r4,[r0,#0]
        0x00000378:    07a4        ..      LSLS     r4,r4,#30
        0x0000037a:    0ee5        ..      LSRS     r5,r4,#27
        0x0000037c:    241a        .$      MOVS     r4,#0x1a
        0x0000037e:    40ac        .@      LSLS     r4,r4,r5
        0x00000380:    4323        #C      ORRS     r3,r3,r4
        0x00000382:    7804        .x      LDRB     r4,[r0,#0]
        0x00000384:    f00404fc    ....    AND      r4,r4,#0xfc
        0x00000388:    4d38        8M      LDR      r5,[pc,#224] ; [0x46c] = 0x40010000
        0x0000038a:    5163        cQ      STR      r3,[r4,r5]
        0x0000038c:    2300        .#      MOVS     r3,#0
        0x0000038e:    462c        ,F      MOV      r4,r5
        0x00000390:    6623        #f      STR      r3,[r4,#0x60]
        0x00000392:    bf00        ..      NOP      
        0x00000394:    bf00        ..      NOP      
        0x00000396:    7803        .x      LDRB     r3,[r0,#0]
        0x00000398:    f0030320    .. .    AND      r3,r3,#0x20
        0x0000039c:    4c33        3L      LDR      r4,[pc,#204] ; [0x46c] = 0x40010000
        0x0000039e:    eb0403d3    ....    ADD      r3,r4,r3,LSR #3
        0x000003a2:    f8d33080    ...0    LDR      r3,[r3,#0x80]
        0x000003a6:    7804        .x      LDRB     r4,[r0,#0]
        0x000003a8:    f004051f    ....    AND      r5,r4,#0x1f
        0x000003ac:    2401        .$      MOVS     r4,#1
        0x000003ae:    40ac        .@      LSLS     r4,r4,r5
        0x000003b0:    4023        #@      ANDS     r3,r3,r4
        0x000003b2:    b10b        ..      CBZ      r3,0x3b8 ; am_devices_button_tick + 156
        0x000003b4:    2301        .#      MOVS     r3,#1
        0x000003b6:    e000        ..      B        0x3ba ; am_devices_button_tick + 158
        0x000003b8:    2300        .#      MOVS     r3,#0
        0x000003ba:    461a        .F      MOV      r2,r3
        0x000003bc:    6843        Ch      LDR      r3,[r0,#4]
        0x000003be:    4293        .B      CMP      r3,r2
        0x000003c0:    d001        ..      BEQ      0x3c6 ; am_devices_button_tick + 170
        0x000003c2:    2301        .#      MOVS     r3,#1
        0x000003c4:    e000        ..      B        0x3c8 ; am_devices_button_tick + 172
        0x000003c6:    2300        .#      MOVS     r3,#0
        0x000003c8:    4619        .F      MOV      r1,r3
        0x000003ca:    7b03        .{      LDRB     r3,[r0,#0xc]
        0x000003cc:    428b        .B      CMP      r3,r1
        0x000003ce:    d003        ..      BEQ      0x3d8 ; am_devices_button_tick + 188
        0x000003d0:    6883        .h      LDR      r3,[r0,#8]
        0x000003d2:    1c5b        [.      ADDS     r3,r3,#1
        0x000003d4:    6083        .`      STR      r3,[r0,#8]
        0x000003d6:    e001        ..      B        0x3dc ; am_devices_button_tick + 192
        0x000003d8:    2300        .#      MOVS     r3,#0
        0x000003da:    6083        .`      STR      r3,[r0,#8]
        0x000003dc:    6883        .h      LDR      r3,[r0,#8]
        0x000003de:    2b04        .+      CMP      r3,#4
        0x000003e0:    d305        ..      BCC      0x3ee ; am_devices_button_tick + 210
        0x000003e2:    7301        .s      STRB     r1,[r0,#0xc]
        0x000003e4:    2301        .#      MOVS     r3,#1
        0x000003e6:    7343        Cs      STRB     r3,[r0,#0xd]
        0x000003e8:    2300        .#      MOVS     r3,#0
        0x000003ea:    6083        .`      STR      r3,[r0,#8]
        0x000003ec:    e001        ..      B        0x3f2 ; am_devices_button_tick + 214
        0x000003ee:    2300        .#      MOVS     r3,#0
        0x000003f0:    7343        Cs      STRB     r3,[r0,#0xd]
        0x000003f2:    bf00        ..      NOP      
        0x000003f4:    6803        .h      LDR      r3,[r0,#0]
        0x000003f6:    2b00        .+      CMP      r3,#0
        0x000003f8:    da00        ..      BGE      0x3fc ; am_devices_button_tick + 224
        0x000003fa:    e035        5.      B        0x468 ; am_devices_button_tick + 332
        0x000003fc:    2373        s#      MOVS     r3,#0x73
        0x000003fe:    4c1b        .L      LDR      r4,[pc,#108] ; [0x46c] = 0x40010000
        0x00000400:    6623        #f      STR      r3,[r4,#0x60]
        0x00000402:    7803        .x      LDRB     r3,[r0,#0]
        0x00000404:    f00303f8    ....    AND      r3,r3,#0xf8
        0x00000408:    eb040353    ..S.    ADD      r3,r4,r3,LSR #1
        0x0000040c:    6c1b        .l      LDR      r3,[r3,#0x40]
        0x0000040e:    7804        .x      LDRB     r4,[r0,#0]
        0x00000410:    0764        d.      LSLS     r4,r4,#29
        0x00000412:    0ee5        ..      LSRS     r5,r4,#27
        0x00000414:    2407        .$      MOVS     r4,#7
        0x00000416:    40ac        .@      LSLS     r4,r4,r5
        0x00000418:    43a3        .C      BICS     r3,r3,r4
        0x0000041a:    7804        .x      LDRB     r4,[r0,#0]
        0x0000041c:    0764        d.      LSLS     r4,r4,#29
        0x0000041e:    0ee5        ..      LSRS     r5,r4,#27
        0x00000420:    2400        .$      MOVS     r4,#0
        0x00000422:    40ac        .@      LSLS     r4,r4,r5
        0x00000424:    4323        #C      ORRS     r3,r3,r4
        0x00000426:    7804        .x      LDRB     r4,[r0,#0]
        0x00000428:    f00404f8    ....    AND      r4,r4,#0xf8
        0x0000042c:    4d0f        .M      LDR      r5,[pc,#60] ; [0x46c] = 0x40010000
        0x0000042e:    eb050454    ..T.    ADD      r4,r5,r4,LSR #1
        0x00000432:    6423        #d      STR      r3,[r4,#0x40]
        0x00000434:    7803        .x      LDRB     r3,[r0,#0]
        0x00000436:    f00303fc    ....    AND      r3,r3,#0xfc
        0x0000043a:    462c        ,F      MOV      r4,r5
        0x0000043c:    591b        .Y      LDR      r3,[r3,r4]
        0x0000043e:    7804        .x      LDRB     r4,[r0,#0]
        0x00000440:    07a4        ..      LSLS     r4,r4,#30
        0x00000442:    0ee5        ..      LSRS     r5,r4,#27
        0x00000444:    24ff        .$      MOVS     r4,#0xff
        0x00000446:    40ac        .@      LSLS     r4,r4,r5
        0x00000448:    43a3        .C      BICS     r3,r3,r4
        0x0000044a:    7804        .x      LDRB     r4,[r0,#0]
        0x0000044c:    07a4        ..      LSLS     r4,r4,#30
        0x0000044e:    0ee5        ..      LSRS     r5,r4,#27
        0x00000450:    2418        .$      MOVS     r4,#0x18
        0x00000452:    40ac        .@      LSLS     r4,r4,r5
        0x00000454:    4323        #C      ORRS     r3,r3,r4
        0x00000456:    7804        .x      LDRB     r4,[r0,#0]
        0x00000458:    f00404fc    ....    AND      r4,r4,#0xfc
        0x0000045c:    4d03        .M      LDR      r5,[pc,#12] ; [0x46c] = 0x40010000
        0x0000045e:    5163        cQ      STR      r3,[r4,r5]
        0x00000460:    2300        .#      MOVS     r3,#0
        0x00000462:    462c        ,F      MOV      r4,r5
        0x00000464:    6623        #f      STR      r3,[r4,#0x60]
        0x00000466:    bf00        ..      NOP      
        0x00000468:    bf00        ..      NOP      
        0x0000046a:    bd30        0.      POP      {r4,r5,pc}
    $d
        0x0000046c:    40010000    ...@    DCD    1073807360
    $t
    i.am_devices_da14581_uart_boot
    am_devices_da14581_uart_boot
        0x00000470:    b5f8        ..      PUSH     {r3-r7,lr}
        0x00000472:    4606        .F      MOV      r6,r0
        0x00000474:    460d        .F      MOV      r5,r1
        0x00000476:    bf00        ..      NOP      
        0x00000478:    4668        hF      MOV      r0,sp
        0x0000047a:    f000fa0b    ....    BL       am_hal_uart_char_receive_polled ; 0x894
        0x0000047e:    f89d0000    ....    LDRB     r0,[sp,#0]
        0x00000482:    2802        .(      CMP      r0,#2
        0x00000484:    d1f8        ..      BNE      0x478 ; am_devices_da14581_uart_boot + 8
        0x00000486:    2001        .       MOVS     r0,#1
        0x00000488:    f000fa0e    ....    BL       am_hal_uart_char_transmit_polled ; 0x8a8
        0x0000048c:    b2e8        ..      UXTB     r0,r5
        0x0000048e:    f000fa0b    ....    BL       am_hal_uart_char_transmit_polled ; 0x8a8
        0x00000492:    f3c52007    ...     UBFX     r0,r5,#8,#8
        0x00000496:    f000fa07    ....    BL       am_hal_uart_char_transmit_polled ; 0x8a8
        0x0000049a:    bf00        ..      NOP      
        0x0000049c:    4668        hF      MOV      r0,sp
        0x0000049e:    f000f9f9    ....    BL       am_hal_uart_char_receive_polled ; 0x894
        0x000004a2:    f89d0000    ....    LDRB     r0,[sp,#0]
        0x000004a6:    2806        .(      CMP      r0,#6
        0x000004a8:    d1f8        ..      BNE      0x49c ; am_devices_da14581_uart_boot + 44
        0x000004aa:    2700        .'      MOVS     r7,#0
        0x000004ac:    2400        .$      MOVS     r4,#0
        0x000004ae:    e005        ..      B        0x4bc ; am_devices_da14581_uart_boot + 76
        0x000004b0:    5d30        0]      LDRB     r0,[r6,r4]
        0x000004b2:    4047        G@      EORS     r7,r7,r0
        0x000004b4:    5d30        0]      LDRB     r0,[r6,r4]
        0x000004b6:    f000f9f7    ....    BL       am_hal_uart_char_transmit_polled ; 0x8a8
        0x000004ba:    1c64        d.      ADDS     r4,r4,#1
        0x000004bc:    42ac        .B      CMP      r4,r5
        0x000004be:    d3f7        ..      BCC      0x4b0 ; am_devices_da14581_uart_boot + 64
        0x000004c0:    4668        hF      MOV      r0,sp
        0x000004c2:    f000f9e7    ....    BL       am_hal_uart_char_receive_polled ; 0x894
        0x000004c6:    f89d0000    ....    LDRB     r0,[sp,#0]
        0x000004ca:    42b8        .B      CMP      r0,r7
        0x000004cc:    d001        ..      BEQ      0x4d2 ; am_devices_da14581_uart_boot + 98
        0x000004ce:    2001        .       MOVS     r0,#1
        0x000004d0:    bdf8        ..      POP      {r3-r7,pc}
        0x000004d2:    2006        .       MOVS     r0,#6
        0x000004d4:    f000f9e8    ....    BL       am_hal_uart_char_transmit_polled ; 0x8a8
        0x000004d8:    bf00        ..      NOP      
        0x000004da:    4807        .H      LDR      r0,[pc,#28] ; [0x4f8] = 0x4001c000
        0x000004dc:    6980        .i      LDR      r0,[r0,#0x18]
        0x000004de:    f3c010c0    ....    UBFX     r0,r0,#7,#1
        0x000004e2:    2800        .(      CMP      r0,#0
        0x000004e4:    d0f9        ..      BEQ      0x4da ; am_devices_da14581_uart_boot + 106
        0x000004e6:    4804        .H      LDR      r0,[pc,#16] ; [0x4f8] = 0x4001c000
        0x000004e8:    6980        .i      LDR      r0,[r0,#0x18]
        0x000004ea:    f3c000c0    ....    UBFX     r0,r0,#3,#1
        0x000004ee:    2800        .(      CMP      r0,#0
        0x000004f0:    d1f3        ..      BNE      0x4da ; am_devices_da14581_uart_boot + 106
        0x000004f2:    bf00        ..      NOP      
        0x000004f4:    e7ec        ..      B        0x4d0 ; am_devices_da14581_uart_boot + 96
    $d
        0x000004f6:    0000        ..      DCW    0
        0x000004f8:    4001c000    ...@    DCD    1073856512
    $t
    i.am_devices_led_array_init
    am_devices_led_array_init
        0x000004fc:    b570        p.      PUSH     {r4-r6,lr}
        0x000004fe:    4605        .F      MOV      r5,r0
        0x00000500:    460e        .F      MOV      r6,r1
        0x00000502:    2400        .$      MOVS     r4,#0
        0x00000504:    e004        ..      B        0x510 ; am_devices_led_array_init + 20
        0x00000506:    eb0500c4    ....    ADD      r0,r5,r4,LSL #3
        0x0000050a:    f000f805    ....    BL       am_devices_led_init ; 0x518
        0x0000050e:    1c64        d.      ADDS     r4,r4,#1
        0x00000510:    42b4        .B      CMP      r4,r6
        0x00000512:    d3f8        ..      BCC      0x506 ; am_devices_led_array_init + 10
        0x00000514:    bd70        p.      POP      {r4-r6,pc}
        0x00000516:    0000        ..      MOVS     r0,r0
    i.am_devices_led_init
    am_devices_led_init
        0x00000518:    bf00        ..      NOP      
        0x0000051a:    6801        .h      LDR      r1,[r0,#0]
        0x0000051c:    2900        .)      CMP      r1,#0
        0x0000051e:    da00        ..      BGE      0x522 ; am_devices_led_init + 10
        0x00000520:    e035        5.      B        0x58e ; am_devices_led_init + 118
        0x00000522:    2173        s!      MOVS     r1,#0x73
        0x00000524:    4a35        5J      LDR      r2,[pc,#212] ; [0x5fc] = 0x40010000
        0x00000526:    6611        .f      STR      r1,[r2,#0x60]
        0x00000528:    7801        .x      LDRB     r1,[r0,#0]
        0x0000052a:    f00101f8    ....    AND      r1,r1,#0xf8
        0x0000052e:    eb020151    ..Q.    ADD      r1,r2,r1,LSR #1
        0x00000532:    6c09        .l      LDR      r1,[r1,#0x40]
        0x00000534:    7802        .x      LDRB     r2,[r0,#0]
        0x00000536:    0752        R.      LSLS     r2,r2,#29
        0x00000538:    0ed3        ..      LSRS     r3,r2,#27
        0x0000053a:    2207        ."      MOVS     r2,#7
        0x0000053c:    409a        .@      LSLS     r2,r2,r3
        0x0000053e:    4391        .C      BICS     r1,r1,r2
        0x00000540:    7802        .x      LDRB     r2,[r0,#0]
        0x00000542:    0752        R.      LSLS     r2,r2,#29
        0x00000544:    0ed3        ..      LSRS     r3,r2,#27
        0x00000546:    2206        ."      MOVS     r2,#6
        0x00000548:    409a        .@      LSLS     r2,r2,r3
        0x0000054a:    4311        .C      ORRS     r1,r1,r2
        0x0000054c:    7802        .x      LDRB     r2,[r0,#0]
        0x0000054e:    f00202f8    ....    AND      r2,r2,#0xf8
        0x00000552:    4b2a        *K      LDR      r3,[pc,#168] ; [0x5fc] = 0x40010000
        0x00000554:    eb030252    ..R.    ADD      r2,r3,r2,LSR #1
        0x00000558:    6411        .d      STR      r1,[r2,#0x40]
        0x0000055a:    7801        .x      LDRB     r1,[r0,#0]
        0x0000055c:    f00101fc    ....    AND      r1,r1,#0xfc
        0x00000560:    461a        .F      MOV      r2,r3
        0x00000562:    5889        .X      LDR      r1,[r1,r2]
        0x00000564:    7802        .x      LDRB     r2,[r0,#0]
        0x00000566:    0792        ..      LSLS     r2,r2,#30
        0x00000568:    0ed3        ..      LSRS     r3,r2,#27
        0x0000056a:    22ff        ."      MOVS     r2,#0xff
        0x0000056c:    409a        .@      LSLS     r2,r2,r3
        0x0000056e:    4391        .C      BICS     r1,r1,r2
        0x00000570:    7802        .x      LDRB     r2,[r0,#0]
        0x00000572:    0792        ..      LSLS     r2,r2,#30
        0x00000574:    0ed3        ..      LSRS     r3,r2,#27
        0x00000576:    2218        ."      MOVS     r2,#0x18
        0x00000578:    409a        .@      LSLS     r2,r2,r3
        0x0000057a:    4311        .C      ORRS     r1,r1,r2
        0x0000057c:    7802        .x      LDRB     r2,[r0,#0]
        0x0000057e:    f00202fc    ....    AND      r2,r2,#0xfc
        0x00000582:    4b1e        .K      LDR      r3,[pc,#120] ; [0x5fc] = 0x40010000
        0x00000584:    50d1        .P      STR      r1,[r2,r3]
        0x00000586:    2100        .!      MOVS     r1,#0
        0x00000588:    461a        .F      MOV      r2,r3
        0x0000058a:    6611        .f      STR      r1,[r2,#0x60]
        0x0000058c:    bf00        ..      NOP      
        0x0000058e:    bf00        ..      NOP      
        0x00000590:    7801        .x      LDRB     r1,[r0,#0]
        0x00000592:    f001021f    ....    AND      r2,r1,#0x1f
        0x00000596:    2101        .!      MOVS     r1,#1
        0x00000598:    4091        .@      LSLS     r1,r1,r2
        0x0000059a:    7802        .x      LDRB     r2,[r0,#0]
        0x0000059c:    f0020220    .. .    AND      r2,r2,#0x20
        0x000005a0:    4b16        .K      LDR      r3,[pc,#88] ; [0x5fc] = 0x40010000
        0x000005a2:    eb0302d2    ....    ADD      r2,r3,r2,LSR #3
        0x000005a6:    f8c210b4    ....    STR      r1,[r2,#0xb4]
        0x000005aa:    6841        Ah      LDR      r1,[r0,#4]
        0x000005ac:    b171        q.      CBZ      r1,0x5cc ; am_devices_led_init + 180
        0x000005ae:    7801        .x      LDRB     r1,[r0,#0]
        0x000005b0:    f0010120    .. .    AND      r1,r1,#0x20
        0x000005b4:    461a        .F      MOV      r2,r3
        0x000005b6:    eb0201d1    ....    ADD      r1,r2,r1,LSR #3
        0x000005ba:    f8d11088    ....    LDR      r1,[r1,#0x88]
        0x000005be:    7802        .x      LDRB     r2,[r0,#0]
        0x000005c0:    f002031f    ....    AND      r3,r2,#0x1f
        0x000005c4:    2201        ."      MOVS     r2,#1
        0x000005c6:    409a        .@      LSLS     r2,r2,r3
        0x000005c8:    4311        .C      ORRS     r1,r1,r2
        0x000005ca:    e00d        ..      B        0x5e8 ; am_devices_led_init + 208
        0x000005cc:    7801        .x      LDRB     r1,[r0,#0]
        0x000005ce:    f0010120    .. .    AND      r1,r1,#0x20
        0x000005d2:    4a0a        .J      LDR      r2,[pc,#40] ; [0x5fc] = 0x40010000
        0x000005d4:    eb0201d1    ....    ADD      r1,r2,r1,LSR #3
        0x000005d8:    f8d11088    ....    LDR      r1,[r1,#0x88]
        0x000005dc:    7802        .x      LDRB     r2,[r0,#0]
        0x000005de:    f002031f    ....    AND      r3,r2,#0x1f
        0x000005e2:    2201        ."      MOVS     r2,#1
        0x000005e4:    409a        .@      LSLS     r2,r2,r3
        0x000005e6:    4391        .C      BICS     r1,r1,r2
        0x000005e8:    7802        .x      LDRB     r2,[r0,#0]
        0x000005ea:    f0020220    .. .    AND      r2,r2,#0x20
        0x000005ee:    4b03        .K      LDR      r3,[pc,#12] ; [0x5fc] = 0x40010000
        0x000005f0:    eb0302d2    ....    ADD      r2,r3,r2,LSR #3
        0x000005f4:    f8c21088    ....    STR      r1,[r2,#0x88]
        0x000005f8:    4770        pG      BX       lr
    $d
        0x000005fa:    0000        ..      DCW    0
        0x000005fc:    40010000    ...@    DCD    1073807360
    $t
    i.am_devices_led_off
    am_devices_led_off
        0x00000600:    b510        ..      PUSH     {r4,lr}
        0x00000602:    f8102031    ..1     LDRB     r2,[r0,r1,LSL #3]
        0x00000606:    f002031f    ....    AND      r3,r2,#0x1f
        0x0000060a:    2201        ."      MOVS     r2,#1
        0x0000060c:    409a        .@      LSLS     r2,r2,r3
        0x0000060e:    f8103031    ..10    LDRB     r3,[r0,r1,LSL #3]
        0x00000612:    f0030320    .. .    AND      r3,r3,#0x20
        0x00000616:    4c03        .L      LDR      r4,[pc,#12] ; [0x624] = 0x40010000
        0x00000618:    eb0403d3    ....    ADD      r3,r4,r3,LSR #3
        0x0000061c:    f8c320b4    ...     STR      r2,[r3,#0xb4]
        0x00000620:    bd10        ..      POP      {r4,pc}
    $d
        0x00000622:    0000        ..      DCW    0
        0x00000624:    40010000    ...@    DCD    1073807360
    $t
    i.am_devices_led_on
    am_devices_led_on
        0x00000628:    b510        ..      PUSH     {r4,lr}
        0x0000062a:    f8102031    ..1     LDRB     r2,[r0,r1,LSL #3]
        0x0000062e:    f002031f    ....    AND      r3,r2,#0x1f
        0x00000632:    2201        ."      MOVS     r2,#1
        0x00000634:    409a        .@      LSLS     r2,r2,r3
        0x00000636:    f8103031    ..10    LDRB     r3,[r0,r1,LSL #3]
        0x0000063a:    f0030320    .. .    AND      r3,r3,#0x20
        0x0000063e:    4c03        .L      LDR      r4,[pc,#12] ; [0x64c] = 0x40010000
        0x00000640:    eb0403d3    ....    ADD      r3,r4,r3,LSR #3
        0x00000644:    f8c320a8    ...     STR      r2,[r3,#0xa8]
        0x00000648:    bd10        ..      POP      {r4,pc}
    $d
        0x0000064a:    0000        ..      DCW    0
        0x0000064c:    40010000    ...@    DCD    1073807360
    $t
    i.am_hal_clkgen_osc_start
    am_hal_clkgen_osc_start
        0x00000650:    f04f2140    O.@!    MOV      r1,#0x40004000
        0x00000654:    68ca        .h      LDR      r2,[r1,#0xc]
        0x00000656:    ea220000    "...    BIC      r0,r2,r0
        0x0000065a:    60c8        .`      STR      r0,[r1,#0xc]
        0x0000065c:    4770        pG      BX       lr
    i.am_hal_clkgen_osc_stop
    am_hal_clkgen_osc_stop
        0x0000065e:    f04f2140    O.@!    MOV      r1,#0x40004000
        0x00000662:    68ca        .h      LDR      r2,[r1,#0xc]
        0x00000664:    4310        .C      ORRS     r0,r0,r2
        0x00000666:    60c8        .`      STR      r0,[r1,#0xc]
        0x00000668:    4770        pG      BX       lr
        0x0000066a:    0000        ..      MOVS     r0,r0
    i.am_hal_clkgen_sysclk_get
    am_hal_clkgen_sysclk_get
        0x0000066c:    f04f2040    O.@     MOV      r0,#0x40004000
        0x00000670:    6980        .i      LDR      r0,[r0,#0x18]
        0x00000672:    f0000007    ....    AND      r0,r0,#7
        0x00000676:    2808        .(      CMP      r0,#8
        0x00000678:    d215        ..      BCS      0x6a6 ; am_hal_clkgen_sysclk_get + 58
        0x0000067a:    e8dff000    ....    TBB      [pc,r0]
    $d
        0x0000067e:    0604        ..      DCW    1540
        0x00000680:    0e0c0a08    ....    DCD    235670024
        0x00000684:    1210        ..      DCW    4624
    $t
        0x00000686:    4809        .H      LDR      r0,[pc,#36] ; [0x6ac] = 0x16e3600
        0x00000688:    4770        pG      BX       lr
        0x0000068a:    4809        .H      LDR      r0,[pc,#36] ; [0x6b0] = 0xb71b00
        0x0000068c:    4770        pG      BX       lr
        0x0000068e:    4809        .H      LDR      r0,[pc,#36] ; [0x6b4] = 0x7a1200
        0x00000690:    4770        pG      BX       lr
        0x00000692:    4809        .H      LDR      r0,[pc,#36] ; [0x6b8] = 0x5b8d80
        0x00000694:    4770        pG      BX       lr
        0x00000696:    4809        .H      LDR      r0,[pc,#36] ; [0x6bc] = 0x493e00
        0x00000698:    4770        pG      BX       lr
        0x0000069a:    4809        .H      LDR      r0,[pc,#36] ; [0x6c0] = 0x3d0900
        0x0000069c:    4770        pG      BX       lr
        0x0000069e:    4809        .H      LDR      r0,[pc,#36] ; [0x6c4] = 0x3450db
        0x000006a0:    4770        pG      BX       lr
        0x000006a2:    4809        .H      LDR      r0,[pc,#36] ; [0x6c8] = 0x2dc6c0
        0x000006a4:    4770        pG      BX       lr
        0x000006a6:    f04f30ff    O..0    MOV      r0,#0xffffffff
        0x000006aa:    4770        pG      BX       lr
    $d
        0x000006ac:    016e3600    .6n.    DCD    24000000
        0x000006b0:    00b71b00    ....    DCD    12000000
        0x000006b4:    007a1200    ..z.    DCD    8000000
        0x000006b8:    005b8d80    ..[.    DCD    6000000
        0x000006bc:    00493e00    .>I.    DCD    4800000
        0x000006c0:    003d0900    ..=.    DCD    4000000
        0x000006c4:    003450db    .P4.    DCD    3428571
        0x000006c8:    002dc6c0    ..-.    DCD    3000000
    $t
    i.am_hal_clkgen_sysclk_select
    am_hal_clkgen_sysclk_select
        0x000006cc:    f04f2140    O.@!    MOV      r1,#0x40004000
        0x000006d0:    2247        G"      MOVS     r2,#0x47
        0x000006d2:    614a        Ja      STR      r2,[r1,#0x14]
        0x000006d4:    6188        .a      STR      r0,[r1,#0x18]
        0x000006d6:    2000        .       MOVS     r0,#0
        0x000006d8:    6148        Ha      STR      r0,[r1,#0x14]
        0x000006da:    4770        pG      BX       lr
    i.am_hal_ctimer_config_single
    am_hal_ctimer_config_single
        0x000006dc:    4b08        .K      LDR      r3,[pc,#32] ; [0x700] = 0x4000800c
        0x000006de:    eb031300    ....    ADD      r3,r3,r0,LSL #4
        0x000006e2:    6818        .h      LDR      r0,[r3,#0]
        0x000006e4:    f5113f80    ...?    CMN      r1,#0x10000
        0x000006e8:    bf08        ..      IT       EQ
        0x000006ea:    0412        ..      LSLEQ    r2,r2,#16
        0x000006ec:    4388        .C      BICS     r0,r0,r1
        0x000006ee:    4310        .C      ORRS     r0,r0,r2
        0x000006f0:    f1b13fff    ...?    CMP      r1,#0xffffffff
        0x000006f4:    bf08        ..      IT       EQ
        0x000006f6:    f0404000    @..@    ORREQ    r0,r0,#0x80000000
        0x000006fa:    6018        .`      STR      r0,[r3,#0]
        0x000006fc:    4770        pG      BX       lr
    $d
        0x000006fe:    0000        ..      DCW    0
        0x00000700:    4000800c    ...@    DCD    1073774604
    $t
    i.am_hal_ctimer_int_clear
    am_hal_ctimer_int_clear
        0x00000704:    4901        .I      LDR      r1,[pc,#4] ; [0x70c] = 0x40008000
        0x00000706:    f8c10208    ....    STR      r0,[r1,#0x208]
        0x0000070a:    4770        pG      BX       lr
    $d
        0x0000070c:    40008000    ...@    DCD    1073774592
    $t
    i.am_hal_ctimer_int_enable
    am_hal_ctimer_int_enable
        0x00000710:    4903        .I      LDR      r1,[pc,#12] ; [0x720] = 0x40008000
        0x00000712:    f8d12200    ..."    LDR      r2,[r1,#0x200]
        0x00000716:    4310        .C      ORRS     r0,r0,r2
        0x00000718:    f8c10200    ....    STR      r0,[r1,#0x200]
        0x0000071c:    4770        pG      BX       lr
    $d
        0x0000071e:    0000        ..      DCW    0
        0x00000720:    40008000    ...@    DCD    1073774592
    $t
    i.am_hal_ctimer_period_set
    am_hal_ctimer_period_set
        0x00000724:    f8dfc068    ..h.    LDR      r12,[pc,#104] ; [0x790] = 0x4000800c
        0x00000728:    b410        ..      PUSH     {r4}
        0x0000072a:    eb0c1c00    ....    ADD      r12,r12,r0,LSL #4
        0x0000072e:    f8dcc000    ....    LDR      r12,[r12,#0]
        0x00000732:    f5113f80    ...?    CMN      r1,#0x10000
        0x00000736:    bf08        ..      IT       EQ
        0x00000738:    ea4f4c1c    O..L    LSREQ    r12,r12,#16
        0x0000073c:    f40c7ce0    ...|    AND      r12,r12,#0x1c0
        0x00000740:    f1bc0f80    ....    CMP      r12,#0x80
        0x00000744:    bf17        ..      ITETT    NE
        0x00000746:    f1bc0fc0    ....    CMPNE    r12,#0xc0
        0x0000074a:    eba20c03    ....    SUBEQ    r12,r2,r3
        0x0000074e:    4694        .F      MOVNE    r12,r2
        0x00000750:    2200        ."      MOVNE    r2,#0
        0x00000752:    4b10        .K      LDR      r3,[pc,#64] ; [0x794] = 0x40008004
        0x00000754:    4c10        .L      LDR      r4,[pc,#64] ; [0x798] = 0x40008008
        0x00000756:    eb031300    ....    ADD      r3,r3,r0,LSL #4
        0x0000075a:    eb041000    ....    ADD      r0,r4,r0,LSL #4
        0x0000075e:    f5a1447f    ...D    SUB      r4,r1,#0xff00
        0x00000762:    3cff        .<      SUBS     r4,r4,#0xff
        0x00000764:    bf01        ..      ITTTT    EQ
        0x00000766:    eacc4002    ...@    PKHBTEQ  r0,r12,r2,LSL #16
        0x0000076a:    6018        .`      STREQ    r0,[r3,#0]
        0x0000076c:    bc10        ..      POPEQ    {r4}
        0x0000076e:    4770        pG      BXEQ     lr
        0x00000770:    f5113f80    ...?    CMN      r1,#0x10000
        0x00000774:    eacc4102    ...A    PKHBT    r1,r12,r2,LSL #16
        0x00000778:    d006        ..      BEQ      0x788 ; am_hal_ctimer_period_set + 100
        0x0000077a:    6019        .`      STR      r1,[r3,#0]
        0x0000077c:    ea4f411c    O..A    LSR      r1,r12,#16
        0x00000780:    f36f020f    o...    BFC      r2,#0,#16
        0x00000784:    eac10102    ....    PKHBT    r1,r1,r2
        0x00000788:    6001        .`      STR      r1,[r0,#0]
        0x0000078a:    bc10        ..      POP      {r4}
        0x0000078c:    4770        pG      BX       lr
    $d
        0x0000078e:    0000        ..      DCW    0
        0x00000790:    4000800c    ...@    DCD    1073774604
        0x00000794:    40008004    ...@    DCD    1073774596
        0x00000798:    40008008    ...@    DCD    1073774600
    $t
    i.am_hal_ctimer_start
    am_hal_ctimer_start
        0x0000079c:    4a05        .J      LDR      r2,[pc,#20] ; [0x7b4] = 0x4000800c
        0x0000079e:    eb021000    ....    ADD      r0,r2,r0,LSL #4
        0x000007a2:    6802        .h      LDR      r2,[r0,#0]
        0x000007a4:    f0012308    ...#    AND      r3,r1,#0x8000800
        0x000007a8:    439a        .C      BICS     r2,r2,r3
        0x000007aa:    f0011101    ....    AND      r1,r1,#0x10001
        0x000007ae:    4311        .C      ORRS     r1,r1,r2
        0x000007b0:    6001        .`      STR      r1,[r0,#0]
        0x000007b2:    4770        pG      BX       lr
    $d
        0x000007b4:    4000800c    ...@    DCD    1073774604
    $t
    i.am_hal_interrupt_enable
    am_hal_interrupt_enable
        0x000007b8:    280f        .(      CMP      r0,#0xf
        0x000007ba:    d90a        ..      BLS      0x7d2 ; am_hal_interrupt_enable + 26
        0x000007bc:    3810        .8      SUBS     r0,r0,#0x10
        0x000007be:    f000001f    ....    AND      r0,r0,#0x1f
        0x000007c2:    2101        .!      MOVS     r1,#1
        0x000007c4:    fa01f000    ....    LSL      r0,r1,r0
        0x000007c8:    f04f21e0    O..!    MOV      r1,#0xe000e000
        0x000007cc:    f8c10100    ....    STR      r0,[r1,#0x100]
        0x000007d0:    4770        pG      BX       lr
        0x000007d2:    490b        .I      LDR      r1,[pc,#44] ; [0x800] = 0xe000ed24
        0x000007d4:    2804        .(      CMP      r0,#4
        0x000007d6:    d00d        ..      BEQ      0x7f4 ; am_hal_interrupt_enable + 60
        0x000007d8:    2805        .(      CMP      r0,#5
        0x000007da:    bf04        ..      ITT      EQ
        0x000007dc:    6808        .h      LDREQ    r0,[r1,#0]
        0x000007de:    f4403000    @..0    ORREQ    r0,r0,#0x20000
        0x000007e2:    d005        ..      BEQ      0x7f0 ; am_hal_interrupt_enable + 56
        0x000007e4:    2806        .(      CMP      r0,#6
        0x000007e6:    bf06        ..      ITTE     EQ
        0x000007e8:    6808        .h      LDREQ    r0,[r1,#0]
        0x000007ea:    f4402080    @..     ORREQ    r0,r0,#0x40000
        0x000007ee:    4770        pG      BXNE     lr
        0x000007f0:    6008        .`      STR      r0,[r1,#0]
        0x000007f2:    4770        pG      BX       lr
        0x000007f4:    6808        .h      LDR      r0,[r1,#0]
        0x000007f6:    f4403080    @..0    ORR      r0,r0,#0x10000
        0x000007fa:    6008        .`      STR      r0,[r1,#0]
        0x000007fc:    4770        pG      BX       lr
    $d
        0x000007fe:    0000        ..      DCW    0
        0x00000800:    e000ed24    $...    DCD    3758157092
    $t
    i.am_hal_mcuctrl_bandgap_disable
    am_hal_mcuctrl_bandgap_disable
        0x00000804:    4902        .I      LDR      r1,[pc,#8] ; [0x810] = 0x40020000
        0x00000806:    f06f0001    o...    MVN      r0,#1
        0x0000080a:    f8c100fc    ....    STR      r0,[r1,#0xfc]
        0x0000080e:    4770        pG      BX       lr
    $d
        0x00000810:    40020000    ...@    DCD    1073872896
    $t
    i.am_hal_mcuctrl_bucks_enable
    am_hal_mcuctrl_bucks_enable
        0x00000814:    4808        .H      LDR      r0,[pc,#32] ; [0x838] = 0x40020000
        0x00000816:    6901        .i      LDR      r1,[r0,#0x10]
        0x00000818:    f0410102    A...    ORR      r1,r1,#2
        0x0000081c:    6101        .a      STR      r1,[r0,#0x10]
        0x0000081e:    6901        .i      LDR      r1,[r0,#0x10]
        0x00000820:    f0410101    A...    ORR      r1,r1,#1
        0x00000824:    6101        .a      STR      r1,[r0,#0x10]
        0x00000826:    6941        Ai      LDR      r1,[r0,#0x14]
        0x00000828:    f0110f02    ....    TST      r1,#2
        0x0000082c:    d0fb        ..      BEQ      0x826 ; am_hal_mcuctrl_bucks_enable + 18
        0x0000082e:    6941        Ai      LDR      r1,[r0,#0x14]
        0x00000830:    f0110f01    ....    TST      r1,#1
        0x00000834:    d0fb        ..      BEQ      0x82e ; am_hal_mcuctrl_bucks_enable + 26
        0x00000836:    4770        pG      BX       lr
    $d
        0x00000838:    40020000    ...@    DCD    1073872896
    $t
    i.am_hal_rtc_osc_disable
    am_hal_rtc_osc_disable
        0x0000083c:    f04f2040    O.@     MOV      r0,#0x40004000
        0x00000840:    6d01        .m      LDR      r1,[r0,#0x50]
        0x00000842:    f0410110    A...    ORR      r1,r1,#0x10
        0x00000846:    6501        .e      STR      r1,[r0,#0x50]
        0x00000848:    4770        pG      BX       lr
    i.am_hal_rtc_osc_select
    am_hal_rtc_osc_select
        0x0000084a:    f04f2140    O.@!    MOV      r1,#0x40004000
        0x0000084e:    2800        .(      CMP      r0,#0
        0x00000850:    68c8        .h      LDR      r0,[r1,#0xc]
        0x00000852:    bf14        ..      ITE      NE
        0x00000854:    f0400080    @...    ORRNE    r0,r0,#0x80
        0x00000858:    f0200080     ...    BICEQ    r0,r0,#0x80
        0x0000085c:    60c8        .`      STR      r0,[r1,#0xc]
        0x0000085e:    4770        pG      BX       lr
    i.am_hal_sysctrl_sleep
    am_hal_sysctrl_sleep
        0x00000860:    490a        .I      LDR      r1,[pc,#40] ; [0x88c] = 0xe000ed10
        0x00000862:    b160        `.      CBZ      r0,0x87e ; am_hal_sysctrl_sleep + 30
        0x00000864:    480a        .H      LDR      r0,[pc,#40] ; [0x890] = 0x40020000
        0x00000866:    f8d00250    ..P.    LDR      r0,[r0,#0x250]
        0x0000086a:    f0300001    0...    BICS     r0,r0,#1
        0x0000086e:    6808        .h      LDR      r0,[r1,#0]
        0x00000870:    bf0c        ..      ITE      EQ
        0x00000872:    f0400004    @...    ORREQ    r0,r0,#4
        0x00000876:    f0200004     ...    BICNE    r0,r0,#4
        0x0000087a:    6008        .`      STR      r0,[r1,#0]
        0x0000087c:    e003        ..      B        0x886 ; am_hal_sysctrl_sleep + 38
        0x0000087e:    6808        .h      LDR      r0,[r1,#0]
        0x00000880:    f0200004     ...    BIC      r0,r0,#4
        0x00000884:    6008        .`      STR      r0,[r1,#0]
        0x00000886:    bf30        0.      WFI      
        0x00000888:    4770        pG      BX       lr
    $d
        0x0000088a:    0000        ..      DCW    0
        0x0000088c:    e000ed10    ....    DCD    3758157072
        0x00000890:    40020000    ...@    DCD    1073872896
    $t
    i.am_hal_uart_char_receive_polled
    am_hal_uart_char_receive_polled
        0x00000894:    4903        .I      LDR      r1,[pc,#12] ; [0x8a4] = 0x4001c000
        0x00000896:    698a        .i      LDR      r2,[r1,#0x18]
        0x00000898:    f0120f10    ....    TST      r2,#0x10
        0x0000089c:    d1fb        ..      BNE      0x896 ; am_hal_uart_char_receive_polled + 2
        0x0000089e:    6809        .h      LDR      r1,[r1,#0]
        0x000008a0:    7001        .p      STRB     r1,[r0,#0]
        0x000008a2:    4770        pG      BX       lr
    $d
        0x000008a4:    4001c000    ...@    DCD    1073856512
    $t
    i.am_hal_uart_char_transmit_polled
    am_hal_uart_char_transmit_polled
        0x000008a8:    4903        .I      LDR      r1,[pc,#12] ; [0x8b8] = 0x4001c000
        0x000008aa:    698a        .i      LDR      r2,[r1,#0x18]
        0x000008ac:    f0120f20    .. .    TST      r2,#0x20
        0x000008b0:    d1fb        ..      BNE      0x8aa ; am_hal_uart_char_transmit_polled + 2
        0x000008b2:    6008        .`      STR      r0,[r1,#0]
        0x000008b4:    4770        pG      BX       lr
    $d
        0x000008b6:    0000        ..      DCW    0
        0x000008b8:    4001c000    ...@    DCD    1073856512
    $t
    i.am_hal_uart_clock_disable
    am_hal_uart_clock_disable
        0x000008bc:    4805        .H      LDR      r0,[pc,#20] ; [0x8d4] = 0x4001c000
        0x000008be:    6b01        .k      LDR      r1,[r0,#0x30]
        0x000008c0:    f0210108    !...    BIC      r1,r1,#8
        0x000008c4:    6301        .c      STR      r1,[r0,#0x30]
        0x000008c6:    f04f2040    O.@     MOV      r0,#0x40004000
        0x000008ca:    6ac1        .j      LDR      r1,[r0,#0x2c]
        0x000008cc:    f0210101    !...    BIC      r1,r1,#1
        0x000008d0:    62c1        .b      STR      r1,[r0,#0x2c]
        0x000008d2:    4770        pG      BX       lr
    $d
        0x000008d4:    4001c000    ...@    DCD    1073856512
    $t
    i.am_hal_uart_clock_enable
    am_hal_uart_clock_enable
        0x000008d8:    f04f2040    O.@     MOV      r0,#0x40004000
        0x000008dc:    6ac1        .j      LDR      r1,[r0,#0x2c]
        0x000008de:    f0410101    A...    ORR      r1,r1,#1
        0x000008e2:    62c1        .b      STR      r1,[r0,#0x2c]
        0x000008e4:    4804        .H      LDR      r0,[pc,#16] ; [0x8f8] = 0x4001c000
        0x000008e6:    6b01        .k      LDR      r1,[r0,#0x30]
        0x000008e8:    f0410108    A...    ORR      r1,r1,#8
        0x000008ec:    6301        .c      STR      r1,[r0,#0x30]
        0x000008ee:    6b01        .k      LDR      r1,[r0,#0x30]
        0x000008f0:    f0410110    A...    ORR      r1,r1,#0x10
        0x000008f4:    6301        .c      STR      r1,[r0,#0x30]
        0x000008f6:    4770        pG      BX       lr
    $d
        0x000008f8:    4001c000    ...@    DCD    1073856512
    $t
    i.am_hal_uart_config
    am_hal_uart_config
        0x000008fc:    b570        p.      PUSH     {r4-r6,lr}
        0x000008fe:    4604        .F      MOV      r4,r0
        0x00000900:    6805        .h      LDR      r5,[r0,#0]
        0x00000902:    f7fffeb3    ....    BL       am_hal_clkgen_sysclk_get ; 0x66c
        0x00000906:    0129        ).      LSLS     r1,r5,#4
        0x00000908:    fbb0f2f1    ....    UDIV     r2,r0,r1
        0x0000090c:    0180        ..      LSLS     r0,r0,#6
        0x0000090e:    fbb0f0f1    ....    UDIV     r0,r0,r1
        0x00000912:    0191        ..      LSLS     r1,r2,#6
        0x00000914:    1a40        @.      SUBS     r0,r0,r1
        0x00000916:    b1ba        ..      CBZ      r2,0x948 ; am_hal_uart_config + 76
        0x00000918:    490c        .I      LDR      r1,[pc,#48] ; [0x94c] = 0x4001c000
        0x0000091a:    624a        Jb      STR      r2,[r1,#0x24]
        0x0000091c:    624a        Jb      STR      r2,[r1,#0x24]
        0x0000091e:    6288        .b      STR      r0,[r1,#0x28]
        0x00000920:    7a22        "z      LDRB     r2,[r4,#8]
        0x00000922:    6860        `h      LDR      r0,[r4,#4]
        0x00000924:    2a00        .*      CMP      r2,#0
        0x00000926:    bf18        ..      IT       NE
        0x00000928:    2208        ."      MOVNE    r2,#8
        0x0000092a:    4310        .C      ORRS     r0,r0,r2
        0x0000092c:    68e2        .h      LDR      r2,[r4,#0xc]
        0x0000092e:    4310        .C      ORRS     r0,r0,r2
        0x00000930:    6aca        .j      LDR      r2,[r1,#0x2c]
        0x00000932:    4310        .C      ORRS     r0,r0,r2
        0x00000934:    62c8        .b      STR      r0,[r1,#0x2c]
        0x00000936:    6b08        .k      LDR      r0,[r1,#0x30]
        0x00000938:    6922        "i      LDR      r2,[r4,#0x10]
        0x0000093a:    4310        .C      ORRS     r0,r0,r2
        0x0000093c:    6308        .c      STR      r0,[r1,#0x30]
        0x0000093e:    6b08        .k      LDR      r0,[r1,#0x30]
        0x00000940:    f0400010    @...    ORR      r0,r0,#0x10
        0x00000944:    6308        .c      STR      r0,[r1,#0x30]
        0x00000946:    bd70        p.      POP      {r4-r6,pc}
        0x00000948:    e7fe        ..      B        0x948 ; am_hal_uart_config + 76
    $d
        0x0000094a:    0000        ..      DCW    0
        0x0000094c:    4001c000    ...@    DCD    1073856512
    $t
    i.am_hal_uart_disable
    am_hal_uart_disable
        0x00000950:    4803        .H      LDR      r0,[pc,#12] ; [0x960] = 0x4001c000
        0x00000952:    6b01        .k      LDR      r1,[r0,#0x30]
        0x00000954:    f0210101    !...    BIC      r1,r1,#1
        0x00000958:    f4217140    !.@q    BIC      r1,r1,#0x300
        0x0000095c:    6301        .c      STR      r1,[r0,#0x30]
        0x0000095e:    4770        pG      BX       lr
    $d
        0x00000960:    4001c000    ...@    DCD    1073856512
    $t
    i.am_hal_uart_enable
    am_hal_uart_enable
        0x00000964:    4803        .H      LDR      r0,[pc,#12] ; [0x974] = 0x4001c000
        0x00000966:    6b01        .k      LDR      r1,[r0,#0x30]
        0x00000968:    f2403201    @..2    MOV      r2,#0x301
        0x0000096c:    4311        .C      ORRS     r1,r1,r2
        0x0000096e:    6301        .c      STR      r1,[r0,#0x30]
        0x00000970:    4770        pG      BX       lr
    $d
        0x00000972:    0000        ..      DCW    0
        0x00000974:    4001c000    ...@    DCD    1073856512
    $t
    i.am_hal_uart_flags_get
    am_hal_uart_flags_get
        0x00000978:    4801        .H      LDR      r0,[pc,#4] ; [0x980] = 0x4001c000
        0x0000097a:    6980        .i      LDR      r0,[r0,#0x18]
        0x0000097c:    4770        pG      BX       lr
    $d
        0x0000097e:    0000        ..      DCW    0
        0x00000980:    4001c000    ...@    DCD    1073856512
    $t
    i.am_hal_uart_init_buffered
    am_hal_uart_init_buffered
        0x00000984:    f8dfc03c    ..<.    LDR      r12,[pc,#60] ; [0x9c4] = 0x4001c000
        0x00000988:    b410        ..      PUSH     {r4}
        0x0000098a:    f8dc4038    ..8@    LDR      r4,[r12,#0x38]
        0x0000098e:    f0440460    D.`.    ORR      r4,r4,#0x60
        0x00000992:    f8cc4038    ..8@    STR      r4,[r12,#0x38]
        0x00000996:    4c0c        .L      LDR      r4,[pc,#48] ; [0x9c8] = 0x10000998
        0x00000998:    f04f0c00    O...    MOV      r12,#0
        0x0000099c:    f8c4c004    ....    STR      r12,[r4,#4]
        0x000009a0:    f8c4c008    ....    STR      r12,[r4,#8]
        0x000009a4:    f8c4c00c    ....    STR      r12,[r4,#0xc]
        0x000009a8:    6121        !a      STR      r1,[r4,#0x10]
        0x000009aa:    6020         `      STR      r0,[r4,#0]
        0x000009ac:    f1a40014    ....    SUB      r0,r4,#0x14
        0x000009b0:    f8c0c004    ....    STR      r12,[r0,#4]
        0x000009b4:    f8c0c008    ....    STR      r12,[r0,#8]
        0x000009b8:    f8c0c00c    ....    STR      r12,[r0,#0xc]
        0x000009bc:    6103        .a      STR      r3,[r0,#0x10]
        0x000009be:    6002        .`      STR      r2,[r0,#0]
        0x000009c0:    bc10        ..      POP      {r4}
        0x000009c2:    4770        pG      BX       lr
    $d
        0x000009c4:    4001c000    ...@    DCD    1073856512
        0x000009c8:    10000998    ....    DCD    268437912
    $t
    i.am_hal_uart_int_clear
    am_hal_uart_int_clear
        0x000009cc:    4901        .I      LDR      r1,[pc,#4] ; [0x9d4] = 0x4001c000
        0x000009ce:    6448        Hd      STR      r0,[r1,#0x44]
        0x000009d0:    4770        pG      BX       lr
    $d
        0x000009d2:    0000        ..      DCW    0
        0x000009d4:    4001c000    ...@    DCD    1073856512
    $t
    i.am_hal_uart_int_enable
    am_hal_uart_int_enable
        0x000009d8:    4902        .I      LDR      r1,[pc,#8] ; [0x9e4] = 0x4001c000
        0x000009da:    6b8a        .k      LDR      r2,[r1,#0x38]
        0x000009dc:    4310        .C      ORRS     r0,r0,r2
        0x000009de:    6388        .c      STR      r0,[r1,#0x38]
        0x000009e0:    4770        pG      BX       lr
    $d
        0x000009e2:    0000        ..      DCW    0
        0x000009e4:    4001c000    ...@    DCD    1073856512
    $t
    i.am_hal_uart_int_status_get
    am_hal_uart_int_status_get
        0x000009e8:    4902        .I      LDR      r1,[pc,#8] ; [0x9f4] = 0x4001c000
        0x000009ea:    2800        .(      CMP      r0,#0
        0x000009ec:    bf14        ..      ITE      NE
        0x000009ee:    6c08        .l      LDRNE    r0,[r1,#0x40]
        0x000009f0:    6bc8        .k      LDREQ    r0,[r1,#0x3c]
        0x000009f2:    4770        pG      BX       lr
    $d
        0x000009f4:    4001c000    ...@    DCD    1073856512
    $t
    i.am_hal_uart_service_buffered
    am_hal_uart_service_buffered
        0x000009f8:    b430        0.      PUSH     {r4,r5}
        0x000009fa:    2200        ."      MOVS     r2,#0
        0x000009fc:    f8dfc098    ....    LDR      r12,[pc,#152] ; [0xa98] = 0x4001c000
        0x00000a00:    f0100f50    ..P.    TST      r0,#0x50
        0x00000a04:    d021        !.      BEQ      0xa4a ; am_hal_uart_service_buffered + 82
        0x00000a06:    f8dc1018    ....    LDR      r1,[r12,#0x18]
        0x00000a0a:    f0110f10    ....    TST      r1,#0x10
        0x00000a0e:    bf08        ..      IT       EQ
        0x00000a10:    4922        "I      LDREQ    r1,[pc,#136] ; [0xa9c] = 0x10000998
        0x00000a12:    d11a        ..      BNE      0xa4a ; am_hal_uart_service_buffered + 82
        0x00000a14:    f8dc2000    ...     LDR      r2,[r12,#0]
        0x00000a18:    690b        .i      LDR      r3,[r1,#0x10]
        0x00000a1a:    b2d2        ..      UXTB     r2,r2
        0x00000a1c:    68cc        .h      LDR      r4,[r1,#0xc]
        0x00000a1e:    1b1b        ..      SUBS     r3,r3,r4
        0x00000a20:    2b01        .+      CMP      r3,#1
        0x00000a22:    d30d        ..      BCC      0xa40 ; am_hal_uart_service_buffered + 72
        0x00000a24:    684d        Mh      LDR      r5,[r1,#4]
        0x00000a26:    680b        .h      LDR      r3,[r1,#0]
        0x00000a28:    555a        ZU      STRB     r2,[r3,r5]
        0x00000a2a:    684b        Kh      LDR      r3,[r1,#4]
        0x00000a2c:    690c        .i      LDR      r4,[r1,#0x10]
        0x00000a2e:    1c5b        [.      ADDS     r3,r3,#1
        0x00000a30:    fbb3f5f4    ....    UDIV     r5,r3,r4
        0x00000a34:    fb043315    ...3    MLS      r3,r4,r5,r3
        0x00000a38:    604b        K`      STR      r3,[r1,#4]
        0x00000a3a:    68cb        .h      LDR      r3,[r1,#0xc]
        0x00000a3c:    1c5b        [.      ADDS     r3,r3,#1
        0x00000a3e:    60cb        .`      STR      r3,[r1,#0xc]
        0x00000a40:    f8dc3018    ...0    LDR      r3,[r12,#0x18]
        0x00000a44:    f0130f10    ....    TST      r3,#0x10
        0x00000a48:    d0e4        ..      BEQ      0xa14 ; am_hal_uart_service_buffered + 28
        0x00000a4a:    f0100f20    .. .    TST      r0,#0x20
        0x00000a4e:    4814        .H      LDR      r0,[pc,#80] ; [0xaa0] = 0x10000984
        0x00000a50:    bf12        ..      ITEE     NE
        0x00000a52:    6803        .h      LDRNE    r3,[r0,#0]
        0x00000a54:    bc30        0.      POPEQ    {r4,r5}
        0x00000a56:    4770        pG      BXEQ     lr
        0x00000a58:    68c1        .h      LDR      r1,[r0,#0xc]
        0x00000a5a:    2900        .)      CMP      r1,#0
        0x00000a5c:    bf04        ..      ITT      EQ
        0x00000a5e:    bc30        0.      POPEQ    {r4,r5}
        0x00000a60:    4770        pG      BXEQ     lr
        0x00000a62:    f8dc1018    ....    LDR      r1,[r12,#0x18]
        0x00000a66:    f0110f20    .. .    TST      r1,#0x20
        0x00000a6a:    bf1c        ..      ITT      NE
        0x00000a6c:    bc30        0.      POPNE    {r4,r5}
        0x00000a6e:    4770        pG      BXNE     lr
        0x00000a70:    68c4        .h      LDR      r4,[r0,#0xc]
        0x00000a72:    2c01        .,      CMP      r4,#1
        0x00000a74:    d30c        ..      BCC      0xa90 ; am_hal_uart_service_buffered + 152
        0x00000a76:    6881        .h      LDR      r1,[r0,#8]
        0x00000a78:    5c5a        Z\      LDRB     r2,[r3,r1]
        0x00000a7a:    6881        .h      LDR      r1,[r0,#8]
        0x00000a7c:    6904        .i      LDR      r4,[r0,#0x10]
        0x00000a7e:    1c49        I.      ADDS     r1,r1,#1
        0x00000a80:    fbb1f5f4    ....    UDIV     r5,r1,r4
        0x00000a84:    fb041115    ....    MLS      r1,r4,r5,r1
        0x00000a88:    6081        .`      STR      r1,[r0,#8]
        0x00000a8a:    68c1        .h      LDR      r1,[r0,#0xc]
        0x00000a8c:    1e49        I.      SUBS     r1,r1,#1
        0x00000a8e:    60c1        .`      STR      r1,[r0,#0xc]
        0x00000a90:    f8cc2000    ...     STR      r2,[r12,#0]
        0x00000a94:    e7e0        ..      B        0xa58 ; am_hal_uart_service_buffered + 96
    $d
        0x00000a96:    0000        ..      DCW    0
        0x00000a98:    4001c000    ...@    DCD    1073856512
        0x00000a9c:    10000998    ....    DCD    268437912
        0x00000aa0:    10000984    ....    DCD    268437892
    $t
    i.am_hal_uart_string_transmit_buffered
    am_hal_uart_string_transmit_buffered
        0x00000aa4:    b410        ..      PUSH     {r4}
        0x00000aa6:    7801        .x      LDRB     r1,[r0,#0]
        0x00000aa8:    2900        .)      CMP      r1,#0
        0x00000aaa:    bf19        ..      ITTEE    NE
        0x00000aac:    4a15        .J      LDRNE    r2,[pc,#84] ; [0xb04] = 0x4001c000
        0x00000aae:    4916        .I      LDRNE    r1,[pc,#88] ; [0xb08] = 0x10000984
        0x00000ab0:    bc10        ..      POPEQ    {r4}
        0x00000ab2:    4770        pG      BXEQ     lr
        0x00000ab4:    68cb        .h      LDR      r3,[r1,#0xc]
        0x00000ab6:    2b00        .+      CMP      r3,#0
        0x00000ab8:    bf01        ..      ITTTT    EQ
        0x00000aba:    6993        .i      LDREQ    r3,[r2,#0x18]
        0x00000abc:    f0130f20    .. .    TSTEQ    r3,#0x20
        0x00000ac0:    7803        .x      LDRBEQ   r3,[r0,#0]
        0x00000ac2:    6013        .`      STREQ    r3,[r2,#0]
        0x00000ac4:    d018        ..      BEQ      0xaf8 ; am_hal_uart_string_transmit_buffered + 84
        0x00000ac6:    690b        .i      LDR      r3,[r1,#0x10]
        0x00000ac8:    f8d1c00c    ....    LDR      r12,[r1,#0xc]
        0x00000acc:    eba3030c    ....    SUB      r3,r3,r12
        0x00000ad0:    2b01        .+      CMP      r3,#1
        0x00000ad2:    d311        ..      BCC      0xaf8 ; am_hal_uart_string_transmit_buffered + 84
        0x00000ad4:    7803        .x      LDRB     r3,[r0,#0]
        0x00000ad6:    f8d1c000    ....    LDR      r12,[r1,#0]
        0x00000ada:    684c        Lh      LDR      r4,[r1,#4]
        0x00000adc:    f80c3004    ...0    STRB     r3,[r12,r4]
        0x00000ae0:    684b        Kh      LDR      r3,[r1,#4]
        0x00000ae2:    f1030c01    ....    ADD      r12,r3,#1
        0x00000ae6:    690b        .i      LDR      r3,[r1,#0x10]
        0x00000ae8:    fbbcf4f3    ....    UDIV     r4,r12,r3
        0x00000aec:    fb03c314    ....    MLS      r3,r3,r4,r12
        0x00000af0:    604b        K`      STR      r3,[r1,#4]
        0x00000af2:    68cb        .h      LDR      r3,[r1,#0xc]
        0x00000af4:    1c5b        [.      ADDS     r3,r3,#1
        0x00000af6:    60cb        .`      STR      r3,[r1,#0xc]
        0x00000af8:    f8103f01    ...?    LDRB     r3,[r0,#1]!
        0x00000afc:    2b00        .+      CMP      r3,#0
        0x00000afe:    d1d9        ..      BNE      0xab4 ; am_hal_uart_string_transmit_buffered + 16
        0x00000b00:    bc10        ..      POP      {r4}
        0x00000b02:    4770        pG      BX       lr
    $d
        0x00000b04:    4001c000    ...@    DCD    1073856512
        0x00000b08:    10000984    ....    DCD    268437892
    $t
    i.am_hal_vcomp_disable
    am_hal_vcomp_disable
        0x00000b0c:    4901        .I      LDR      r1,[pc,#4] ; [0xb14] = 0x4000c000
        0x00000b0e:    2037        7       MOVS     r0,#0x37
        0x00000b10:    6088        .`      STR      r0,[r1,#8]
        0x00000b12:    4770        pG      BX       lr
    $d
        0x00000b14:    4000c000    ...@    DCD    1073790976
    $t
    i.am_uart_isr
    am_uart_isr
        0x00000b18:    b510        ..      PUSH     {r4,lr}
        0x00000b1a:    2001        .       MOVS     r0,#1
        0x00000b1c:    f7ffff64    ..d.    BL       am_hal_uart_int_status_get ; 0x9e8
        0x00000b20:    4604        .F      MOV      r4,r0
        0x00000b22:    4620         F      MOV      r0,r4
        0x00000b24:    f7ffff68    ..h.    BL       am_hal_uart_service_buffered ; 0x9f8
        0x00000b28:    4620         F      MOV      r0,r4
        0x00000b2a:    f7ffff4f    ..O.    BL       am_hal_uart_int_clear ; 0x9cc
        0x00000b2e:    f7ffff23    ..#.    BL       am_hal_uart_flags_get ; 0x978
        0x00000b32:    f0000080    ....    AND      r0,r0,#0x80
        0x00000b36:    b108        ..      CBZ      r0,0xb3c ; am_uart_isr + 36
        0x00000b38:    f000fc90    ....    BL       radio_uart_disable ; 0x145c
        0x00000b3c:    bd10        ..      POP      {r4,pc}
        0x00000b3e:    0000        ..      MOVS     r0,r0
    i.am_util_delay_us
    am_util_delay_us
        0x00000b40:    b570        p.      PUSH     {r4-r6,lr}
        0x00000b42:    4604        .F      MOV      r4,r0
        0x00000b44:    f7fffd92    ....    BL       am_hal_clkgen_sysclk_get ; 0x66c
        0x00000b48:    4904        .I      LDR      r1,[pc,#16] ; [0xb5c] = 0x2dc6c0
        0x00000b4a:    fbb0f0f1    ....    UDIV     r0,r0,r1
        0x00000b4e:    fb00f504    ....    MUL      r5,r0,r4
        0x00000b52:    4628        (F      MOV      r0,r5
        0x00000b54:    f7fffaf0    ....    BL       am_util_delay_cycles ; 0x138
        0x00000b58:    bd70        p.      POP      {r4-r6,pc}
    $d
        0x00000b5a:    0000        ..      DCW    0
        0x00000b5c:    002dc6c0    ..-.    DCD    3000000
    $t
    i.am_util_faultisr_collect_data
    am_util_faultisr_collect_data
        0x00000b60:    b08c        ..      SUB      sp,sp,#0x30
        0x00000b62:    4604        .F      MOV      r4,r0
        0x00000b64:    2500        .%      MOVS     r5,#0
        0x00000b66:    950a        ..      STR      r5,[sp,#0x28]
        0x00000b68:    4826        &H      LDR      r0,[pc,#152] ; [0xc04] = 0xe000ed28
        0x00000b6a:    6800        .h      LDR      r0,[r0,#0]
        0x00000b6c:    900a        ..      STR      r0,[sp,#0x28]
        0x00000b6e:    980a        ..      LDR      r0,[sp,#0x28]
        0x00000b70:    b2c0        ..      UXTB     r0,r0
        0x00000b72:    f88d002c    ..,.    STRB     r0,[sp,#0x2c]
        0x00000b76:    980a        ..      LDR      r0,[sp,#0x28]
        0x00000b78:    0a00        ..      LSRS     r0,r0,#8
        0x00000b7a:    f88d002d    ..-.    STRB     r0,[sp,#0x2d]
        0x00000b7e:    980a        ..      LDR      r0,[sp,#0x28]
        0x00000b80:    f64f71ff    O..q    MOV      r1,#0xffff
        0x00000b84:    ea014010    ...@    AND      r0,r1,r0,LSR #16
        0x00000b88:    f8ad002e    ....    STRH     r0,[sp,#0x2e]
        0x00000b8c:    481d        .H      LDR      r0,[pc,#116] ; [0xc04] = 0xe000ed28
        0x00000b8e:    3010        .0      ADDS     r0,r0,#0x10
        0x00000b90:    6800        .h      LDR      r0,[r0,#0]
        0x00000b92:    9009        ..      STR      r0,[sp,#0x24]
        0x00000b94:    f89d002d    ..-.    LDRB     r0,[sp,#0x2d]
        0x00000b98:    f0000002    ....    AND      r0,r0,#2
        0x00000b9c:    b120         .      CBZ      r0,0xba8 ; am_util_faultisr_collect_data + 72
        0x00000b9e:    4621        !F      MOV      r1,r4
        0x00000ba0:    2006        .       MOVS     r0,#6
        0x00000ba2:    f7fffad3    ....    BL       getStackedReg ; 0x14c
        0x00000ba6:    e001        ..      B        0xbac ; am_util_faultisr_collect_data + 76
        0x00000ba8:    f04f30ff    O..0    MOV      r0,#0xffffffff
        0x00000bac:    9008        ..      STR      r0,[sp,#0x20]
        0x00000bae:    4621        !F      MOV      r1,r4
        0x00000bb0:    2000        .       MOVS     r0,#0
        0x00000bb2:    f7fffacb    ....    BL       getStackedReg ; 0x14c
        0x00000bb6:    9000        ..      STR      r0,[sp,#0]
        0x00000bb8:    4621        !F      MOV      r1,r4
        0x00000bba:    2001        .       MOVS     r0,#1
        0x00000bbc:    f7fffac6    ....    BL       getStackedReg ; 0x14c
        0x00000bc0:    9001        ..      STR      r0,[sp,#4]
        0x00000bc2:    4621        !F      MOV      r1,r4
        0x00000bc4:    2002        .       MOVS     r0,#2
        0x00000bc6:    f7fffac1    ....    BL       getStackedReg ; 0x14c
        0x00000bca:    9002        ..      STR      r0,[sp,#8]
        0x00000bcc:    4621        !F      MOV      r1,r4
        0x00000bce:    2003        .       MOVS     r0,#3
        0x00000bd0:    f7fffabc    ....    BL       getStackedReg ; 0x14c
        0x00000bd4:    9003        ..      STR      r0,[sp,#0xc]
        0x00000bd6:    4621        !F      MOV      r1,r4
        0x00000bd8:    2004        .       MOVS     r0,#4
        0x00000bda:    f7fffab7    ....    BL       getStackedReg ; 0x14c
        0x00000bde:    9004        ..      STR      r0,[sp,#0x10]
        0x00000be0:    4621        !F      MOV      r1,r4
        0x00000be2:    2005        .       MOVS     r0,#5
        0x00000be4:    f7fffab2    ....    BL       getStackedReg ; 0x14c
        0x00000be8:    9005        ..      STR      r0,[sp,#0x14]
        0x00000bea:    4621        !F      MOV      r1,r4
        0x00000bec:    2006        .       MOVS     r0,#6
        0x00000bee:    f7fffaad    ....    BL       getStackedReg ; 0x14c
        0x00000bf2:    9006        ..      STR      r0,[sp,#0x18]
        0x00000bf4:    4621        !F      MOV      r1,r4
        0x00000bf6:    2007        .       MOVS     r0,#7
        0x00000bf8:    f7fffaa8    ....    BL       getStackedReg ; 0x14c
        0x00000bfc:    9007        ..      STR      r0,[sp,#0x1c]
        0x00000bfe:    bf00        ..      NOP      
        0x00000c00:    bf00        ..      NOP      
        0x00000c02:    e7fe        ..      B        0xc02 ; am_util_faultisr_collect_data + 162
    $d
        0x00000c04:    e000ed28    (...    DCD    3758157096
    $t
    i.am_util_stdio_printf
    am_util_stdio_printf
        0x00000c08:    b40f        ..      PUSH     {r0-r3}
        0x00000c0a:    b538        8.      PUSH     {r3-r5,lr}
        0x00000c0c:    a805        ..      ADD      r0,sp,#0x14
        0x00000c0e:    9000        ..      STR      r0,[sp,#0]
        0x00000c10:    4807        .H      LDR      r0,[pc,#28] ; [0xc30] = 0x10000884
        0x00000c12:    9a00        ..      LDR      r2,[sp,#0]
        0x00000c14:    9904        ..      LDR      r1,[sp,#0x10]
        0x00000c16:    f000f815    ....    BL       am_util_stdio_vsprintf ; 0xc44
        0x00000c1a:    4604        .F      MOV      r4,r0
        0x00000c1c:    2000        .       MOVS     r0,#0
        0x00000c1e:    9000        ..      STR      r0,[sp,#0]
        0x00000c20:    4803        .H      LDR      r0,[pc,#12] ; [0xc30] = 0x10000884
        0x00000c22:    4904        .I      LDR      r1,[pc,#16] ; [0xc34] = 0x10000018
        0x00000c24:    6809        .h      LDR      r1,[r1,#0]
        0x00000c26:    4788        .G      BLX      r1
        0x00000c28:    4620         F      MOV      r0,r4
        0x00000c2a:    bc38        8.      POP      {r3-r5}
        0x00000c2c:    f85dfb14    ]...    LDR      pc,[sp],#0x14
    $d
        0x00000c30:    10000884    ....    DCD    268437636
        0x00000c34:    10000018    ....    DCD    268435480
    $t
    i.am_util_stdio_printf_init
    am_util_stdio_printf_init
        0x00000c38:    4901        .I      LDR      r1,[pc,#4] ; [0xc40] = 0x10000018
        0x00000c3a:    6008        .`      STR      r0,[r1,#0]
        0x00000c3c:    4770        pG      BX       lr
    $d
        0x00000c3e:    0000        ..      DCW    0
        0x00000c40:    10000018    ....    DCD    268435480
    $t
    i.am_util_stdio_vsprintf
    am_util_stdio_vsprintf
        0x00000c44:    e92d4ff7    -..O    PUSH     {r0-r2,r4-r11,lr}
        0x00000c48:    ed2d8b02    -...    VPUSH    {d8}
        0x00000c4c:    b08a        ..      SUB      sp,sp,#0x28
        0x00000c4e:    4604        .F      MOV      r4,r0
        0x00000c50:    460d        .F      MOV      r5,r1
        0x00000c52:    2600        .&      MOVS     r6,#0
        0x00000c54:    e182        ..      B        0xf5c ; am_util_stdio_vsprintf + 792
        0x00000c56:    2006        .       MOVS     r0,#6
        0x00000c58:    9004        ..      STR      r0,[sp,#0x10]
        0x00000c5a:    7828        (x      LDRB     r0,[r5,#0]
        0x00000c5c:    2825        %(      CMP      r0,#0x25
        0x00000c5e:    d010        ..      BEQ      0xc82 ; am_util_stdio_vsprintf + 62
        0x00000c60:    b164        d.      CBZ      r4,0xc7c ; am_util_stdio_vsprintf + 56
        0x00000c62:    7828        (x      LDRB     r0,[r5,#0]
        0x00000c64:    280a        .(      CMP      r0,#0xa
        0x00000c66:    d106        ..      BNE      0xc76 ; am_util_stdio_vsprintf + 50
        0x00000c68:    48c2        .H      LDR      r0,[pc,#776] ; [0xf74] = 0x1000001c
        0x00000c6a:    7800        .x      LDRB     r0,[r0,#0]
        0x00000c6c:    b118        ..      CBZ      r0,0xc76 ; am_util_stdio_vsprintf + 50
        0x00000c6e:    200d        .       MOVS     r0,#0xd
        0x00000c70:    f8040b01    ....    STRB     r0,[r4],#1
        0x00000c74:    1c76        v.      ADDS     r6,r6,#1
        0x00000c76:    7828        (x      LDRB     r0,[r5,#0]
        0x00000c78:    f8040b01    ....    STRB     r0,[r4],#1
        0x00000c7c:    1c6d        m.      ADDS     r5,r5,#1
        0x00000c7e:    1c76        v.      ADDS     r6,r6,#1
        0x00000c80:    e16c        l.      B        0xf5c ; am_util_stdio_vsprintf + 792
        0x00000c82:    1c6d        m.      ADDS     r5,r5,#1
        0x00000c84:    2000        .       MOVS     r0,#0
        0x00000c86:    9001        ..      STR      r0,[sp,#4]
        0x00000c88:    9002        ..      STR      r0,[sp,#8]
        0x00000c8a:    f04f0b20    O. .    MOV      r11,#0x20
        0x00000c8e:    7828        (x      LDRB     r0,[r5,#0]
        0x00000c90:    2830        0(      CMP      r0,#0x30
        0x00000c92:    d101        ..      BNE      0xc98 ; am_util_stdio_vsprintf + 84
        0x00000c94:    4683        .F      MOV      r11,r0
        0x00000c96:    1c6d        m.      ADDS     r5,r5,#1
        0x00000c98:    a905        ..      ADD      r1,sp,#0x14
        0x00000c9a:    4628        (F      MOV      r0,r5
        0x00000c9c:    f000fa2a    ..*.    BL       decstr_to_u ; 0x10f4
        0x00000ca0:    4682        .F      MOV      r10,r0
        0x00000ca2:    9805        ..      LDR      r0,[sp,#0x14]
        0x00000ca4:    4405        .D      ADD      r5,r5,r0
        0x00000ca6:    7828        (x      LDRB     r0,[r5,#0]
        0x00000ca8:    282e        .(      CMP      r0,#0x2e
        0x00000caa:    d107        ..      BNE      0xcbc ; am_util_stdio_vsprintf + 120
        0x00000cac:    1c6d        m.      ADDS     r5,r5,#1
        0x00000cae:    a905        ..      ADD      r1,sp,#0x14
        0x00000cb0:    4628        (F      MOV      r0,r5
        0x00000cb2:    f000fa1f    ....    BL       decstr_to_u ; 0x10f4
        0x00000cb6:    9004        ..      STR      r0,[sp,#0x10]
        0x00000cb8:    9805        ..      LDR      r0,[sp,#0x14]
        0x00000cba:    4405        .D      ADD      r5,r5,r0
        0x00000cbc:    7828        (x      LDRB     r0,[r5,#0]
        0x00000cbe:    286c        l(      CMP      r0,#0x6c
        0x00000cc0:    d106        ..      BNE      0xcd0 ; am_util_stdio_vsprintf + 140
        0x00000cc2:    1c6d        m.      ADDS     r5,r5,#1
        0x00000cc4:    7828        (x      LDRB     r0,[r5,#0]
        0x00000cc6:    286c        l(      CMP      r0,#0x6c
        0x00000cc8:    d102        ..      BNE      0xcd0 ; am_util_stdio_vsprintf + 140
        0x00000cca:    1c6d        m.      ADDS     r5,r5,#1
        0x00000ccc:    2001        .       MOVS     r0,#1
        0x00000cce:    9001        ..      STR      r0,[sp,#4]
        0x00000cd0:    7828        (x      LDRB     r0,[r5,#0]
        0x00000cd2:    2866        f(      CMP      r0,#0x66
        0x00000cd4:    d078        x.      BEQ      0xdc8 ; am_util_stdio_vsprintf + 388
        0x00000cd6:    dc08        ..      BGT      0xcea ; am_util_stdio_vsprintf + 166
        0x00000cd8:    2846        F(      CMP      r0,#0x46
        0x00000cda:    d076        v.      BEQ      0xdca ; am_util_stdio_vsprintf + 390
        0x00000cdc:    2858        X(      CMP      r0,#0x58
        0x00000cde:    d031        1.      BEQ      0xd44 ; am_util_stdio_vsprintf + 256
        0x00000ce0:    2863        c(      CMP      r0,#0x63
        0x00000ce2:    d00b        ..      BEQ      0xcfc ; am_util_stdio_vsprintf + 184
        0x00000ce4:    2864        d(      CMP      r0,#0x64
        0x00000ce6:    d171        q.      BNE      0xdcc ; am_util_stdio_vsprintf + 392
        0x00000ce8:    e097        ..      B        0xe1a ; am_util_stdio_vsprintf + 470
        0x00000cea:    2869        i(      CMP      r0,#0x69
        0x00000cec:    d06f        o.      BEQ      0xdce ; am_util_stdio_vsprintf + 394
        0x00000cee:    2873        s(      CMP      r0,#0x73
        0x00000cf0:    d010        ..      BEQ      0xd14 ; am_util_stdio_vsprintf + 208
        0x00000cf2:    2875        u(      CMP      r0,#0x75
        0x00000cf4:    d05a        Z.      BEQ      0xdac ; am_util_stdio_vsprintf + 360
        0x00000cf6:    2878        x(      CMP      r0,#0x78
        0x00000cf8:    d1f5        ..      BNE      0xce6 ; am_util_stdio_vsprintf + 162
        0x00000cfa:    e020         .      B        0xd3e ; am_util_stdio_vsprintf + 250
        0x00000cfc:    980e        ..      LDR      r0,[sp,#0x38]
        0x00000cfe:    f8101b04    ....    LDRB     r1,[r0],#4
        0x00000d02:    900e        ..      STR      r0,[sp,#0x38]
        0x00000d04:    b2c8        ..      UXTB     r0,r1
        0x00000d06:    9003        ..      STR      r0,[sp,#0xc]
        0x00000d08:    b114        ..      CBZ      r4,0xd10 ; am_util_stdio_vsprintf + 204
        0x00000d0a:    9803        ..      LDR      r0,[sp,#0xc]
        0x00000d0c:    f8040b01    ....    STRB     r0,[r4],#1
        0x00000d10:    1c76        v.      ADDS     r6,r6,#1
        0x00000d12:    e120         .      B        0xf56 ; am_util_stdio_vsprintf + 786
        0x00000d14:    980e        ..      LDR      r0,[sp,#0x38]
        0x00000d16:    6800        .h      LDR      r0,[r0,#0]
        0x00000d18:    9008        ..      STR      r0,[sp,#0x20]
        0x00000d1a:    980e        ..      LDR      r0,[sp,#0x38]
        0x00000d1c:    1d00        ..      ADDS     r0,r0,#4
        0x00000d1e:    900e        ..      STR      r0,[sp,#0x38]
        0x00000d20:    e008        ..      B        0xd34 ; am_util_stdio_vsprintf + 240
        0x00000d22:    b11c        ..      CBZ      r4,0xd2c ; am_util_stdio_vsprintf + 232
        0x00000d24:    9808        ..      LDR      r0,[sp,#0x20]
        0x00000d26:    7800        .x      LDRB     r0,[r0,#0]
        0x00000d28:    f8040b01    ....    STRB     r0,[r4],#1
        0x00000d2c:    9808        ..      LDR      r0,[sp,#0x20]
        0x00000d2e:    1c40        @.      ADDS     r0,r0,#1
        0x00000d30:    9008        ..      STR      r0,[sp,#0x20]
        0x00000d32:    1c76        v.      ADDS     r6,r6,#1
        0x00000d34:    9808        ..      LDR      r0,[sp,#0x20]
        0x00000d36:    7800        .x      LDRB     r0,[r0,#0]
        0x00000d38:    2800        .(      CMP      r0,#0
        0x00000d3a:    d1f2        ..      BNE      0xd22 ; am_util_stdio_vsprintf + 222
        0x00000d3c:    e10b        ..      B        0xf56 ; am_util_stdio_vsprintf + 786
        0x00000d3e:    2001        .       MOVS     r0,#1
        0x00000d40:    9002        ..      STR      r0,[sp,#8]
        0x00000d42:    bf00        ..      NOP      
        0x00000d44:    9801        ..      LDR      r0,[sp,#4]
        0x00000d46:    b158        X.      CBZ      r0,0xd60 ; am_util_stdio_vsprintf + 284
        0x00000d48:    980e        ..      LDR      r0,[sp,#0x38]
        0x00000d4a:    1dc0        ..      ADDS     r0,r0,#7
        0x00000d4c:    f0200007     ...    BIC      r0,r0,#7
        0x00000d50:    4601        .F      MOV      r1,r0
        0x00000d52:    900e        ..      STR      r0,[sp,#0x38]
        0x00000d54:    6800        .h      LDR      r0,[r0,#0]
        0x00000d56:    6849        Ih      LDR      r1,[r1,#4]
        0x00000d58:    9a0e        ..      LDR      r2,[sp,#0x38]
        0x00000d5a:    3208        .2      ADDS     r2,r2,#8
        0x00000d5c:    920e        ..      STR      r2,[sp,#0x38]
        0x00000d5e:    e005        ..      B        0xd6c ; am_util_stdio_vsprintf + 296
        0x00000d60:    980e        ..      LDR      r0,[sp,#0x38]
        0x00000d62:    6800        .h      LDR      r0,[r0,#0]
        0x00000d64:    990e        ..      LDR      r1,[sp,#0x38]
        0x00000d66:    1d09        ..      ADDS     r1,r1,#4
        0x00000d68:    910e        ..      STR      r1,[sp,#0x38]
        0x00000d6a:    2100        .!      MOVS     r1,#0
        0x00000d6c:    4607        .F      MOV      r7,r0
        0x00000d6e:    4688        .F      MOV      r8,r1
        0x00000d70:    f1ba0f00    ....    CMP      r10,#0
        0x00000d74:    d00f        ..      BEQ      0xd96 ; am_util_stdio_vsprintf + 338
        0x00000d76:    4638        8F      MOV      r0,r7
        0x00000d78:    4641        AF      MOV      r1,r8
        0x00000d7a:    f000fb25    ..%.    BL       ndigits_in_hex ; 0x13c8
        0x00000d7e:    ebaa0a00    ....    SUB      r10,r10,r0
        0x00000d82:    e003        ..      B        0xd8c ; am_util_stdio_vsprintf + 328
        0x00000d84:    b10c        ..      CBZ      r4,0xd8a ; am_util_stdio_vsprintf + 326
        0x00000d86:    f804bb01    ....    STRB     r11,[r4],#1
        0x00000d8a:    1c76        v.      ADDS     r6,r6,#1
        0x00000d8c:    f1ba0000    ....    SUBS     r0,r10,#0
        0x00000d90:    f1aa0a01    ....    SUB      r10,r10,#1
        0x00000d94:    dcf6        ..      BGT      0xd84 ; am_util_stdio_vsprintf + 320
        0x00000d96:    4622        "F      MOV      r2,r4
        0x00000d98:    4638        8F      MOV      r0,r7
        0x00000d9a:    4641        AF      MOV      r1,r8
        0x00000d9c:    9b02        ..      LDR      r3,[sp,#8]
        0x00000d9e:    f000fc43    ..C.    BL       uint64_to_hexstr ; 0x1628
        0x00000da2:    4681        .F      MOV      r9,r0
        0x00000da4:    b104        ..      CBZ      r4,0xda8 ; am_util_stdio_vsprintf + 356
        0x00000da6:    444c        LD      ADD      r4,r4,r9
        0x00000da8:    444e        ND      ADD      r6,r6,r9
        0x00000daa:    e0d4        ..      B        0xf56 ; am_util_stdio_vsprintf + 786
        0x00000dac:    9801        ..      LDR      r0,[sp,#4]
        0x00000dae:    b178        x.      CBZ      r0,0xdd0 ; am_util_stdio_vsprintf + 396
        0x00000db0:    980e        ..      LDR      r0,[sp,#0x38]
        0x00000db2:    1dc0        ..      ADDS     r0,r0,#7
        0x00000db4:    f0200007     ...    BIC      r0,r0,#7
        0x00000db8:    4601        .F      MOV      r1,r0
        0x00000dba:    900e        ..      STR      r0,[sp,#0x38]
        0x00000dbc:    6800        .h      LDR      r0,[r0,#0]
        0x00000dbe:    6849        Ih      LDR      r1,[r1,#4]
        0x00000dc0:    9a0e        ..      LDR      r2,[sp,#0x38]
        0x00000dc2:    3208        .2      ADDS     r2,r2,#8
        0x00000dc4:    920e        ..      STR      r2,[sp,#0x38]
        0x00000dc6:    e009        ..      B        0xddc ; am_util_stdio_vsprintf + 408
        0x00000dc8:    e08c        ..      B        0xee4 ; am_util_stdio_vsprintf + 672
        0x00000dca:    e08c        ..      B        0xee6 ; am_util_stdio_vsprintf + 674
        0x00000dcc:    e0bd        ..      B        0xf4a ; am_util_stdio_vsprintf + 774
        0x00000dce:    e025        %.      B        0xe1c ; am_util_stdio_vsprintf + 472
        0x00000dd0:    980e        ..      LDR      r0,[sp,#0x38]
        0x00000dd2:    6800        .h      LDR      r0,[r0,#0]
        0x00000dd4:    990e        ..      LDR      r1,[sp,#0x38]
        0x00000dd6:    1d09        ..      ADDS     r1,r1,#4
        0x00000dd8:    910e        ..      STR      r1,[sp,#0x38]
        0x00000dda:    2100        .!      MOVS     r1,#0
        0x00000ddc:    4607        .F      MOV      r7,r0
        0x00000dde:    4688        .F      MOV      r8,r1
        0x00000de0:    f1ba0f00    ....    CMP      r10,#0
        0x00000de4:    d00f        ..      BEQ      0xe06 ; am_util_stdio_vsprintf + 450
        0x00000de6:    4638        8F      MOV      r0,r7
        0x00000de8:    4641        AF      MOV      r1,r8
        0x00000dea:    f000fb19    ....    BL       ndigits_in_u64 ; 0x1420
        0x00000dee:    ebaa0a00    ....    SUB      r10,r10,r0
        0x00000df2:    e003        ..      B        0xdfc ; am_util_stdio_vsprintf + 440
        0x00000df4:    b10c        ..      CBZ      r4,0xdfa ; am_util_stdio_vsprintf + 438
        0x00000df6:    f804bb01    ....    STRB     r11,[r4],#1
        0x00000dfa:    1c76        v.      ADDS     r6,r6,#1
        0x00000dfc:    f1ba0000    ....    SUBS     r0,r10,#0
        0x00000e00:    f1aa0a01    ....    SUB      r10,r10,#1
        0x00000e04:    dcf6        ..      BGT      0xdf4 ; am_util_stdio_vsprintf + 432
        0x00000e06:    4622        "F      MOV      r2,r4
        0x00000e08:    4638        8F      MOV      r0,r7
        0x00000e0a:    4641        AF      MOV      r1,r8
        0x00000e0c:    f000fc51    ..Q.    BL       uint64_to_str ; 0x16b2
        0x00000e10:    4681        .F      MOV      r9,r0
        0x00000e12:    b104        ..      CBZ      r4,0xe16 ; am_util_stdio_vsprintf + 466
        0x00000e14:    444c        LD      ADD      r4,r4,r9
        0x00000e16:    444e        ND      ADD      r6,r6,r9
        0x00000e18:    e09d        ..      B        0xf56 ; am_util_stdio_vsprintf + 786
        0x00000e1a:    bf00        ..      NOP      
        0x00000e1c:    9801        ..      LDR      r0,[sp,#4]
        0x00000e1e:    b158        X.      CBZ      r0,0xe38 ; am_util_stdio_vsprintf + 500
        0x00000e20:    980e        ..      LDR      r0,[sp,#0x38]
        0x00000e22:    1dc0        ..      ADDS     r0,r0,#7
        0x00000e24:    f0200007     ...    BIC      r0,r0,#7
        0x00000e28:    4601        .F      MOV      r1,r0
        0x00000e2a:    900e        ..      STR      r0,[sp,#0x38]
        0x00000e2c:    6800        .h      LDR      r0,[r0,#0]
        0x00000e2e:    6849        Ih      LDR      r1,[r1,#4]
        0x00000e30:    9a0e        ..      LDR      r2,[sp,#0x38]
        0x00000e32:    3208        .2      ADDS     r2,r2,#8
        0x00000e34:    920e        ..      STR      r2,[sp,#0x38]
        0x00000e36:    e005        ..      B        0xe44 ; am_util_stdio_vsprintf + 512
        0x00000e38:    980e        ..      LDR      r0,[sp,#0x38]
        0x00000e3a:    6800        .h      LDR      r0,[r0,#0]
        0x00000e3c:    990e        ..      LDR      r1,[sp,#0x38]
        0x00000e3e:    1d09        ..      ADDS     r1,r1,#4
        0x00000e40:    910e        ..      STR      r1,[sp,#0x38]
        0x00000e42:    17c1        ..      ASRS     r1,r0,#31
        0x00000e44:    e9cd0106    ....    STRD     r0,r1,[sp,#0x18]
        0x00000e48:    2300        .#      MOVS     r3,#0
        0x00000e4a:    e9dd0106    ....    LDRD     r0,r1,[sp,#0x18]
        0x00000e4e:    1ac0        ..      SUBS     r0,r0,r3
        0x00000e50:    4199        .A      SBCS     r1,r1,r3
        0x00000e52:    da08        ..      BGE      0xe66 ; am_util_stdio_vsprintf + 546
        0x00000e54:    2200        ."      MOVS     r2,#0
        0x00000e56:    e9dd1006    ....    LDRD     r1,r0,[sp,#0x18]
        0x00000e5a:    424f        OB      RSBS     r7,r1,#0
        0x00000e5c:    eb620800    b...    SBC      r8,r2,r0
        0x00000e60:    2001        .       MOVS     r0,#1
        0x00000e62:    9000        ..      STR      r0,[sp,#0]
        0x00000e64:    e003        ..      B        0xe6e ; am_util_stdio_vsprintf + 554
        0x00000e66:    e9dd7806    ...x    LDRD     r7,r8,[sp,#0x18]
        0x00000e6a:    2000        .       MOVS     r0,#0
        0x00000e6c:    9000        ..      STR      r0,[sp,#0]
        0x00000e6e:    f1ba0f00    ....    CMP      r10,#0
        0x00000e72:    d026        &.      BEQ      0xec2 ; am_util_stdio_vsprintf + 638
        0x00000e74:    4638        8F      MOV      r0,r7
        0x00000e76:    4641        AF      MOV      r1,r8
        0x00000e78:    f000fac0    ....    BL       ndigits_in_i64 ; 0x13fc
        0x00000e7c:    ebaa0a00    ....    SUB      r10,r10,r0
        0x00000e80:    9800        ..      LDR      r0,[sp,#0]
        0x00000e82:    b148        H.      CBZ      r0,0xe98 ; am_util_stdio_vsprintf + 596
        0x00000e84:    f1aa0a01    ....    SUB      r10,r10,#1
        0x00000e88:    f1bb0f30    ..0.    CMP      r11,#0x30
        0x00000e8c:    d104        ..      BNE      0xe98 ; am_util_stdio_vsprintf + 596
        0x00000e8e:    b114        ..      CBZ      r4,0xe96 ; am_util_stdio_vsprintf + 594
        0x00000e90:    202d        -       MOVS     r0,#0x2d
        0x00000e92:    f8040b01    ....    STRB     r0,[r4],#1
        0x00000e96:    1c76        v.      ADDS     r6,r6,#1
        0x00000e98:    e003        ..      B        0xea2 ; am_util_stdio_vsprintf + 606
        0x00000e9a:    b10c        ..      CBZ      r4,0xea0 ; am_util_stdio_vsprintf + 604
        0x00000e9c:    f804bb01    ....    STRB     r11,[r4],#1
        0x00000ea0:    1c76        v.      ADDS     r6,r6,#1
        0x00000ea2:    f1ba0000    ....    SUBS     r0,r10,#0
        0x00000ea6:    f1aa0a01    ....    SUB      r10,r10,#1
        0x00000eaa:    dcf6        ..      BGT      0xe9a ; am_util_stdio_vsprintf + 598
        0x00000eac:    9800        ..      LDR      r0,[sp,#0]
        0x00000eae:    b178        x.      CBZ      r0,0xed0 ; am_util_stdio_vsprintf + 652
        0x00000eb0:    f1bb0f20    .. .    CMP      r11,#0x20
        0x00000eb4:    d10c        ..      BNE      0xed0 ; am_util_stdio_vsprintf + 652
        0x00000eb6:    b114        ..      CBZ      r4,0xebe ; am_util_stdio_vsprintf + 634
        0x00000eb8:    202d        -       MOVS     r0,#0x2d
        0x00000eba:    f8040b01    ....    STRB     r0,[r4],#1
        0x00000ebe:    1c76        v.      ADDS     r6,r6,#1
        0x00000ec0:    e006        ..      B        0xed0 ; am_util_stdio_vsprintf + 652
        0x00000ec2:    9800        ..      LDR      r0,[sp,#0]
        0x00000ec4:    b120         .      CBZ      r0,0xed0 ; am_util_stdio_vsprintf + 652
        0x00000ec6:    b114        ..      CBZ      r4,0xece ; am_util_stdio_vsprintf + 650
        0x00000ec8:    202d        -       MOVS     r0,#0x2d
        0x00000eca:    f8040b01    ....    STRB     r0,[r4],#1
        0x00000ece:    1c76        v.      ADDS     r6,r6,#1
        0x00000ed0:    4622        "F      MOV      r2,r4
        0x00000ed2:    4638        8F      MOV      r0,r7
        0x00000ed4:    4641        AF      MOV      r1,r8
        0x00000ed6:    f000fbec    ....    BL       uint64_to_str ; 0x16b2
        0x00000eda:    4681        .F      MOV      r9,r0
        0x00000edc:    b104        ..      CBZ      r4,0xee0 ; am_util_stdio_vsprintf + 668
        0x00000ede:    444c        LD      ADD      r4,r4,r9
        0x00000ee0:    444e        ND      ADD      r6,r6,r9
        0x00000ee2:    e038        8.      B        0xf56 ; am_util_stdio_vsprintf + 786
        0x00000ee4:    bf00        ..      NOP      
        0x00000ee6:    b37c        |.      CBZ      r4,0xf48 ; am_util_stdio_vsprintf + 772
        0x00000ee8:    980e        ..      LDR      r0,[sp,#0x38]
        0x00000eea:    1dc0        ..      ADDS     r0,r0,#7
        0x00000eec:    f0200007     ...    BIC      r0,r0,#7
        0x00000ef0:    900e        ..      STR      r0,[sp,#0x38]
        0x00000ef2:    ecb01b02    ....    VLDM     r0!,{d1}
        0x00000ef6:    eeb00a41    ..A.    VMOV.F32 s0,s2
        0x00000efa:    eef00a61    ..a.    VMOV.F32 s1,s3
        0x00000efe:    900e        ..      STR      r0,[sp,#0x38]
        0x00000f00:    ec510b10    Q...    VMOV     r0,r1,d0
        0x00000f04:    f000fc0e    ....    BL       __aeabi_d2f ; 0x1724
        0x00000f08:    ee080a10    ....    VMOV     s16,r0
        0x00000f0c:    2014        .       MOVS     r0,#0x14
        0x00000f0e:    6020         `      STR      r0,[r4,#0]
        0x00000f10:    4620         F      MOV      r0,r4
        0x00000f12:    eeb00a48    ..H.    VMOV.F32 s0,s16
        0x00000f16:    9904        ..      LDR      r1,[sp,#0x10]
        0x00000f18:    f000f968    ..h.    BL       ftoa ; 0x11ec
        0x00000f1c:    4681        .F      MOV      r9,r0
        0x00000f1e:    f1b90f00    ....    CMP      r9,#0
        0x00000f22:    da0e        ..      BGE      0xf42 ; am_util_stdio_vsprintf + 766
        0x00000f24:    f1090101    ....    ADD      r1,r9,#1
        0x00000f28:    b909        ..      CBNZ     r1,0xf2e ; am_util_stdio_vsprintf + 746
        0x00000f2a:    4813        .H      LDR      r0,[pc,#76] ; [0xf78] = 0x302e30
        0x00000f2c:    e005        ..      B        0xf3a ; am_util_stdio_vsprintf + 758
        0x00000f2e:    f1090102    ....    ADD      r1,r9,#2
        0x00000f32:    b909        ..      CBNZ     r1,0xf38 ; am_util_stdio_vsprintf + 756
        0x00000f34:    4811        .H      LDR      r0,[pc,#68] ; [0xf7c] = 0x232e23
        0x00000f36:    e000        ..      B        0xf3a ; am_util_stdio_vsprintf + 758
        0x00000f38:    4811        .H      LDR      r0,[pc,#68] ; [0xf80] = 0x3f2e3f
        0x00000f3a:    6020         `      STR      r0,[r4,#0]
        0x00000f3c:    f04f0903    O...    MOV      r9,#3
        0x00000f40:    bf00        ..      NOP      
        0x00000f42:    444e        ND      ADD      r6,r6,r9
        0x00000f44:    444c        LD      ADD      r4,r4,r9
        0x00000f46:    bf00        ..      NOP      
        0x00000f48:    e005        ..      B        0xf56 ; am_util_stdio_vsprintf + 786
        0x00000f4a:    b114        ..      CBZ      r4,0xf52 ; am_util_stdio_vsprintf + 782
        0x00000f4c:    7828        (x      LDRB     r0,[r5,#0]
        0x00000f4e:    f8040b01    ....    STRB     r0,[r4],#1
        0x00000f52:    1c76        v.      ADDS     r6,r6,#1
        0x00000f54:    bf00        ..      NOP      
        0x00000f56:    bf00        ..      NOP      
        0x00000f58:    1c6d        m.      ADDS     r5,r5,#1
        0x00000f5a:    bf00        ..      NOP      
        0x00000f5c:    7828        (x      LDRB     r0,[r5,#0]
        0x00000f5e:    2800        .(      CMP      r0,#0
        0x00000f60:    f47fae79    ..y.    BNE      0xc56 ; am_util_stdio_vsprintf + 18
        0x00000f64:    b104        ..      CBZ      r4,0xf68 ; am_util_stdio_vsprintf + 804
        0x00000f66:    7020         p      STRB     r0,[r4,#0]
        0x00000f68:    4630        0F      MOV      r0,r6
        0x00000f6a:    b00a        ..      ADD      sp,sp,#0x28
        0x00000f6c:    ecbd8b02    ....    VPOP     {d8}
        0x00000f70:    e8bd8ffe    ....    POP      {r1-r11,pc}
    $d
        0x00000f74:    1000001c    ....    DCD    268435484
        0x00000f78:    00302e30    0.0.    DCD    3157552
        0x00000f7c:    00232e23    #.#.    DCD    2305571
        0x00000f80:    003f2e3f    ?.?.    DCD    4140607
    $t
    i.boot_radio
    boot_radio
        0x00000f84:    b570        p.      PUSH     {r4-r6,lr}
        0x00000f86:    2008        .       MOVS     r0,#8
        0x00000f88:    4917        .I      LDR      r1,[pc,#92] ; [0xfe8] = 0x40010090
        0x00000f8a:    6008        .`      STR      r0,[r1,#0]
        0x00000f8c:    2500        .%      MOVS     r5,#0
        0x00000f8e:    e027        '.      B        0xfe0 ; boot_radio + 92
        0x00000f90:    f44f3000    O..0    MOV      r0,#0x20000
        0x00000f94:    4914        .I      LDR      r1,[pc,#80] ; [0xfe8] = 0x40010090
        0x00000f96:    6008        .`      STR      r0,[r1,#0]
        0x00000f98:    2064        d       MOVS     r0,#0x64
        0x00000f9a:    f7fffdd1    ....    BL       am_util_delay_us ; 0xb40
        0x00000f9e:    f44f3000    O..0    MOV      r0,#0x20000
        0x00000fa2:    4911        .I      LDR      r1,[pc,#68] ; [0xfe8] = 0x40010090
        0x00000fa4:    3990        .9      SUBS     r1,r1,#0x90
        0x00000fa6:    f8c10098    ....    STR      r0,[r1,#0x98]
        0x00000faa:    bf00        ..      NOP      
        0x00000fac:    2073        s       MOVS     r0,#0x73
        0x00000fae:    6608        .f      STR      r0,[r1,#0x60]
        0x00000fb0:    4608        .F      MOV      r0,r1
        0x00000fb2:    6c80        .l      LDR      r0,[r0,#0x48]
        0x00000fb4:    f0200070     .p.    BIC      r0,r0,#0x70
        0x00000fb8:    6488        .d      STR      r0,[r1,#0x48]
        0x00000fba:    4608        .F      MOV      r0,r1
        0x00000fbc:    6900        .i      LDR      r0,[r0,#0x10]
        0x00000fbe:    f420407f     ..@    BIC      r0,r0,#0xff00
        0x00000fc2:    f44050c0    @..P    ORR      r0,r0,#0x1800
        0x00000fc6:    6108        .a      STR      r0,[r1,#0x10]
        0x00000fc8:    2000        .       MOVS     r0,#0
        0x00000fca:    6608        .f      STR      r0,[r1,#0x60]
        0x00000fcc:    bf00        ..      NOP      
        0x00000fce:    f2436190    C..a    MOV      r1,#0x3690
        0x00000fd2:    4806        .H      LDR      r0,[pc,#24] ; [0xfec] = 0x1836
        0x00000fd4:    f7fffa4c    ..L.    BL       am_devices_da14581_uart_boot ; 0x470
        0x00000fd8:    4604        .F      MOV      r4,r0
        0x00000fda:    b904        ..      CBNZ     r4,0xfde ; boot_radio + 90
        0x00000fdc:    bd70        p.      POP      {r4-r6,pc}
        0x00000fde:    1c6d        m.      ADDS     r5,r5,#1
        0x00000fe0:    2d0a        .-      CMP      r5,#0xa
        0x00000fe2:    d3d5        ..      BCC      0xf90 ; boot_radio + 12
        0x00000fe4:    bf00        ..      NOP      
        0x00000fe6:    e7fe        ..      B        0xfe6 ; boot_radio + 98
    $d
        0x00000fe8:    40010090    ...@    DCD    1073807504
        0x00000fec:    00001836    6...    DCD    6198
    $t
    i.configure_radio_pins
    configure_radio_pins
        0x00000ff0:    bf00        ..      NOP      
        0x00000ff2:    2073        s       MOVS     r0,#0x73
        0x00000ff4:    4937        7I      LDR      r1,[pc,#220] ; [0x10d4] = 0x40010000
        0x00000ff6:    6608        .f      STR      r0,[r1,#0x60]
        0x00000ff8:    4608        .F      MOV      r0,r1
        0x00000ffa:    6c00        .l      LDR      r0,[r0,#0x40]
        0x00000ffc:    f0200007     ...    BIC      r0,r0,#7
        0x00001000:    6408        .d      STR      r0,[r1,#0x40]
        0x00001002:    4608        .F      MOV      r0,r1
        0x00001004:    6800        .h      LDR      r0,[r0,#0]
        0x00001006:    f02000ff     ...    BIC      r0,r0,#0xff
        0x0000100a:    f0400010    @...    ORR      r0,r0,#0x10
        0x0000100e:    6008        .`      STR      r0,[r1,#0]
        0x00001010:    2000        .       MOVS     r0,#0
        0x00001012:    6608        .f      STR      r0,[r1,#0x60]
        0x00001014:    bf00        ..      NOP      
        0x00001016:    bf00        ..      NOP      
        0x00001018:    2073        s       MOVS     r0,#0x73
        0x0000101a:    6608        .f      STR      r0,[r1,#0x60]
        0x0000101c:    4608        .F      MOV      r0,r1
        0x0000101e:    6c00        .l      LDR      r0,[r0,#0x40]
        0x00001020:    f0200070     .p.    BIC      r0,r0,#0x70
        0x00001024:    6408        .d      STR      r0,[r1,#0x40]
        0x00001026:    4608        .F      MOV      r0,r1
        0x00001028:    6800        .h      LDR      r0,[r0,#0]
        0x0000102a:    f420407f     ..@    BIC      r0,r0,#0xff00
        0x0000102e:    f4405090    @..P    ORR      r0,r0,#0x1200
        0x00001032:    6008        .`      STR      r0,[r1,#0]
        0x00001034:    2000        .       MOVS     r0,#0
        0x00001036:    6608        .f      STR      r0,[r1,#0x60]
        0x00001038:    bf00        ..      NOP      
        0x0000103a:    bf00        ..      NOP      
        0x0000103c:    2073        s       MOVS     r0,#0x73
        0x0000103e:    6608        .f      STR      r0,[r1,#0x60]
        0x00001040:    4608        .F      MOV      r0,r1
        0x00001042:    6c00        .l      LDR      r0,[r0,#0x40]
        0x00001044:    f42000e0     ...    BIC      r0,r0,#0x700000
        0x00001048:    6408        .d      STR      r0,[r1,#0x40]
        0x0000104a:    4608        .F      MOV      r0,r1
        0x0000104c:    6840        @h      LDR      r0,[r0,#4]
        0x0000104e:    f420407f     ..@    BIC      r0,r0,#0xff00
        0x00001052:    f4405080    @..P    ORR      r0,r0,#0x1000
        0x00001056:    6048        H`      STR      r0,[r1,#4]
        0x00001058:    2000        .       MOVS     r0,#0
        0x0000105a:    6608        .f      STR      r0,[r1,#0x60]
        0x0000105c:    bf00        ..      NOP      
        0x0000105e:    bf00        ..      NOP      
        0x00001060:    2073        s       MOVS     r0,#0x73
        0x00001062:    6608        .f      STR      r0,[r1,#0x60]
        0x00001064:    4608        .F      MOV      r0,r1
        0x00001066:    6c00        .l      LDR      r0,[r0,#0x40]
        0x00001068:    f02060e0     ..`    BIC      r0,r0,#0x7000000
        0x0000106c:    6408        .d      STR      r0,[r1,#0x40]
        0x0000106e:    4608        .F      MOV      r0,r1
        0x00001070:    6840        @h      LDR      r0,[r0,#4]
        0x00001072:    f420007f     ...    BIC      r0,r0,#0xff0000
        0x00001076:    f4401090    @...    ORR      r0,r0,#0x120000
        0x0000107a:    6048        H`      STR      r0,[r1,#4]
        0x0000107c:    2000        .       MOVS     r0,#0
        0x0000107e:    6608        .f      STR      r0,[r1,#0x60]
        0x00001080:    bf00        ..      NOP      
        0x00001082:    bf00        ..      NOP      
        0x00001084:    2073        s       MOVS     r0,#0x73
        0x00001086:    6608        .f      STR      r0,[r1,#0x60]
        0x00001088:    4608        .F      MOV      r0,r1
        0x0000108a:    6c00        .l      LDR      r0,[r0,#0x40]
        0x0000108c:    f42040e0     ..@    BIC      r0,r0,#0x7000
        0x00001090:    f4405000    @..P    ORR      r0,r0,#0x2000
        0x00001094:    6408        .d      STR      r0,[r1,#0x40]
        0x00001096:    4608        .F      MOV      r0,r1
        0x00001098:    6800        .h      LDR      r0,[r0,#0]
        0x0000109a:    f020407f     ..@    BIC      r0,r0,#0xff000000
        0x0000109e:    f0404018    @..@    ORR      r0,r0,#0x98000000
        0x000010a2:    6008        .`      STR      r0,[r1,#0]
        0x000010a4:    2000        .       MOVS     r0,#0
        0x000010a6:    6608        .f      STR      r0,[r1,#0x60]
        0x000010a8:    bf00        ..      NOP      
        0x000010aa:    bf00        ..      NOP      
        0x000010ac:    2073        s       MOVS     r0,#0x73
        0x000010ae:    6608        .f      STR      r0,[r1,#0x60]
        0x000010b0:    4608        .F      MOV      r0,r1
        0x000010b2:    6c80        .l      LDR      r0,[r0,#0x48]
        0x000010b4:    f0200070     .p.    BIC      r0,r0,#0x70
        0x000010b8:    f0400020    @. .    ORR      r0,r0,#0x20
        0x000010bc:    6488        .d      STR      r0,[r1,#0x48]
        0x000010be:    4608        .F      MOV      r0,r1
        0x000010c0:    6900        .i      LDR      r0,[r0,#0x10]
        0x000010c2:    f420407f     ..@    BIC      r0,r0,#0xff00
        0x000010c6:    f44050c0    @..P    ORR      r0,r0,#0x1800
        0x000010ca:    6108        .a      STR      r0,[r1,#0x10]
        0x000010cc:    2000        .       MOVS     r0,#0
        0x000010ce:    6608        .f      STR      r0,[r1,#0x60]
        0x000010d0:    bf00        ..      NOP      
        0x000010d2:    4770        pG      BX       lr
    $d
        0x000010d4:    40010000    ...@    DCD    1073807360
    $t
    i.configure_radio_uart
    configure_radio_uart
        0x000010d8:    b510        ..      PUSH     {r4,lr}
        0x000010da:    f7fffbfd    ....    BL       am_hal_uart_clock_enable ; 0x8d8
        0x000010de:    f7fffc37    ..7.    BL       am_hal_uart_disable ; 0x950
        0x000010e2:    4803        .H      LDR      r0,[pc,#12] ; [0x10f0] = 0x10000004
        0x000010e4:    f7fffc0a    ....    BL       am_hal_uart_config ; 0x8fc
        0x000010e8:    f7fffc3c    ..<.    BL       am_hal_uart_enable ; 0x964
        0x000010ec:    bd10        ..      POP      {r4,pc}
    $d
        0x000010ee:    0000        ..      DCW    0
        0x000010f0:    10000004    ....    DCD    268435460
    $t
    i.decstr_to_u
    decstr_to_u
        0x000010f4:    b510        ..      PUSH     {r4,lr}
        0x000010f6:    4602        .F      MOV      r2,r0
        0x000010f8:    2000        .       MOVS     r0,#0
        0x000010fa:    2300        .#      MOVS     r3,#0
        0x000010fc:    e007        ..      B        0x110e ; decstr_to_u + 26
        0x000010fe:    1c5b        [.      ADDS     r3,r3,#1
        0x00001100:    eb000480    ....    ADD      r4,r0,r0,LSL #2
        0x00001104:    0060        `.      LSLS     r0,r4,#1
        0x00001106:    7814        .x      LDRB     r4,[r2,#0]
        0x00001108:    3c30        0<      SUBS     r4,r4,#0x30
        0x0000110a:    4420         D      ADD      r0,r0,r4
        0x0000110c:    1c52        R.      ADDS     r2,r2,#1
        0x0000110e:    7814        .x      LDRB     r4,[r2,#0]
        0x00001110:    2c30        0,      CMP      r4,#0x30
        0x00001112:    db02        ..      BLT      0x111a ; decstr_to_u + 38
        0x00001114:    7814        .x      LDRB     r4,[r2,#0]
        0x00001116:    2c39        9,      CMP      r4,#0x39
        0x00001118:    ddf1        ..      BLE      0x10fe ; decstr_to_u + 10
        0x0000111a:    b101        ..      CBZ      r1,0x111e ; decstr_to_u + 42
        0x0000111c:    600b        .`      STR      r3,[r1,#0]
        0x0000111e:    bd10        ..      POP      {r4,pc}
    i.divu64_10
    divu64_10
        0x00001120:    e92d4ff0    -..O    PUSH     {r4-r11,lr}
        0x00001124:    4604        .F      MOV      r4,r0
        0x00001126:    460d        .F      MOV      r5,r1
        0x00001128:    2000        .       MOVS     r0,#0
        0x0000112a:    ea850100    ....    EOR      r1,r5,r0
        0x0000112e:    4040        @@      EORS     r0,r0,r0
        0x00001130:    4301        .C      ORRS     r1,r1,r0
        0x00001132:    d044        D.      BEQ      0x11be ; divu64_10 + 158
        0x00001134:    ea5f0a55    _.U.    LSRS     r10,r5,#1
        0x00001138:    ea4f0134    O.4.    RRX      r1,r4
        0x0000113c:    ea4f0b94    O...    LSR      r11,r4,#2
        0x00001140:    ea4b7085    K..p    ORR      r0,r11,r5,LSL #30
        0x00001144:    180a        ..      ADDS     r2,r1,r0
        0x00001146:    eb4a0395    J...    ADC      r3,r10,r5,LSR #2
        0x0000114a:    ea4f1012    O...    LSR      r0,r2,#4
        0x0000114e:    ea407a03    @..z    ORR      r10,r0,r3,LSL #28
        0x00001152:    eb1a0202    ....    ADDS     r2,r10,r2
        0x00001156:    eb431313    C...    ADC      r3,r3,r3,LSR #4
        0x0000115a:    ea4f2012    O..     LSR      r0,r2,#8
        0x0000115e:    ea406a03    @..j    ORR      r10,r0,r3,LSL #24
        0x00001162:    eb1a0202    ....    ADDS     r2,r10,r2
        0x00001166:    eb432313    C..#    ADC      r3,r3,r3,LSR #8
        0x0000116a:    ea4f4012    O..@    LSR      r0,r2,#16
        0x0000116e:    ea404a03    @..J    ORR      r10,r0,r3,LSL #16
        0x00001172:    eb1a0202    ....    ADDS     r2,r10,r2
        0x00001176:    eb434313    C..C    ADC      r3,r3,r3,LSR #16
        0x0000117a:    189a        ..      ADDS     r2,r3,r2
        0x0000117c:    f1430300    C...    ADC      r3,r3,#0
        0x00001180:    08d0        ..      LSRS     r0,r2,#3
        0x00001182:    ea407243    @.Cr    ORR      r2,r0,r3,LSL #29
        0x00001186:    08db        ..      LSRS     r3,r3,#3
        0x00001188:    210a        .!      MOVS     r1,#0xa
        0x0000118a:    f04f0a00    O...    MOV      r10,#0
        0x0000118e:    fba20b01    ....    UMULL    r0,r11,r2,r1
        0x00001192:    fb03b101    ....    MLA      r1,r3,r1,r11
        0x00001196:    fb02110a    ....    MLA      r1,r2,r10,r1
        0x0000119a:    1a26        &.      SUBS     r6,r4,r0
        0x0000119c:    eb650701    e...    SBC      r7,r5,r1
        0x000011a0:    2106        .!      MOVS     r1,#6
        0x000011a2:    eb160a01    ....    ADDS     r10,r6,r1
        0x000011a6:    f1470100    G...    ADC      r1,r7,#0
        0x000011aa:    ea4f101a    O...    LSR      r0,r10,#4
        0x000011ae:    ea407a01    @..z    ORR      r10,r0,r1,LSL #28
        0x000011b2:    eb1a0002    ....    ADDS     r0,r10,r2
        0x000011b6:    eb431111    C...    ADC      r1,r3,r1,LSR #4
        0x000011ba:    e8bd8ff0    ....    POP      {r4-r11,pc}
        0x000011be:    46a0        .F      MOV      r8,r4
        0x000011c0:    ea4f0058    O.X.    LSR      r0,r8,#1
        0x000011c4:    eb000c98    ....    ADD      r12,r0,r8,LSR #2
        0x000011c8:    eb0c1c1c    ....    ADD      r12,r12,r12,LSR #4
        0x000011cc:    eb0c2c1c    ...,    ADD      r12,r12,r12,LSR #8
        0x000011d0:    eb0c4c1c    ...L    ADD      r12,r12,r12,LSR #16
        0x000011d4:    ea4f0cdc    O...    LSR      r12,r12,#3
        0x000011d8:    eb0c008c    ....    ADD      r0,r12,r12,LSL #2
        0x000011dc:    eba80940    ..@.    SUB      r9,r8,r0,LSL #1
        0x000011e0:    f1090006    ....    ADD      r0,r9,#6
        0x000011e4:    eb0c1010    ....    ADD      r0,r12,r0,LSR #4
        0x000011e8:    2100        .!      MOVS     r1,#0
        0x000011ea:    e7e6        ..      B        0x11ba ; divu64_10 + 154
    i.ftoa
    ftoa
        0x000011ec:    e92d4ff0    -..O    PUSH     {r4-r11,lr}
        0x000011f0:    ed2d8b02    -...    VPUSH    {d8}
        0x000011f4:    b081        ..      SUB      sp,sp,#4
        0x000011f6:    eeb08a40    ..@.    VMOV.F32 s16,s0
        0x000011fa:    4604        .F      MOV      r4,r0
        0x000011fc:    468a        .F      MOV      r10,r1
        0x000011fe:    f8d4b000    ....    LDR      r11,[r4,#0]
        0x00001202:    f1bb0f04    ....    CMP      r11,#4
        0x00001206:    da06        ..      BGE      0x1216 ; ftoa + 42
        0x00001208:    f06f0002    o...    MVN      r0,#2
        0x0000120c:    b001        ..      ADD      sp,sp,#4
        0x0000120e:    ecbd8b02    ....    VPOP     {d8}
        0x00001212:    e8bd8ff0    ....    POP      {r4-r11,pc}
        0x00001216:    eeb58ac0    ....    VCMPE.F32 s16,#0.0
        0x0000121a:    eef1fa10    ....    VMRS     APSR_nzcv,FPSCR
        0x0000121e:    d103        ..      BNE      0x1228 ; ftoa + 60
        0x00001220:    4846        FH      LDR      r0,[pc,#280] ; [0x133c] = 0x302e30
        0x00001222:    6020         `      STR      r0,[r4,#0]
        0x00001224:    2003        .       MOVS     r0,#3
        0x00001226:    e7f1        ..      B        0x120c ; ftoa + 32
        0x00001228:    46a1        .F      MOV      r9,r4
        0x0000122a:    ed8d8a00    ....    VSTR     s16,[sp,#0]
        0x0000122e:    9800        ..      LDR      r0,[sp,#0]
        0x00001230:    f3c050c7    ...P    UBFX     r0,r0,#23,#8
        0x00001234:    f1a0057f    ....    SUB      r5,r0,#0x7f
        0x00001238:    9800        ..      LDR      r0,[sp,#0]
        0x0000123a:    f020407f     ..@    BIC      r0,r0,#0xff000000
        0x0000123e:    f4400700    @...    ORR      r7,r0,#0x800000
        0x00001242:    f04f0800    O...    MOV      r8,#0
        0x00001246:    2600        .&      MOVS     r6,#0
        0x00001248:    2d1f        .-      CMP      r5,#0x1f
        0x0000124a:    db01        ..      BLT      0x1250 ; ftoa + 100
        0x0000124c:    1eb0        ..      SUBS     r0,r6,#2
        0x0000124e:    e7dd        ..      B        0x120c ; ftoa + 32
        0x00001250:    f1150f17    ....    CMN      r5,#0x17
        0x00001254:    da02        ..      BGE      0x125c ; ftoa + 112
        0x00001256:    f04f30ff    O..0    MOV      r0,#0xffffffff
        0x0000125a:    e7d7        ..      B        0x120c ; ftoa + 32
        0x0000125c:    2d17        .-      CMP      r5,#0x17
        0x0000125e:    db04        ..      BLT      0x126a ; ftoa + 126
        0x00001260:    f1a50017    ....    SUB      r0,r5,#0x17
        0x00001264:    fa07f600    ....    LSL      r6,r7,r0
        0x00001268:    e011        ..      B        0x128e ; ftoa + 162
        0x0000126a:    2d00        .-      CMP      r5,#0
        0x0000126c:    db09        ..      BLT      0x1282 ; ftoa + 150
        0x0000126e:    f1c50017    ....    RSB      r0,r5,#0x17
        0x00001272:    fa47f600    G...    ASR      r6,r7,r0
        0x00001276:    1c68        h.      ADDS     r0,r5,#1
        0x00001278:    fa07f000    ....    LSL      r0,r7,r0
        0x0000127c:    f020487f     ..H    BIC      r8,r0,#0xff000000
        0x00001280:    e005        ..      B        0x128e ; ftoa + 162
        0x00001282:    f027407f    '..@    BIC      r0,r7,#0xff000000
        0x00001286:    1c69        i.      ADDS     r1,r5,#1
        0x00001288:    4249        IB      RSBS     r1,r1,#0
        0x0000128a:    fa40f801    @...    ASR      r8,r0,r1
        0x0000128e:    9800        ..      LDR      r0,[sp,#0]
        0x00001290:    2800        .(      CMP      r0,#0
        0x00001292:    da02        ..      BGE      0x129a ; ftoa + 174
        0x00001294:    202d        -       MOVS     r0,#0x2d
        0x00001296:    f8040b01    ....    STRB     r0,[r4],#1
        0x0000129a:    b91e        ..      CBNZ     r6,0x12a4 ; ftoa + 184
        0x0000129c:    2030        0       MOVS     r0,#0x30
        0x0000129e:    f8040b01    ....    STRB     r0,[r4],#1
        0x000012a2:    e014        ..      B        0x12ce ; ftoa + 226
        0x000012a4:    2e00        ..      CMP      r6,#0
        0x000012a6:    dd05        ..      BLE      0x12b4 ; ftoa + 200
        0x000012a8:    4622        "F      MOV      r2,r4
        0x000012aa:    4630        0F      MOV      r0,r6
        0x000012ac:    17f1        ..      ASRS     r1,r6,#31
        0x000012ae:    f000fa00    ....    BL       uint64_to_str ; 0x16b2
        0x000012b2:    e007        ..      B        0x12c4 ; ftoa + 216
        0x000012b4:    202d        -       MOVS     r0,#0x2d
        0x000012b6:    f8040b01    ....    STRB     r0,[r4],#1
        0x000012ba:    4622        "F      MOV      r2,r4
        0x000012bc:    4270        pB      RSBS     r0,r6,#0
        0x000012be:    17c1        ..      ASRS     r1,r0,#31
        0x000012c0:    f000f9f7    ....    BL       uint64_to_str ; 0x16b2
        0x000012c4:    e000        ..      B        0x12c8 ; ftoa + 220
        0x000012c6:    1c64        d.      ADDS     r4,r4,#1
        0x000012c8:    7820         x      LDRB     r0,[r4,#0]
        0x000012ca:    2800        .(      CMP      r0,#0
        0x000012cc:    d1fb        ..      BNE      0x12c6 ; ftoa + 218
        0x000012ce:    202e        .       MOVS     r0,#0x2e
        0x000012d0:    f8040b01    ....    STRB     r0,[r4],#1
        0x000012d4:    f1b80f00    ....    CMP      r8,#0
        0x000012d8:    d103        ..      BNE      0x12e2 ; ftoa + 246
        0x000012da:    2030        0       MOVS     r0,#0x30
        0x000012dc:    f8040b01    ....    STRB     r0,[r4],#1
        0x000012e0:    e026        &.      B        0x1330 ; ftoa + 324
        0x000012e2:    eba40209    ....    SUB      r2,r4,r9
        0x000012e6:    ebab0202    ....    SUB      r2,r11,r2
        0x000012ea:    1e51        Q.      SUBS     r1,r2,#1
        0x000012ec:    4551        QE      CMP      r1,r10
        0x000012ee:    dd01        ..      BLE      0x12f4 ; ftoa + 264
        0x000012f0:    4652        RF      MOV      r2,r10
        0x000012f2:    e000        ..      B        0x12f6 ; ftoa + 266
        0x000012f4:    460a        .F      MOV      r2,r1
        0x000012f6:    4611        .F      MOV      r1,r2
        0x000012f8:    2000        .       MOVS     r0,#0
        0x000012fa:    e00b        ..      B        0x1314 ; ftoa + 296
        0x000012fc:    eb080288    ....    ADD      r2,r8,r8,LSL #2
        0x00001300:    ea4f0842    O.B.    LSL      r8,r2,#1
        0x00001304:    2230        0"      MOVS     r2,#0x30
        0x00001306:    eb026228    ..(b    ADD      r2,r2,r8,ASR #24
        0x0000130a:    f8042b01    ...+    STRB     r2,[r4],#1
        0x0000130e:    f028487f    (..H    BIC      r8,r8,#0xff000000
        0x00001312:    1c40        @.      ADDS     r0,r0,#1
        0x00001314:    4288        .B      CMP      r0,r1
        0x00001316:    dbf1        ..      BLT      0x12fc ; ftoa + 272
        0x00001318:    1e64        d.      SUBS     r4,r4,#1
        0x0000131a:    e000        ..      B        0x131e ; ftoa + 306
        0x0000131c:    1e64        d.      SUBS     r4,r4,#1
        0x0000131e:    7822        "x      LDRB     r2,[r4,#0]
        0x00001320:    2a30        0*      CMP      r2,#0x30
        0x00001322:    d103        ..      BNE      0x132c ; ftoa + 320
        0x00001324:    f8142c01    ...,    LDRB     r2,[r4,#-1]
        0x00001328:    2a2e        .*      CMP      r2,#0x2e
        0x0000132a:    d1f7        ..      BNE      0x131c ; ftoa + 304
        0x0000132c:    1c64        d.      ADDS     r4,r4,#1
        0x0000132e:    bf00        ..      NOP      
        0x00001330:    2000        .       MOVS     r0,#0
        0x00001332:    7020         p      STRB     r0,[r4,#0]
        0x00001334:    eba40009    ....    SUB      r0,r4,r9
        0x00001338:    e768        h.      B        0x120c ; ftoa + 32
    $d
        0x0000133a:    0000        ..      DCW    0
        0x0000133c:    00302e30    0.0.    DCD    3157552
    $t
    i.main
    main
        0x00001340:    2000        .       MOVS     r0,#0
        0x00001342:    f7fff9c3    ....    BL       am_hal_clkgen_sysclk_select ; 0x6cc
        0x00001346:    f7feff56    ..V.    BL       __semihosting_library_function ; 0x1f6
        0x0000134a:    2104        .!      MOVS     r1,#4
        0x0000134c:    4819        .H      LDR      r0,[pc,#100] ; [0x13b4] = 0x10000024
        0x0000134e:    f7fff8d5    ....    BL       am_devices_led_array_init ; 0x4fc
        0x00001352:    2100        .!      MOVS     r1,#0
        0x00001354:    4817        .H      LDR      r0,[pc,#92] ; [0x13b4] = 0x10000024
        0x00001356:    f7fff967    ..g.    BL       am_devices_led_on ; 0x628
        0x0000135a:    f7fffe49    ..I.    BL       configure_radio_pins ; 0xff0
        0x0000135e:    f7fffebb    ....    BL       configure_radio_uart ; 0x10d8
        0x00001362:    f7fffe0f    ....    BL       boot_radio ; 0xf84
        0x00001366:    f44f6380    O..c    MOV      r3,#0x400
        0x0000136a:    4a13        .J      LDR      r2,[pc,#76] ; [0x13b8] = 0x10000084
        0x0000136c:    4619        .F      MOV      r1,r3
        0x0000136e:    4813        .H      LDR      r0,[pc,#76] ; [0x13bc] = 0x10000484
        0x00001370:    f7fffb08    ....    BL       am_hal_uart_init_buffered ; 0x984
        0x00001374:    4812        .H      LDR      r0,[pc,#72] ; [0x13c0] = 0xaa5
        0x00001376:    f7fffc5f    .._.    BL       am_util_stdio_printf_init ; 0xc38
        0x0000137a:    f000f86f    ..o.    BL       radio_uart_disable ; 0x145c
        0x0000137e:    f000f92f    ../.    BL       setup_buttons ; 0x15e0
        0x00001382:    e015        ..      B        0x13b0 ; main + 112
        0x00001384:    f7fefeea    ....    BL       am_hal_interrupt_master_disable ; 0x15c
        0x00001388:    2100        .!      MOVS     r1,#0
        0x0000138a:    480a        .H      LDR      r0,[pc,#40] ; [0x13b4] = 0x10000024
        0x0000138c:    f7fff938    ..8.    BL       am_devices_led_off ; 0x600
        0x00001390:    480c        .H      LDR      r0,[pc,#48] ; [0x13c4] = 0x10000000
        0x00001392:    7800        .x      LDRB     r0,[r0,#0]
        0x00001394:    b118        ..      CBZ      r0,0x139e ; main + 94
        0x00001396:    2001        .       MOVS     r0,#1
        0x00001398:    f7fffa62    ..b.    BL       am_hal_sysctrl_sleep ; 0x860
        0x0000139c:    e002        ..      B        0x13a4 ; main + 100
        0x0000139e:    2000        .       MOVS     r0,#0
        0x000013a0:    f7fffa5e    ..^.    BL       am_hal_sysctrl_sleep ; 0x860
        0x000013a4:    2100        .!      MOVS     r1,#0
        0x000013a6:    4803        .H      LDR      r0,[pc,#12] ; [0x13b4] = 0x10000024
        0x000013a8:    f7fff93e    ..>.    BL       am_devices_led_on ; 0x628
        0x000013ac:    f7fefed2    ....    BL       am_hal_interrupt_master_enable ; 0x154
        0x000013b0:    e7e8        ..      B        0x1384 ; main + 68
    $d
        0x000013b2:    0000        ..      DCW    0
        0x000013b4:    10000024    $...    DCD    268435492
        0x000013b8:    10000084    ....    DCD    268435588
        0x000013bc:    10000484    ....    DCD    268436612
        0x000013c0:    00000aa5    ....    DCD    2725
        0x000013c4:    10000000    ....    DCD    268435456
    $t
    i.ndigits_in_hex
    ndigits_in_hex
        0x000013c8:    b530        0.      PUSH     {r4,r5,lr}
        0x000013ca:    4602        .F      MOV      r2,r0
        0x000013cc:    460b        .F      MOV      r3,r1
        0x000013ce:    2400        .$      MOVS     r4,#0
        0x000013d0:    ea820104    ....    EOR      r1,r2,r4
        0x000013d4:    405c        \@      EORS     r4,r4,r3
        0x000013d6:    4321        !C      ORRS     r1,r1,r4
        0x000013d8:    d101        ..      BNE      0x13de ; ndigits_in_hex + 22
        0x000013da:    2101        .!      MOVS     r1,#1
        0x000013dc:    e000        ..      B        0x13e0 ; ndigits_in_hex + 24
        0x000013de:    2100        .!      MOVS     r1,#0
        0x000013e0:    4608        .F      MOV      r0,r1
        0x000013e2:    e004        ..      B        0x13ee ; ndigits_in_hex + 38
        0x000013e4:    0911        ..      LSRS     r1,r2,#4
        0x000013e6:    ea417203    A..r    ORR      r2,r1,r3,LSL #28
        0x000013ea:    091b        ..      LSRS     r3,r3,#4
        0x000013ec:    1c40        @.      ADDS     r0,r0,#1
        0x000013ee:    2400        .$      MOVS     r4,#0
        0x000013f0:    ea820104    ....    EOR      r1,r2,r4
        0x000013f4:    405c        \@      EORS     r4,r4,r3
        0x000013f6:    4321        !C      ORRS     r1,r1,r4
        0x000013f8:    d1f4        ..      BNE      0x13e4 ; ndigits_in_hex + 28
        0x000013fa:    bd30        0.      POP      {r4,r5,pc}
    i.ndigits_in_i64
    ndigits_in_i64
        0x000013fc:    b570        p.      PUSH     {r4-r6,lr}
        0x000013fe:    4604        .F      MOV      r4,r0
        0x00001400:    460d        .F      MOV      r5,r1
        0x00001402:    2100        .!      MOVS     r1,#0
        0x00001404:    4608        .F      MOV      r0,r1
        0x00001406:    1a61        a.      SUBS     r1,r4,r1
        0x00001408:    eb750000    u...    SBCS     r0,r5,r0
        0x0000140c:    da03        ..      BGE      0x1416 ; ndigits_in_i64 + 26
        0x0000140e:    2200        ."      MOVS     r2,#0
        0x00001410:    4264        dB      RSBS     r4,r4,#0
        0x00001412:    eb620505    b...    SBC      r5,r2,r5
        0x00001416:    4620         F      MOV      r0,r4
        0x00001418:    4629        )F      MOV      r1,r5
        0x0000141a:    f000f801    ....    BL       ndigits_in_u64 ; 0x1420
        0x0000141e:    bd70        p.      POP      {r4-r6,pc}
    i.ndigits_in_u64
    ndigits_in_u64
        0x00001420:    b570        p.      PUSH     {r4-r6,lr}
        0x00001422:    4604        .F      MOV      r4,r0
        0x00001424:    460d        .F      MOV      r5,r1
        0x00001426:    2100        .!      MOVS     r1,#0
        0x00001428:    ea840001    ....    EOR      r0,r4,r1
        0x0000142c:    4069        i@      EORS     r1,r1,r5
        0x0000142e:    4308        .C      ORRS     r0,r0,r1
        0x00001430:    d101        ..      BNE      0x1436 ; ndigits_in_u64 + 22
        0x00001432:    2001        .       MOVS     r0,#1
        0x00001434:    e000        ..      B        0x1438 ; ndigits_in_u64 + 24
        0x00001436:    2000        .       MOVS     r0,#0
        0x00001438:    4606        .F      MOV      r6,r0
        0x0000143a:    e006        ..      B        0x144a ; ndigits_in_u64 + 42
        0x0000143c:    4620         F      MOV      r0,r4
        0x0000143e:    4629        )F      MOV      r1,r5
        0x00001440:    f7fffe6e    ..n.    BL       divu64_10 ; 0x1120
        0x00001444:    4604        .F      MOV      r4,r0
        0x00001446:    460d        .F      MOV      r5,r1
        0x00001448:    1c76        v.      ADDS     r6,r6,#1
        0x0000144a:    2100        .!      MOVS     r1,#0
        0x0000144c:    ea840001    ....    EOR      r0,r4,r1
        0x00001450:    4069        i@      EORS     r1,r1,r5
        0x00001452:    4308        .C      ORRS     r0,r0,r1
        0x00001454:    d1f2        ..      BNE      0x143c ; ndigits_in_u64 + 28
        0x00001456:    4630        0F      MOV      r0,r6
        0x00001458:    bd70        p.      POP      {r4-r6,pc}
        0x0000145a:    0000        ..      MOVS     r0,r0
    i.radio_uart_disable
    radio_uart_disable
        0x0000145c:    b510        ..      PUSH     {r4,lr}
        0x0000145e:    2001        .       MOVS     r0,#1
        0x00001460:    492c        ,I      LDR      r1,[pc,#176] ; [0x1514] = 0x10000000
        0x00001462:    7008        .p      STRB     r0,[r1,#0]
        0x00001464:    bf00        ..      NOP      
        0x00001466:    f7fffa87    ....    BL       am_hal_uart_flags_get ; 0x978
        0x0000146a:    f0000008    ....    AND      r0,r0,#8
        0x0000146e:    2800        .(      CMP      r0,#0
        0x00001470:    d1f9        ..      BNE      0x1466 ; radio_uart_disable + 10
        0x00001472:    1e40        @.      SUBS     r0,r0,#1
        0x00001474:    f7fffaaa    ....    BL       am_hal_uart_int_clear ; 0x9cc
        0x00001478:    bf00        ..      NOP      
        0x0000147a:    2073        s       MOVS     r0,#0x73
        0x0000147c:    4926        &I      LDR      r1,[pc,#152] ; [0x1518] = 0x40010000
        0x0000147e:    6608        .f      STR      r0,[r1,#0x60]
        0x00001480:    4608        .F      MOV      r0,r1
        0x00001482:    6c00        .l      LDR      r0,[r0,#0x40]
        0x00001484:    f0200007     ...    BIC      r0,r0,#7
        0x00001488:    6408        .d      STR      r0,[r1,#0x40]
        0x0000148a:    4608        .F      MOV      r0,r1
        0x0000148c:    6800        .h      LDR      r0,[r0,#0]
        0x0000148e:    f02000ff     ...    BIC      r0,r0,#0xff
        0x00001492:    f0400018    @...    ORR      r0,r0,#0x18
        0x00001496:    6008        .`      STR      r0,[r1,#0]
        0x00001498:    2000        .       MOVS     r0,#0
        0x0000149a:    6608        .f      STR      r0,[r1,#0x60]
        0x0000149c:    bf00        ..      NOP      
        0x0000149e:    bf00        ..      NOP      
        0x000014a0:    2073        s       MOVS     r0,#0x73
        0x000014a2:    6608        .f      STR      r0,[r1,#0x60]
        0x000014a4:    4608        .F      MOV      r0,r1
        0x000014a6:    6c00        .l      LDR      r0,[r0,#0x40]
        0x000014a8:    f0200070     .p.    BIC      r0,r0,#0x70
        0x000014ac:    6408        .d      STR      r0,[r1,#0x40]
        0x000014ae:    4608        .F      MOV      r0,r1
        0x000014b0:    6800        .h      LDR      r0,[r0,#0]
        0x000014b2:    f420407f     ..@    BIC      r0,r0,#0xff00
        0x000014b6:    f44050c0    @..P    ORR      r0,r0,#0x1800
        0x000014ba:    6008        .`      STR      r0,[r1,#0]
        0x000014bc:    2000        .       MOVS     r0,#0
        0x000014be:    6608        .f      STR      r0,[r1,#0x60]
        0x000014c0:    bf00        ..      NOP      
        0x000014c2:    bf00        ..      NOP      
        0x000014c4:    2073        s       MOVS     r0,#0x73
        0x000014c6:    6608        .f      STR      r0,[r1,#0x60]
        0x000014c8:    4608        .F      MOV      r0,r1
        0x000014ca:    6c00        .l      LDR      r0,[r0,#0x40]
        0x000014cc:    f42000e0     ...    BIC      r0,r0,#0x700000
        0x000014d0:    6408        .d      STR      r0,[r1,#0x40]
        0x000014d2:    4608        .F      MOV      r0,r1
        0x000014d4:    6840        @h      LDR      r0,[r0,#4]
        0x000014d6:    f420407f     ..@    BIC      r0,r0,#0xff00
        0x000014da:    f44050c0    @..P    ORR      r0,r0,#0x1800
        0x000014de:    6048        H`      STR      r0,[r1,#4]
        0x000014e0:    2000        .       MOVS     r0,#0
        0x000014e2:    6608        .f      STR      r0,[r1,#0x60]
        0x000014e4:    bf00        ..      NOP      
        0x000014e6:    bf00        ..      NOP      
        0x000014e8:    2073        s       MOVS     r0,#0x73
        0x000014ea:    6608        .f      STR      r0,[r1,#0x60]
        0x000014ec:    4608        .F      MOV      r0,r1
        0x000014ee:    6c00        .l      LDR      r0,[r0,#0x40]
        0x000014f0:    f02060e0     ..`    BIC      r0,r0,#0x7000000
        0x000014f4:    6408        .d      STR      r0,[r1,#0x40]
        0x000014f6:    4608        .F      MOV      r0,r1
        0x000014f8:    6840        @h      LDR      r0,[r0,#4]
        0x000014fa:    f420007f     ...    BIC      r0,r0,#0xff0000
        0x000014fe:    f44010c0    @...    ORR      r0,r0,#0x180000
        0x00001502:    6048        H`      STR      r0,[r1,#4]
        0x00001504:    2000        .       MOVS     r0,#0
        0x00001506:    6608        .f      STR      r0,[r1,#0x60]
        0x00001508:    bf00        ..      NOP      
        0x0000150a:    f7fffa21    ..!.    BL       am_hal_uart_disable ; 0x950
        0x0000150e:    f7fff9d5    ....    BL       am_hal_uart_clock_disable ; 0x8bc
        0x00001512:    bd10        ..      POP      {r4,pc}
    $d
        0x00001514:    10000000    ....    DCD    268435456
        0x00001518:    40010000    ...@    DCD    1073807360
    $t
    i.radio_uart_enable
    radio_uart_enable
        0x0000151c:    b510        ..      PUSH     {r4,lr}
        0x0000151e:    2000        .       MOVS     r0,#0
        0x00001520:    492c        ,I      LDR      r1,[pc,#176] ; [0x15d4] = 0x10000000
        0x00001522:    7008        .p      STRB     r0,[r1,#0]
        0x00001524:    bf00        ..      NOP      
        0x00001526:    2073        s       MOVS     r0,#0x73
        0x00001528:    492b        +I      LDR      r1,[pc,#172] ; [0x15d8] = 0x40010000
        0x0000152a:    6608        .f      STR      r0,[r1,#0x60]
        0x0000152c:    4608        .F      MOV      r0,r1
        0x0000152e:    6c00        .l      LDR      r0,[r0,#0x40]
        0x00001530:    f0200007     ...    BIC      r0,r0,#7
        0x00001534:    6408        .d      STR      r0,[r1,#0x40]
        0x00001536:    4608        .F      MOV      r0,r1
        0x00001538:    6800        .h      LDR      r0,[r0,#0]
        0x0000153a:    f02000ff     ...    BIC      r0,r0,#0xff
        0x0000153e:    f0400010    @...    ORR      r0,r0,#0x10
        0x00001542:    6008        .`      STR      r0,[r1,#0]
        0x00001544:    2000        .       MOVS     r0,#0
        0x00001546:    6608        .f      STR      r0,[r1,#0x60]
        0x00001548:    bf00        ..      NOP      
        0x0000154a:    bf00        ..      NOP      
        0x0000154c:    2073        s       MOVS     r0,#0x73
        0x0000154e:    6608        .f      STR      r0,[r1,#0x60]
        0x00001550:    4608        .F      MOV      r0,r1
        0x00001552:    6c00        .l      LDR      r0,[r0,#0x40]
        0x00001554:    f0200070     .p.    BIC      r0,r0,#0x70
        0x00001558:    6408        .d      STR      r0,[r1,#0x40]
        0x0000155a:    4608        .F      MOV      r0,r1
        0x0000155c:    6800        .h      LDR      r0,[r0,#0]
        0x0000155e:    f420407f     ..@    BIC      r0,r0,#0xff00
        0x00001562:    f4405090    @..P    ORR      r0,r0,#0x1200
        0x00001566:    6008        .`      STR      r0,[r1,#0]
        0x00001568:    2000        .       MOVS     r0,#0
        0x0000156a:    6608        .f      STR      r0,[r1,#0x60]
        0x0000156c:    bf00        ..      NOP      
        0x0000156e:    bf00        ..      NOP      
        0x00001570:    2073        s       MOVS     r0,#0x73
        0x00001572:    6608        .f      STR      r0,[r1,#0x60]
        0x00001574:    4608        .F      MOV      r0,r1
        0x00001576:    6c00        .l      LDR      r0,[r0,#0x40]
        0x00001578:    f42000e0     ...    BIC      r0,r0,#0x700000
        0x0000157c:    6408        .d      STR      r0,[r1,#0x40]
        0x0000157e:    4608        .F      MOV      r0,r1
        0x00001580:    6840        @h      LDR      r0,[r0,#4]
        0x00001582:    f420407f     ..@    BIC      r0,r0,#0xff00
        0x00001586:    f4405080    @..P    ORR      r0,r0,#0x1000
        0x0000158a:    6048        H`      STR      r0,[r1,#4]
        0x0000158c:    2000        .       MOVS     r0,#0
        0x0000158e:    6608        .f      STR      r0,[r1,#0x60]
        0x00001590:    bf00        ..      NOP      
        0x00001592:    bf00        ..      NOP      
        0x00001594:    2073        s       MOVS     r0,#0x73
        0x00001596:    6608        .f      STR      r0,[r1,#0x60]
        0x00001598:    4608        .F      MOV      r0,r1
        0x0000159a:    6c00        .l      LDR      r0,[r0,#0x40]
        0x0000159c:    f02060e0     ..`    BIC      r0,r0,#0x7000000
        0x000015a0:    6408        .d      STR      r0,[r1,#0x40]
        0x000015a2:    4608        .F      MOV      r0,r1
        0x000015a4:    6840        @h      LDR      r0,[r0,#4]
        0x000015a6:    f420007f     ...    BIC      r0,r0,#0xff0000
        0x000015aa:    f4401090    @...    ORR      r0,r0,#0x120000
        0x000015ae:    6048        H`      STR      r0,[r1,#4]
        0x000015b0:    2000        .       MOVS     r0,#0
        0x000015b2:    6608        .f      STR      r0,[r1,#0x60]
        0x000015b4:    bf00        ..      NOP      
        0x000015b6:    f7fff98f    ....    BL       am_hal_uart_clock_enable ; 0x8d8
        0x000015ba:    4808        .H      LDR      r0,[pc,#32] ; [0x15dc] = 0x10000004
        0x000015bc:    f7fff99e    ....    BL       am_hal_uart_config ; 0x8fc
        0x000015c0:    f7fff9d0    ....    BL       am_hal_uart_enable ; 0x964
        0x000015c4:    201b        .       MOVS     r0,#0x1b
        0x000015c6:    f7fff8f7    ....    BL       am_hal_interrupt_enable ; 0x7b8
        0x000015ca:    2020                MOVS     r0,#0x20
        0x000015cc:    f7fffa04    ....    BL       am_hal_uart_int_enable ; 0x9d8
        0x000015d0:    bd10        ..      POP      {r4,pc}
    $d
        0x000015d2:    0000        ..      DCW    0
        0x000015d4:    10000000    ....    DCD    268435456
        0x000015d8:    40010000    ...@    DCD    1073807360
        0x000015dc:    10000004    ....    DCD    268435460
    $t
    i.setup_buttons
    setup_buttons
        0x000015e0:    b510        ..      PUSH     {r4,lr}
        0x000015e2:    2104        .!      MOVS     r1,#4
        0x000015e4:    480f        .H      LDR      r0,[pc,#60] ; [0x1624] = 0x10000044
        0x000015e6:    f7fefe3b    ..;.    BL       am_devices_button_array_init ; 0x260
        0x000015ea:    2001        .       MOVS     r0,#1
        0x000015ec:    f7fff830    ..0.    BL       am_hal_clkgen_osc_start ; 0x650
        0x000015f0:    f44f7214    O..r    MOV      r2,#0x250
        0x000015f4:    f64f71ff    O..q    MOV      r1,#0xffff
        0x000015f8:    2000        .       MOVS     r0,#0
        0x000015fa:    f7fff86f    ..o.    BL       am_hal_ctimer_config_single ; 0x6dc
        0x000015fe:    2300        .#      MOVS     r3,#0
        0x00001600:    2214        ."      MOVS     r2,#0x14
        0x00001602:    f64f71ff    O..q    MOV      r1,#0xffff
        0x00001606:    4618        .F      MOV      r0,r3
        0x00001608:    f7fff88c    ....    BL       am_hal_ctimer_period_set ; 0x724
        0x0000160c:    2001        .       MOVS     r0,#1
        0x0000160e:    f7fff87f    ....    BL       am_hal_ctimer_int_enable ; 0x710
        0x00001612:    201a        .       MOVS     r0,#0x1a
        0x00001614:    f7fff8d0    ....    BL       am_hal_interrupt_enable ; 0x7b8
        0x00001618:    f64f71ff    O..q    MOV      r1,#0xffff
        0x0000161c:    2000        .       MOVS     r0,#0
        0x0000161e:    f7fff8bd    ....    BL       am_hal_ctimer_start ; 0x79c
        0x00001622:    bd10        ..      POP      {r4,pc}
    $d
        0x00001624:    10000044    D...    DCD    268435524
    $t
    i.uint64_to_hexstr
    uint64_to_hexstr
        0x00001628:    e92d41f0    -..A    PUSH     {r4-r8,lr}
        0x0000162c:    b085        ..      SUB      sp,sp,#0x14
        0x0000162e:    4604        .F      MOV      r4,r0
        0x00001630:    460d        .F      MOV      r5,r1
        0x00001632:    461e        .F      MOV      r6,r3
        0x00001634:    2100        .!      MOVS     r1,#0
        0x00001636:    468c        .F      MOV      r12,r1
        0x00001638:    ea84070c    ....    EOR      r7,r4,r12
        0x0000163c:    ea850c0c    ....    EOR      r12,r5,r12
        0x00001640:    ea57070c    W...    ORRS     r7,r7,r12
        0x00001644:    d105        ..      BNE      0x1652 ; uint64_to_hexstr + 42
        0x00001646:    f04f0830    O.0.    MOV      r8,#0x30
        0x0000164a:    460f        .F      MOV      r7,r1
        0x0000164c:    1c49        I.      ADDS     r1,r1,#1
        0x0000164e:    f80d8007    ....    STRB     r8,[sp,r7]
        0x00001652:    e016        ..      B        0x1682 ; uint64_to_hexstr + 90
        0x00001654:    270f        .'      MOVS     r7,#0xf
        0x00001656:    4027        '@      ANDS     r7,r7,r4
        0x00001658:    b2fb        ..      UXTB     r3,r7
        0x0000165a:    2b09        .+      CMP      r3,#9
        0x0000165c:    dd05        ..      BLE      0x166a ; uint64_to_hexstr + 66
        0x0000165e:    b10e        ..      CBZ      r6,0x1664 ; uint64_to_hexstr + 60
        0x00001660:    2727        ''      MOVS     r7,#0x27
        0x00001662:    e000        ..      B        0x1666 ; uint64_to_hexstr + 62
        0x00001664:    2707        .'      MOVS     r7,#7
        0x00001666:    441f        .D      ADD      r7,r7,r3
        0x00001668:    b2fb        ..      UXTB     r3,r7
        0x0000166a:    f1030730    ..0.    ADD      r7,r3,#0x30
        0x0000166e:    f00708ff    ....    AND      r8,r7,#0xff
        0x00001672:    460f        .F      MOV      r7,r1
        0x00001674:    1c49        I.      ADDS     r1,r1,#1
        0x00001676:    f80d8007    ....    STRB     r8,[sp,r7]
        0x0000167a:    0927        '.      LSRS     r7,r4,#4
        0x0000167c:    ea477405    G..t    ORR      r4,r7,r5,LSL #28
        0x00001680:    092d        -.      LSRS     r5,r5,#4
        0x00001682:    f04f0c00    O...    MOV      r12,#0
        0x00001686:    ea84070c    ....    EOR      r7,r4,r12
        0x0000168a:    ea850c0c    ....    EOR      r12,r5,r12
        0x0000168e:    ea57070c    W...    ORRS     r7,r7,r12
        0x00001692:    d1df        ..      BNE      0x1654 ; uint64_to_hexstr + 44
        0x00001694:    4608        .F      MOV      r0,r1
        0x00001696:    b14a        J.      CBZ      r2,0x16ac ; uint64_to_hexstr + 132
        0x00001698:    e003        ..      B        0x16a2 ; uint64_to_hexstr + 122
        0x0000169a:    f81d7001    ...p    LDRB     r7,[sp,r1]
        0x0000169e:    f8027b01    ...{    STRB     r7,[r2],#1
        0x000016a2:    000f        ..      MOVS     r7,r1
        0x000016a4:    f1a10101    ....    SUB      r1,r1,#1
        0x000016a8:    d1f7        ..      BNE      0x169a ; uint64_to_hexstr + 114
        0x000016aa:    7017        .p      STRB     r7,[r2,#0]
        0x000016ac:    b005        ..      ADD      sp,sp,#0x14
        0x000016ae:    e8bd81f0    ....    POP      {r4-r8,pc}
    i.uint64_to_str
    uint64_to_str
        0x000016b2:    e92d4ff0    -..O    PUSH     {r4-r11,lr}
        0x000016b6:    b087        ..      SUB      sp,sp,#0x1c
        0x000016b8:    4607        .F      MOV      r7,r0
        0x000016ba:    4688        .F      MOV      r8,r1
        0x000016bc:    4616        .F      MOV      r6,r2
        0x000016be:    f04f0900    O...    MOV      r9,#0
        0x000016c2:    46cb        .F      MOV      r11,r9
        0x000016c4:    bf00        ..      NOP      
        0x000016c6:    4638        8F      MOV      r0,r7
        0x000016c8:    4641        AF      MOV      r1,r8
        0x000016ca:    f7fffd29    ..).    BL       divu64_10 ; 0x1120
        0x000016ce:    4604        .F      MOV      r4,r0
        0x000016d0:    460d        .F      MOV      r5,r1
        0x000016d2:    210a        .!      MOVS     r1,#0xa
        0x000016d4:    fba40101    ....    UMULL    r0,r1,r4,r1
        0x000016d8:    ebb70a00    ....    SUBS     r10,r7,r0
        0x000016dc:    f10a0030    ..0.    ADD      r0,r10,#0x30
        0x000016e0:    b2c2        ..      UXTB     r2,r0
        0x000016e2:    4648        HF      MOV      r0,r9
        0x000016e4:    f1090901    ....    ADD      r9,r9,#1
        0x000016e8:    f80d2000    ...     STRB     r2,[sp,r0]
        0x000016ec:    4627        'F      MOV      r7,r4
        0x000016ee:    46a8        .F      MOV      r8,r5
        0x000016f0:    f04f0200    O...    MOV      r2,#0
        0x000016f4:    ea870002    ....    EOR      r0,r7,r2
        0x000016f8:    ea880102    ....    EOR      r1,r8,r2
        0x000016fc:    4308        .C      ORRS     r0,r0,r1
        0x000016fe:    d1e2        ..      BNE      0x16c6 ; uint64_to_str + 20
        0x00001700:    46cb        .F      MOV      r11,r9
        0x00001702:    b156        V.      CBZ      r6,0x171a ; uint64_to_str + 104
        0x00001704:    e003        ..      B        0x170e ; uint64_to_str + 92
        0x00001706:    f81d0009    ....    LDRB     r0,[sp,r9]
        0x0000170a:    f8060b01    ....    STRB     r0,[r6],#1
        0x0000170e:    ea5f0009    _...    MOVS     r0,r9
        0x00001712:    f1a90901    ....    SUB      r9,r9,#1
        0x00001716:    d1f6        ..      BNE      0x1706 ; uint64_to_str + 84
        0x00001718:    7030        0p      STRB     r0,[r6,#0]
        0x0000171a:    4658        XF      MOV      r0,r11
        0x0000171c:    b007        ..      ADD      sp,sp,#0x1c
        0x0000171e:    e8bd8ff0    ....    POP      {r4-r11,pc}
        0x00001722:    0000        ..      MOVS     r0,r0
    x$fpl$d2f
    $v0
    __aeabi_d2f
    _d2f
        0x00001724:    f0214200    !..B    BIC      r2,r1,#0x80000000
        0x00001728:    f1a25260    ..`R    SUB      r2,r2,#0x38000000
        0x0000172c:    f5b21f80    ....    CMP      r2,#0x100000
        0x00001730:    f0014300    ...C    AND      r3,r1,#0x80000000
        0x00001734:    bf28        (.      IT       CS
        0x00001736:    f1d26c7f    ...l    RSBSCS   r12,r2,#0xff00000
        0x0000173a:    d90b        ..      BLS      0x1754 ; __aeabi_d2f + 48
        0x0000173c:    ea5f1c00    _...    LSLS     r12,r0,#4
        0x00001740:    ea4302c2    C...    ORR      r2,r3,r2,LSL #3
        0x00001744:    eb427050    B.Pp    ADC      r0,r2,r0,LSR #29
        0x00001748:    bf18        ..      IT       NE
        0x0000174a:    4770        pG      BXNE     lr
        0x0000174c:    bf28        (.      IT       CS
        0x0000174e:    f0200001     ...    BICCS    r0,r0,#1
        0x00001752:    4770        pG      BX       lr
        0x00001754:    f5b21f80    ....    CMP      r2,#0x100000
        0x00001758:    bfbc        ..      ITT      LT
        0x0000175a:    4618        .F      MOVLT    r0,r3
        0x0000175c:    4770        pG      BXLT     lr
        0x0000175e:    ea4f0c41    O.A.    LSL      r12,r1,#1
        0x00001762:    f51c1f00    ....    CMN      r12,#0x200000
        0x00001766:    d202        ..      BCS      0x176e ; __aeabi_d2f + 74
        0x00001768:    4608        .F      MOV      r0,r1
        0x0000176a:    f000b85f    .._.    B.W      __fpl_fretinf ; 0x182c
        0x0000176e:    b570        p.      PUSH     {r4-r6,lr}
        0x00001770:    f000f809    ....    BL       __fpl_dnaninf ; 0x1786
    $d
        0x00001774:    89000000    ....    DCD    2298478592
    $t
        0x00001778:    f7ffbff6    ....    B.W      0x1768 ; __aeabi_d2f + 68
        0x0000177c:    f04f4000    O..@    MOV      r0,#0x80000000
        0x00001780:    f5a00080    ....    SUB      r0,r0,#0x400000
        0x00001784:    4770        pG      BX       lr
    x$fpl$dnaninf
    $v0
    __fpl_dnaninf
        0x00001786:    f10e0e02    ....    ADD      lr,lr,#2
        0x0000178a:    f02e0e03    ....    BIC      lr,lr,#3
        0x0000178e:    f85e6b04    ^..k    LDR      r6,[lr],#4
        0x00001792:    4236        6B      TST      r6,r6
        0x00001794:    d405        ..      BMI      0x17a2 ; __fpl_dnaninf + 28
        0x00001796:    2a01        .*      CMP      r2,#1
        0x00001798:    eb430503    C...    ADC      r5,r3,r3
        0x0000179c:    f5151f00    ....    CMN      r5,#0x200000
        0x000017a0:    d812        ..      BHI      0x17c8 ; __fpl_dnaninf + 66
        0x000017a2:    2801        .(      CMP      r0,#1
        0x000017a4:    eb410c01    A...    ADC      r12,r1,r1
        0x000017a8:    f51c1f00    ....    CMN      r12,#0x200000
        0x000017ac:    d80c        ..      BHI      0x17c8 ; __fpl_dnaninf + 66
        0x000017ae:    d10e        ..      BNE      0x17ce ; __fpl_dnaninf + 72
        0x000017b0:    ea4f7cd1    O..|    LSR      r12,r1,#31
        0x000017b4:    f5151f00    ....    CMN      r5,#0x200000
        0x000017b8:    eb0c0c4c    ..L.    ADD      r12,r12,r12,LSL #1
        0x000017bc:    f10c0c02    ....    ADD      r12,r12,#2
        0x000017c0:    bf08        ..      IT       EQ
        0x000017c2:    eb4c7cd3    L..|    ADCEQ    r12,r12,r3,LSR #31
        0x000017c6:    e004        ..      B        0x17d2 ; __fpl_dnaninf + 76
        0x000017c8:    f04f0c08    O...    MOV      r12,#8
        0x000017cc:    e001        ..      B        0x17d2 ; __fpl_dnaninf + 76
        0x000017ce:    ea4f7cd3    O..|    LSR      r12,r3,#31
        0x000017d2:    eb0c054c    ..L.    ADD      r5,r12,r12,LSL #1
        0x000017d6:    fa26f605    &...    LSR      r6,r6,r5
        0x000017da:    f0060607    ....    AND      r6,r6,#7
        0x000017de:    f1b60c04    ....    SUBS     r12,r6,#4
        0x000017e2:    d206        ..      BCS      0x17f2 ; __fpl_dnaninf + 108
        0x000017e4:    eb0e0c86    ....    ADD      r12,lr,r6,LSL #2
        0x000017e8:    e8bd4070    ..p@    POP      {r4-r6,lr}
        0x000017ec:    f04c0c01    L...    ORR      r12,r12,#1
        0x000017f0:    4760        `G      BX       r12
        0x000017f2:    e8dff00c    ....    TBB      [pc,r12]
    $d
        0x000017f6:    0b09        ..      DCW    2825
        0x000017f8:    0202        ..      DCW    514
    $t
        0x000017fa:    f04f4100    O..A    MOV      r1,#0x80000000
        0x000017fe:    f04f0000    O...    MOV      r0,#0
        0x00001802:    f5a12100    ...!    SUB      r1,r1,#0x80000
        0x00001806:    bd70        p.      POP      {r4-r6,pc}
        0x00001808:    4619        .F      MOV      r1,r3
        0x0000180a:    4610        .F      MOV      r0,r2
        0x0000180c:    2801        .(      CMP      r0,#1
        0x0000180e:    eb510401    Q...    ADCS     r4,r1,r1
        0x00001812:    bf18        ..      IT       NE
        0x00001814:    f5d41400    ....    RSBSNE   r4,r4,#0x200000
        0x00001818:    bf84        ..      ITT      HI
        0x0000181a:    2000        .       MOVHI    r0,#0
        0x0000181c:    f0014100    ...A    ANDHI    r1,r1,#0x80000000
        0x00001820:    bd70        p.      POP      {r4-r6,pc}
    x$fpl$fpinit
    $v0
    _fp_init
        0x00001822:    f04f7040    O.@p    MOV      r0,#0x3000000
        0x00001826:    eee10a10    ....    VMSR     FPSCR,r0
    __fplib_config_fpu_vfp
    __fplib_config_pureend_doubles
        0x0000182a:    4770        pG      BX       lr
    x$fpl$fretinf
    $v0
    __fpl_fretinf
        0x0000182c:    21ff        .!      MOVS     r1,#0xff
        0x0000182e:    ea4150d0    A..P    ORR      r0,r1,r0,LSR #23
        0x00001832:    05c0        ..      LSLS     r0,r0,#23
        0x00001834:    4770        pG      BX       lr
    $d.realdata
    .constdata
    x$fpl$usenofp
    __I$use$fp
    g_pui8DspsImage
        0x00001836:    9800        ..      DCW    38912
        0x00001838:    04c92000    . ..    DCD    80289792
        0x0000183c:    04d12000    . ..    DCD    80814080
        0x00001840:    04e92000    . ..    DCD    82386944
        0x00001844:    00002000    . ..    DCD    8192
        0x00001848:    00000000    ....    DCD    0
        0x0000184c:    00000000    ....    DCD    0
        0x00001850:    00000000    ....    DCD    0
        0x00001854:    00000000    ....    DCD    0
        0x00001858:    00000000    ....    DCD    0
        0x0000185c:    00000000    ....    DCD    0
        0x00001860:    05010000    ....    DCD    83951616
        0x00001864:    00002000    . ..    DCD    8192
        0x00001868:    00000000    ....    DCD    0
        0x0000186c:    05190000    ....    DCD    85524480
        0x00001870:    051b2000    . ..    DCD    85663744
        0x00001874:    1ea32000    . ..    DCD    514007040
        0x00001878:    2f352000    . 5/    DCD    792010752
        0x0000187c:    2f3d0003    ..=/    DCD    792526851
        0x00001880:    1f130003    ....    DCD    521338883
        0x00001884:    1f252000    . %.    DCD    522526720
        0x00001888:    2fbd2000    . ./    DCD    800923648
        0x0000188c:    1f5f0003    .._.    DCD    526319619
        0x00001890:    1f672000    . g.    DCD    526852096
        0x00001894:    051d2000    . ..    DCD    85794816
        0x00001898:    051d2000    . ..    DCD    85794816
        0x0000189c:    1f7f2000    . ..    DCD    528424960
        0x000018a0:    2fdd2000    . ./    DCD    803020800
        0x000018a4:    17f50003    ....    DCD    401932291
        0x000018a8:    1aef2000    . ..    DCD    451878912
        0x000018ac:    051d2000    . ..    DCD    85794816
        0x000018b0:    051d2000    . ..    DCD    85794816
        0x000018b4:    051d2000    . ..    DCD    85794816
        0x000018b8:    051d2000    . ..    DCD    85794816
        0x000018bc:    051d2000    . ..    DCD    85794816
        0x000018c0:    16632000    . c.    DCD    375595008
        0x000018c4:    16672000    . g.    DCD    375857152
        0x000018c8:    166b2000    . k.    DCD    376119296
        0x000018cc:    166f2000    . o.    DCD    376381440
        0x000018d0:    16732000    . s.    DCD    376643584
        0x000018d4:    ffff2000    . ..    DCD    4294909952
        0x000018d8:    ffffffff    ....    DCD    4294967295
        0x000018dc:    ffffffff    ....    DCD    4294967295
        0x000018e0:    ffffffff    ....    DCD    4294967295
        0x000018e4:    ffffffff    ....    DCD    4294967295
        0x000018e8:    ffffffff    ....    DCD    4294967295
        0x000018ec:    ffffffff    ....    DCD    4294967295
        0x000018f0:    ffffffff    ....    DCD    4294967295
        0x000018f4:    ffffffff    ....    DCD    4294967295
        0x000018f8:    ffffffff    ....    DCD    4294967295
        0x000018fc:    ffffffff    ....    DCD    4294967295
        0x00001900:    ffffffff    ....    DCD    4294967295
        0x00001904:    ffffffff    ....    DCD    4294967295
        0x00001908:    ffffffff    ....    DCD    4294967295
        0x0000190c:    ffffffff    ....    DCD    4294967295
        0x00001910:    ffffffff    ....    DCD    4294967295
        0x00001914:    ffffffff    ....    DCD    4294967295
        0x00001918:    ffffffff    ....    DCD    4294967295
        0x0000191c:    ffffffff    ....    DCD    4294967295
        0x00001920:    ffffffff    ....    DCD    4294967295
        0x00001924:    ffffffff    ....    DCD    4294967295
        0x00001928:    ffffffff    ....    DCD    4294967295
        0x0000192c:    ffffffff    ....    DCD    4294967295
        0x00001930:    ffffffff    ....    DCD    4294967295
        0x00001934:    ffffffff    ....    DCD    4294967295
        0x00001938:    ffffffff    ....    DCD    4294967295
        0x0000193c:    ffffffff    ....    DCD    4294967295
        0x00001940:    ffffffff    ....    DCD    4294967295
        0x00001944:    ffffffff    ....    DCD    4294967295
        0x00001948:    ffffffff    ....    DCD    4294967295
        0x0000194c:    ffffffff    ....    DCD    4294967295
        0x00001950:    ffffffff    ....    DCD    4294967295
        0x00001954:    ffffffff    ....    DCD    4294967295
        0x00001958:    ffffffff    ....    DCD    4294967295
        0x0000195c:    ffffffff    ....    DCD    4294967295
        0x00001960:    ffffffff    ....    DCD    4294967295
        0x00001964:    ffffffff    ....    DCD    4294967295
        0x00001968:    ffffffff    ....    DCD    4294967295
        0x0000196c:    ffffffff    ....    DCD    4294967295
        0x00001970:    ffffffff    ....    DCD    4294967295
        0x00001974:    ffffffff    ....    DCD    4294967295
        0x00001978:    ffffffff    ....    DCD    4294967295
        0x0000197c:    ffffffff    ....    DCD    4294967295
        0x00001980:    ffffffff    ....    DCD    4294967295
        0x00001984:    ffffffff    ....    DCD    4294967295
        0x00001988:    ffffffff    ....    DCD    4294967295
        0x0000198c:    ffffffff    ....    DCD    4294967295
        0x00001990:    ffffffff    ....    DCD    4294967295
        0x00001994:    0032ffff    ..2.    DCD    3342335
        0x00001998:    06170000    ....    DCD    102170624
        0x0000199c:    0fb32000    . ..    DCD    263397376
        0x000019a0:    208d2000    . .     DCD    546119680
        0x000019a4:    00002000    . ..    DCD    8192
        0x000019a8:    00000000    ....    DCD    0
        0x000019ac:    7da70000    ...}    DCD    2108096512
        0x000019b0:    7e010002    ...~    DCD    2113994754
        0x000019b4:    7e0f0002    ...~    DCD    2114912258
        0x000019b8:    7e4b0002    ..K~    DCD    2118844418
        0x000019bc:    7e690002    ..i~    DCD    2120810498
        0x000019c0:    7e850002    ...~    DCD    2122645506
        0x000019c4:    7ead0002    ...~    DCD    2125266946
        0x000019c8:    1e750002    ..u.    DCD    510984194
        0x000019cc:    05fd2000    . ..    DCD    100474880
        0x000019d0:    0dd52000    . ..    DCD    232071168
        0x000019d4:    0ddf2000    . ..    DCD    232726528
        0x000019d8:    00002000    . ..    DCD    8192
        0x000019dc:    00000000    ....    DCD    0
        0x000019e0:    003f0000    ..?.    DCD    4128768
        0x000019e4:    85f40000    ....    DCD    2247360512
        0x000019e8:    0a002000    . ..    DCD    167780352
        0x000019ec:    0f080000    ....    DCD    252182528
        0x000019f0:    02900008    ....    DCD    42991624
        0x000019f4:    09080000    ....    DCD    151519232
        0x000019f8:    05f40008    ....    DCD    99876872
        0x000019fc:    11a40000    ....    DCD    295960576
        0x00001a00:    08000008    ....    DCD    134217736
        0x00001a04:    00000000    ....    DCD    0
        0x00001a08:    00200000    .. .    DCD    2097152
        0x00001a0c:    00480000    ..H.    DCD    4718592
        0x00001a10:    00580000    ..X.    DCD    5767168
        0x00001a14:    00680000    ..h.    DCD    6815744
        0x00001a18:    03260000    ..&.    DCD    52822016
        0x00001a1c:    033a0000    ..:.    DCD    54132736
        0x00001a20:    034e0000    ..N.    DCD    55443456
        0x00001a24:    03540000    ..T.    DCD    55836672
        0x00001a28:    28d00000    ...(    DCD    684720128
        0x00001a2c:    2e8e0000    ....    DCD    781058048
        0x00001a30:    00010000    ....    DCD    65536
        0x00001a34:    13880000    ....    DCD    327680000
        0x00001a38:    103d0000    ..=.    DCD    272433152
        0x00001a3c:    5d0d2000    . .]    DCD    1561141248
        0x00001a40:    91110002    ....    DCD    2433810434
        0x00001a44:    23570002    ..W#    DCD    592904194
        0x00001a48:    26130003    ...&    DCD    638779395
        0x00001a4c:    71970003    ...q    DCD    1905721347
        0x00001a50:    1cf50002    ....    DCD    485818370
        0x00001a54:    00032000    . ..    DCD    204800
        0x00001a58:    1c2f0000    ../.    DCD    472842240
        0x00001a5c:    20950002    ...     DCD    546635778
        0x00001a60:    00042000    . ..    DCD    270336
        0x00001a64:    45870000    ...E    DCD    1166475264
        0x00001a68:    44bf0002    ...D    DCD    1153368066
        0x00001a6c:    1bf90002    ....    DCD    469303298
        0x00001a70:    8e7b0002    ..{.    DCD    2390425602
        0x00001a74:    8ecf0002    ....    DCD    2395930626
        0x00001a78:    8ed70002    ....    DCD    2396454914
        0x00001a7c:    7f570002    ..W.    DCD    2136408066
        0x00001a80:    7fc50002    ....    DCD    2143617026
        0x00001a84:    34c40002    ...4    DCD    885260290
        0x00001a88:    80bb2000    . ..    DCD    2159747072
        0x00001a8c:    819b0002    ....    DCD    2174418946
        0x00001a90:    82490002    ..I.    DCD    2185822210
        0x00001a94:    82e90002    ....    DCD    2196307970
        0x00001a98:    830d0002    ....    DCD    2198667266
        0x00001a9c:    83730002    ..s.    DCD    2205351938
        0x00001aa0:    83890002    ....    DCD    2206793730
        0x00001aa4:    850b0002    ....    DCD    2232090626
        0x00001aa8:    86310002    ..1.    DCD    2251358210
        0x00001aac:    87330002    ..3.    DCD    2268266498
        0x00001ab0:    89e50002    ....    DCD    2313486338
        0x00001ab4:    8a1f0002    ....    DCD    2317287426
        0x00001ab8:    8d270002    ..'.    DCD    2368143362
        0x00001abc:    8a5b0002    ..[.    DCD    2321219586
        0x00001ac0:    8b3f0002    ..?.    DCD    2336161794
        0x00001ac4:    8c110002    ....    DCD    2349924354
        0x00001ac8:    8c5f0002    .._.    DCD    2355036162
        0x00001acc:    0d5b0002    ..[.    DCD    224067586
        0x00001ad0:    8ced2000    . ..    DCD    2364350464
        0x00001ad4:    4d470002    ..GM    DCD    1296498690
        0x00001ad8:    4d750002    ..uM    DCD    1299513346
        0x00001adc:    4e2f0002    ../N    DCD    1311703042
        0x00001ae0:    00100002    ....    DCD    1048578
        0x00001ae4:    03200000    .. .    DCD    52428800
        0x00001ae8:    3e800000    ...>    DCD    1048576000
        0x00001aec:    003f0000    ..?.    DCD    4128768
        0x00001af0:    000d0000    ....    DCD    851968
        0x00001af4:    00260000    ..&.    DCD    2490368
        0x00001af8:    00000000    ....    DCD    0
        0x00001afc:    00000000    ....    DCD    0
        0x00001b00:    00000000    ....    DCD    0
        0x00001b04:    46500000    ..PF    DCD    1179648000
        0x00001b08:    03000300    ....    DCD    50332416
        0x00001b0c:    00643a98    .:d.    DCD    6568600
        0x00001b10:    0bb801f4    ....    DCD    196608500
        0x00001b14:    0bb80c00    ....    DCD    196611072
        0x00001b18:    00300012    ..0.    DCD    3145746
        0x00001b1c:    00cd0030    0...    DCD    13434928
        0x00001b20:    0012019a    ....    DCD    1180058
        0x00001b24:    00300024    $.0.    DCD    3145764
        0x00001b28:    00b00064    d...    DCD    11534436
        0x00001b2c:    00280018    ..(.    DCD    2621464
        0x00001b30:    00120012    ....    DCD    1179666
        0x00001b34:    000007d0    ....    DCD    2000
        0x00001b38:    0000ffff    ....    DCD    65535
        0x00001b3c:    00000000    ....    DCD    0
        0x00001b40:    00000000    ....    DCD    0
        0x00001b44:    001f0000    ....    DCD    2031616
        0x00001b48:    41440200    ..DA    DCD    1094976000
        0x00001b4c:    38353431    1458    DCD    943010865
        0x00001b50:    00000031    1...    DCD    49
        0x00001b54:    00000000    ....    DCD    0
        0x00001b58:    00000000    ....    DCD    0
        0x00001b5c:    00000000    ....    DCD    0
        0x00001b60:    00000000    ....    DCD    0
        0x00001b64:    00000000    ....    DCD    0
        0x00001b68:    ffff0000    ....    DCD    4294901760
        0x00001b6c:    ffffffff    ....    DCD    4294967295
        0x00001b70:    ffffffff    ....    DCD    4294967295
        0x00001b74:    ffffffff    ....    DCD    4294967295
        0x00001b78:    ffffffff    ....    DCD    4294967295
        0x00001b7c:    ffffffff    ....    DCD    4294967295
        0x00001b80:    ffffffff    ....    DCD    4294967295
        0x00001b84:    ffffffff    ....    DCD    4294967295
        0x00001b88:    c2000001    ....    DCD    3254779905
        0x00001b8c:    00000001    ....    DCD    1
        0x00001b90:    00000000    ....    DCD    0
        0x00001b94:    00000000    ....    DCD    0
        0x00001b98:    000101f4    ....    DCD    66036
        0x00001b9c:    070a1b01    ....    DCD    118102785
        0x00001ba0:    00d2ff1a    ....    DCD    13827866
        0x00001ba4:    5c581502    ..X\    DCD    1549276418
        0x00001ba8:    011b93de    ....    DCD    18584542
        0x00001bac:    139acc42    B...    DCD    328911938
        0x00001bb0:    ed9b0025    %...    DCD    3986358309
        0x00001bb4:    01005ec6    .^..    DCD    16801478
        0x00001bb8:    00c50200    ....    DCD    12911104
        0x00001bbc:    00000000    ....    DCD    0
        0x00001bc0:    6000ff09    ...`    DCD    1610678025
        0x00001bc4:    422d5752    RW-B    DCD    1110267730
        0x00001bc8:    0000454c    LE..    DCD    17740
        0x00001bcc:    00000000    ....    DCD    0
        0x00001bd0:    00000000    ....    DCD    0
        0x00001bd4:    00000000    ....    DCD    0
        0x00001bd8:    00000000    ....    DCD    0
        0x00001bdc:    00000000    ....    DCD    0
        0x00001be0:    34314144    DA14    DCD    875643204
        0x00001be4:    00783835    58x.    DCD    7878709
        0x00001be8:    00000000    ....    DCD    0
        0x00001bec:    00000000    ....    DCD    0
        0x00001bf0:    00000000    ....    DCD    0
        0x00001bf4:    00000000    ....    DCD    0
        0x00001bf8:    00000000    ....    DCD    0
        0x00001bfc:    00000000    ....    DCD    0
        0x00001c00:    00000000    ....    DCD    0
        0x00001c04:    00000000    ....    DCD    0
        0x00001c08:    00000000    ....    DCD    0
        0x00001c0c:    00000000    ....    DCD    0
        0x00001c10:    00000000    ....    DCD    0
        0x00001c14:    00000000    ....    DCD    0
        0x00001c18:    00000000    ....    DCD    0
        0x00001c1c:    00010000    ....    DCD    65536
        0x00001c20:    80eaca00    ....    DCD    2162870784
        0x00001c24:    400607d0    ...@    DCD    1074137040
        0x00001c28:    ffff3264    d2..    DCD    4294914660
        0x00001c2c:    ffffffff    ....    DCD    4294967295
        0x00001c30:    ffffffff    ....    DCD    4294967295
        0x00001c34:    ffffffff    ....    DCD    4294967295
        0x00001c38:    ffffffff    ....    DCD    4294967295
        0x00001c3c:    ffffffff    ....    DCD    4294967295
        0x00001c40:    ffffffff    ....    DCD    4294967295
        0x00001c44:    ffffffff    ....    DCD    4294967295
        0x00001c48:    ffffffff    ....    DCD    4294967295
        0x00001c4c:    ffffffff    ....    DCD    4294967295
        0x00001c50:    ffffffff    ....    DCD    4294967295
        0x00001c54:    ffffffff    ....    DCD    4294967295
        0x00001c58:    ffffffff    ....    DCD    4294967295
        0x00001c5c:    ffffffff    ....    DCD    4294967295
        0x00001c60:    ffffffff    ....    DCD    4294967295
        0x00001c64:    ffffffff    ....    DCD    4294967295
        0x00001c68:    ffffffff    ....    DCD    4294967295
        0x00001c6c:    ffffffff    ....    DCD    4294967295
        0x00001c70:    ffffffff    ....    DCD    4294967295
        0x00001c74:    ffffffff    ....    DCD    4294967295
        0x00001c78:    ffffffff    ....    DCD    4294967295
        0x00001c7c:    ffffffff    ....    DCD    4294967295
        0x00001c80:    ffffffff    ....    DCD    4294967295
        0x00001c84:    4803ffff    ...H    DCD    1208221695
        0x00001c88:    f0024685    .F..    DCD    4026680965
        0x00001c8c:    4800fe78    x..H    DCD    1208024696
        0x00001c90:    1c214700    .G!.    DCD    471942912
        0x00001c94:    98000002    ....    DCD    2550136834
        0x00001c98:    49142000    . .I    DCD    1226055680
        0x00001c9c:    80082006    . ..    DCD    2148016134
        0x00001ca0:    491320ff    . .I    DCD    1225990399
        0x00001ca4:    60083001    .0.`    DCD    1611149313
        0x00001ca8:    07002005    . ..    DCD    117448709
        0x00001cac:    06098a81    ....    DCD    101288577
        0x00001cb0:    8941d5fc    ..A.    DCD    2302793212
        0x00001cb4:    00890889    ....    DCD    8980617
        0x00001cb8:    89418141    A.A.    DCD    2302771521
        0x00001cbc:    d5fc0609    ....    DCD    3590063625
        0x00001cc0:    68914a0d    .J.h    DCD    1754352141
        0x00001cc4:    4399233e    >#.C    DCD    1134109502
        0x00001cc8:    6091312e    .1.`    DCD    1620128046
        0x00001ccc:    80022200    ."..    DCD    2147623424
        0x00001cd0:    230f8a01    ...#    DCD    588220929
        0x00001cd4:    4319021b    ...C    DCD    1125712411
        0x00001cd8:    21018201    ...!    DCD    553746945
        0x00001cdc:    04c94807    .H..    DCD    80300039
        0x00001ce0:    1e40c104    ..@.    DCD    507560196
        0x00001ce4:    dafb2800    .(..    DCD    3673892864
        0x00001ce8:    4770b662    b.pG    DCD    1198569058
        0x00001cec:    34000000    ...4    DCD    872415232
        0x00001cf0:    e1805000    .P..    DCD    3783282688
        0x00001cf4:    3300e000    ...3    DCD    855695360
        0x00001cf8:    0bff5000    .P..    DCD    201281536
        0x00001cfc:    48150000    ...H    DCD    1209335808
        0x00001d00:    48154780    .G.H    DCD    1209354112
        0x00001d04:    20044700    .G.     DCD    537151232
        0x00001d08:    42084671    qF.B    DCD    1107838577
        0x00001d0c:    f3efd003    ....    DCD    4092579843
        0x00001d10:    49128009    ...I    DCD    1225949193
        0x00001d14:    f3ef4708    .G..    DCD    4092544776
        0x00001d18:    49108008    ...I    DCD    1225818120
        0x00001d1c:    20044708    .G.     DCD    537151240
        0x00001d20:    42084671    qF.B    DCD    1107838577
        0x00001d24:    f3efd003    ....    DCD    4092579843
        0x00001d28:    490d8009    ...I    DCD    1225621513
        0x00001d2c:    f3ef4708    .G..    DCD    4092544776
        0x00001d30:    490b8008    ...I    DCD    1225490440
        0x00001d34:    20044708    .G.     DCD    537151240
        0x00001d38:    42084671    qF.B    DCD    1107838577
        0x00001d3c:    f3efd003    ....    DCD    4092579843
        0x00001d40:    49088009    ...I    DCD    1225293833
        0x00001d44:    f3ef4708    .G..    DCD    4092544776
        0x00001d48:    49068008    ...I    DCD    1225162760
        0x00001d4c:    e7fe4708    .G..    DCD    3892201224
        0x00001d50:    e7fee7fe    ....    DCD    3892242430
        0x00001d54:    04650000    ..e.    DCD    73728000
        0x00001d58:    04512000    . Q.    DCD    72425472
        0x00001d5c:    0a012000    . ..    DCD    167845888
        0x00001d60:    05352000    . 5.    DCD    87367680
        0x00001d64:    05cb2000    . ..    DCD    97198080
        0x00001d68:    22052000    . ."    DCD    570761216
        0x00001d6c:    8a510712    ..Q.    DCD    2320566034
        0x00001d70:    43192380    .#.C    DCD    1125720960
        0x00001d74:    49128251    Q..I    DCD    1225949777
        0x00001d78:    600b6803    .h.`    DCD    1611360259
        0x00001d7c:    604b6843    ChK`    DCD    1615554627
        0x00001d80:    608b6883    .h.`    DCD    1619748995
        0x00001d84:    60cb68c3    .h.`    DCD    1623943363
        0x00001d88:    610b6903    .i.a    DCD    1628137731
        0x00001d8c:    614b6943    CiKa    DCD    1632332099
        0x00001d90:    618b6983    .i.a    DCD    1636526467
        0x00001d94:    61cb69c3    .i.a    DCD    1640720835
        0x00001d98:    480a6208    .b.H    DCD    1208640008
        0x00001d9c:    624b6a83    .jKb    DCD    1649109635
        0x00001da0:    628b6ac3    .j.b    DCD    1653304003
        0x00001da4:    62cb6b03    .k.b    DCD    1657498371
        0x00001da8:    630b6bc3    .k.c    DCD    1661692867
        0x00001dac:    634b6b43    CkKc    DCD    1665887043
        0x00001db0:    63886b80    .k.c    DCD    1669884800
        0x00001db4:    06808a90    ....    DCD    109087376
        0x00001db8:    be00d501    ....    DCD    3187725569
        0x00001dbc:    e7fe4770    pG..    DCD    3892201328
        0x00001dc0:    18000000    ....    DCD    402653184
        0x00001dc4:    ed000008    ....    DCD    3976200200
        0x00001dc8:    b5ffe000    ....    DCD    3053445120
        0x00001dcc:    461eb081    ...F    DCD    1176416385
        0x00001dd0:    460f4614    .F.F    DCD    1175406100
        0x00001dd4:    46100a15    ...F    DCD    1175456277
        0x00001dd8:    fde3f002    ....    DCD    4259573762
        0x00001ddc:    d00d2800    .(..    DCD    3490523136
        0x00001de0:    00a849b8    .I..    DCD    11028920
        0x00001de4:    7bc05808    .X.{    DCD    2076203016
        0x00001de8:    d0072800    .(..    DCD    3490129920
        0x00001dec:    46224633    3F"F    DCD    1176651315
        0x00001df0:    98014639    9F..    DCD    2550220345
        0x00001df4:    fddbf002    ....    DCD    4259049474
        0x00001df8:    bdf0b005    ....    DCD    3186667525
        0x00001dfc:    e7fb2000    . ..    DCD    3891994624
        0x00001e00:    39206981    .i 9    DCD    958425473
        0x00001e04:    29027f89    ...)    DCD    688029577
        0x00001e08:    4aaed204    ...J    DCD    1252971012
        0x00001e0c:    58510089    ..QX    DCD    1481703561
        0x00001e10:    47706181    .apG    DCD    1198547329
        0x00001e14:    48ade7fe    ...H    DCD    1219356670
        0x00001e18:    610149ac    .I.a    DCD    1627474348
        0x00001e1c:    614149ad    .IAa    DCD    1631668653
        0x00001e20:    618149ad    .I.a    DCD    1635862957
        0x00001e24:    61c149ad    .I.a    DCD    1640057261
        0x00001e28:    620149ad    .I.b    DCD    1644251565
        0x00001e2c:    624149ad    .IAb    DCD    1648445869
        0x00001e30:    b5104770    pG..    DCD    3037742960
        0x00001e34:    200049ac    .I.     DCD    536889772
        0x00001e38:    f0006008    .`..    DCD    4026556424
        0x00001e3c:    2001fba4    ...     DCD    537000868
        0x00001e40:    6b010780    ...k    DCD    1795229568
        0x00001e44:    08490049    I.I.    DCD    139001929
        0x00001e48:    bd106301    .c..    DCD    3171967745
        0x00001e4c:    49a6b51c    ...I    DCD    1235662108
        0x00001e50:    70082001    . .p    DCD    1879580673
        0x00001e54:    200849a6    .I.     DCD    537414054
        0x00001e58:    24058008    ...$    DCD    604340232
        0x00001e5c:    88600724    $.`.    DCD    2287994660
        0x00001e60:    25044ea4    .N.%    DCD    621039268
        0x00001e64:    d1232800    .(#.    DCD    3508742144
        0x00001e68:    21018870    p..!    DCD    553748592
        0x00001e6c:    80704308    .Cp.    DCD    2154840840
        0x00001e70:    90012000    . ..    DCD    2415992832
        0x00001e74:    90011c40    @...    DCD    2415991872
        0x00001e78:    dbfb2814    .(..    DCD    3690670100
        0x00001e7c:    08808960    `...    DCD    142641504
        0x00001e80:    1c400080    ..@.    DCD    473956480
        0x00001e84:    89608160    `.`.    DCD    2304803168
        0x00001e88:    d5fc0640    @...    DCD    3590063680
        0x00001e8c:    43288960    `.(C    DCD    1126730080
        0x00001e90:    48988160    `..H    DCD    1217954144
        0x00001e94:    89608060    `.`.    DCD    2304802912
        0x00001e98:    816043a8    .C`.    DCD    2170569640
        0x00001e9c:    06008aa0    ....    DCD    100698784
        0x00001ea0:    8960d5fc    ..`.    DCD    2304824828
        0x00001ea4:    00800880    ....    DCD    8390784
        0x00001ea8:    89608160    `.`.    DCD    2304803168
        0x00001eac:    d5fc0600    ....    DCD    3590063616
        0x00001eb0:    fd83f002    ....    DCD    4253282306
        0x00001eb4:    fd6ff000    ..o.    DCD    4251971584
        0x00001eb8:    fa95f000    ....    DCD    4204130304
        0x00001ebc:    7800488f    .H.x    DCD    2013284495
        0x00001ec0:    7008498e    .I.p    DCD    1879591310
        0x00001ec4:    7800488e    .H.x    DCD    2013284494
        0x00001ec8:    7008498d    .I.p    DCD    1879591309
        0x00001ecc:    f0022001    . ..    DCD    4026671105
        0x00001ed0:    21fffd7a    z..!    DCD    570424698
        0x00001ed4:    31012035    5 .1    DCD    822157365
        0x00001ed8:    f0020100    ....    DCD    4026663168
        0x00001edc:    f001fd7a    z...    DCD    4026662266
        0x00001ee0:    f000fb40    @...    DCD    4026596160
        0x00001ee4:    f000fbea    ....    DCD    4026596330
        0x00001ee8:    2004fac8    ...     DCD    537197256
        0x00001eec:    f8e1f000    ....    DCD    4175556608
        0x00001ef0:    f0002007    . ..    DCD    4026540039
        0x00001ef4:    200af8de    ...     DCD    537589982
        0x00001ef8:    f8dbf000    ....    DCD    4175163392
        0x00001efc:    f0002006    . ..    DCD    4026540038
        0x00001f00:    200bf8d8    ...     DCD    537655512
        0x00001f04:    f8d5f000    ....    DCD    4174770176
        0x00001f08:    f0002001    . ..    DCD    4026540033
        0x00001f0c:    2002f8d2    ...     DCD    537065682
        0x00001f10:    f8cff000    ....    DCD    4174376960
        0x00001f14:    f0002000    . ..    DCD    4026540032
        0x00001f18:    4879f8cc    ..yH    DCD    1215953100
        0x00001f1c:    f0026800    .h..    DCD    4026689536
        0x00001f20:    2001fd5e    ^..     DCD    537001310
        0x00001f24:    68000780    ...h    DCD    1744832384
        0x00001f28:    310121ff    .!.1    DCD    822157823
        0x00001f2c:    05894308    .C..    DCD    92881672
        0x00001f30:    f0006008    .`..    DCD    4026556424
        0x00001f34:    4973f905    ..sI    DCD    1232337157
        0x00001f38:    22ff69c8    .i."    DCD    587164104
        0x00001f3c:    27020412    ...'    DCD    654443538
        0x00001f40:    057a4390    .Cz.    DCD    91898768
        0x00001f44:    61c84310    .C.a    DCD    1640514320
        0x00001f48:    ff1ff001    ....    DCD    4280283137
        0x00001f4c:    ff71f7ff    ..q.    DCD    4285659135
        0x00001f50:    82e020a2    . ..    DCD    2195726498
        0x00001f54:    21e08870    p..!    DCD    568363120
        0x00001f58:    30a04388    .C.0    DCD    815809416
        0x00001f5c:    20018070    p..     DCD    536969328
        0x00001f60:    fd43f002    ..C.    DCD    4249088002
        0x00001f64:    06008920     ...    DCD    100698400
        0x00001f68:    2001d51b    ...     DCD    536991003
        0x00001f6c:    6b000780    ...k    DCD    1795164032
        0x00001f70:    d4160400    ....    DCD    3558212608
        0x00001f74:    fd3ff002    ..?.    DCD    4248825858
        0x00001f78:    d11207c0    ....    DCD    3507619776
        0x00001f7c:    f0022004    . ..    DCD    4026671108
        0x00001f80:    9001fd40    @...    DCD    2416049472
        0x00001f84:    fd43f002    ..C.    DCD    4249088002
        0x00001f88:    28009801    ...(    DCD    671127553
        0x00001f8c:    2000d009    ...     DCD    536924169
        0x00001f90:    21049001    ...!    DCD    553947137
        0x00001f94:    f002a801    ....    DCD    4026705921
        0x00001f98:    2800fd40    @..(    DCD    671153472
        0x00001f9c:    f000d001    ....    DCD    4026585089
        0x00001fa0:    4859fb05    ..YH    DCD    1213856517
        0x00001fa4:    29007801    .x.)    DCD    687896577
        0x00001fa8:    2100d001    ...!    DCD    553701377
        0x00001fac:    f0027001    .p..    DCD    4026691585
        0x00001fb0:    b672fa14    ..r.    DCD    3060988436
        0x00001fb4:    fac9f002    ....    DCD    4207538178
        0x00001fb8:    faf9f001    ....    DCD    4210683905
        0x00001fbc:    70084669    iF.p    DCD    1879590505
        0x00001fc0:    d0062804    .(..    DCD    3490064388
        0x00001fc4:    d00c2802    .(..    DCD    3490457602
        0x00001fc8:    d00a2803    .(..    DCD    3490326531
        0x00001fcc:    d06d2801    .(m.    DCD    3496814593
        0x00001fd0:    484ee06d    m.NH    DCD    1213128813
        0x00001fd4:    28017800    .x.(    DCD    671184896
        0x00001fd8:    2003d002    ...     DCD    537120770
        0x00001fdc:    e0007008    .p..    DCD    3758125064
        0x00001fe0:    8a20700f    .p .    DCD    2317381647
        0x00001fe4:    82204328    (C .    DCD    2183152424
        0x00001fe8:    69c0484a    JH.i    DCD    1774209098
        0x00001fec:    78082801    .(.x    DCD    2013800449
        0x00001ff0:    2803d911    ...(    DCD    671340817
        0x00001ff4:    f002d148    H...    DCD    4026716488
        0x00001ff8:    2800fd16    ...(    DCD    671153430
        0x00001ffc:    f002d044    D...    DCD    4026716228
        0x00002000:    2800fd18    ...(    DCD    671153432
        0x00002004:    2003d040    @..     DCD    537120832
        0x00002008:    fd19f002    ....    DCD    4246335490
        0x0000200c:    d03b2800    .(;.    DCD    3493537792
        0x00002010:    70074841    AH.p    DCD    1879525441
        0x00002014:    2803e008    ...(    DCD    671342600
        0x00002018:    f002d136    6...    DCD    4026716470
        0x0000201c:    2800fd10    ...(    DCD    671153424
        0x00002020:    483cd032    2.<H    DCD    1211945010
        0x00002024:    70012101    .!.p    DCD    1879122177
        0x00002028:    1f004837    7H..    DCD    520112183
        0x0000202c:    43296901    .i)C    DCD    1126787329
        0x00002030:    8a616101    .aa.    DCD    2321637633
        0x00002034:    43912220     ".C    DCD    1133584928
        0x00002038:    8a218261    a.!.    DCD    2317451873
        0x0000203c:    82214339    9C!.    DCD    2183217977
        0x00002040:    780a4669    iF.x    DCD    2013939305
        0x00002044:    2a028a61    a..*    DCD    704809569
        0x00002048:    4329d020     .)C    DCD    1126813728
        0x0000204c:    217f8261    a..!    DCD    562004577
        0x00002050:    88230189    ..#.    DCD    2283995529
        0x00002054:    2180468c    .F.!    DCD    562054796
        0x00002058:    8023430b    .C#.    DCD    2149794571
        0x0000205c:    1c492100    .!I.    DCD    474554624
        0x00002060:    290ab2c9    ...)    DCD    688566985
        0x00002064:    8a63d3fb    ..c.    DCD    2321798139
        0x00002068:    430b2110    .!.C    DCD    1124802832
        0x0000206c:    46618263    c.aF    DCD    1180795491
        0x00002070:    1e494b2a    *KI.    DCD    508119850
        0x00002074:    88216159    Ya!.    DCD    2283888985
        0x00002078:    43992380    .#.C    DCD    1134109568
        0x0000207c:    2a028021    !..*    DCD    704806945
        0x00002080:    2a03d00a    ...*    DCD    704892938
        0x00002084:    e00cd008    ....    DCD    3758936072
        0x00002088:    e7c24668    hF..    DCD    3888268904
        0x0000208c:    82614329    )Ca.    DCD    2187412265
        0x00002090:    22108a61    a.."    DCD    571509345
        0x00002094:    82614391    .Ca.    DCD    2187412369
        0x00002098:    22ff8871    q.."    DCD    587171953
        0x0000209c:    43913201    .2.C    DCD    1133588993
        0x000020a0:    bf308071    q.0.    DCD    3207626865
        0x000020a4:    43a96901    .i.C    DCD    1135175937
        0x000020a8:    e0006101    .a..    DCD    3758121217
        0x000020ac:    b662bf30    0.b.    DCD    3059924784
        0x000020b0:    06c1e758    X...    DCD    113370968
        0x000020b4:    20010ec9    ...     DCD    536940233
        0x000020b8:    49184088    .@.I    DCD    1226326152
        0x000020bc:    47706008    .`pG    DCD    1198546952
        0x000020c0:    06c00000    ....    DCD    113246208
        0x000020c4:    34bc0008    ...4    DCD    884736008
        0x000020c8:    4b1c2000    . .K    DCD    1260134400
        0x000020cc:    84000002    ....    DCD    2214592514
        0x000020d0:    df014000    .@..    DCD    3741401088
        0x000020d4:    a8c4b5ff    ....    DCD    2831463935
        0x000020d8:    df000002    ....    DCD    3741319170
        0x000020dc:    457cb5f8    ..|E    DCD    1165800952
        0x000020e0:    05950003    ....    DCD    93650947
        0x000020e4:    04fc2000    . ..    DCD    83632128
        0x000020e8:    80000008    ....    DCD    2147483656
        0x000020ec:    33002000    . .3    DCD    855646208
        0x000020f0:    00205000    .P .    DCD    2117632
        0x000020f4:    05165000    .P..    DCD    85348352
        0x000020f8:    00000000    ....    DCD    0
        0x000020fc:    28d00008    ...(    DCD    684720136
        0x00002100:    90200008    .. .    DCD    2418016264
        0x00002104:    ed042000    . ..    DCD    3976470528
        0x00002108:    807ae000    ..z.    DCD    2155536384
        0x0000210c:    03782000    . x.    DCD    58204160
        0x00002110:    01e00008    ....    DCD    31457288
        0x00002114:    07b02000    . ..    DCD    128983040
        0x00002118:    80000008    ....    DCD    2147483656
        0x0000211c:    e2804000    .@..    DCD    3800055808
        0x00002120:    4770e000    ..pG    DCD    1198579712
        0x00002124:    483e0000    ..>H    DCD    1212022784
        0x00002128:    29007801    .x.)    DCD    687896577
        0x0000212c:    2180d002    ...!    DCD    562089986
        0x00002130:    47707041    AppG    DCD    1198551105
        0x00002134:    2000493c    <I.     DCD    536889660
        0x00002138:    493b7008    .p;I    DCD    1228632072
        0x0000213c:    477070c8    .ppG    DCD    1198551240
        0x00002140:    78014838    8H.x    DCD    2013349944
        0x00002144:    d0022900    .)..    DCD    3489802496
        0x00002148:    70412181    .!Ap    DCD    1883316609
        0x0000214c:    49354770    pG5I    DCD    1228228464
        0x00002150:    70082001    . .p    DCD    1879580673
        0x00002154:    70c84935    5I.p    DCD    1892174133
        0x00002158:    48314770    pG1H    DCD    1211189104
        0x0000215c:    29007801    .x.)    DCD    687896577
        0x00002160:    2182d002    ...!    DCD    562221058
        0x00002164:    47707041    AppG    DCD    1198551105
        0x00002168:    2002492f    /I.     DCD    537020719
        0x0000216c:    492e7008    .p.I    DCD    1227780104
        0x00002170:    70c82001    . .p    DCD    1892163585
        0x00002174:    482a4770    pG*H    DCD    1210730352
        0x00002178:    29007881    .x.)    DCD    687896705
        0x0000217c:    1e49d004    ..I.    DCD    508153860
        0x00002180:    0e090609    ....    DCD    235472393
        0x00002184:    d1177081    .p..    DCD    3507974273
        0x00002188:    21007842    Bx.!    DCD    553678914
        0x0000218c:    d0042a00    .*..    DCD    3489933824
        0x00002190:    0f920792    ....    DCD    261228434
        0x00002194:    70417002    .pAp    DCD    1883336706
        0x00002198:    7802e004    ...x    DCD    2013454340
        0x0000219c:    d0012a00    .*..    DCD    3489737216
        0x000021a0:    70021e52    R..p    DCD    1879187026
        0x000021a4:    0e120612    ....    DCD    236062226
        0x000021a8:    d0057001    .p..    DCD    3490017281
        0x000021ac:    d0022a01    .*..    DCD    3489802753
        0x000021b0:    d1012a02    .*..    DCD    3506514434
        0x000021b4:    e7c3e7d1    ....    DCD    3888375761
        0x000021b8:    b5104770    pG..    DCD    3037742960
        0x000021bc:    78a04c19    .L.x    DCD    2023771161
        0x000021c0:    70a01c40    @..p    DCD    1889541184
        0x000021c4:    28007820     x.(    DCD    671119392
        0x000021c8:    f002d105    ....    DCD    4026716421
        0x000021cc:    1c42fc3e    >.B.    DCD    474151998
        0x000021d0:    ffa9f7ff    ....    DCD    4289329151
        0x000021d4:    bd107022    "p..    DCD    3171971106
        0x000021d8:    20014912    .I.     DCD    536955154
        0x000021dc:    477070c8    .ppG    DCD    1198551240
        0x000021e0:    20004910    .I.     DCD    536889616
        0x000021e4:    477070c8    .ppG    DCD    1198551240
        0x000021e8:    78c0480e    .H.x    DCD    2025867278
        0x000021ec:    20004770    pG.     DCD    536889200
        0x000021f0:    8110f3ef    ....    DCD    2165371887
        0x000021f4:    f3822201    ."..    DCD    4085391873
        0x000021f8:    22058810    ..."    DCD    570787856
        0x000021fc:    89120712    ....    DCD    2299660050
        0x00002200:    d4050612    ....    DCD    3557099026
        0x00002204:    8902480a    .H..    DCD    2298628106
        0x00002208:    431a2301    .#.C    DCD    1125786369
        0x0000220c:    46188102    ...F    DCD    1176011010
        0x00002210:    d0002900    .)..    DCD    3489671424
        0x00002214:    f3812101    .!..    DCD    4085326081
        0x00002218:    47708810    ..pG    DCD    1198557200
        0x0000221c:    78004805    .H.x    DCD    2013284357
        0x00002220:    80084770    pG..    DCD    2148026224
        0x00002224:    03782000    . x.    DCD    58204160
        0x00002228:    07b20008    ....    DCD    129105928
        0x0000222c:    33000008    ...3    DCD    855638024
        0x00002230:    806c5000    .Pl.    DCD    2154582016
        0x00002234:    22052000    . ."    DCD    570761216
        0x00002238:    8a110712    ....    DCD    2316371730
        0x0000223c:    43192304    .#.C    DCD    1125720836
        0x00002240:    8a118211    ....    DCD    2316403217
        0x00002244:    43192302    .#.C    DCD    1125720834
        0x00002248:    89118211    ....    DCD    2299626001
        0x0000224c:    43192340    @#.C    DCD    1125720896
        0x00002250:    4b188111    ...K    DCD    1259897105
        0x00002254:    60192101    .!.`    DCD    1612259585
        0x00002258:    21084b18    .K.!    DCD    554191640
        0x0000225c:    8a518019    ..Q.    DCD    2320597017
        0x00002260:    43192380    .#.C    DCD    1125720960
        0x00002264:    49158251    Q..I    DCD    1226146385
        0x00002268:    610b6803    .h.a    DCD    1628137475
        0x0000226c:    614b6843    ChKa    DCD    1632331843
        0x00002270:    618b6883    .h.a    DCD    1636526211
        0x00002274:    61cb68c3    .h.a    DCD    1640720579
        0x00002278:    620b6903    .i.b    DCD    1644914947
        0x0000227c:    624b6943    CiKb    DCD    1649109315
        0x00002280:    628b6983    .i.b    DCD    1653303683
        0x00002284:    62cb69c3    .i.b    DCD    1657498051
        0x00002288:    480d6308    .c.H    DCD    1208836872
        0x0000228c:    634b6a83    .jKc    DCD    1665886851
        0x00002290:    638b6ac3    .j.c    DCD    1670081219
        0x00002294:    63cb6b03    .k.c    DCD    1674275587
        0x00002298:    49086bc3    .k.I    DCD    1225288643
        0x0000229c:    600b3140    @1.`    DCD    1611346240
        0x000022a0:    604b6b43    CkK`    DCD    1615555395
        0x000022a4:    60886b80    .k.`    DCD    1619553152
        0x000022a8:    06808a90    ....    DCD    109087376
        0x000022ac:    be00d501    ....    DCD    3187725569
        0x000022b0:    e7fe4770    pG..    DCD    3892201328
        0x000022b4:    e2800000    ....    DCD    3800039424
        0x000022b8:    3300e000    ...3    DCD    855695360
        0x000022bc:    18405000    .P@.    DCD    406867968
        0x000022c0:    ed000008    ....    DCD    3976200200
        0x000022c4:    b570e000    ..p.    DCD    3044073472
        0x000022c8:    23004865    eH.#    DCD    587221093
        0x000022cc:    43db6881    .h.C    DCD    1138452609
        0x000022d0:    d0012900    .)..    DCD    3489736960
        0x000022d4:    e0004619    .F..    DCD    3758114329
        0x000022d8:    17ca2101    .!..    DCD    399122689
        0x000022dc:    00920f8c    ....    DCD    9572236
        0x000022e0:    008c4322    "C..    DCD    9192226
        0x000022e4:    495e6081    .`^I    DCD    1230921857
        0x000022e8:    684e680d    .hNh    DCD    1749968909
        0x000022ec:    4332432c    ,C2C    DCD    1127367468
        0x000022f0:    604a600c    .`J`    DCD    1615486988
        0x000022f4:    2a0068c2    .h.*    DCD    704669890
        0x000022f8:    461cd001    ...F    DCD    1176293377
        0x000022fc:    2401e000    ...$    DCD    604102656
        0x00002300:    0f6517e2    ..e.    DCD    258283490
        0x00002304:    432a00d2    ..*C    DCD    1126826194
        0x00002308:    680d60c4    .`.h    DCD    1745707204
        0x0000230c:    684e00e4    ..Nh    DCD    1749942500
        0x00002310:    4332432c    ,C2C    DCD    1127367468
        0x00002314:    604a600c    .`J`    DCD    1615486988
        0x00002318:    2a006802    .h.*    DCD    704669698
        0x0000231c:    461ad001    ...F    DCD    1176162305
        0x00002320:    2201e000    ..."    DCD    570548224
        0x00002324:    680d6002    .`.h    DCD    1745707010
        0x00002328:    684e17d4    ..Nh    DCD    1749948372
        0x0000232c:    4334432a    *C4C    DCD    1127498538
        0x00002330:    604c600a    .`L`    DCD    1615618058
        0x00002334:    2a006842    Bh.*    DCD    704669762
        0x00002338:    2301d100    ...#    DCD    587321600
        0x0000233c:    17d86043    C`..    DCD    400056387
        0x00002340:    680c18da    ...h    DCD    1745623258
        0x00002344:    684b4140    @AKh    DCD    1749762368
        0x00002348:    43184322    "C.C    DCD    1125663522
        0x0000234c:    6048600a    .`H`    DCD    1615355914
        0x00002350:    b5f8bd70    p...    DCD    3052977520
        0x00002354:    25032400    .$.%    DCD    620962816
        0x00002358:    022d2302    .#-.    DCD    36512514
        0x0000235c:    4619462a    *F.F    DCD    1176061482
        0x00002360:    94004620     F..    DCD    2483045920
        0x00002364:    fbbaf000    ....    DCD    4223332352
        0x00002368:    021e2301    .#..    DCD    35529473
        0x0000236c:    21034632    2F.!    DCD    553862706
        0x00002370:    94002000    . ..    DCD    2483036160
        0x00002374:    fbb2f000    ....    DCD    4222808064
        0x00002378:    23142100    .!.#    DCD    588521728
        0x0000237c:    4608462a    *F.F    DCD    1174947370
        0x00002380:    f0009400    ....    DCD    4026569728
        0x00002384:    2313fbab    ...#    DCD    588512171
        0x00002388:    21014632    2F.!    DCD    553731634
        0x0000238c:    94002000    . ..    DCD    2483036160
        0x00002390:    fba4f000    ....    DCD    4221890560
        0x00002394:    b57cbdf8    ..|.    DCD    3044851192
        0x00002398:    48322601    .&2H    DCD    1211246081
        0x0000239c:    600504f5    ...`    DCD    1610941685
        0x000023a0:    20004631    1F.     DCD    536888881
        0x000023a4:    fbc2f000    ....    DCD    4223856640
        0x000023a8:    28002400    .$.(    DCD    671097856
        0x000023ac:    2101d015    ...!    DCD    553766933
        0x000023b0:    f0002000    . ..    DCD    4026540032
        0x000023b4:    2800fbbb    ...(    DCD    671153083
        0x000023b8:    f002d009    ....    DCD    4026716169
        0x000023bc:    9400f82b    +...    DCD    2483091499
        0x000023c0:    94012301    .#..    DCD    2483102465
        0x000023c4:    21012213    .".!    DCD    553722387
        0x000023c8:    f0002000    . ..    DCD    4026540032
        0x000023cc:    4826fbd0    ..&H    DCD    1210514384
        0x000023d0:    48246005    .`$H    DCD    1210343429
        0x000023d4:    60053880    .8.`    DCD    1610954880
        0x000023d8:    f002bd7c    |...    DCD    4026711420
        0x000023dc:    2300f830    0..#    DCD    587266096
        0x000023e0:    94019600    ....    DCD    2483131904
        0x000023e4:    b51ce7ee    ....    DCD    3038570478
        0x000023e8:    07242405    .$$.    DCD    119809029
        0x000023ec:    21028a20     ..!    DCD    553814560
        0x000023f0:    82204388    .C .    DCD    2183152520
        0x000023f4:    07008aa0    ....    DCD    117476000
        0x000023f8:    f7ffd5fc    ....    DCD    4160738812
        0x000023fc:    f7fffd0c    ....    DCD    4160748812
        0x00002400:    88a0ffa8    ....    DCD    2292252584
        0x00002404:    43082180    .!.C    DCD    1124606336
        0x00002408:    210380a0    ...!    DCD    553877664
        0x0000240c:    f0002009    . ..    DCD    4026540041
        0x00002410:    8a60fd89    ..`.    DCD    2321612169
        0x00002414:    43082120     !.C    DCD    1124606240
        0x00002418:    f0028260    `...    DCD    4026696288
        0x0000241c:    4913f834    4..I    DCD    1226045492
        0x00002420:    f0002013    . ..    DCD    4026540051
        0x00002424:    2101fd1f    ...!    DCD    553778463
        0x00002428:    f0002000    . ..    DCD    4026540032
        0x0000242c:    2400fb7f    ...$    DCD    604044159
        0x00002430:    d00e2800    .(..    DCD    3490588672
        0x00002434:    20002101    .!.     DCD    536879361
        0x00002438:    fb78f000    ..x.    DCD    4219006976
        0x0000243c:    d0072800    .(..    DCD    3490129920
        0x00002440:    23019400    ...#    DCD    587305984
        0x00002444:    22139401    ..."    DCD    571708417
        0x00002448:    20002101    .!.     DCD    536879361
        0x0000244c:    fb8ff000    ....    DCD    4220514304
        0x00002450:    2001bd1c    ...     DCD    536984860
        0x00002454:    94012300    .#..    DCD    2483102464
        0x00002458:    e7f49000    ....    DCD    3891564544
        0x0000245c:    90300000    ..0.    DCD    2419064832
        0x00002460:    90282000    . (.    DCD    2418548736
        0x00002464:    e1802000    . ..    DCD    3783270400
        0x00002468:    e280e000    ....    DCD    3800096768
        0x0000246c:    0b61e000    ..a.    DCD    190963712
        0x00002470:    49852000    . .I    DCD    1233461248
        0x00002474:    60482000    . H`    DCD    1615339520
        0x00002478:    b5704770    pGp.    DCD    3044034416
        0x0000247c:    07002005    . ..    DCD    117448709
        0x00002480:    22308901    ..0"    DCD    573606145
        0x00002484:    81014391    .C..    DCD    2164343697
        0x00002488:    22808901    ..."    DCD    578849025
        0x0000248c:    81014311    .C..    DCD    2164343569
        0x00002490:    08898901    ....    DCD    143231233
        0x00002494:    1c490089    ..I.    DCD    474546313
        0x00002498:    89018101    ....    DCD    2298577153
        0x0000249c:    43192308    .#.C    DCD    1125720840
        0x000024a0:    497a8101    ..zI    DCD    1232765185
        0x000024a4:    4314880c    ...C    DCD    1125419020
        0x000024a8:    8a44800c    ..D.    DCD    2319745036
        0x000024ac:    8244439c    .CD.    DCD    2185511836
        0x000024b0:    24408905    ..@$    DCD    608209157
        0x000024b4:    81054325    %C..    DCD    2164605733
        0x000024b8:    26048a05    ...&    DCD    637831685
        0x000024bc:    820543b5    .C..    DCD    2181383093
        0x000024c0:    07ad8a85    ....    DCD    128813701
        0x000024c4:    4e70d5fc    ..pN    DCD    1316017660
        0x000024c8:    60752500    .%u`    DCD    1618289920
        0x000024cc:    2601880d    ...&    DCD    637634573
        0x000024d0:    800d4335    5C..    DCD    2148352821
        0x000024d4:    05ae894d    M...    DCD    95324493
        0x000024d8:    880e4d6e    nM..    DCD    2282638702
        0x000024dc:    432ed501    ...C    DCD    1127142657
        0x000024e0:    43aee000    ...C    DCD    1135534080
        0x000024e4:    880d800e    ....    DCD    2282586126
        0x000024e8:    43b52678    x&.C    DCD    1135945336
        0x000024ec:    800d3528    (5..    DCD    2148349224
        0x000024f0:    2606880d    ...&    DCD    637962253
        0x000024f4:    800d4335    5C..    DCD    2148352821
        0x000024f8:    431d8a45    E..C    DCD    1126009413
        0x000024fc:    880b8245    E...    DCD    2282455621
        0x00002500:    800b4393    .C..    DCD    2148221843
        0x00002504:    43a28902    ...C    DCD    1134725378
        0x00002508:    89488102    ..H.    DCD    2303230210
        0x0000250c:    d5030580    ....    DCD    3573745024
        0x00002510:    2005495f    _I.     DCD    537217375
        0x00002514:    80883160    `1..    DCD    2156409184
        0x00002518:    07802001    . ..    DCD    125837313
        0x0000251c:    15826801    .h..    DCD    360867841
        0x00002520:    60014391    .C.`    DCD    1610695569
        0x00002524:    6801485c    \H.h    DCD    1744914524
        0x00002528:    0252223f    ?"R.    DCD    38937151
        0x0000252c:    14424391    .CB.    DCD    339886993
        0x00002530:    60011889    ...`    DCD    1610684553
        0x00002534:    03026801    .h..    DCD    50489345
        0x00002538:    60014311    .C.`    DCD    1610695441
        0x0000253c:    2005bd70    p..     DCD    537247088
        0x00002540:    88010700    ....    DCD    2281768704
        0x00002544:    43112230    0".C    DCD    1125196336
        0x00002548:    88018001    ....    DCD    2281799681
        0x0000254c:    43112203    .".C    DCD    1125196291
        0x00002550:    47708001    ..pG    DCD    1198555137
        0x00002554:    07002005    . ..    DCD    117448709
        0x00002558:    22308801    ..0"    DCD    573605889
        0x0000255c:    80014391    .C..    DCD    2147566481
        0x00002560:    08898801    ....    DCD    143230977
        0x00002564:    80010089    ....    DCD    2147549321
        0x00002568:    21034770    pG.!    DCD    553863024
        0x0000256c:    0209484b    KH..    DCD    34162763
        0x00002570:    22088181    ..."    DCD    570982785
        0x00002574:    21008042    B..!    DCD    553680962
        0x00002578:    29961c49    I..)    DCD    697703497
        0x0000257c:    8082d3fc    ....    DCD    2156057596
        0x00002580:    47704770    pGpG    DCD    1198540656
        0x00002584:    b5104770    pG..    DCD    3037742960
        0x00002588:    f0024845    EH..    DCD    4026681413
        0x0000258c:    bd10fa64    d...    DCD    3172006500
        0x00002590:    4c3eb570    p.>L    DCD    1279178096
        0x00002594:    06c08860    `...    DCD    113281120
        0x00002598:    f0020f05    ....    DCD    4026666757
        0x0000259c:    8861fa62    b.a.    DCD    2288122466
        0x000025a0:    4391221e    .".C    DCD    1133584926
        0x000025a4:    4311006a    j..C    DCD    1125187690
        0x000025a8:    bd708061    a.p.    DCD    3178266721
        0x000025ac:    493cb510    ..<I    DCD    1228715280
        0x000025b0:    63c82001    . .c    DCD    1674059777
        0x000025b4:    28006bc8    .k.(    DCD    671116232
        0x000025b8:    2001d1fc    ...     DCD    536990204
        0x000025bc:    69c10780    ...i    DCD    1774258048
        0x000025c0:    68024839    9H.h    DCD    1744980025
        0x000025c4:    d2014291    .B..    DCD    3523297937
        0x000025c8:    60022200    .".`    DCD    1610752512
        0x000025cc:    1a8a2319    .#..    DCD    445260569
        0x000025d0:    429a01db    ...B    DCD    1117389275
        0x000025d4:    6001d312    ...`    DCD    1610732306
        0x000025d8:    fa49f002    ..I.    DCD    4199149570
        0x000025dc:    88114a33    3J..    DCD    2282834483
        0x000025e0:    d9014288    .B..    DCD    3640738440
        0x000025e4:    e0001a41    A...    DCD    3758103105
        0x000025e8:    b2891a09    ....    DCD    2995329545
        0x000025ec:    d3052918    .)..    DCD    3540330776
        0x000025f0:    20018010    ...     DCD    536969232
        0x000025f4:    fa41f002    ..A.    DCD    4198625282
        0x000025f8:    fa45f002    ..E.    DCD    4198887426
        0x000025fc:    b508bd10    ....    DCD    3037248784
        0x00002600:    bd089800    ....    DCD    3171457024
        0x00002604:    9800b508    ....    DCD    2550183176
        0x00002608:    b508bd08    ....    DCD    3037248776
        0x0000260c:    fa41f002    ..A.    DCD    4198625282
        0x00002610:    bd089000    ....    DCD    3171454976
        0x00002614:    f002b508    ....    DCD    4026709256
        0x00002618:    9000fa42    B...    DCD    2415983170
        0x0000261c:    1840bd08    ..@.    DCD    406895880
        0x00002620:    00c02137    7!..    DCD    12591415
        0x00002624:    18400109    ..@.    DCD    406847753
        0x00002628:    b5104770    pG..    DCD    3037742960
        0x0000262c:    20004a20     J.     DCD    536889888
        0x00002630:    29007811    .x.)    DCD    687896593
        0x00002634:    491ad00d    ...I    DCD    1226493965
        0x00002638:    63c82001    . .c    DCD    1674059777
        0x0000263c:    28006bc8    .k.(    DCD    671116232
        0x00002640:    2001d1fc    ...     DCD    536990204
        0x00002644:    69c00780    ...i    DCD    1774192512
        0x00002648:    6809491a    .I.h    DCD    1745439002
        0x0000264c:    d2014288    .B..    DCD    3523297928
        0x00002650:    bd102001    . ..    DCD    3171950593
        0x00002654:    70102000    . .p    DCD    1880104960
        0x00002658:    f9f7f002    ....    DCD    4193775618
        0x0000265c:    d0032802    .(..    DCD    3489867778
        0x00002660:    f9f3f002    ....    DCD    4193513474
        0x00002664:    d10b2801    .(..    DCD    3507169281
        0x00002668:    20084913    .I.     DCD    537413907
        0x0000266c:    20058008    ...     DCD    537231368
        0x00002670:    8a810700    ....    DCD    2323711744
        0x00002674:    d4fc0689    ....    DCD    3573286537
        0x00002678:    22808a41    A.."    DCD    578849345
        0x0000267c:    82414391    .CA.    DCD    2185315217
        0x00002680:    bd102000    . ..    DCD    3171950592
        0x00002684:    47702000    . pG    DCD    1198530560
        0x00002688:    800c0000    ....    DCD    2148270080
        0x0000268c:    00202000    .  .    DCD    2105344
        0x00002690:    10005000    .P..    DCD    268455936
        0x00002694:    02000000    ....    DCD    33554432
        0x00002698:    30204000    .@ 0    DCD    807419904
        0x0000269c:    127d5000    .P}.    DCD    310202368
        0x000026a0:    00c00000    ....    DCD    12582912
        0x000026a4:    05f84000    .@..    DCD    100155392
        0x000026a8:    05f40008    ....    DCD    99876872
        0x000026ac:    80000008    ....    DCD    2147483656
        0x000026b0:    36502000    . P6    DCD    911220736
        0x000026b4:    33002000    . .3    DCD    855646208
        0x000026b8:    b5305000    .P0.    DCD    3039842304
        0x000026bc:    498b4a8b    .J.I    DCD    1233865355
        0x000026c0:    880405d0    ....    DCD    2281965008
        0x000026c4:    431c2380    .#.C    DCD    1125917568
        0x000026c8:    4c898004    ...L    DCD    1284079620
        0x000026cc:    072d8965    e.-.    DCD    120424805
        0x000026d0:    1e52d401    ..R.    DCD    508744705
        0x000026d4:    4c87d2fa    ...L    DCD    1283969786
        0x000026d8:    60222201    .""`    DCD    1612849665
        0x000026dc:    880a4c87    .L..    DCD    2282376327
        0x000026e0:    4a868022    "..J    DCD    1250328610
        0x000026e4:    80118849    I...    DCD    2148632649
        0x000026e8:    43998801    ...C    DCD    1134135297
        0x000026ec:    bd308001    ..0.    DCD    3174072321
        0x000026f0:    47702000    . pG    DCD    1198530560
        0x000026f4:    47704770    pGpG    DCD    1198540656
        0x000026f8:    20004770    pG.     DCD    536889200
        0x000026fc:    21014770    pG.!    DCD    553731952
        0x00002700:    6b080789    ...k    DCD    1795688329
        0x00002704:    43102207    .".C    DCD    1125130759
        0x00002708:    47706308    .cpG    DCD    1198547720
        0x0000270c:    b5104770    pG..    DCD    3037742960
        0x00002710:    487b497d    }I{H    DCD    1216039293
        0x00002714:    497c6008    .`|I    DCD    1232887816
        0x00002718:    8008204c    L ..    DCD    2148016204
        0x0000271c:    4a7b4b7b    {K{J    DCD    1249594235
        0x00002720:    821a3b20     ;..    DCD    2182757152
        0x00002724:    487a497c    |IzH    DCD    1215973756
        0x00002728:    487c8048    H.|H    DCD    1216118856
        0x0000272c:    8001497b    {I..    DCD    2147567995
        0x00002730:    3119497a    zI.1    DCD    823740794
        0x00002734:    21228041    A."!    DCD    555909185
        0x00002738:    21818141    A..!    DCD    562135361
        0x0000273c:    82010089    ....    DCD    2181103753
        0x00002740:    82414978    xIA.    DCD    2185316728
        0x00002744:    83014978    xI..    DCD    2197899640
        0x00002748:    31114976    vI.1    DCD    823216502
        0x0000274c:    49738341    A.sI    DCD    1232307009
        0x00002750:    31204876    vH 1    DCD    824199286
        0x00002754:    21418088    ..A!    DCD    557940872
        0x00002758:    01094875    uH..    DCD    17385589
        0x0000275c:    49748081    ..tI    DCD    1232371841
        0x00002760:    4c7380c1    ..sL    DCD    1282638017
        0x00002764:    81c43410    .4..    DCD    2177119248
        0x00002768:    82418201    ..A.    DCD    2185331201
        0x0000276c:    82811c89    ....    DCD    2189499529
        0x00002770:    82c11f61    a...    DCD    2193694561
        0x00002774:    314621ff    .!F1    DCD    826679807
        0x00002778:    496e8301    ..nI    DCD    1231979265
        0x0000277c:    496e8341    A.nI    DCD    1231979329
        0x00002780:    80082059    Y ..    DCD    2148016217
        0x00002784:    4c6d486d    mHmL    DCD    1282230381
        0x00002788:    80043020     0..    DCD    2147758112
        0x0000278c:    80442443    C$D.    DCD    2151949379
        0x00002790:    824c4c6c    lLL.    DCD    2186038380
        0x00002794:    808121d5    .!..    DCD    2155946453
        0x00002798:    31d321ff    .!.1    DCD    835920383
        0x0000279c:    49698101    ..iI    DCD    1231651073
        0x000027a0:    49698141    A.iI    DCD    1231651137
        0x000027a4:    496a8181    ..jI    DCD    1231716737
        0x000027a8:    80084869    iH..    DCD    2148026473
        0x000027ac:    49694857    WHiI    DCD    1231636567
        0x000027b0:    80413860    `8A.    DCD    2151757920
        0x000027b4:    241088c1    ...$    DCD    605063361
        0x000027b8:    80c14321    !C..    DCD    2160149281
        0x000027bc:    390a4960    `I.9    DCD    956975456
        0x000027c0:    4c518101    ..QL    DCD    1280409857
        0x000027c4:    3c404965    eI@<    DCD    1010846053
        0x000027c8:    825a8061    a.Z.    DCD    2186969185
        0x000027cc:    81412108    .!A.    DCD    2168529160
        0x000027d0:    4959484b    KHYI    DCD    1230587979
        0x000027d4:    39408800    ..@9    DCD    960530432
        0x000027d8:    48478208    ..GH    DCD    1212645896
        0x000027dc:    88004960    `I..    DCD    2281720160
        0x000027e0:    bd108008    ....    DCD    3171975176
        0x000027e4:    47700840    @.pG    DCD    1198524480
        0x000027e8:    b08bb500    ....    DCD    2961945856
        0x000027ec:    62424a5d    ]JBb    DCD    1648511581
        0x000027f0:    62824a5d    ]J.b    DCD    1652705885
        0x000027f4:    61424a5d    ]JBa    DCD    1631734365
        0x000027f8:    62c24a5d    ]J.b    DCD    1656900189
        0x000027fc:    60024a5d    ]J.`    DCD    1610762845
        0x00002800:    62024a5d    ]J.b    DCD    1644317277
        0x00002804:    60424a5d    ]JB`    DCD    1614957149
        0x00002808:    61c24a5d    ]J.a    DCD    1640122973
        0x0000280c:    483c4a3e    >J<H    DCD    1211910718
        0x00002810:    60102100    .!.`    DCD    1611669760
        0x00002814:    3840483c    <H@8    DCD    943736892
        0x00002818:    12036b02    .k..    DCD    302213890
        0x0000281c:    6302439a    .C.c    DCD    1661092762
        0x00002820:    231f6b42    Bk.#    DCD    589261634
        0x00002824:    439a041b    ...C    DCD    1134167067
        0x00002828:    041b2303    .#..    DCD    68887299
        0x0000282c:    634218d2    ..Bc    DCD    1665276114
        0x00002830:    68024854    TH.h    DCD    1744980052
        0x00002834:    439a12c3    ...C    DCD    1134170819
        0x00002838:    68026002    .`.h    DCD    1744986114
        0x0000283c:    439a1303    ...C    DCD    1134170883
        0x00002840:    46686002    .`hF    DCD    1181245442
        0x00002844:    1c495441    ATI.    DCD    474567745
        0x00002848:    2928b2c9    ..()    DCD    690533065
        0x0000284c:    4601d3fa    ...F    DCD    1174524922
        0x00002850:    484c2228    ("LH    DCD    1212949032
        0x00002854:    f929f002    ..).    DCD    4180275202
        0x00002858:    ff59f7ff    ..Y.    DCD    4284086271
        0x0000285c:    f907f002    ....    DCD    4178046978
        0x00002860:    8008494a    JI..    DCD    2148026698
        0x00002864:    f0022000    . ..    DCD    4026671104
        0x00002868:    f002f908    ....    DCD    4026726664
        0x0000286c:    b00bf90c    ....    DCD    2953574668
        0x00002870:    b510bd00    ....    DCD    3037773056
        0x00002874:    210f4a24    $J.!    DCD    554650148
        0x00002878:    02094822    "H..    DCD    34162722
        0x0000287c:    48216010    .`!H    DCD    1210146832
        0x00002880:    6b423840    @8Bk    DCD    1799501888
        0x00002884:    041b231f    .#..    DCD    68887327
        0x00002888:    2303439a    .C.#    DCD    587416474
        0x0000288c:    18d2041b    ....    DCD    416416795
        0x00002890:    06006342    Bc..    DCD    100688706
        0x00002894:    08d26802    .h..    DCD    148006914
        0x00002898:    600200d2    ...`    DCD    1610744018
        0x0000289c:    07002005    . ..    DCD    117448709
        0x000028a0:    08928902    ....    DCD    143821058
        0x000028a4:    1c520092    ..R.    DCD    475136146
        0x000028a8:    89028102    ....    DCD    2298642690
        0x000028ac:    431a2308    .#.C    DCD    1125786376
        0x000028b0:    8a028102    ....    DCD    2315419906
        0x000028b4:    8202430a    .C..    DCD    2181186314
        0x000028b8:    8941480e    .HA.    DCD    2302756878
        0x000028bc:    d5040589    ....    DCD    3573810569
        0x000028c0:    22788801    ..x"    DCD    578324481
        0x000028c4:    31084391    .C.1    DCD    822625169
        0x000028c8:    f7ff8001    ....    DCD    4160716801
        0x000028cc:    482fff20     ./H    DCD    1211105056
        0x000028d0:    78006f00    .o.x    DCD    2013294336
        0x000028d4:    d0042800    .(..    DCD    3489933312
        0x000028d8:    8800482e    .H..    DCD    2281719854
        0x000028dc:    3960490b    .I`9    DCD    962611467
        0x000028e0:    200180c8    ...     DCD    536969416
        0x000028e4:    f881f002    ....    DCD    4169265154
        0x000028e8:    86a0bd10    ....    DCD    2258681104
        0x000028ec:    7f080001    ....    DCD    2131230721
        0x000028f0:    00200004    .. .    DCD    2097156
        0x000028f4:    80005000    .P..    DCD    2147504128
        0x000028f8:    037a4000    .@z.    DCD    58343424
        0x000028fc:    04ae0008    ....    DCD    78512136
        0x00002900:    054c0008    ..L.    DCD    88866824
        0x00002904:    00800754    T...    DCD    8390484
        0x00002908:    2c604000    .@`,    DCD    744505344
        0x0000290c:    7f7f5000    .P..    DCD    2139049984
        0x00002910:    29ac0000    ...)    DCD    699138048
        0x00002914:    22000000    ..."    DCD    570425344
        0x00002918:    09095000    .P..    DCD    151605248
        0x0000291c:    24000000    ...$    DCD    603979776
        0x00002920:    04225000    .P".    DCD    69357568
        0x00002924:    d0300000    ..0.    DCD    3492806656
        0x00002928:    11ee0000    ....    DCD    300810240
        0x0000292c:    25000000    ...%    DCD    620756992
        0x00002930:    022e5000    .P..    DCD    36589568
        0x00002934:    20440000    ..D     DCD    541327360
        0x00002938:    28400000    ..@(    DCD    675282944
        0x0000293c:    950d5000    .P..    DCD    2500677632
        0x00002940:    42020000    ...B    DCD    1107427328
        0x00002944:    dce40000    ....    DCD    3705929728
        0x00002948:    92100000    ....    DCD    2450522112
        0x0000294c:    78530000    ..Sx    DCD    2018705408
        0x00002950:    2a000000    ...*    DCD    704643072
        0x00002954:    108b5000    .P..    DCD    277565440
        0x00002958:    d59d0000    ....    DCD    3583836160
        0x0000295c:    26000000    ...&    DCD    637534208
        0x00002960:    0ebb5000    .P..    DCD    247156736
        0x00002964:    0ebf2000    . ..    DCD    247406592
        0x00002968:    0ec52000    . ..    DCD    247799808
        0x0000296c:    0ec92000    . ..    DCD    248061952
        0x00002970:    0ec12000    . ..    DCD    247537664
        0x00002974:    0ed72000    . ..    DCD    248979456
        0x00002978:    0ec32000    . ..    DCD    247668736
        0x0000297c:    0faf2000    . ..    DCD    263135232
        0x00002980:    02002000    . ..    DCD    33562624
        0x00002984:    00204000    .@ .    DCD    2113536
        0x00002988:    05f40008    ....    DCD    99876872
        0x0000298c:    01e00008    ....    DCD    31457288
        0x00002990:    05ce2000    . ..    DCD    97394688
        0x00002994:    b5fe0008    ....    DCD    3053322248
        0x00002998:    4efe2000    . .N    DCD    1325277184
        0x0000299c:    22284603    .F("    DCD    573064707
        0x000029a0:    43422100    .!BC    DCD    1128407296
        0x000029a4:    008c1992    ....    DCD    9181586
        0x000029a8:    51131c49    I..Q    DCD    1360206921
        0x000029ac:    dbfa290a    .)..    DCD    3690604810
        0x000029b0:    28041c40    @..(    DCD    671358016
        0x000029b4:    f7ffdbf3    ....    DCD    4160740339
        0x000029b8:    48f6fc86    ...H    DCD    1224146054
        0x000029bc:    38082200    .".8    DCD    940057088
        0x000029c0:    60426002    .`B`    DCD    1614962690
        0x000029c4:    24004615    .F.$    DCD    603997717
        0x000029c8:    006948f4    .Hi.    DCD    6899956
        0x000029cc:    20015a47    GZ.     DCD    536959559
        0x000029d0:    b28040a0    .@..    DCD    2994749600
        0x000029d4:    d01c4207    .B..    DCD    3491512839
        0x000029d8:    43682028    ( hC    DCD    1130897448
        0x000029dc:    00a11980    ....    DCD    10557824
        0x000029e0:    1c415840    @XA.    DCD    474044480
        0x000029e4:    2800d019    ...(    DCD    671141913
        0x000029e8:    17c1d010    ....    DCD    398577680
        0x000029ec:    f0024622    "F..    DCD    4026680866
        0x000029f0:    012af862    b.*.    DCD    19593314
        0x000029f4:    f85ff002    .._.    DCD    4167036930
        0x000029f8:    3b084be7    .K.;    DCD    990399463
        0x000029fc:    685b681a    .h[h    DCD    1750820890
        0x00002a00:    4ae44310    .C.J    DCD    1256473360
        0x00002a04:    3a084319    .C.:    DCD    973619993
        0x00002a08:    60516010    .`Q`    DCD    1615945744
        0x00002a0c:    2c0a1c64    d..,    DCD    738860132
        0x00002a10:    1c6ddbdd    ..m.    DCD    476961757
        0x00002a14:    dbd62d04    .-..    DCD    3688246532
        0x00002a18:    9500bdfe    ....    DCD    2499853822
        0x00002a1c:    be009401    ....    DCD    3187708929
        0x00002a20:    b5f8e7e3    ....    DCD    3052988387
        0x00002a24:    46044616    .F.F    DCD    1174685206
        0x00002a28:    460a460d    .F.F    DCD    1175078413
        0x00002a2c:    2001461f    .F.     DCD    536954399
        0x00002a30:    f0022100    .!..    DCD    4026671360
        0x00002a34:    0122f840    @.".    DCD    19068992
        0x00002a38:    f83df002    ..=.    DCD    4164808706
        0x00002a3c:    3b084bd6    .K.;    DCD    990399446
        0x00002a40:    685b681a    .h[h    DCD    1750820890
        0x00002a44:    40194010    .@.@    DCD    1075396624
        0x00002a48:    d1004308    .C..    DCD    3506455304
        0x00002a4c:    2c03be00    ...,    DCD    738442752
        0x00002a50:    2404d100    ...$    DCD    604295424
        0x00002a54:    016049d2    .I`.    DCD    23087570
        0x00002a58:    00691840    @.i.    DCD    6887488
        0x00002a5c:    433e1808    ..>C    DCD    1128142856
        0x00002a60:    bdf880c6    ....    DCD    3187179718
        0x00002a64:    4604b570    p..F    DCD    1174713712
        0x00002a68:    460a460d    .F.F    DCD    1175078413
        0x00002a6c:    21002001    . .!    DCD    553656321
        0x00002a70:    f821f002    ..!.    DCD    4162973698
        0x00002a74:    f0020122    "...    DCD    4026663202
        0x00002a78:    4ac6f81e    ...J    DCD    1254553630
        0x00002a7c:    68133a08    .:.h    DCD    1746090504
        0x00002a80:    40186852    Rh.@    DCD    1075341394
        0x00002a84:    43084011    .@.C    DCD    1124614161
        0x00002a88:    be00d100    ....    DCD    3187724544
        0x00002a8c:    d1002c03    .,..    DCD    3506449411
        0x00002a90:    49c22404    .$.I    DCD    1237459972
        0x00002a94:    18400160    `.@.    DCD    406847840
        0x00002a98:    40a92101    .!.@    DCD    1084825857
        0x00002a9c:    bd708081    ..p.    DCD    3178266753
        0x00002aa0:    4604b570    p..F    DCD    1174713712
        0x00002aa4:    460a460d    .F.F    DCD    1175078413
        0x00002aa8:    21002001    . .!    DCD    553656321
        0x00002aac:    f803f002    ....    DCD    4161007618
        0x00002ab0:    f0020122    "...    DCD    4026663202
        0x00002ab4:    4ab7f800    ...J    DCD    1253570560
        0x00002ab8:    68133a08    .:.h    DCD    1746090504
        0x00002abc:    40186852    Rh.@    DCD    1075341394
        0x00002ac0:    43084011    .@.C    DCD    1124614161
        0x00002ac4:    be00d100    ....    DCD    3187724544
        0x00002ac8:    d1002c03    .,..    DCD    3506449411
        0x00002acc:    49b32404    .$.I    DCD    1236476932
        0x00002ad0:    18400160    `.@.    DCD    406847840
        0x00002ad4:    40a92101    .!.@    DCD    1084825857
        0x00002ad8:    bd708041    A.p.    DCD    3178266689
        0x00002adc:    b081b5ff    ....    DCD    2961290751
        0x00002ae0:    4605460c    .F.F    DCD    1174750732
        0x00002ae4:    461f460a    .F.F    DCD    1176454666
        0x00002ae8:    21002001    . .!    DCD    553656321
        0x00002aec:    f0019e0a    ....    DCD    4026637834
        0x00002af0:    012affe2    ..*.    DCD    19595234
        0x00002af4:    ffdff001    ....    DCD    4292866049
        0x00002af8:    3b084ba7    .K.;    DCD    990399399
        0x00002afc:    685b681a    .h[h    DCD    1750820890
        0x00002b00:    40194010    .@.@    DCD    1075396624
        0x00002b04:    d1004308    .C..    DCD    3506455304
        0x00002b08:    2e00be00    ....    DCD    771800576
        0x00002b0c:    46284621    !F(F    DCD    1177044513
        0x00002b10:    f7ffd002    ....    DCD    4160737282
        0x00002b14:    e001ffc5    ....    DCD    3758227397
        0x00002b18:    ffa4f7ff    ....    DCD    4289001471
        0x00002b1c:    4621463b    ;F!F    DCD    1176585787
        0x00002b20:    9a034628    (F..    DCD    2583905832
        0x00002b24:    ff7df7ff    ..}.    DCD    4286445567
        0x00002b28:    bdf0b005    ....    DCD    3186667525
        0x00002b2c:    4604b570    p..F    DCD    1174713712
        0x00002b30:    460a460d    .F.F    DCD    1175078413
        0x00002b34:    21002001    . .!    DCD    553656321
        0x00002b38:    ffbdf001    ....    DCD    4290637825
        0x00002b3c:    f0010122    "...    DCD    4026597666
        0x00002b40:    4a94ffba    ...J    DCD    1251278778
        0x00002b44:    68133a08    .:.h    DCD    1746090504
        0x00002b48:    40186852    Rh.@    DCD    1075341394
        0x00002b4c:    43084011    .@.C    DCD    1124614161
        0x00002b50:    be00d100    ....    DCD    3187724544
        0x00002b54:    d1002c03    .,..    DCD    3506449411
        0x00002b58:    49902404    .$.I    DCD    1234183172
        0x00002b5c:    18400160    `.@.    DCD    406847840
        0x00002b60:    21018800    ...!    DCD    553748480
        0x00002b64:    400840a9    .@.@    DCD    1074282665
        0x00002b68:    2001d000    ...     DCD    536989696
        0x00002b6c:    b5ffbd70    p...    DCD    3053436272
        0x00002b70:    460d4614    .F.F    DCD    1175275028
        0x00002b74:    460a4606    .F.F    DCD    1175078406
        0x00002b78:    2001b081    ...     DCD    536981633
        0x00002b7c:    f0012100    .!..    DCD    4026605824
        0x00002b80:    0132ff9a    ..2.    DCD    20119450
        0x00002b84:    ff97f001    ....    DCD    4288147457
        0x00002b88:    3b084b83    .K.;    DCD    990399363
        0x00002b8c:    685b681a    .h[h    DCD    1750820890
        0x00002b90:    40194010    .@.@    DCD    1075396624
        0x00002b94:    d1004308    .C..    DCD    3506455304
        0x00002b98:    a081be00    ....    DCD    2692857344
        0x00002b9c:    90006800    .h..    DCD    2415945728
        0x00002ba0:    89804881    .H..    DCD    2306885761
        0x00002ba4:    3b134623    #F.;    DCD    991118883
        0x00002ba8:    320122ff    .".2    DCD    838935295
        0x00002bac:    990b409a    .@..    DCD    2567651482
        0x00002bb0:    29004390    .C.)    DCD    687883152
        0x00002bb4:    2701d001    ...'    DCD    654430209
        0x00002bb8:    2700e000    ...'    DCD    654368768
        0x00002bbc:    d00107d1    ....    DCD    3489728465
        0x00002bc0:    e0382100    .!8.    DCD    3761774848
        0x00002bc4:    d5010791    ....    DCD    3573614481
        0x00002bc8:    e0342101    .!4.    DCD    3761512705
        0x00002bcc:    d5010751    Q...    DCD    3573614417
        0x00002bd0:    e0302102    .!0.    DCD    3761250562
        0x00002bd4:    d5010711    ....    DCD    3573614353
        0x00002bd8:    e02c2103    .!,.    DCD    3760988419
        0x00002bdc:    d50106d1    ....    DCD    3573614289
        0x00002be0:    e0282104    .!(.    DCD    3760726276
        0x00002be4:    d5010691    ....    DCD    3573614225
        0x00002be8:    e0242105    .!$.    DCD    3760464133
        0x00002bec:    d5010651    Q...    DCD    3573614161
        0x00002bf0:    e0202106    .! .    DCD    3760201990
        0x00002bf4:    d5010611    ....    DCD    3573614097
        0x00002bf8:    e01c2107    .!..    DCD    3759939847
        0x00002bfc:    d50105d1    ....    DCD    3573614033
        0x00002c00:    e0182108    .!..    DCD    3759677704
        0x00002c04:    d5010591    ....    DCD    3573613969
        0x00002c08:    e0142109    .!..    DCD    3759415561
        0x00002c0c:    d5010551    Q...    DCD    3573613905
        0x00002c10:    e010210a    .!..    DCD    3759153418
        0x00002c14:    d5010511    ....    DCD    3573613841
        0x00002c18:    e00c210b    .!..    DCD    3758891275
        0x00002c1c:    d50104d1    ....    DCD    3573613777
        0x00002c20:    e008210c    .!..    DCD    3758629132
        0x00002c24:    d5010491    ....    DCD    3573613713
        0x00002c28:    e004210d    .!..    DCD    3758366989
        0x00002c2c:    d5010451    Q...    DCD    3573613649
        0x00002c30:    e000210e    .!..    DCD    3758104846
        0x00002c34:    408f210f    .!.@    DCD    1083121935
        0x00002c38:    4338495b    [I8C    DCD    1127762267
        0x00002c3c:    89888188    ....    DCD    2307424648
        0x00002c40:    09809f0b    ....    DCD    159424267
        0x00002c44:    43380180    ..8C    DCD    1127743872
        0x00002c48:    8a0f8188    ....    DCD    2316272008
        0x00002c4c:    07d04397    .C..    DCD    131089303
        0x00002c50:    2000d001    ...     DCD    536924161
        0x00002c54:    0790e038    8...    DCD    126935096
        0x00002c58:    2001d501    ...     DCD    536990977
        0x00002c5c:    0750e034    4.P.    DCD    122740788
        0x00002c60:    2002d501    ...     DCD    537056513
        0x00002c64:    0710e030    0...    DCD    118546480
        0x00002c68:    2003d501    ...     DCD    537122049
        0x00002c6c:    06d0e02c    ,...    DCD    114352172
        0x00002c70:    2004d501    ...     DCD    537187585
        0x00002c74:    0690e028    (...    DCD    110157864
        0x00002c78:    2005d501    ...     DCD    537253121
        0x00002c7c:    0650e024    $.P.    DCD    105963556
        0x00002c80:    2006d501    ...     DCD    537318657
        0x00002c84:    0610e020     ...    DCD    101769248
        0x00002c88:    2007d501    ...     DCD    537384193
        0x00002c8c:    05d0e01c    ....    DCD    97574940
        0x00002c90:    2008d501    ...     DCD    537449729
        0x00002c94:    0590e018    ....    DCD    93380632
        0x00002c98:    2009d501    ...     DCD    537515265
        0x00002c9c:    0550e014    ..P.    DCD    89186324
        0x00002ca0:    200ad501    ...     DCD    537580801
        0x00002ca4:    0510e010    ....    DCD    84992016
        0x00002ca8:    200bd501    ...     DCD    537646337
        0x00002cac:    04d0e00c    ....    DCD    80797708
        0x00002cb0:    200cd501    ...     DCD    537711873
        0x00002cb4:    0490e008    ....    DCD    76603400
        0x00002cb8:    200dd501    ...     DCD    537777409
        0x00002cbc:    0450e004    ..P.    DCD    72409092
        0x00002cc0:    200ed501    ...     DCD    537842945
        0x00002cc4:    200fe000    ...     DCD    537911296
        0x00002cc8:    40829a0a    ...@    DCD    1082300938
        0x00002ccc:    820f4317    .C..    DCD    2182038295
        0x00002cd0:    22018a0f    ..."    DCD    570526223
        0x00002cd4:    40984610    .F.@    DCD    1083721232
        0x00002cd8:    07c34387    .C..    DCD    130237319
        0x00002cdc:    2000d001    ...     DCD    536924161
        0x00002ce0:    0783e038    8...    DCD    126083128
        0x00002ce4:    2001d501    ...     DCD    536990977
        0x00002ce8:    0743e034    4.C.    DCD    121888820
        0x00002cec:    2002d501    ...     DCD    537056513
        0x00002cf0:    0703e030    0...    DCD    117694512
        0x00002cf4:    2003d501    ...     DCD    537122049
        0x00002cf8:    06c3e02c    ,...    DCD    113500204
        0x00002cfc:    2004d501    ...     DCD    537187585
        0x00002d00:    0683e028    (...    DCD    109305896
        0x00002d04:    2005d501    ...     DCD    537253121
        0x00002d08:    0643e024    $.C.    DCD    105111588
        0x00002d0c:    2006d501    ...     DCD    537318657
        0x00002d10:    0603e020     ...    DCD    100917280
        0x00002d14:    2007d501    ...     DCD    537384193
        0x00002d18:    05c3e01c    ....    DCD    96722972
        0x00002d1c:    2008d501    ...     DCD    537449729
        0x00002d20:    0583e018    ....    DCD    92528664
        0x00002d24:    2009d501    ...     DCD    537515265
        0x00002d28:    0543e014    ..C.    DCD    88334356
        0x00002d2c:    200ad501    ...     DCD    537580801
        0x00002d30:    0503e010    ....    DCD    84140048
        0x00002d34:    200bd501    ...     DCD    537646337
        0x00002d38:    04c3e00c    ....    DCD    79945740
        0x00002d3c:    200cd501    ...     DCD    537711873
        0x00002d40:    0483e008    ....    DCD    75751432
        0x00002d44:    200dd501    ...     DCD    537777409
        0x00002d48:    0440e004    ..@.    DCD    71360516
        0x00002d4c:    200ed501    ...     DCD    537842945
        0x00002d50:    200fe000    ...     DCD    537911296
        0x00002d54:    40839b04    ...@    DCD    1082366724
        0x00002d58:    820f431f    .C..    DCD    2182038303
        0x00002d5c:    00614812    .Ha.    DCD    6375442
        0x00002d60:    18083840    @8..    DCD    403191872
        0x00002d64:    466b8b41    A.kF    DCD    1181453121
        0x00002d68:    5d9b0989    ...]    DCD    1570441609
        0x00002d6c:    195b0189    ..[.    DCD    425394569
        0x00002d70:    83414319    .CA.    DCD    2202092313
        0x00002d74:    0ec307a0    ....    DCD    247662496
        0x00002d78:    409921ff    .!.@    DCD    1083777535
        0x00002d7c:    40982080    . .@    DCD    1083711616
        0x00002d80:    da182c00    .,..    DCD    3659017216
        0x00002d84:    0f1b0723    #...    DCD    253429539
        0x00002d88:    089d3b08    .;..    DCD    144521992
        0x00002d8c:    00ad4b07    .K..    DCD    11356935
        0x00002d90:    69eb18ed    ...i    DCD    1777015021
        0x00002d94:    9030e00b    ..0.    DCD    2419122187
        0x00002d98:    34da2000    . .4    DCD    886710272
        0x00002d9c:    30002000    . .0    DCD    805314560
        0x00002da0:    09015000    .P..    DCD    151080960
        0x00002da4:    1400190f    ....    DCD    335550735
        0x00002da8:    ed005000    .P..    DCD    3976220672
        0x00002dac:    438be000    ...C    DCD    1133240320
        0x00002db0:    61eb4303    .C.a    DCD    1642808067
        0x00002db4:    08a5e007    ....    DCD    145088519
        0x00002db8:    00ad4b3d    =K..    DCD    11356989
        0x00002dbc:    682b18ed    ..+h    DCD    1747654893
        0x00002dc0:    4303438b    .C.C    DCD    1124287371
        0x00002dc4:    06e0602b    +`..    DCD    115367979
        0x00002dc8:    40820ec0    ...@    DCD    1082265280
        0x00002dcc:    60024839    9H.`    DCD    1610762297
        0x00002dd0:    b510e6aa    ....    DCD    3037783722
        0x00002dd4:    89e34c38    8L..    DCD    2313374776
        0x00002dd8:    46112201    .".F    DCD    1175527937
        0x00002ddc:    40813813    .8.@    DCD    1082210323
        0x00002de0:    07c8438b    .C..    DCD    130565003
        0x00002de4:    2000d001    ...     DCD    536924161
        0x00002de8:    0788e038    8...    DCD    126410808
        0x00002dec:    2001d501    ...     DCD    536990977
        0x00002df0:    0748e034    4.H.    DCD    122216500
        0x00002df4:    2002d501    ...     DCD    537056513
        0x00002df8:    0708e030    0...    DCD    118022192
        0x00002dfc:    2003d501    ...     DCD    537122049
        0x00002e00:    06c8e02c    ,...    DCD    113827884
        0x00002e04:    2004d501    ...     DCD    537187585
        0x00002e08:    0688e028    (...    DCD    109633576
        0x00002e0c:    2005d501    ...     DCD    537253121
        0x00002e10:    0648e024    $.H.    DCD    105439268
        0x00002e14:    2006d501    ...     DCD    537318657
        0x00002e18:    0608e020     ...    DCD    101244960
        0x00002e1c:    2007d501    ...     DCD    537384193
        0x00002e20:    05c8e01c    ....    DCD    97050652
        0x00002e24:    2008d501    ...     DCD    537449729
        0x00002e28:    0588e018    ....    DCD    92856344
        0x00002e2c:    2009d501    ...     DCD    537515265
        0x00002e30:    0548e014    ..H.    DCD    88662036
        0x00002e34:    200ad501    ...     DCD    537580801
        0x00002e38:    0508e010    ....    DCD    84467728
        0x00002e3c:    200bd501    ...     DCD    537646337
        0x00002e40:    04c8e00c    ....    DCD    80273420
        0x00002e44:    200cd501    ...     DCD    537711873
        0x00002e48:    0488e008    ....    DCD    76079112
        0x00002e4c:    200dd501    ...     DCD    537777409
        0x00002e50:    0448e004    ..H.    DCD    71884804
        0x00002e54:    200ed501    ...     DCD    537842945
        0x00002e58:    200fe000    ...     DCD    537911296
        0x00002e5c:    43134082    .@.C    DCD    1125335170
        0x00002e60:    bd1081e3    ....    DCD    3171975651
        0x00002e64:    00804a15    .J..    DCD    8407573
        0x00002e68:    38801880    ...8    DCD    947918976
        0x00002e6c:    47706341    AcpG    DCD    1198547777
        0x00002e70:    4604b510    ...F    DCD    1174713616
        0x00002e74:    ffadf7ff    ....    DCD    4289591295
        0x00002e78:    00a04910    .I..    DCD    10504464
        0x00002e7c:    38801840    @..8    DCD    947918912
        0x00002e80:    28006b40    @k.(    DCD    671116096
        0x00002e84:    4780d001    ...G    DCD    1199624193
        0x00002e88:    06e1bd10    ....    DCD    115457296
        0x00002e8c:    20010ec9    ...     DCD    536940233
        0x00002e90:    490a4088    .@.I    DCD    1225408648
        0x00002e94:    bd106008    .`..    DCD    3171966984
        0x00002e98:    e7e92013    . ..    DCD    3890814995
        0x00002e9c:    e7e72014    . ..    DCD    3890683924
        0x00002ea0:    e7e52015    . ..    DCD    3890552853
        0x00002ea4:    e7e32016    . ..    DCD    3890421782
        0x00002ea8:    e7e12017    . ..    DCD    3890290711
        0x00002eac:    e4000000    ....    DCD    3825205248
        0x00002eb0:    e100e000    ....    DCD    3774930944
        0x00002eb4:    1400e000    ....    DCD    335601664
        0x00002eb8:    90d05000    .P..    DCD    2429571072
        0x00002ebc:    e2802000    . ..    DCD    3800047616
        0x00002ec0:    48ade000    ...H    DCD    1219354624
        0x00002ec4:    07c06940    @i..    DCD    130050368
        0x00002ec8:    d0010fc0    ....    DCD    3489730496
        0x00002ecc:    47702000    . pG    DCD    1198530560
        0x00002ed0:    47702001    . pG    DCD    1198530561
        0x00002ed4:    202249a9    .I"     DCD    539117993
        0x00002ed8:    47706108    .apG    DCD    1198547208
        0x00002edc:    49a6b500    ...I    DCD    1235662080
        0x00002ee0:    69482201    ."Hi    DCD    1766334977
        0x00002ee4:    0fc00640    @...    DCD    264242752
        0x00002ee8:    6948d016    ..Hi    DCD    1766379542
        0x00002eec:    0fc00680    ....    DCD    264242816
        0x00002ef0:    f7ffd012    ....    DCD    4160737298
        0x00002ef4:    2800ffe6    ...(    DCD    671154150
        0x00002ef8:    6908d00e    ...i    DCD    1762185230
        0x00002efc:    43982302    .#.C    DCD    1134043906
        0x00002f00:    23ff6108    .a.#    DCD    603939080
        0x00002f04:    20023387    .3.     DCD    537015175
        0x00002f08:    42981c40    @..B    DCD    1117264960
        0x00002f0c:    f7ffdbfc    ....    DCD    4160740348
        0x00002f10:    2800ffd8    ...(    DCD    671154136
        0x00002f14:    e000d003    ....    DCD    3758149635
        0x00002f18:    46102200    .".F    DCD    1175462400
        0x00002f1c:    2022bd00    .."     DCD    539147520
        0x00002f20:    e7f96108    .a..    DCD    3891880200
        0x00002f24:    4a94b430    0..J    DCD    1251259440
        0x00002f28:    24808993    ...$    DCD    612403603
        0x00002f2c:    819343a3    .C..    DCD    2173911971
        0x00002f30:    81132387    .#..    DCD    2165515143
        0x00002f34:    80932300    .#..    DCD    2157126400
        0x00002f38:    43258995    ..%C    DCD    1126533525
        0x00002f3c:    80938195    ....    DCD    2157150613
        0x00002f40:    80108093    ....    DCD    2148565139
        0x00002f44:    89908191    ....    DCD    2307948945
        0x00002f48:    819043a0    .C..    DCD    2173715360
        0x00002f4c:    0160498c    .I`.    DCD    23087500
        0x00002f50:    498b6008    .`.I    DCD    1233870856
        0x00002f54:    2440680a    .h@$    DCD    608200714
        0x00002f58:    02120a12    ....    DCD    34736658
        0x00002f5c:    600a4322    "C.`    DCD    1611285282
        0x00002f60:    39804987    .I.9    DCD    964708743
        0x00002f64:    49876008    .`.I    DCD    1233608712
        0x00002f68:    48876008    .`.H    DCD    1216831496
        0x00002f6c:    38207003    .p 8    DCD    941649923
        0x00002f70:    61836143    Ca.a    DCD    1636000067
        0x00002f74:    60436103    .aC`    DCD    1615028483
        0x00002f78:    60036083    .`.`    DCD    1610834051
        0x00002f7c:    e7adbc30    0...    DCD    3886922800
        0x00002f80:    2011497e    ~I.     DCD    538003838
        0x00002f84:    47706008    .`pG    DCD    1198546952
        0x00002f88:    4a7bb500    ..{J    DCD    1249621248
        0x00002f8c:    69502101    .!Pi    DCD    1766859009
        0x00002f90:    0fc00640    @...    DCD    264242752
        0x00002f94:    6950d014    ..Pi    DCD    1766903828
        0x00002f98:    0fc00680    ....    DCD    264242816
        0x00002f9c:    f7ffd010    ....    DCD    4160737296
        0x00002fa0:    2800ff90    ...(    DCD    671154064
        0x00002fa4:    2013d00c    ...     DCD    538169356
        0x00002fa8:    23ff6010    .`.#    DCD    603938832
        0x00002fac:    20023387    .3.     DCD    537015175
        0x00002fb0:    42981c40    @..B    DCD    1117264960
        0x00002fb4:    f7ffdbfc    ....    DCD    4160740348
        0x00002fb8:    2800ff84    ...(    DCD    671154052
        0x00002fbc:    e000d003    ....    DCD    3758149635
        0x00002fc0:    46082100    .!.F    DCD    1174937856
        0x00002fc4:    2011bd00    ...     DCD    538033408
        0x00002fc8:    e7f96010    .`..    DCD    3891879952
        0x00002fcc:    6901486b    kH.i    DCD    1761691755
        0x00002fd0:    43912202    .".C    DCD    1133584898
        0x00002fd4:    47706101    .apG    DCD    1198547201
        0x00002fd8:    3820486c    lH 8    DCD    941639788
        0x00002fdc:    47706800    .hpG    DCD    1198548992
        0x00002fe0:    21a04866    fH.!    DCD    564152422
        0x00002fe4:    69416101    .aAi    DCD    1765892353
        0x00002fe8:    0fc90689    ....    DCD    264832649
        0x00002fec:    6941d0fb    ..Ai    DCD    1765921019
        0x00002ff0:    0fc90649    I...    DCD    264832585
        0x00002ff4:    4770d0f7    ..pG    DCD    1198575863
        0x00002ff8:    4c63b510    ..cL    DCD    1281602832
        0x00002ffc:    61213c20     <!a    DCD    1629568032
        0x00003000:    c40d3414    .4..    DCD    3289199636
        0x00003004:    2101485d    ]H.!    DCD    553732189
        0x00003008:    438a6842    Bh.C    DCD    1133144130
        0x0000300c:    6042430a    .CB`    DCD    1614955274
        0x00003010:    b510bd10    ....    DCD    3037773072
        0x00003014:    3c204c5d    ]L <    DCD    1008749661
        0x00003018:    c40dc402    ....    DCD    3289236482
        0x0000301c:    68484957    WIHh    DCD    1749567831
        0x00003020:    43902202    .".C    DCD    1133519362
        0x00003024:    60484310    .CH`    DCD    1615348496
        0x00003028:    b510bd10    ....    DCD    3037773072
        0x0000302c:    68814853    SH.h    DCD    1753303123
        0x00003030:    0f090709    ....    DCD    252249865
        0x00003034:    d01f2901    .)..    DCD    3491703041
        0x00003038:    d0212902    .)!.    DCD    3491834114
        0x0000303c:    d01c2904    .)..    DCD    3491506436
        0x00003040:    d119290c    .)..    DCD    3508087052
        0x00003044:    78094951    QI.x    DCD    2013874513
        0x00003048:    d1132901    .)..    DCD    3507693825
        0x0000304c:    06096941    Ai..    DCD    101280065
        0x00003050:    d00f0fc9    ....    DCD    3490648009
        0x00003054:    2200494d    MI."    DCD    570444109
        0x00003058:    610a3920     9.a    DCD    1628059936
        0x0000305c:    8883614a    Ja..    DCD    2290311498
        0x00003060:    005b085b    [.[.    DCD    5965915
        0x00003064:    69cb8083    ...i    DCD    1774944387
        0x00003068:    d0032b00    .+..    DCD    3489868544
        0x0000306c:    210061ca    .a.!    DCD    553673162
        0x00003070:    47982001    . .G    DCD    1201152001
        0x00003074:    f819f000    ....    DCD    4162449408
        0x00003078:    f000bd10    ....    DCD    4026580240
        0x0000307c:    bd10f834    4...    DCD    3172005940
        0x00003080:    f853f000    ..S.    DCD    4166250496
        0x00003084:    b500bd10    ....    DCD    3036724496
        0x00003088:    6941483c    <HAi    DCD    1765886012
        0x0000308c:    0fc90649    I...    DCD    264832585
        0x00003090:    6940d009    ..@i    DCD    1765855241
        0x00003094:    0fc00680    ....    DCD    264242816
        0x00003098:    f7ffd005    ....    DCD    4160737285
        0x0000309c:    2800ff12    ...(    DCD    671153938
        0x000030a0:    2000d001    ...     DCD    536924161
        0x000030a4:    2001bd00    ...     DCD    536984832
        0x000030a8:    b430bd00    ..0.    DCD    3023092992
        0x000030ac:    21004837    7H.!    DCD    553666615
        0x000030b0:    4b313820     81K    DCD    1261516832
        0x000030b4:    e0094c36    6L..    DCD    3758705718
        0x000030b8:    7022681a    .h"p    DCD    1881303066
        0x000030bc:    702a6945    Ei*p    DCD    1881827653
        0x000030c0:    1c6d6902    .im.    DCD    476932354
        0x000030c4:    61451e52    R.Ea    DCD    1631919698
        0x000030c8:    61021c49    I..a    DCD    1627528265
        0x000030cc:    07d2695a    Zi..    DCD    131230042
        0x000030d0:    d1f10fd2    ....    DCD    3522236370
        0x000030d4:    701a6943    Ci.p    DCD    1880779075
        0x000030d8:    61026142    Ba.a    DCD    1627545922
        0x000030dc:    61c269c3    .i.a    DCD    1640131011
        0x000030e0:    2002bc30    0..     DCD    537050160
        0x000030e4:    b4304718    .G0.    DCD    3023062808
        0x000030e8:    21004828    (H.!    DCD    553666600
        0x000030ec:    38204c28    (L 8    DCD    941640744
        0x000030f0:    e00b4b22    "K..    DCD    3758836514
        0x000030f4:    7022681a    .h"p    DCD    1881303066
        0x000030f8:    1c496945    EiI.    DCD    474573125
        0x000030fc:    6902702a    *p.i    DCD    1761767466
        0x00003100:    1e521c6d    m.R.    DCD    508697709
        0x00003104:    61026145    Ea.a    DCD    1627545925
        0x00003108:    d0052a00    .*..    DCD    3489999360
        0x0000310c:    07d2695a    Zi..    DCD    131230042
        0x00003110:    d1ef0fd2    ....    DCD    3522105298
        0x00003114:    4770bc30    0.pG    DCD    1198570544
        0x00003118:    61432300    .#Ca    DCD    1631789824
        0x0000311c:    2a0069c2    .i.*    DCD    704670146
        0x00003120:    61c3d0f8    ...a    DCD    1640222968
        0x00003124:    2000bc30    0..     DCD    536919088
        0x00003128:    b4304710    .G0.    DCD    3023062800
        0x0000312c:    4d124817    .H.M    DCD    1293043735
        0x00003130:    49113820     8.I    DCD    1225865248
        0x00003134:    68843560    `5.h    DCD    1753494880
        0x00003138:    6843e00c    ..Ch    DCD    1749278732
        0x0000313c:    600a781a    .x.`    DCD    1611298842
        0x00003140:    1c5b6802    .h[.    DCD    475752450
        0x00003144:    60431e52    R.C`    DCD    1615011410
        0x00003148:    2a006002    .`.*    DCD    704667650
        0x0000314c:    7822d102    .."x    DCD    2015547650
        0x00003150:    d0042a00    .*..    DCD    3489933824
        0x00003154:    07928baa    ....    DCD    127044522
        0x00003158:    d1ee0fd2    ....    DCD    3522039762
        0x0000315c:    2200e7da    ..."    DCD    570484698
        0x00003160:    684b6042    B`Kh    DCD    1749770306
        0x00003164:    43a32402    .$.C    DCD    1134765058
        0x00003168:    68c1604b    K`.h    DCD    1757503563
        0x0000316c:    d0d12900    .)..    DCD    3503368448
        0x00003170:    bc3060c2    .`0.    DCD    3157287106
        0x00003174:    47082000    . .G    DCD    1191714816
        0x00003178:    10000000    ....    DCD    268435456
        0x0000317c:    e1805000    .P..    DCD    3783282688
        0x00003180:    e40ce000    ....    DCD    3826049024
        0x00003184:    e280e000    ....    DCD    3800096768
        0x00003188:    8040e000    ..@.    DCD    2151735296
        0x0000318c:    90e42000    . ..    DCD    2430869504
        0x00003190:    b4302000    . 0.    DCD    3023052800
        0x00003194:    49724c73    sLrI    DCD    1232227443
        0x00003198:    34604873    sH`4    DCD    878725235
        0x0000319c:    6843e009    ..Ch    DCD    1749278729
        0x000031a0:    600a781a    .x.`    DCD    1611298842
        0x000031a4:    1c5b6802    .h[.    DCD    475752450
        0x000031a8:    60431e52    R.C`    DCD    1615011410
        0x000031ac:    2a006002    .`.*    DCD    704667650
        0x000031b0:    8ba2d005    ....    DCD    2342703109
        0x000031b4:    0fd20792    ....    DCD    265422738
        0x000031b8:    bc30d1f1    ..0.    DCD    3157316081
        0x000031bc:    22004770    pG."    DCD    570443632
        0x000031c0:    684b6042    B`Kh    DCD    1749770306
        0x000031c4:    43a32402    .$.C    DCD    1134765058
        0x000031c8:    6881604b    K`.h    DCD    1753309259
        0x000031cc:    d0f42900    .)..    DCD    3505662208
        0x000031d0:    bc306082    .`0.    DCD    3157287042
        0x000031d4:    47082000    . .G    DCD    1191714816
        0x000031d8:    4a61b530    0.aJ    DCD    1247917360
        0x000031dc:    24808993    ...$    DCD    612403603
        0x000031e0:    819343a3    .C..    DCD    2173911971
        0x000031e4:    81132307    .#..    DCD    2165515015
        0x000031e8:    80932300    .#..    DCD    2157126400
        0x000031ec:    43258995    ..%C    DCD    1126533525
        0x000031f0:    80938195    ....    DCD    2157150613
        0x000031f4:    80108093    ....    DCD    2148565139
        0x000031f8:    89908191    ....    DCD    2307948945
        0x000031fc:    819043a0    .C..    DCD    2173715360
        0x00003200:    01a0495a    ZI..    DCD    27281754
        0x00003204:    4a596008    .`YJ    DCD    1247371272
        0x00003208:    24ff6811    .h.$    DCD    620718097
        0x0000320c:    43a10224    $..C    DCD    1134625316
        0x00003210:    43210044    D.!C    DCD    1126236228
        0x00003214:    49546011    .`TI    DCD    1230266385
        0x00003218:    60083980    .9.`    DCD    1611151744
        0x0000321c:    60084955    UI.`    DCD    1611155797
        0x00003220:    76034851    QH.v    DCD    1979926609
        0x00003224:    60c36103    .a.`    DCD    1623417091
        0x00003228:    60036043    C`.`    DCD    1610833987
        0x0000322c:    e7d3bd30    0...    DCD    3889413424
        0x00003230:    2022494c    LI"     DCD    539117900
        0x00003234:    47706108    .apG    DCD    1198547208
        0x00003238:    2022494a    JI"     DCD    539117898
        0x0000323c:    47706108    .apG    DCD    1198547208
        0x00003240:    4947b508    ..GI    DCD    1229436168
        0x00003244:    694a2001    . Ji    DCD    1766465537
        0x00003248:    0fd20652    R...    DCD    265422418
        0x0000324c:    694ad013    ..Ji    DCD    1766510611
        0x00003250:    0fd20692    ....    DCD    265422482
        0x00003254:    2200d00f    ..."    DCD    570478607
        0x00003258:    9200610a    .a..    DCD    2449498378
        0x0000325c:    325f22ff    ."_2    DCD    845095679
        0x00003260:    1c5b9b00    ..[.    DCD    475765504
        0x00003264:    42939300    ...B    DCD    1116967680
        0x00003268:    694ad3fa    ..Ji    DCD    1766511610
        0x0000326c:    0fd207d2    ....    DCD    265422802
        0x00003270:    2022d002    .."     DCD    539152386
        0x00003274:    20006108    .a.     DCD    536895752
        0x00003278:    e7e1bd08    ....    DCD    3890330888
        0x0000327c:    21a04839    9H.!    DCD    564152377
        0x00003280:    69416101    .aAi    DCD    1765892353
        0x00003284:    0fc90689    ....    DCD    264832649
        0x00003288:    6941d0fb    ..Ai    DCD    1765921019
        0x0000328c:    0fc90649    I...    DCD    264832585
        0x00003290:    4770d0f7    ..pG    DCD    1198575863
        0x00003294:    4b33e7f2    ..3K    DCD    1261692914
        0x00003298:    60d9615a    Za.`    DCD    1624858970
        0x0000329c:    48306118    .a0H    DCD    1211130136
        0x000032a0:    68422101    .!Bh    DCD    1749164289
        0x000032a4:    430a438a    .C.C    DCD    1124746122
        0x000032a8:    47706042    B`pG    DCD    1198547010
        0x000032ac:    b510e7f3    ....    DCD    3037784051
        0x000032b0:    60a24c2d    -L.`    DCD    1621249069
        0x000032b4:    60606021    !```    DCD    1616928801
        0x000032b8:    ff6bf7ff    ..k.    DCD    4285265919
        0x000032bc:    28006860    `h.(    DCD    671115360
        0x000032c0:    4927d005    ..'I    DCD    1227345925
        0x000032c4:    22026848    Hh."    DCD    570583112
        0x000032c8:    43104390    .C.C    DCD    1125139344
        0x000032cc:    bd106048    H`..    DCD    3171967048
        0x000032d0:    b510e7ed    ....    DCD    3037784045
        0x000032d4:    68814823    #H.h    DCD    1753303075
        0x000032d8:    0f090709    ....    DCD    252249865
        0x000032dc:    d01a2901    .)..    DCD    3491375361
        0x000032e0:    d01c2902    .)..    DCD    3491506434
        0x000032e4:    d0172904    .)..    DCD    3491178756
        0x000032e8:    d114290c    .)..    DCD    3507759372
        0x000032ec:    7e114a1e    .J.~    DCD    2115062302
        0x000032f0:    d1102901    .)..    DCD    3507497217
        0x000032f4:    06096941    Ai..    DCD    101280065
        0x000032f8:    d00c0fc9    ....    DCD    3490451401
        0x000032fc:    60d12100    .!.`    DCD    1624318208
        0x00003300:    88836111    .a..    DCD    2290311441
        0x00003304:    005b085b    [.[.    DCD    5965915
        0x00003308:    69538083    ..Si    DCD    1767080067
        0x0000330c:    d0022b00    .+..    DCD    3489803008
        0x00003310:    61512001    . Qa    DCD    1632706561
        0x00003314:    bd104798    .G..    DCD    3171960728
        0x00003318:    f805f000    ....    DCD    4161138688
        0x0000331c:    f7ffbd10    ....    DCD    4160732432
        0x00003320:    bd10ff38    8...    DCD    3172007736
        0x00003324:    490fe7d5    ...I    DCD    1225779157
        0x00003328:    e009480e    .H..    DCD    3758704654
        0x0000332c:    690b6802    .h.i    DCD    1762355202
        0x00003330:    68ca701a    .p.h    DCD    1758097434
        0x00003334:    1e521c5b    [.R.    DCD    508697691
        0x00003338:    60ca610b    .a.`    DCD    1623875851
        0x0000333c:    d0042a00    .*..    DCD    3489933824
        0x00003340:    07d26942    Bi..    DCD    131230018
        0x00003344:    d1f10fd2    ....    DCD    3522236370
        0x00003348:    22004770    pG."    DCD    570443632
        0x0000334c:    6843610a    .aCh    DCD    1749246218
        0x00003350:    005b085b    [.[.    DCD    5965915
        0x00003354:    694b6043    C`Ki    DCD    1766547523
        0x00003358:    d0f52b00    .+..    DCD    3505728256
        0x0000335c:    614a2000    . Ja    DCD    1632247808
        0x00003360:    11004718    .G..    DCD    285230872
        0x00003364:    80445000    .PD.    DCD    2151960576
        0x00003368:    e1802000    . ..    DCD    3783270400
        0x0000336c:    e40ce000    ....    DCD    3826049024
        0x00003370:    e280e000    ....    DCD    3800096768
        0x00003374:    b5f3e000    ....    DCD    3052658688
        0x00003378:    2000b081    ...     DCD    536916097
        0x0000337c:    460d9000    ...F    DCD    1175293952
        0x00003380:    4604884a    J..F    DCD    1174702154
        0x00003384:    466b4601    .FkF    DCD    1181435393
        0x00003388:    f0019801    ....    DCD    4026636289
        0x0000338c:    0006fb9a    ....    DCD    457626
        0x00003390:    9800d109    ....    DCD    2550190345
        0x00003394:    980188c4    ....    DCD    2550237380
        0x00003398:    fb99f001    ....    DCD    4221169665
        0x0000339c:    42841e40    @..B    DCD    1115954752
        0x000033a0:    4620d200    .. F    DCD    1176556032
        0x000033a4:    4622b284    .."F    DCD    1176679044
        0x000033a8:    9801210b    .!..    DCD    2550210827
        0x000033ac:    fb95f001    ....    DCD    4220907521
        0x000033b0:    2e004607    .F..    DCD    771769863
        0x000033b4:    886ad006    ..j.    DCD    2288701446
        0x000033b8:    46337829    )x3F    DCD    1177778217
        0x000033bc:    fb93f001    ....    DCD    4220776449
        0x000033c0:    bdfe2000    . ..    DCD    3187548160
        0x000033c4:    9900807c    |...    DCD    2566946940
        0x000033c8:    31084622    "F.1    DCD    822625826
        0x000033cc:    f0011d38    8...    DCD    4026604856
        0x000033d0:    4638fb6c    l.8F    DCD    1178139500
        0x000033d4:    fb8df001    ....    DCD    4220383233
        0x000033d8:    f0018868    h...    DCD    4026632296
        0x000033dc:    2800fb90    ...(    DCD    671153040
        0x000033e0:    9901d0ee    ....    DCD    2567033070
        0x000033e4:    020a2302    .#..    DCD    34218754
        0x000033e8:    320c8901    ...2    DCD    839682305
        0x000033ec:    f0014804    .H..    DCD    4026615812
        0x000033f0:    8869fb8c    ..i.    DCD    2288647052
        0x000033f4:    f0018001    ....    DCD    4026630145
        0x000033f8:    e7e1fb8e    ....    DCD    3890346894
        0x000033fc:    30120000    ...0    DCD    806486016
        0x00003400:    b5ff0000    ....    DCD    3053387776
        0x00003404:    7a804606    .F.z    DCD    2055226886
        0x00003408:    2801b081    ...(    DCD    671199361
        0x0000340c:    2302d005    ...#    DCD    587386885
        0x00003410:    680d4940    @I.h    DCD    1745701184
        0x00003414:    d0022d00    .-..    DCD    3489803520
        0x00003418:    2300e006    ...#    DCD    587259910
        0x0000341c:    2802e7f8    ...(    DCD    671279096
        0x00003420:    2801d070    p..(    DCD    671207536
        0x00003424:    4d3bd071    q.;M    DCD    1295765617
        0x00003428:    88f24c3c    <L..    DCD    2297580604
        0x0000342c:    88b18ba0    ....    DCD    2293336992
        0x00003430:    f001b280    ....    DCD    4026643072
        0x00003434:    9000fb76    v...    DCD    2415983478
        0x00003438:    234e69e0    .iN#    DCD    592341472
        0x0000343c:    43582104    .!XC    DCD    1129849092
        0x00003440:    6822044b    K."h    DCD    1747059787
        0x00003444:    521118c0    ...R    DCD    1376852160
        0x00003448:    234e69e0    .iN#    DCD    592341472
        0x0000344c:    4b344358    XC4K    DCD    1261716312
        0x00003450:    49326822    "h2I    DCD    1228040226
        0x00003454:    521118c0    ...R    DCD    1376852160
        0x00003458:    234e69e0    .iN#    DCD    592341472
        0x0000345c:    43587a71    qzXC    DCD    1129871985
        0x00003460:    02094b30    0K..    DCD    34163504
        0x00003464:    1e9b3155    U1..    DCD    513487189
        0x00003468:    18c06822    "h..    DCD    415262754
        0x0000346c:    98005211    .R..    DCD    2550157841
        0x00003470:    304069e2    .i@0    DCD    809527778
        0x00003474:    8841274e    N'A.    DCD    2285971278
        0x00003478:    111b437a    zC..    DCD    286999418
        0x0000347c:    43194f29    )O.C    DCD    1125732137
        0x00003480:    68231d3f    ?.#h    DCD    1747131711
        0x00003484:    529919d2    ...R    DCD    1385765330
        0x00003488:    274e69e1    .iN'    DCD    659450337
        0x0000348c:    4f244379    yC$O    DCD    1327776633
        0x00003490:    0152224b    K"R.    DCD    22159947
        0x00003494:    6823370c    .7#h    DCD    1747138316
        0x00003498:    525a19c9    ..ZR    DCD    1381636553
        0x0000349c:    31404621    !F@1    DCD    826295841
        0x000034a0:    7b0969e2    .i.{    DCD    2064214498
        0x000034a4:    9b04274e    N'..    DCD    2600740686
        0x000034a8:    0209437a    zC..    DCD    34161530
        0x000034ac:    43194f1d    .O.C    DCD    1125732125
        0x000034b0:    68231cbf    ..#h    DCD    1747131583
        0x000034b4:    529919d2    ...R    DCD    1385765330
        0x000034b8:    69e16823    #h.i    DCD    1776379939
        0x000034bc:    4361244e    N$aC    DCD    1130439758
        0x000034c0:    22004c18    .L."    DCD    570444824
        0x000034c4:    19093414    .4..    DCD    420033556
        0x000034c8:    4a16525a    ZR.J    DCD    1242976858
        0x000034cc:    63112196    .!.c    DCD    1662067094
        0x000034d0:    7a324915    .I2z    DCD    2050115861
        0x000034d4:    610a3940    @9.a    DCD    1628059968
        0x000034d8:    9904620d    .b..    DCD    2567201293
        0x000034dc:    99027641    Av..    DCD    2567075393
        0x000034e0:    f0019800    ....    DCD    4026636288
        0x000034e4:    9803fb24    $...    DCD    2550397732
        0x000034e8:    d0032800    .(..    DCD    3489867776
        0x000034ec:    98004601    .F..    DCD    2550154753
        0x000034f0:    fb1df001    ....    DCD    4213043201
        0x000034f4:    f0019800    ....    DCD    4026636288
        0x000034f8:    9800fb20     ...    DCD    2550201120
        0x000034fc:    bdf0b005    ....    DCD    3186667525
        0x00003500:    e002e000    ....    DCD    3758284800
        0x00003504:    35f525ff    .%.5    DCD    905258495
        0x00003508:    4d02e78e    ...M    DCD    1292035982
        0x0000350c:    e78b3dfa    .=..    DCD    3884662266
        0x00003510:    80040000    ....    DCD    2147745792
        0x00003514:    05dc2000    . ..    DCD    98312192
        0x00003518:    01e00000    ....    DCD    31457280
        0x0000351c:    80272000    . '.    DCD    2150047744
        0x00003520:    000a0000    ....    DCD    655360
        0x00003524:    00c00008    ....    DCD    12582920
        0x00003528:    b5704000    .@p.    DCD    3044032512
        0x0000352c:    460c4616    .F.F    DCD    1175209494
        0x00003530:    28014605    .F.(    DCD    671172101
        0x00003534:    2206d10f    ..."    DCD    570872079
        0x00003538:    48174917    .I.H    DCD    1209485591
        0x0000353c:    fb03f001    ....    DCD    4211339265
        0x00003540:    d0082800    .(..    DCD    3490195456
        0x00003544:    49142206    .".I    DCD    1226056198
        0x00003548:    f0014630    0F..    DCD    4026615344
        0x0000354c:    2006faae    ...     DCD    537328302
        0x00003550:    20007020     p.     DCD    536899616
        0x00003554:    4632bd70    p.2F    DCD    1177730416
        0x00003558:    46284621    !F(F    DCD    1177044513
        0x0000355c:    faf9f001    ....    DCD    4210683905
        0x00003560:    b570bd70    p.p.    DCD    3044064624
        0x00003564:    490e480e    .H.I    DCD    1225672718
        0x00003568:    882205c4    ..".    DCD    2283931076
        0x0000356c:    432a2580    .%*C    DCD    1126835584
        0x00003570:    4a0c8022    "..J    DCD    1242333218
        0x00003574:    071b8953    S...    DCD    119245139
        0x00003578:    1e40d401    ..@.    DCD    507565057
        0x0000357c:    4a0ad2fa    ...J    DCD    1242223354
        0x00003580:    60102001    . .`    DCD    1611669505
        0x00003584:    48042206    .".H    DCD    1208230406
        0x00003588:    fa8ff001    ....    DCD    4203737089
        0x0000358c:    43a88820     ..C    DCD    1135118368
        0x00003590:    bd708020     .p.    DCD    3178266656
        0x00003594:    3ca80000    ...<    DCD    1017643008
        0x00003598:    80600003    ..`.    DCD    2153775107
        0x0000359c:    86a02000    . ..    DCD    2258640896
        0x000035a0:    7fd40001    ....    DCD    2144600065
        0x000035a4:    00200004    .. .    DCD    2097156
        0x000035a8:    80005000    .P..    DCD    2147504128
        0x000035ac:    b5f84000    .@..    DCD    3052945408
        0x000035b0:    26004c37    7L.&    DCD    637553719
        0x000035b4:    90006d60    `m..    DCD    2415947104
        0x000035b8:    fe16f7fe    ....    DCD    4262918142
        0x000035bc:    28004d35    5M.(    DCD    671108405
        0x000035c0:    7928d102    ..(y    DCD    2032718082
        0x000035c4:    d1012802    .(..    DCD    3506513922
        0x000035c8:    90002000    . ..    DCD    2415927296
        0x000035cc:    f82df7ff    ..-.    DCD    4163762175
        0x000035d0:    d1592800    .(Y.    DCD    3512281088
        0x000035d4:    fac3f001    ....    DCD    4207144961
        0x000035d8:    d0552800    .(U.    DCD    3495241728
        0x000035dc:    260178e8    .x.&    DCD    637630696
        0x000035e0:    d0512800    .(Q.    DCD    3494979584
        0x000035e4:    073f2705    .'?.    DCD    121579269
        0x000035e8:    07c08ab8    ....    DCD    130058936
        0x000035ec:    2604d001    ...&    DCD    637849601
        0x000035f0:    f001e04a    J...    DCD    4026654794
        0x000035f4:    2800fa00    ...(    DCD    671152640
        0x000035f8:    4826d146    F.&H    DCD    1210503494
        0x000035fc:    28006980    .i.(    DCD    671115648
        0x00003600:    6d60d001    ..`m    DCD    1835061249
        0x00003604:    78a99000    ...x    DCD    2024378368
        0x00003608:    f0014668    hF..    DCD    4026615400
        0x0000360c:    2800faae    ...(    DCD    671152814
        0x00003610:    78a9d03a    :..x    DCD    2024394810
        0x00003614:    f0014668    hF..    DCD    4026615400
        0x00003618:    2800fa00    ...(    DCD    671152640
        0x0000361c:    2001d034    4..     DCD    536989748
        0x00003620:    6be10784    ...k    DCD    1809909636
        0x00003624:    02890a89    ....    DCD    42535561
        0x00003628:    63e14301    .C.c    DCD    1675707137
        0x0000362c:    491a6be0    .k.I    DCD    1226468320
        0x00003630:    21974008    .@.!    DCD    563560456
        0x00003634:    43080289    ...C    DCD    1124598409
        0x00003638:    6be063e0    .c.k    DCD    1809867744
        0x0000363c:    02c02107    .!..    DCD    46145799
        0x00003640:    05490ac0    ..I.    DCD    88672960
        0x00003644:    63e04308    .C.c    DCD    1675641608
        0x00003648:    26049800    ...&    DCD    637835264
        0x0000364c:    216402c0    ..d!    DCD    560202432
        0x00003650:    fa91f001    ....    DCD    4203868161
        0x00003654:    1e404912    .I@.    DCD    507529490
        0x00003658:    79296008    .`)y    DCD    2032754696
        0x0000365c:    d0002900    .)..    DCD    3489671424
        0x00003660:    f0012101    .!..    DCD    4026605825
        0x00003664:    480efa8e    ...H    DCD    1208941198
        0x00003668:    47806ac0    .j.G    DCD    1199598272
        0x0000366c:    04006b20     k..    DCD    67136288
        0x00003670:    d0fb0fc0    ....    DCD    3506114496
        0x00003674:    6801480c    .H.h    DCD    1744914444
        0x00003678:    d5fc05c9    ....    DCD    3590063561
        0x0000367c:    fa87f001    ....    DCD    4203212801
        0x00003680:    21808938    8..!    DCD    562071864
        0x00003684:    81384388    .C8.    DCD    2167948168
        0x00003688:    bdf84630    0F..    DCD    3187164720
        0x0000368c:    02600000    ..`.    DCD    39845888
        0x00003690:    07b22000    . ..    DCD    129114112
        0x00003694:    07500008    ..P.    DCD    122683400
        0x00003698:    03ff0008    ....    DCD    67043336
        0x0000369c:    8068ffe0    ..h.    DCD    2154364896
        0x000036a0:    08082000    . ..    DCD    134750208
        0x000036a4:    02000008    ....    DCD    33554440
        0x000036a8:    b5104000    .@..    DCD    3037741056
        0x000036ac:    07a42401    .$..    DCD    128197633
        0x000036b0:    f7fe6ba0    .k..    DCD    4160646048
        0x000036b4:    4953ffaf    ..SI    DCD    1230241711
        0x000036b8:    fa5df001    ..].    DCD    4200460289
        0x000036bc:    01122227    '"..    DCD    17965607
        0x000036c0:    d1001a51    Q...    DCD    3506444881
        0x000036c4:    4a502101    .!PJ    DCD    1246765313
        0x000036c8:    60116050    P`.`    DCD    1611751504
        0x000036cc:    21086b20     k.!    DCD    554199840
        0x000036d0:    43084388    .C.C    DCD    1124615048
        0x000036d4:    bd106320     c..    DCD    3171967776
        0x000036d8:    2000b538    8..     DCD    536917304
        0x000036dc:    494b9000    ..KI    DCD    1229688832
        0x000036e0:    80082008    . ..    DCD    2148016136
        0x000036e4:    ff2bf7fe    ..+.    DCD    4281071614
        0x000036e8:    07242405    .$$.    DCD    119809029
        0x000036ec:    bf00e002    ....    DCD    3204505602
        0x000036f0:    bf00bf00    ....    DCD    3204497152
        0x000036f4:    06008aa0    ....    DCD    100698784
        0x000036f8:    8960d5f9    ..`.    DCD    2304824825
        0x000036fc:    00800880    ....    DCD    8390784
        0x00003700:    48438160    `.CH    DCD    1212383584
        0x00003704:    08498841    A.I.    DCD    139036737
        0x00003708:    80410049    I.A.    DCD    2151743561
        0x0000370c:    ff22f7fe    ..".    DCD    4280481790
        0x00003710:    07408aa0    ..@.    DCD    121670304
        0x00003714:    f7fed501    ....    DCD    4160673025
        0x00003718:    8920fe66    f. .    DCD    2300640870
        0x0000371c:    43082180    .!.C    DCD    1124606336
        0x00003720:    8a208120     . .    DCD    2317386016
        0x00003724:    43882104    .!.C    DCD    1132994820
        0x00003728:    8aa08220     ...    DCD    2325774880
        0x0000372c:    d5fc0780    ....    DCD    3590064000
        0x00003730:    05484939    9IH.    DCD    88623417
        0x00003734:    02d2680a    .h..    DCD    47343626
        0x00003738:    6902d402    ...i    DCD    1761793026
        0x0000373c:    d4020752    R...    DCD    3556902738
        0x00003740:    2a009a00    ...*    DCD    704682496
        0x00003744:    bd38d0f6    ..8.    DCD    3174617334
        0x00003748:    f001b510    ....    DCD    4026643728
        0x0000374c:    f001fa26    &...    DCD    4026661414
        0x00003750:    4931fa2a    *.1I    DCD    1228012074
        0x00003754:    70082001    . .p    DCD    1879580673
        0x00003758:    b510bd10    ....    DCD    3037773072
        0x0000375c:    fa29f001    ..).    DCD    4197052417
        0x00003760:    07002005    . ..    DCD    117448709
        0x00003764:    22808a41    A.."    DCD    578849345
        0x00003768:    82414391    .CA.    DCD    2185315217
        0x0000376c:    89014828    (H..    DCD    2298562600
        0x00003770:    00490849    I.I.    DCD    4786249
        0x00003774:    05d08101    ....    DCD    97550593
        0x00003778:    22046981    .i."    DCD    570714497
        0x0000377c:    61814311    .C.a    DCD    1635861265
        0x00003780:    fa1df001    ....    DCD    4196265985
        0x00003784:    fa21f001    ..!.    DCD    4196528129
        0x00003788:    fa25f001    ..%.    DCD    4196790273
        0x0000378c:    20004923    #I.     DCD    536889635
        0x00003790:    bd107008    .p..    DCD    3171971080
        0x00003794:    f001b510    ....    DCD    4026643728
        0x00003798:    bd10fa24    $...    DCD    3172006436
        0x0000379c:    2001b510    ...     DCD    536982800
        0x000037a0:    8a000780    ....    DCD    2315257728
        0x000037a4:    d5040700    ....    DCD    3573810944
        0x000037a8:    fa21f001    ..!.    DCD    4196528129
        0x000037ac:    2004491b    .I.     DCD    537151771
        0x000037b0:    bd107008    .p..    DCD    3171971080
        0x000037b4:    4819b570    p..H    DCD    1209644400
        0x000037b8:    06858800    ....    DCD    109414400
        0x000037bc:    0ead4816    .H..    DCD    246237206
        0x000037c0:    48176844    Dh.H    DCD    1209493572
        0x000037c4:    78006f00    .o.x    DCD    2013294336
        0x000037c8:    d1022800    .(..    DCD    3506579456
        0x000037cc:    f0014628    (F..    DCD    4026615336
        0x000037d0:    4814fa14    ...H    DCD    1209334292
        0x000037d4:    4e108900    ...N    DCD    1309706496
        0x000037d8:    d50705c0    ....    DCD    3574007232
        0x000037dc:    d50b0620     ...    DCD    3574269472
        0x000037e0:    d00907e0    ....    DCD    3490252768
        0x000037e4:    f0014628    (F..    DCD    4026615336
        0x000037e8:    e003fa0e    ....    DCD    3758357006
        0x000037ec:    d5030620     ...    DCD    3573745184
        0x000037f0:    d00107e0    ....    DCD    3489728480
        0x000037f4:    70302003    . 0p    DCD    1882202115
        0x000037f8:    d5030420     ...    DCD    3573744672
        0x000037fc:    d50105e0    ....    DCD    3573614048
        0x00003800:    70302002    . 0p    DCD    1882202114
        0x00003804:    0271bd70    p.q.    DCD    41008496
        0x00003808:    00400000    ..@.    DCD    4194304
        0x0000380c:    33004000    .@.3    DCD    855654400
        0x00003810:    00205000    .P .    DCD    2117632
        0x00003814:    02005000    .P..    DCD    33574912
        0x00003818:    806c4000    .@l.    DCD    2154577920
        0x0000381c:    20002000    . .     DCD    536879104
        0x00003820:    01e05000    .P..    DCD    31477760
        0x00003824:    2c002000    . .,    DCD    738205696
        0x00003828:    b5f85000    .P..    DCD    3052949504
        0x0000382c:    460f4614    .F.F    DCD    1175406100
        0x00003830:    4605461e    .F.F    DCD    1174750750
        0x00003834:    88018842    B...    DCD    2281801794
        0x00003838:    46202306    .# F    DCD    1176511238
        0x0000383c:    f965f001    ..e.    DCD    4184207361
        0x00003840:    79284604    .F(y    DCD    2032682500
        0x00003844:    f9e5f001    ....    DCD    4192595969
        0x00003848:    71278020     .'q    DCD    1898414112
        0x0000384c:    46208066    f. F    DCD    1176535142
        0x00003850:    f961f001    ..a.    DCD    4183945217
        0x00003854:    b570bdf8    ..p.    DCD    3044064760
        0x00003858:    88424614    .FB.    DCD    2286044692
        0x0000385c:    460d7900    .y.F    DCD    1175288064
        0x00003860:    23040201    ...#    DCD    587465217
        0x00003864:    310c4821    !H.1    DCD    822888481
        0x00003868:    f94ff001    ..O.    DCD    4182765569
        0x0000386c:    d0012d00    .-..    DCD    3489737984
        0x00003870:    e0002113    .!..    DCD    3758104851
        0x00003874:    70012112    .!.p    DCD    1879122194
        0x00003878:    f0018044    D...    DCD    4026630212
        0x0000387c:    bd70f94c    L.p.    DCD    3178297676
        0x00003880:    7002880a    ...p    DCD    1879214090
        0x00003884:    70420a12    ..Bp    DCD    1883376146
        0x00003888:    7082788a    .x.p    DCD    1887598730
        0x0000388c:    70c278ca    .x.p    DCD    1891793098
        0x00003890:    7102790a    .y.q    DCD    1895987466
        0x00003894:    7142794a    JyBq    DCD    1900181834
        0x00003898:    71817989    .y.q    DCD    1904310665
        0x0000389c:    47702007    . pG    DCD    1198530567
        0x000038a0:    78037842    Bx.x    DCD    2013493314
        0x000038a4:    431a0212    ...C    DCD    1125777938
        0x000038a8:    7882800a    ...x    DCD    2021818378
        0x000038ac:    78c2708a    .p.x    DCD    2026008714
        0x000038b0:    790270ca    .p.y    DCD    2030203082
        0x000038b4:    7942710a    .qBy    DCD    2034397450
        0x000038b8:    7980714a    Jq.y    DCD    2038460746
        0x000038bc:    20077188    .q.     DCD    537358728
        0x000038c0:    b5104770    pG..    DCD    3037742960
        0x000038c4:    f813f000    ....    DCD    4162056192
        0x000038c8:    b570bd10    ..p.    DCD    3044064528
        0x000038cc:    46154606    .F.F    DCD    1175799302
        0x000038d0:    2036460c    .F6     DCD    540427788
        0x000038d4:    f865f001    ..e.    DCD    4167430145
        0x000038d8:    d1052802    .(..    DCD    3506776066
        0x000038dc:    2336b2e2    ..6#    DCD    590787298
        0x000038e0:    46304629    )F0F    DCD    1177568809
        0x000038e4:    f99bf001    ....    DCD    4187746305
        0x000038e8:    300dbd70    p..0    DCD    806206832
        0x000038ec:    b5100000    ....    DCD    3037724672
        0x000038f0:    4805210c    .!.H    DCD    1208295692
        0x000038f4:    f999f001    ....    DCD    4187615233
        0x000038f8:    20364905    .I6     DCD    540428549
        0x000038fc:    f99bf001    ....    DCD    4187746305
        0x00003900:    20362100    .!6     DCD    540418304
        0x00003904:    f99df001    ....    DCD    4187877377
        0x00003908:    90e6bd10    ....    DCD    2431040784
        0x0000390c:    34e42000    . .4    DCD    887365632
        0x00003910:    b5f02000    . ..    DCD    3052412928
        0x00003914:    2105b089    ...!    DCD    554021001
        0x00003918:    466802c9    ..hF    DCD    1181221577
        0x0000391c:    1cc98401    ....    DCD    482968577
        0x00003920:    49f88281    ...I    DCD    1241023105
        0x00003924:    1e498301    ..I.    DCD    508134145
        0x00003928:    4df78381    ...M    DCD    1308066689
        0x0000392c:    80eb2003    . ..    DCD    2162892803
        0x00003930:    220a21ff    .!."    DCD    571089407
        0x00003934:    900031b9    .1..    DCD    2415931833
        0x00003938:    18a89101    ....    DCD    413700353
        0x0000393c:    21362300    .#6!    DCD    557196032
        0x00003940:    f0014607    .F..    DCD    4026615303
        0x00003944:    0004f984    ....    DCD    326020
        0x00003948:    2601d17d    }..&    DCD    637653373
        0x0000394c:    96009701    ....    DCD    2516621057
        0x00003950:    ab088968    h...    DCD    2869463400
        0x00003954:    21102202    .".!    DCD    554705410
        0x00003958:    f97ff001    ....    DCD    4185911297
        0x0000395c:    d1f30004    ....    DCD    3522363396
        0x00003960:    4aea8968    h..J    DCD    1256884584
        0x00003964:    f0012110    .!..    DCD    4026605840
        0x00003968:    0004f97e    ~...    DCD    326014
        0x0000396c:    a803d1ec    ....    DCD    2818822636
        0x00003970:    90019600    ....    DCD    2416023040
        0x00003974:    ab058968    h...    DCD    2869266792
        0x00003978:    21132202    .".!    DCD    554902018
        0x0000397c:    f96df001    ..m.    DCD    4184731649
        0x00003980:    d1e10004    ....    DCD    3521183748
        0x00003984:    0270af02    ..p.    DCD    40939266
        0x00003988:    97014be1    .K..    DCD    2533444577
        0x0000398c:    89689000    ..h.    DCD    2305331200
        0x00003990:    22103310    .3."    DCD    571486992
        0x00003994:    f00121a0    .!..    DCD    4026605984
        0x00003998:    0004f960    `...    DCD    325984
        0x0000399c:    49dcd1d4    ...I    DCD    1239208404
        0x000039a0:    7a004668    hF.z    DCD    2046838376
        0x000039a4:    46687048    HphF    DCD    1181249608
        0x000039a8:    70887a40    @z.p    DCD    1887992384
        0x000039ac:    4668460a    .FhF    DCD    1181238794
        0x000039b0:    89802113    .!..    DCD    2306875667
        0x000039b4:    f957f001    ..W.    DCD    4183289857
        0x000039b8:    d1c50004    ....    DCD    3519348740
        0x000039bc:    97012008    . ..    DCD    2533433352
        0x000039c0:    22029000    ..."    DCD    570593280
        0x000039c4:    ab068968    h...    DCD    2869332328
        0x000039c8:    f0014611    .F..    DCD    4026615313
        0x000039cc:    0004f946    F...    DCD    325958
        0x000039d0:    a804d1ba    ....    DCD    2818888122
        0x000039d4:    90019600    ....    DCD    2416023040
        0x000039d8:    ab078968    h...    DCD    2869397864
        0x000039dc:    210e2202    .".!    DCD    554574338
        0x000039e0:    f93bf001    ..;.    DCD    4181454849
        0x000039e4:    d12e0004    ....    DCD    3509452804
        0x000039e8:    46684ac9    .JhF    DCD    1181240009
        0x000039ec:    210e3a2b    +:.!    DCD    554580523
        0x000039f0:    f0018a00    ....    DCD    4026632704
        0x000039f4:    0004f938    8...    DCD    325944
        0x000039f8:    a803d125    %...    DCD    2818822437
        0x000039fc:    90019600    ....    DCD    2416023040
        0x00003a00:    ab058968    h...    DCD    2869266792
        0x00003a04:    21132202    .".!    DCD    554902018
        0x00003a08:    f927f001    ..'.    DCD    4180144129
        0x00003a0c:    d11a0004    ....    DCD    3508142084
        0x00003a10:    4bbe2008    . .K    DCD    1270751240
        0x00003a14:    90009701    ....    DCD    2415957761
        0x00003a18:    33208968    h. 3    DCD    857770344
        0x00003a1c:    21a02210    .".!    DCD    564142608
        0x00003a20:    f91bf001    ....    DCD    4179357697
        0x00003a24:    d1780004    ..x.    DCD    3514302468
        0x00003a28:    466849ba    .IhF    DCD    1181239738
        0x00003a2c:    75087a00    .z.u    DCD    1963489792
        0x00003a30:    7a404668    hF@z    DCD    2051032680
        0x00003a34:    460a7548    Hu.F    DCD    1175090504
        0x00003a38:    32134668    hF.2    DCD    840124008
        0x00003a3c:    89802113    .!..    DCD    2306875667
        0x00003a40:    f911f001    ....    DCD    4178702337
        0x00003a44:    e068e000    ..h.    DCD    3764969472
        0x00003a48:    d1660004    ..f.    DCD    3513122820
        0x00003a4c:    2009a902    ...     DCD    537504002
        0x00003a50:    90009101    ....    DCD    2415956225
        0x00003a54:    89682202    ."h.    DCD    2305303042
        0x00003a58:    4611ab06    ...F    DCD    1175563014
        0x00003a5c:    f8fdf001    ....    DCD    4177391617
        0x00003a60:    d15a0004    ..Z.    DCD    3512336388
        0x00003a64:    9701af04    ....    DCD    2533469956
        0x00003a68:    89689600    ..h.    DCD    2305332736
        0x00003a6c:    2202ab07    ..."    DCD    570600199
        0x00003a70:    f001210e    .!..    DCD    4026605838
        0x00003a74:    0004f8f2    ....    DCD    325874
        0x00003a78:    4aa4d14f    O..J    DCD    1252315471
        0x00003a7c:    3a1c4668    hF.:    DCD    974931560
        0x00003a80:    8a00210e    .!..    DCD    2315264270
        0x00003a84:    f8eff001    ....    DCD    4176474113
        0x00003a88:    d1460004    ..F.    DCD    3511025668
        0x00003a8c:    2001a903    ...     DCD    536979715
        0x00003a90:    90009101    ....    DCD    2415956225
        0x00003a94:    ab058968    h...    DCD    2869266792
        0x00003a98:    21132202    .".!    DCD    554902018
        0x00003a9c:    f8ddf001    ....    DCD    4175294465
        0x00003aa0:    d13a0004    ..:.    DCD    3510239236
        0x00003aa4:    489bae02    ...H    DCD    1218162178
        0x00003aa8:    96014b99    .K..    DCD    2516667289
        0x00003aac:    89689000    ..h.    DCD    2305331200
        0x00003ab0:    22103330    03."    DCD    571487024
        0x00003ab4:    f0012101    .!..    DCD    4026605825
        0x00003ab8:    0004f8d0    ....    DCD    325840
        0x00003abc:    4994d12d    -..I    DCD    1234489645
        0x00003ac0:    31234668    hF#1    DCD    824395368
        0x00003ac4:    71087a00    .z.q    DCD    1896380928
        0x00003ac8:    7a404668    hF@z    DCD    2051032680
        0x00003acc:    1cca7148    Hq..    DCD    483029320
        0x00003ad0:    21134668    hF.!    DCD    554911336
        0x00003ad4:    f0018980    ....    DCD    4026632576
        0x00003ad8:    0004f8c6    ....    DCD    325830
        0x00003adc:    2009d11d    ...     DCD    537514269
        0x00003ae0:    90009601    ....    DCD    2415957505
        0x00003ae4:    89682202    ."h.    DCD    2305303042
        0x00003ae8:    4611ab06    ...F    DCD    1175563014
        0x00003aec:    f8b5f001    ....    DCD    4172673025
        0x00003af0:    d1120004    ....    DCD    3507617796
        0x00003af4:    97012001    . ..    DCD    2533433345
        0x00003af8:    89689000    ..h.    DCD    2305331200
        0x00003afc:    2202ab07    ..."    DCD    570600199
        0x00003b00:    f001210c    .!..    DCD    4026605836
        0x00003b04:    0004f8aa    ....    DCD    325802
        0x00003b08:    4a80d107    ...J    DCD    1249956103
        0x00003b0c:    3a0d4668    hF.:    DCD    973948520
        0x00003b10:    8a00210c    .!..    DCD    2315264268
        0x00003b14:    f8a7f001    ....    DCD    4171755521
        0x00003b18:    89684604    .Fh.    DCD    2305312260
        0x00003b1c:    f0012100    .!..    DCD    4026605824
        0x00003b20:    2c00f8a8    ...,    DCD    738261160
        0x00003b24:    2101d103    ...!    DCD    553767171
        0x00003b28:    f0012036    6 ..    DCD    4026605622
        0x00003b2c:    88e9f88a    ....    DCD    2297034890
        0x00003b30:    22362301    .#6"    DCD    573973249
        0x00003b34:    f0004879    yH..    DCD    4026550393
        0x00003b38:    7004ffe8    ...p    DCD    1879375848
        0x00003b3c:    ffebf000    ....    DCD    4293652480
        0x00003b40:    b0092000    . ..    DCD    2953388032
        0x00003b44:    b570bdf0    ..p.    DCD    3044064752
        0x00003b48:    460d4c70    pL.F    DCD    1175276656
        0x00003b4c:    80238062    b.#.    DCD    2149810274
        0x00003b50:    884880e3    ..H.    DCD    2286452963
        0x00003b54:    f893f001    ....    DCD    4170444801
        0x00003b58:    88687120     qh.    DCD    2288546080
        0x00003b5c:    89608120     .`.    DCD    2304803104
        0x00003b60:    f0012101    .!..    DCD    4026605825
        0x00003b64:    496df886    ..mI    DCD    1231943814
        0x00003b68:    70082000    . .p    DCD    1879580672
        0x00003b6c:    20362102    .!6     DCD    540418306
        0x00003b70:    f867f001    ..g.    DCD    4167561217
        0x00003b74:    88e14869    iH..    DCD    2296465513
        0x00003b78:    22362302    .#6"    DCD    573973250
        0x00003b7c:    f0001e80    ....    DCD    4026539648
        0x00003b80:    8961ffc4    ..a.    DCD    2304901060
        0x00003b84:    80011c89    ....    DCD    2147556489
        0x00003b88:    ffc5f000    ....    DCD    4291162112
        0x00003b8c:    bd702000    . p.    DCD    3178242048
        0x00003b90:    485db510    ..]H    DCD    1214100752
        0x00003b94:    89402100    .!@.    DCD    2302681344
        0x00003b98:    f86bf001    ..k.    DCD    4167823361
        0x00003b9c:    20362101    .!6     DCD    540418305
        0x00003ba0:    f84ff001    ..O.    DCD    4165988353
        0x00003ba4:    bd102000    . ..    DCD    3171950592
        0x00003ba8:    7808b5f8    ...x    DCD    2013836792
        0x00003bac:    d1392812    .(9.    DCD    3510183954
        0x00003bb0:    78284d5b    [M(x    DCD    2015907163
        0x00003bb4:    06001e40    @...    DCD    100671040
        0x00003bb8:    70280e00    ..(p    DCD    1881673216
        0x00003bbc:    4858d132    2.XH    DCD    1213780274
        0x00003bc0:    28017800    .x.(    DCD    671184896
        0x00003bc4:    4857d12e    ..WH    DCD    1213714734
        0x00003bc8:    fac5f000    ....    DCD    4207276032
        0x00003bcc:    d929284a    J().    DCD    3643353162
        0x00003bd0:    d9002880    .(..    DCD    3640666240
        0x00003bd4:    211b2080    . .!    DCD    555425920
        0x00003bd8:    f0003814    .8..    DCD    4026546196
        0x00003bdc:    211bffcc    ...!    DCD    555483084
        0x00003be0:    30144348    HC.0    DCD    806634312
        0x00003be4:    4669b2c2    ..iF    DCD    1181332162
        0x00003be8:    f000484f    OH..    DCD    4026550351
        0x00003bec:    4e46fae8    ..FN    DCD    1313274600
        0x00003bf0:    46014604    .F.F    DCD    1174488580
        0x00003bf4:    9a008970    p...    DCD    2583726448
        0x00003bf8:    b2801c80    ....    DCD    2994740352
        0x00003bfc:    f833f001    ..3.    DCD    4164153345
        0x00003c00:    d10f2800    .(..    DCD    3507431424
        0x00003c04:    48474621    !FGH    DCD    1212630561
        0x00003c08:    fafbf000    ....    DCD    4210814976
        0x00003c0c:    21008970    p..!    DCD    553683312
        0x00003c10:    b2821c80    ....    DCD    2994871424
        0x00003c14:    f7ff4630    0F..    DCD    4160702000
        0x00003c18:    7828fe1e    ..(x    DCD    2015952414
        0x00003c1c:    70281c40    @.(p    DCD    1881676864
        0x00003c20:    fc22f000    ..".    DCD    4230148096
        0x00003c24:    bdf82000    . ..    DCD    3187154944
        0x00003c28:    2036b5f8    ..6     DCD    540456440
        0x00003c2c:    feb9f000    ....    DCD    4273598464
        0x00003c30:    d1392802    .(9.    DCD    3510183938
        0x00003c34:    78284d3a    :M(x    DCD    2015907130
        0x00003c38:    d1352800    .(5.    DCD    3509921792
        0x00003c3c:    78004839    9H.x    DCD    2013284409
        0x00003c40:    d1312801    .(1.    DCD    3509659649
        0x00003c44:    f0004838    8H..    DCD    4026550328
        0x00003c48:    2800fa86    ...(    DCD    671152774
        0x00003c4c:    2880d02c    ,..(    DCD    679530540
        0x00003c50:    2080d901    ...     DCD    545315073
        0x00003c54:    2814e001    ...(    DCD    672456705
        0x00003c58:    211bd306    ...!    DCD    555471622
        0x00003c5c:    f0003814    .8..    DCD    4026546196
        0x00003c60:    211bff8a    ...!    DCD    555483018
        0x00003c64:    30144348    HC.0    DCD    806634312
        0x00003c68:    4669b2c2    ..iF    DCD    1181332162
        0x00003c6c:    f000482e    .H..    DCD    4026550318
        0x00003c70:    4e25faa6    ..%N    DCD    1311111846
        0x00003c74:    46014604    .F.F    DCD    1174488580
        0x00003c78:    9a008970    p...    DCD    2583726448
        0x00003c7c:    b2801c80    ....    DCD    2994740352
        0x00003c80:    fff1f000    ....    DCD    4294045696
        0x00003c84:    d10f2800    .(..    DCD    3507431424
        0x00003c88:    48264621    !F&H    DCD    1210467873
        0x00003c8c:    fab9f000    ....    DCD    4206489600
        0x00003c90:    21008970    p..!    DCD    553683312
        0x00003c94:    b2821c80    ....    DCD    2994871424
        0x00003c98:    f7ff4630    0F..    DCD    4160702000
        0x00003c9c:    7828fddc    ..(x    DCD    2015952348
        0x00003ca0:    70281c40    @.(p    DCD    1881676864
        0x00003ca4:    fbe0f000    ....    DCD    4225822720
        0x00003ca8:    bdf82000    . ..    DCD    3187154944
        0x00003cac:    4c16b510    ...L    DCD    1276556560
        0x00003cb0:    8960460a    .F`.    DCD    2304787978
        0x00003cb4:    300a2101    .!.0    DCD    805970177
        0x00003cb8:    f000b280    ....    DCD    4026577536
        0x00003cbc:    8960ffd4    ..`.    DCD    2304835540
        0x00003cc0:    300a2100    .!.0    DCD    805970176
        0x00003cc4:    4620b282    .. F    DCD    1176547970
        0x00003cc8:    fdc5f7ff    ....    DCD    4257609727
        0x00003ccc:    78084914    .I.x    DCD    2013808916
        0x00003cd0:    70081c40    @..p    DCD    1879579712
        0x00003cd4:    bd102000    . ..    DCD    3171950592
        0x00003cd8:    4d0bb570    p..M    DCD    1292612976
        0x00003cdc:    8968460c    .Fh.    DCD    2305312268
        0x00003ce0:    462b8809    ..+F    DCD    1177257993
        0x00003ce4:    791b1cc2    ...y    DCD    2031819970
        0x00003ce8:    d0214291    .B!.    DCD    3491840657
        0x00003cec:    42911d82    ...B    DCD    1116806530
        0x00003cf0:    4620d11b    .. F    DCD    1176555803
        0x00003cf4:    300878a1    .x.0    DCD    805861537
        0x00003cf8:    fb12f000    ....    DCD    4212322304
        0x00003cfc:    2200e03e    >.."    DCD    570482750
        0x00003d00:    e0394618    .F9.    DCD    3761849880
        0x00003d04:    29020000    ...)    DCD    687996928
        0x00003d08:    90e60000    ....    DCD    2430992384
        0x00003d0c:    351f2000    . .5    DCD    891232256
        0x00003d10:    36542000    . T6    DCD    911482880
        0x00003d14:    02092000    . ..    DCD    34152448
        0x00003d18:    d8030000    ....    DCD    3624075264
        0x00003d1c:    806d0000    ..m.    DCD    2154627072
        0x00003d20:    80872000    . ..    DCD    2156339200
        0x00003d24:    80cc2000    . ..    DCD    2160861184
        0x00003d28:    1dc22000    . ..    DCD    499261440
        0x00003d2c:    d1034291    .B..    DCD    3506651793
        0x00003d30:    280179a0    .y.(    DCD    671185312
        0x00003d34:    e021d0e3    ..!.    DCD    3760312547
        0x00003d38:    320a4602    .F.2    DCD    839534082
        0x00003d3c:    d1044291    .B..    DCD    3506717329
        0x00003d40:    480f7a21    !z.H    DCD    1208973857
        0x00003d44:    fa76f000    ..v.    DCD    4202098688
        0x00003d48:    300be018    ...0    DCD    806084632
        0x00003d4c:    d1154281    .B..    DCD    3507831425
        0x00003d50:    28017a20     z.(    DCD    671185440
        0x00003d54:    7a60d10a    ..`z    DCD    2053165322
        0x00003d58:    d1072800    .(..    DCD    3506907136
        0x00003d5c:    230188e9    ...#    DCD    587303145
        0x00003d60:    48082236    6".H    DCD    1208492598
        0x00003d64:    fed1f000    ....    DCD    4275171328
        0x00003d68:    fed5f000    ....    DCD    4275433472
        0x00003d6c:    280179a0    .y.(    DCD    671185312
        0x00003d70:    8821d104    ..!.    DCD    2283917572
        0x00003d74:    22007928    (y."    DCD    570456360
        0x00003d78:    ff87f000    ....    DCD    4287098880
        0x00003d7c:    bd702000    . p.    DCD    3178242048
        0x00003d80:    80870000    ....    DCD    2156331008
        0x00003d84:    d8062000    . ..    DCD    3624280064
        0x00003d88:    b5380000    ..8.    DCD    3040346112
        0x00003d8c:    46682401    .$hF    DCD    1181230081
        0x00003d90:    210c7004    .p.!    DCD    554463236
        0x00003d94:    f0004865    eH..    DCD    4026550373
        0x00003d98:    4d63ff48    H.cM    DCD    1298399048
        0x00003d9c:    70ec4669    iF.p    DCD    1894532713
        0x00003da0:    20351d2a    *.5     DCD    540351786
        0x00003da4:    ff77f000    ..w.    DCD    4286050304
        0x00003da8:    d0002800    .(..    DCD    3489671168
        0x00003dac:    f000712c    ,q..    DCD    4026560812
        0x00003db0:    495efc72    r.^I    DCD    1230961778
        0x00003db4:    f0002032    2 ..    DCD    4026540082
        0x00003db8:    2100ff3e    >..!    DCD    553713470
        0x00003dbc:    f0002032    2 ..    DCD    4026540082
        0x00003dc0:    bd38ff40    @.8.    DCD    3174629184
        0x00003dc4:    f000b510    ....    DCD    4026578192
        0x00003dc8:    bd10fcf7    ....    DCD    3172007159
        0x00003dcc:    4856b510    ..VH    DCD    1213642000
        0x00003dd0:    78802302    .#.x    DCD    2021663490
        0x00003dd4:    02012232    2"..    DCD    33628722
        0x00003dd8:    310e4856    VH.1    DCD    823019606
        0x00003ddc:    fe95f000    ....    DCD    4271239168
        0x00003de0:    70012101    .!.p    DCD    1879122177
        0x00003de4:    70412113    .!Ap    DCD    1883316499
        0x00003de8:    fe95f000    ....    DCD    4271239168
        0x00003dec:    b510bd10    ....    DCD    3037773072
        0x00003df0:    484d4604    .FMH    DCD    1213023748
        0x00003df4:    7880232c    ,#.x    DCD    2021663532
        0x00003df8:    02012232    2"..    DCD    33628722
        0x00003dfc:    310e484d    MH.1    DCD    823019597
        0x00003e00:    f0001e80    ....    DCD    4026539648
        0x00003e04:    4601fe82    ...F    DCD    1174535810
        0x00003e08:    72043020     0.r    DCD    1912877088
        0x00003e0c:    72422200    ."Br    DCD    1916936704
        0x00003e10:    f0004608    .F..    DCD    4026549768
        0x00003e14:    bd10fe80    ....    DCD    3172007552
        0x00003e18:    2350b510    ..P#    DCD    592491792
        0x00003e1c:    210d2232    2".!    DCD    554508850
        0x00003e20:    f0004845    EH..    DCD    4026550341
        0x00003e24:    4604fe72    r..F    DCD    1174732402
        0x00003e28:    fc51f000    ..Q.    DCD    4233228288
        0x00003e2c:    f0004620     F..    DCD    4026549792
        0x00003e30:    2102fe72    r..!    DCD    553844338
        0x00003e34:    f0002032    2 ..    DCD    4026540082
        0x00003e38:    bd10ff04    ....    DCD    3172007684
        0x00003e3c:    b510483e    >H..    DCD    3037743166
        0x00003e40:    22322301    .#2"    DCD    573711105
        0x00003e44:    380b210d    .!.8    DCD    940253453
        0x00003e48:    fe5ff000    .._.    DCD    4267700224
        0x00003e4c:    70012102    .!.p    DCD    1879122178
        0x00003e50:    fe61f000    ..a.    DCD    4267831296
        0x00003e54:    b510bd10    ....    DCD    3037773072
        0x00003e58:    fcfbf000    ....    DCD    4244369408
        0x00003e5c:    4b36bd10    ..6K    DCD    1261878544
        0x00003e60:    429ab510    ...B    DCD    1117435152
        0x00003e64:    461ad901    ...F    DCD    1176164609
        0x00003e68:    2a00e002    ...*    DCD    704700418
        0x00003e6c:    2201d100    ..."    DCD    570544384
        0x00003e70:    ff17f000    ....    DCD    4279758848
        0x00003e74:    b510bd10    ....    DCD    3037773072
        0x00003e78:    20322102    .!2     DCD    540156162
        0x00003e7c:    fee1f000    ....    DCD    4276219904
        0x00003e80:    2314482d    -H.#    DCD    588531757
        0x00003e84:    210d2232    2".!    DCD    554508850
        0x00003e88:    f0001c40    @...    DCD    4026539072
        0x00003e8c:    2100fe3e    >..!    DCD    553713214
        0x00003e90:    22117401    .t."    DCD    571569153
        0x00003e94:    70417002    .pAp    DCD    1883336706
        0x00003e98:    74812101    .!.t    DCD    1954619649
        0x00003e9c:    8181210a    .!..    DCD    2172723466
        0x00003ea0:    81c12105    .!..    DCD    2176917765
        0x00003ea4:    fe37f000    ..7.    DCD    4265078784
        0x00003ea8:    4822bd10    .."H    DCD    1210236176
        0x00003eac:    231eb510    ...#    DCD    589214992
        0x00003eb0:    210d2232    2".!    DCD    554508850
        0x00003eb4:    f0001cc0    ....    DCD    4026539200
        0x00003eb8:    4604fe28    (..F    DCD    1174732328
        0x00003ebc:    77202001    .  w    DCD    1998594049
        0x00003ec0:    22064620     F."    DCD    570836512
        0x00003ec4:    301d491e    .I.0    DCD    807225630
        0x00003ec8:    fdeff000    ....    DCD    4260360192
        0x00003ecc:    8221210a    .!!.    DCD    2183209226
        0x00003ed0:    21208261    a. !    DCD    555778657
        0x00003ed4:    83618321    !.a.    DCD    2204205857
        0x00003ed8:    82a12100    .!..    DCD    2191597824
        0x00003edc:    20237061    ap#     DCD    539193441
        0x00003ee0:    20645501    .Ud     DCD    543446273
        0x00003ee4:    20ff82e0    ...     DCD    553616096
        0x00003ee8:    81a03081    .0..    DCD    2174759041
        0x00003eec:    306120ff    . a0    DCD    811671807
        0x00003ef0:    201281e0    ...     DCD    538083808
        0x00003ef4:    22af7020     p."    DCD    581922848
        0x00003ef8:    21320092    ..2!    DCD    556925074
        0x00003efc:    f7ff4811    .H..    DCD    4160702481
        0x00003f00:    4620ffae    .. F    DCD    1176567726
        0x00003f04:    fe07f000    ....    DCD    4261933056
        0x00003f08:    480abd10    ...H    DCD    1208663312
        0x00003f0c:    2301b510    ...#    DCD    587314448
        0x00003f10:    210d2232    2".!    DCD    554508850
        0x00003f14:    f000380b    .8..    DCD    4026546187
        0x00003f18:    2111fdf8    ...!    DCD    554827256
        0x00003f1c:    f0007001    .p..    DCD    4026560513
        0x00003f20:    bd10fdfa    ....    DCD    3172007418
        0x00003f24:    64c84908    .I.d    DCD    1690847496
        0x00003f28:    806e4770    pGn.    DCD    2154710896
        0x00003f2c:    35b82000    . .5    DCD    901259264
        0x00003f30:    38042000    . .8    DCD    939794432
        0x00003f34:    340e0000    ...4    DCD    873332736
        0x00003f38:    75300000    ..0u    DCD    1966080000
        0x00003f3c:    807c0000    ..|.    DCD    2155610112
        0x00003f40:    c8012000    . ..    DCD    3355516928
        0x00003f44:    01e00000    ....    DCD    31457280
        0x00003f48:    b5102000    . ..    DCD    3037732864
        0x00003f4c:    f0004610    .F..    DCD    4026549776
        0x00003f50:    2800fd28    (..(    DCD    671153448
        0x00003f54:    2301d109    ...#    DCD    587321609
        0x00003f58:    210d2232    2".!    DCD    554508850
        0x00003f5c:    f0004865    eH..    DCD    4026550373
        0x00003f60:    2101fdd4    ...!    DCD    553778644
        0x00003f64:    f0007001    .p..    DCD    4026560513
        0x00003f68:    2000fdd6    ...     DCD    536935894
        0x00003f6c:    b570bd10    ..p.    DCD    3044064528
        0x00003f70:    46157808    .x.F    DCD    1175812104
        0x00003f74:    d02d280f    .(-.    DCD    3492620303
        0x00003f78:    2801dc08    ...(    DCD    671210504
        0x00003f7c:    2802d00d    ...(    DCD    671272973
        0x00003f80:    2803d035    5..(    DCD    671338549
        0x00003f84:    280ed01c    ...(    DCD    672059420
        0x00003f88:    e01fd136    6...    DCD    3760181558
        0x00003f8c:    d0252810    .(%.    DCD    3492096016
        0x00003f90:    d0232811    .(#.    DCD    3491964945
        0x00003f94:    d12f2812    .(/.    DCD    3509528594
        0x00003f98:    7848e029    ).Hx    DCD    2018041897
        0x00003f9c:    d12b2800    .(+.    DCD    3509266432
        0x00003fa0:    23224854    TH"#    DCD    589449300
        0x00003fa4:    210d2232    2".!    DCD    554508850
        0x00003fa8:    f0001c80    ....    DCD    4026539136
        0x00003fac:    4604fdae    ...F    DCD    1174732206
        0x00003fb0:    46284601    .F(F    DCD    1177044481
        0x00003fb4:    fc11f000    ....    DCD    4229033984
        0x00003fb8:    f0004620     F..    DCD    4026549792
        0x00003fbc:    e01bfdac    ....    DCD    3759930796
        0x00003fc0:    28007848    Hx.(    DCD    671119432
        0x00003fc4:    f000d118    ....    DCD    4026585368
        0x00003fc8:    e015fc1c    ....    DCD    3759537180
        0x00003fcc:    f0007848    Hx..    DCD    4026562632
        0x00003fd0:    e011fc26    &...    DCD    3759275046
        0x00003fd4:    f0007848    Hx..    DCD    4026562632
        0x00003fd8:    e00dfc23    #...    DCD    3759012899
        0x00003fdc:    28447848    HxD(    DCD    675575880
        0x00003fe0:    f7ffd002    ....    DCD    4160737282
        0x00003fe4:    e007ff48    H...    DCD    3758620488
        0x00003fe8:    ff5ff7ff    .._.    DCD    4284479487
        0x00003fec:    7848e004    ..Hx    DCD    2018041860
        0x00003ff0:    d1012844    D(..    DCD    3506513988
        0x00003ff4:    fc20f000    .. .    DCD    4230017024
        0x00003ff8:    bd702000    . p.    DCD    3178242048
        0x00003ffc:    461db570    p..F    DCD    1176352112
        0x00004000:    460c4616    .F.F    DCD    1175209494
        0x00004004:    f0004610    .F..    DCD    4026549776
        0x00004008:    2802fccc    ...(    DCD    671284428
        0x0000400c:    0a28d121    !.(.    DCD    170447137
        0x00004010:    28ff4d39    9M.(    DCD    687820089
        0x00004014:    d01a70a8    .p..    DCD    3491393704
        0x00004018:    48372132    2!7H    DCD    1211572530
        0x0000401c:    fe47f000    ..G.    DCD    4266127360
        0x00004020:    46302105    .!0F    DCD    1177559301
        0x00004024:    fe0df000    ....    DCD    4262326272
        0x00004028:    f0004620     F..    DCD    4026549792
        0x0000402c:    8821fb4a    J.!.    DCD    2283928394
        0x00004030:    7a618029    ).az    DCD    2053210153
        0x00004034:    46217169    iq!F    DCD    1176596841
        0x00004038:    310a2206    .".1    DCD    822747654
        0x0000403c:    f0001da8    ....    DCD    4026539432
        0x00004040:    2000fd34    4..     DCD    536935732
        0x00004044:    fed3f7ff    ....    DCD    4275304447
        0x00004048:    ff05f7ff    ....    DCD    4278581247
        0x0000404c:    f7ffe001    ....    DCD    4160741377
        0x00004050:    2000fee3    ...     DCD    536936163
        0x00004054:    b510bd70    p...    DCD    3037773168
        0x00004058:    780a4610    .F.x    DCD    2013939216
        0x0000405c:    d10b2a0a    .*..    DCD    3507169802
        0x00004060:    29007849    Ix.)    DCD    687896649
        0x00004064:    4608d003    ...F    DCD    1174982659
        0x00004068:    fbd7f000    ....    DCD    4225232896
        0x0000406c:    2105e004    ...!    DCD    554033156
        0x00004070:    fde7f000    ....    DCD    4259835904
        0x00004074:    fbd2f000    ....    DCD    4224905216
        0x00004078:    bd102000    . ..    DCD    3171950592
        0x0000407c:    4610b510    ...F    DCD    1175500048
        0x00004080:    fb8ef000    ....    DCD    4220448768
        0x00004084:    bd102000    . ..    DCD    3171950592
        0x00004088:    481ab510    ...H    DCD    1209709840
        0x0000408c:    78802306    .#.x    DCD    2021663494
        0x00004090:    02012232    2"..    DCD    33628722
        0x00004094:    310e481a    .H.1    DCD    823019546
        0x00004098:    fd37f000    ..7.    DCD    4248301568
        0x0000409c:    70012100    .!.p    DCD    1879122176
        0x000040a0:    fd39f000    ..9.    DCD    4248432640
        0x000040a4:    bd102000    . ..    DCD    3171950592
        0x000040a8:    4610b510    ...F    DCD    1175500048
        0x000040ac:    f000460c    .F..    DCD    4026549772
        0x000040b0:    2801fc78    x..(    DCD    671218808
        0x000040b4:    7820d108    .. x    DCD    2015416584
        0x000040b8:    d1052800    .(..    DCD    3506776064
        0x000040bc:    fe82f7ff    ....    DCD    4269996031
        0x000040c0:    d0012800    .(..    DCD    3489736704
        0x000040c4:    fbb4f000    ....    DCD    4222939136
        0x000040c8:    bd102000    . ..    DCD    3171950592
        0x000040cc:    460cb510    ...F    DCD    1175237904
        0x000040d0:    22124620     F."    DCD    571622944
        0x000040d4:    300ca10b    ...0    DCD    806134027
        0x000040d8:    fd35f000    ..5.    DCD    4248170496
        0x000040dc:    d1062800    .(..    DCD    3506841600
        0x000040e0:    1ca12206    ."..    DCD    480322054
        0x000040e4:    f000480c    .H..    DCD    4026550284
        0x000040e8:    f7fffce0    ....    DCD    4160748768
        0x000040ec:    2000ff0e    ...     DCD    536936206
        0x000040f0:    3402bd10    ...4    DCD    872594704
        0x000040f4:    806e0000    ..n.    DCD    2154692608
        0x000040f8:    c8012000    . ..    DCD    3355516928
        0x000040fc:    38100000    ...8    DCD    940572672
        0x00004100:    07110000    ....    DCD    118554624
        0x00004104:    d2495cb7    .\I.    DCD    3528023223
        0x00004108:    7140a304    ..@q    DCD    1900061444
        0x0000410c:    8535b5a0    ..5.    DCD    2234889632
        0x00004110:    0783b03e    >...    DCD    126070846
        0x00004114:    807c0000    ..|.    DCD    2155610112
        0x00004118:    b5f82000    . ..    DCD    3052937216
        0x0000411c:    460d4604    .F.F    DCD    1175275012
        0x00004120:    9f061c48    H...    DCD    2667977800
        0x00004124:    2100c424    $..!    DCD    553698340
        0x00004128:    60a16061    a`.`    DCD    1621188705
        0x0000412c:    60204350    PC `    DCD    1612727120
        0x00004130:    2103461e    .F.!    DCD    553862686
        0x00004134:    f0003c08    .<..    DCD    4026547208
        0x00004138:    6160fdc0    ..`a    DCD    1633746368
        0x0000413c:    21202000    .  !    DCD    555753472
        0x00004140:    42af5508    .U.B    DCD    1118786824
        0x00004144:    42beda06    ...B    DCD    1119803910
        0x00004148:    2e00dc04    ....    DCD    771808260
        0x0000414c:    61e7dd02    ...a    DCD    1642585346
        0x00004150:    bdf861a6    .a..    DCD    3187171750
        0x00004154:    6902e7fe    ...i    DCD    1761798142
        0x00004158:    428a68c1    .h.B    DCD    1116367041
        0x0000415c:    1a50db01    ..P.    DCD    441506561
        0x00004160:    68804770    pG.h    DCD    1753237360
        0x00004164:    1a401880    ..@.    DCD    440408192
        0x00004168:    b5f84770    pG..    DCD    3052947312
        0x0000416c:    460f4615    .F.F    DCD    1175406101
        0x00004170:    f7ff4604    .F..    DCD    4160701956
        0x00004174:    6861fff0    ..ah    DCD    1751252976
        0x00004178:    28001a08    ...(    DCD    671095304
        0x0000417c:    42a8dd11    ...B    DCD    1118362897
        0x00004180:    b2c5da00    ....    DCD    2999310848
        0x00004184:    68a26920     i.h    DCD    1755474208
        0x00004188:    1a8e1941    A...    DCD    445520193
        0x0000418c:    2e006961    ai..    DCD    771778913
        0x00004190:    1808dc08    ....    DCD    403233800
        0x00004194:    4639462a    *F9F    DCD    1178158634
        0x00004198:    fc87f000    ....    DCD    4236767232
        0x0000419c:    19406920     i@.    DCD    423651616
        0x000041a0:    bdf86120     a..    DCD    3187171616
        0x000041a4:    1bad1808    ....    DCD    464328712
        0x000041a8:    4639462a    *F9F    DCD    1178158634
        0x000041ac:    fc7df000    ..}.    DCD    4236111872
        0x000041b0:    463219e9    ..2F    DCD    1177688553
        0x000041b4:    f0006960    `i..    DCD    4026558816
        0x000041b8:    6126fc78    x.&a    DCD    1629944952
        0x000041bc:    b530bdf8    ..0.    DCD    3039870456
        0x000041c0:    460d4613    .F.F    DCD    1175275027
        0x000041c4:    f7ff4604    .F..    DCD    4160701956
        0x000041c8:    2800ffc6    ...(    DCD    671154118
        0x000041cc:    4298dd16    ...B    DCD    1117314326
        0x000041d0:    b2c3da00    ....    DCD    2999179776
        0x000041d4:    68a268e0    .h.h    DCD    1755474144
        0x000041d8:    1a8918c1    ....    DCD    445192385
        0x000041dc:    d1014290    .B..    DCD    3506520720
        0x000041e0:    e0036960    `i..    DCD    3758319968
        0x000041e4:    dc032900    .)..    DCD    3691194624
        0x000041e8:    18086961    ai..    DCD    403204449
        0x000041ec:    e0066028    (`..    DCD    3758514216
        0x000041f0:    18106962    bi..    DCD    403728738
        0x000041f4:    1a586028    (`X.    DCD    441999400
        0x000041f8:    e000b2c3    ....    DCD    3758142147
        0x000041fc:    46182300    .#.F    DCD    1175986944
        0x00004200:    b530bd30    0.0.    DCD    3039870256
        0x00004204:    4604460b    .F.F    DCD    1174685195
        0x00004208:    ffa5f7ff    ....    DCD    4289067007
        0x0000420c:    dd0e2800    .(..    DCD    3708692480
        0x00004210:    da004298    .B..    DCD    3657450136
        0x00004214:    68e1b2c3    ...h    DCD    1759621827
        0x00004218:    18ca68a5    .h..    DCD    415918245
        0x0000421c:    42a91b50    P..B    DCD    1118378832
        0x00004220:    60e3d101    ...`    DCD    1625542913
        0x00004224:    2800e004    ...(    DCD    671145988
        0x00004228:    60e2dc02    ...`    DCD    1625480194
        0x0000422c:    2300e000    ...#    DCD    587259904
        0x00004230:    bd304618    .F0.    DCD    3174057496
        0x00004234:    d0032902    .)..    DCD    3489868034
        0x00004238:    d1002901    .)..    DCD    3506448641
        0x0000423c:    47707001    .ppG    DCD    1198551041
        0x00004240:    e7fb2100    .!..    DCD    3891994880
        0x00004244:    4cf7b570    p..L    DCD    1291302256
        0x00004248:    460a4616    .F.F    DCD    1175078422
        0x0000424c:    78254603    .F%x    DCD    2015708675
        0x00004250:    46204631    1F F    DCD    1176520241
        0x00004254:    ffeef7ff    ....    DCD    4293851135
        0x00004258:    46194620     F.F    DCD    1176061472
        0x0000425c:    f7ff3042    B0..    DCD    4160696386
        0x00004260:    4621ff84    ..!F    DCD    1176633220
        0x00004264:    30424608    .FB0    DCD    809649672
        0x00004268:    f9f3f000    ....    DCD    4193513472
        0x0000426c:    28017860    `x.(    DCD    671184992
        0x00004270:    7820d002    .. x    DCD    2015416322
        0x00004274:    d00342a8    .B..    DCD    3489874600
        0x00004278:    fea8f7fe    ....    DCD    4272486398
        0x0000427c:    70602000    . `p    DCD    1885347840
        0x00004280:    4ae8bd70    p..J    DCD    1256766832
        0x00004284:    1f92b510    ....    DCD    529708304
        0x00004288:    28007852    Rx.(    DCD    671119442
        0x0000428c:    2802d002    ...(    DCD    671272962
        0x00004290:    e7fed002    ....    DCD    3892236290
        0x00004294:    e0002108    .!..    DCD    3758104840
        0x00004298:    48e2b2c9    ...H    DCD    1222816457
        0x0000429c:    f7ff1cc0    ....    DCD    4160691392
        0x000042a0:    4ae0ffd1    ...J    DCD    1256259537
        0x000042a4:    1f522108    .!R.    DCD    525476104
        0x000042a8:    18504be0    .KP.    DCD    407915488
        0x000042ac:    fea4f7fe    ....    DCD    4272224254
        0x000042b0:    b5f8bd10    ....    DCD    3052977424
        0x000042b4:    d0002800    .(..    DCD    3489671168
        0x000042b8:    4ddae7fe    ...M    DCD    1306191870
        0x000042bc:    1fad2600    .&..    DCD    531441152
        0x000042c0:    1da8702e    .p..    DCD    497578030
        0x000042c4:    78004629    )F.x    DCD    2013283881
        0x000042c8:    22103111    .1."    DCD    571486481
        0x000042cc:    d11d2801    .(..    DCD    3508348929
        0x000042d0:    30134608    .F.0    DCD    806569480
        0x000042d4:    f978f000    ..x.    DCD    4185452544
        0x000042d8:    1ce94604    .F..    DCD    485049860
        0x000042dc:    30214608    .F!0    DCD    807486984
        0x000042e0:    f9c7f000    ....    DCD    4190629888
        0x000042e4:    78b81cef    ...x    DCD    2025331951
        0x000042e8:    d1022801    .(..    DCD    3506579457
        0x000042ec:    fb2af000    ..*.    DCD    4213895168
        0x000042f0:    002170be    .p!.    DCD    2191550
        0x000042f4:    4acbd005    ...J    DCD    1254871045
        0x000042f8:    1f924bcd    .K..    DCD    529681357
        0x000042fc:    30114610    .F.0    DCD    806438416
        0x00004300:    7828e00b    ..(x    DCD    2015944715
        0x00004304:    d0032802    .(..    DCD    3489867778
        0x00004308:    d0012801    .(..    DCD    3489736705
        0x0000430c:    bdf870ae    .p..    DCD    3187175598
        0x00004310:    21004ac5    .J.!    DCD    553667269
        0x00004314:    1f924bc6    .K..    DCD    529681350
        0x00004318:    f7fe4608    .F..    DCD    4160636424
        0x0000431c:    bdf8fe7a    z...    DCD    3187211898
        0x00004320:    4601460a    .F.F    DCD    1174488586
        0x00004324:    b51048c0    .H..    DCD    3037743296
        0x00004328:    f7ff301e    .0..    DCD    4160696350
        0x0000432c:    49bdff1e    ...I    DCD    1237188382
        0x00004330:    46081ec9    ...F    DCD    1174937289
        0x00004334:    f0003021    !0..    DCD    4026544161
        0x00004338:    4cbaf98c    ...L    DCD    1287321996
        0x0000433c:    78601ee4    ..`x    DCD    2019565284
        0x00004340:    d1042801    .(..    DCD    3506710529
        0x00004344:    f0002002    . ..    DCD    4026540034
        0x00004348:    2000fafd    ...     DCD    536935165
        0x0000434c:    b6727060    `pr.    DCD    3060953184
        0x00004350:    1f8048b5    .H..    DCD    528500917
        0x00004354:    29007881    .x.)    DCD    687896705
        0x00004358:    2101d104    ...!    DCD    553767172
        0x0000435c:    20007081    .p.     DCD    536899713
        0x00004360:    ffa7f7ff    ....    DCD    4289198079
        0x00004364:    bd10b662    b...    DCD    3171989090
        0x00004368:    b50848af    .H..    DCD    3037218991
        0x0000436c:    f000301e    .0..    DCD    4026544158
        0x00004370:    2800f922    "..(    DCD    671152418
        0x00004374:    48abd11b    ...H    DCD    1219219739
        0x00004378:    f0003042    B0..    DCD    4026544194
        0x0000437c:    2800f91c    ...(    DCD    671152412
        0x00004380:    48abd115    ...H    DCD    1219219733
        0x00004384:    4baa9000    ...K    DCD    1269469184
        0x00004388:    21e148a7    .H.!    DCD    568412327
        0x0000438c:    22013bc8    .;."    DCD    570506184
        0x00004390:    301e00c9    ...0    DCD    807272649
        0x00004394:    fec1f7ff    ....    DCD    4274124799
        0x00004398:    305f20ff    . _0    DCD    811540735
        0x0000439c:    48a19000    ...H    DCD    1218547712
        0x000043a0:    239621ff    .!.#    DCD    597041663
        0x000043a4:    31f52201    .".1    DCD    838148609
        0x000043a8:    f7ff3042    B0..    DCD    4160696386
        0x000043ac:    bd08feb6    ....    DCD    3171483318
        0x000043b0:    b5104a9d    .J..    DCD    3037743773
        0x000043b4:    21081f52    R..!    DCD    554180434
        0x000043b8:    18504b9c    .KP.    DCD    407915420
        0x000043bc:    fe1cf7fe    ....    DCD    4263311358
        0x000043c0:    4998bd10    ...I    DCD    1234746640
        0x000043c4:    1ec92000    . ..    DCD    516497408
        0x000043c8:    70887048    Hp.p    DCD    1887989832
        0x000043cc:    700a2201    .".p    DCD    1879712257
        0x000043d0:    70481cc9    ..Hp    DCD    1883774153
        0x000043d4:    700a7088    .p.p    DCD    1879732360
        0x000043d8:    b5104770    pG..    DCD    3037742960
        0x000043dc:    78004896    .H.x    DCD    2013284502
        0x000043e0:    d1162800    .(..    DCD    3507890176
        0x000043e4:    1ec04890    .H..    DCD    515917968
        0x000043e8:    28017800    .x.(    DCD    671184896
        0x000043ec:    488dd111    ...H    DCD    1217253649
        0x000043f0:    f7ff3042    B0..    DCD    4160696386
        0x000043f4:    2800feb0    ...(    DCD    671153840
        0x000043f8:    498fdd0b    ...I    DCD    1234165003
        0x000043fc:    da04284a    J(..    DCD    3657705546
        0x00004400:    1c427808    .xB.    DCD    474118152
        0x00004404:    280a700a    .p.(    DCD    671772682
        0x00004408:    2000d303    ...     DCD    536924931
        0x0000440c:    f0007008    .p..    DCD    4026560520
        0x00004410:    bd10faa6    ....    DCD    3172006566
        0x00004414:    4889b510    ...H    DCD    1216984336
        0x00004418:    02007880    .x..    DCD    33585280
        0x0000441c:    f0003032    20..    DCD    4026544178
        0x00004420:    2805fac0    ...(    DCD    671480512
        0x00004424:    2002d10a    ...     DCD    537055498
        0x00004428:    fa8cf000    ....    DCD    4203540480
        0x0000442c:    487d2102    .!}H    DCD    1216160002
        0x00004430:    ff00f7ff    ....    DCD    4278253567
        0x00004434:    2101487c    |H.!    DCD    553732220
        0x00004438:    7001303e    >0.p    DCD    1879126078
        0x0000443c:    b510bd10    ....    DCD    3037773072
        0x00004440:    48782101    .!xH    DCD    1215832321
        0x00004444:    fef6f7ff    ....    DCD    4277598207
        0x00004448:    1ec94977    wI..    DCD    516508023
        0x0000444c:    30214608    .F!0    DCD    807486984
        0x00004450:    f90ff000    ....    DCD    4178571264
        0x00004454:    1ee44c74    tL..    DCD    518278260
        0x00004458:    280178a0    .x.(    DCD    671185056
        0x0000445c:    f000d103    ....    DCD    4026585347
        0x00004460:    2000fa71    q..     DCD    536935025
        0x00004464:    bd1070a0    .p..    DCD    3171971232
        0x00004468:    b510496f    oI..    DCD    3037743471
        0x0000446c:    30424608    .FB0    DCD    809649672
        0x00004470:    f8fff000    ....    DCD    4177522688
        0x00004474:    78a04c6c    lL.x    DCD    2023771244
        0x00004478:    d1032801    .(..    DCD    3506644993
        0x0000447c:    fd2af7fe    ..*.    DCD    4247451646
        0x00004480:    70a02000    . .p    DCD    1889542144
        0x00004484:    b510bd10    ....    DCD    3037773072
        0x00004488:    ff92f7ff    ....    DCD    4287821823
        0x0000448c:    30624866    fHb0    DCD    811747430
        0x00004490:    28007800    .x.(    DCD    671119360
        0x00004494:    f7fed007    ....    DCD    4160671751
        0x00004498:    4c62fd21    !.bL    DCD    1281555745
        0x0000449c:    7820343e    >4 x    DCD    2015376446
        0x000044a0:    d0032801    .(..    DCD    3489867777
        0x000044a4:    f7fee008    ....    DCD    4160675848
        0x000044a8:    e7f6fd15    ....    DCD    3891723541
        0x000044ac:    20002101    .!.     DCD    536879361
        0x000044b0:    fb3cf7fe    ..<.    DCD    4215076862
        0x000044b4:    d0032800    .(..    DCD    3489867776
        0x000044b8:    28007820     x.(    DCD    671119392
        0x000044bc:    e00ad003    ....    DCD    3758804995
        0x000044c0:    ffbdf7ff    ....    DCD    4290639871
        0x000044c4:    2101e007    ...!    DCD    553771015
        0x000044c8:    f7fe2000    . ..    DCD    4160626688
        0x000044cc:    2800fb2f    /..(    DCD    671152943
        0x000044d0:    f7ffd001    ....    DCD    4160737281
        0x000044d4:    495aff9f    ..ZI    DCD    1230700447
        0x000044d8:    70082000    . .p    DCD    1879580672
        0x000044dc:    b5f8bd10    ....    DCD    3052977424
        0x000044e0:    24004d59    YM.$    DCD    603999577
        0x000044e4:    90006d68    hm..    DCD    2415947112
        0x000044e8:    fe7ef7fd    ..~.    DCD    4269733885
        0x000044ec:    28004e57    WN.(    DCD    671108695
        0x000044f0:    7930d102    ..0y    DCD    2033242370
        0x000044f4:    d1012802    .(..    DCD    3506513922
        0x000044f8:    90002000    . ..    DCD    2415927296
        0x000044fc:    f895f7fe    ....    DCD    4170577918
        0x00004500:    d1202800    .( .    DCD    3508545536
        0x00004504:    fb2bf000    ..+.    DCD    4213960704
        0x00004508:    d01c2800    .(..    DCD    3491506176
        0x0000450c:    20052401    .$.     DCD    537207809
        0x00004510:    8a800700    ....    DCD    2323646208
        0x00004514:    d11507c0    ....    DCD    3507816384
        0x00004518:    fa6df000    ..m.    DCD    4201508864
        0x0000451c:    d1122800    .(..    DCD    3507628032
        0x00004520:    6980484b    KH.i    DCD    1770014795
        0x00004524:    d0012800    .(..    DCD    3489736704
        0x00004528:    90006d68    hm..    DCD    2415947112
        0x0000452c:    466878b1    .xhF    DCD    1181251761
        0x00004530:    fb1bf000    ....    DCD    4212912128
        0x00004534:    d0062800    .(..    DCD    3490064384
        0x00004538:    466878b1    .xhF    DCD    1181251761
        0x0000453c:    fa6df000    ..m.    DCD    4201508864
        0x00004540:    d0002800    .(..    DCD    3489671168
        0x00004544:    46202404    .$ F    DCD    1176511492
        0x00004548:    b538bdf8    ..8.    DCD    3040394744
        0x0000454c:    ffc7f7ff    ....    DCD    4291295231
        0x00004550:    70084669    iF.p    DCD    1879590505
        0x00004554:    28044604    .F.(    DCD    671368708
        0x00004558:    4832d119    ..2H    DCD    1211289881
        0x0000455c:    f7ff301e    .0..    DCD    4160696350
        0x00004560:    2800fdfa    ...(    DCD    671153658
        0x00004564:    482fd109    ../H    DCD    1211093257
        0x00004568:    f7ff3042    B0..    DCD    4160696386
        0x0000456c:    2800fdf4    ...(    DCD    671153652
        0x00004570:    f7fed103    ....    DCD    4160672003
        0x00004574:    2800fd31    1..(    DCD    671153457
        0x00004578:    4830d00a    ..0H    DCD    1211158538
        0x0000457c:    02007880    .x..    DCD    33585280
        0x00004580:    f0003032    20..    DCD    4026544178
        0x00004584:    2805fa0e    ...(    DCD    671480334
        0x00004588:    f7fdd101    ....    DCD    4160606465
        0x0000458c:    bd38fdcc    ..8.    DCD    3174628812
        0x00004590:    fd79f7fe    ..y.    DCD    4252628990
        0x00004594:    d1f82800    .(..    DCD    3522701312
        0x00004598:    d1f82c04    .,..    DCD    3522702340
        0x0000459c:    fc9ef7fe    ....    DCD    4238276606
        0x000045a0:    28002101    .!.(    DCD    671097089
        0x000045a4:    4826d004    ..&H    DCD    1210503172
        0x000045a8:    f7fd7001    .p..    DCD    4160581633
        0x000045ac:    bd38fdc9    ..8.    DCD    3174628809
        0x000045b0:    70014668    hF.p    DCD    1879131752
        0x000045b4:    2800bd38    8..(    DCD    671137080
        0x000045b8:    6940d004    ..@i    DCD    1765855236
        0x000045bc:    d0012800    .(..    DCD    3489736704
        0x000045c0:    47702001    . pG    DCD    1198530561
        0x000045c4:    47702000    . pG    DCD    1198530560
        0x000045c8:    4614b5f8    ...F    DCD    1175762424
        0x000045cc:    4605460e    .F.F    DCD    1174750734
        0x000045d0:    fdc1f7ff    ....    DCD    4257347583
        0x000045d4:    dd222800    .(".    DCD    3710003200
        0x000045d8:    da0042a0    .B..    DCD    3657450144
        0x000045dc:    68e8b2c4    ...h    DCD    1760080580
        0x000045e0:    190168aa    .h..    DCD    419522730
        0x000045e4:    69691a8f    ..ii    DCD    1768495759
        0x000045e8:    dc082f00    ./..    DCD    3691523840
        0x000045ec:    46221809    .."F    DCD    1176639497
        0x000045f0:    f0004630    0F..    DCD    4026549808
        0x000045f4:    68e8fa5a    Z..h    DCD    1760098906
        0x000045f8:    60e81900    ...`    DCD    1625823488
        0x000045fc:    1809e00c    ....    DCD    403300364
        0x00004600:    46301be2    ..0F    DCD    1177557986
        0x00004604:    f0009200    ....    DCD    4026569216
        0x00004608:    9a00fa50    P...    DCD    2583755344
        0x0000460c:    19906969    ii..    DCD    428894569
        0x00004610:    f000463a    :F..    DCD    4026549818
        0x00004614:    60effa4a    J..`    DCD    1626339914
        0x00004618:    55302000    . 0U    DCD    1429217280
        0x0000461c:    2400e001    ...$    DCD    604037121
        0x00004620:    46207034    4p F    DCD    1176530996
        0x00004624:    808abdf8    ....    DCD    2156576248
        0x00004628:    2a4d2000    . M*    DCD    709697536
        0x0000462c:    2a7d2000    . }*    DCD    712843264
        0x00004630:    03522000    . R.    DCD    55713792
        0x00004634:    806d0000    ..m.    DCD    2154627072
        0x00004638:    90f32000    . ..    DCD    2431852544
        0x0000463c:    806e2000    . n.    DCD    2154700800
        0x00004640:    807a2000    . z.    DCD    2155487232
        0x00004644:    02602000    . `.    DCD    39854080
        0x00004648:    07b22000    . ..    DCD    129114112
        0x0000464c:    07500008    ..P.    DCD    122683400
        0x00004650:    b5100008    ....    DCD    3037724680
        0x00004654:    4603460c    .F.F    DCD    1174619660
        0x00004658:    fd7df7ff    ..}.    DCD    4252891135
        0x0000465c:    428869d9    .i.B    DCD    1116236249
        0x00004660:    3320dd06    .. 3    DCD    857791750
        0x00004664:    28007818    .x.(    DCD    671119384
        0x00004668:    2001d102    ...     DCD    536989954
        0x0000466c:    70187060    `p.p    DCD    1880649824
        0x00004670:    b510bd10    ....    DCD    3037773072
        0x00004674:    4603460c    .F.F    DCD    1174619660
        0x00004678:    fd6df7ff    ..m.    DCD    4251842559
        0x0000467c:    42886999    .i.B    DCD    1116236185
        0x00004680:    3320dc07    .. 3    DCD    857791495
        0x00004684:    28017818    .x.(    DCD    671184920
        0x00004688:    2000d103    ...     DCD    536924419
        0x0000468c:    20017018    .p.     DCD    536965144
        0x00004690:    bd1070a0    .p..    DCD    3171971232
        0x00004694:    b5100000    ....    DCD    3037724672
        0x00004698:    f7ff2002    . ..    DCD    4160692226
        0x0000469c:    f000fc43    C...    DCD    4026596419
        0x000046a0:    bd10f93a    :...    DCD    3172006202
        0x000046a4:    4875b510    ..uH    DCD    1215673616
        0x000046a8:    78802301    .#.x    DCD    2021663489
        0x000046ac:    02012232    2"..    DCD    33628722
        0x000046b0:    310c4874    tH.1    DCD    822888564
        0x000046b4:    fa29f000    ..).    DCD    4197052416
        0x000046b8:    70012101    .!.p    DCD    1879122177
        0x000046bc:    fa2bf000    ..+.    DCD    4197183488
        0x000046c0:    b510bd10    ....    DCD    3037773072
        0x000046c4:    f92ff000    ../.    DCD    4180668416
        0x000046c8:    ffecf7ff    ....    DCD    4293720063
        0x000046cc:    b5f0bd10    ....    DCD    3052453136
        0x000046d0:    b0934604    .F..    DCD    2962441732
        0x000046d4:    7020200e    .  p    DCD    1881153550
        0x000046d8:    70672700    .'gp    DCD    1885808384
        0x000046dc:    81a020a0    . ..    DCD    2174754976
        0x000046e0:    200781e0    ...     DCD    537362912
        0x000046e4:    20017420     t.     DCD    536966176
        0x000046e8:    201c7460    `t.     DCD    538735712
        0x000046ec:    462574e0    .t%F    DCD    1176859872
        0x000046f0:    201f4622    "F.     DCD    538920482
        0x000046f4:    32143520     5.2    DCD    840185120
        0x000046f8:    46167428    (t.F    DCD    1175876648
        0x000046fc:    200b1e51    Q..     DCD    537599569
        0x00004700:    fac9f000    ....    DCD    4207538176
        0x00004704:    d0052800    .(..    DCD    3489998848
        0x00004708:    74e22212    .".t    DCD    1960976914
        0x0000470c:    4630a15e    ^.0F    DCD    1177592158
        0x00004710:    f9cbf000    ....    DCD    4190892032
        0x00004714:    32314622    "F12    DCD    842090018
        0x00004718:    200c1e51    Q..     DCD    537665105
        0x0000471c:    f0009211    ....    DCD    4026569233
        0x00004720:    2800faba    ...(    DCD    671152826
        0x00004724:    742fd005    ../t    DCD    1949290501
        0x00004728:    a15b463a    :F[.    DCD    2707113530
        0x0000472c:    f0009811    ....    DCD    4026570769
        0x00004730:    7ce0f9bc    ...|    DCD    2095118780
        0x00004734:    1a08211a    .!..    DCD    436740378
        0x00004738:    0e2d0605    ..-.    DCD    237831685
        0x0000473c:    203ed02e    ..>     DCD    540987438
        0x00004740:    70084669    iF.p    DCD    1879590505
        0x00004744:    2002aa01    ...     DCD    537045505
        0x00004748:    faa5f000    ....    DCD    4205178880
        0x0000474c:    d0062800    .(..    DCD    3490064384
        0x00004750:    4668220b    ."hF    DCD    1181229579
        0x00004754:    a1527002    .pR.    DCD    2706534402
        0x00004758:    f000a801    ....    DCD    4026574849
        0x0000475c:    4668fab4    ..hF    DCD    1181285044
        0x00004760:    28007800    .x.(    DCD    671119360
        0x00004764:    42a8d01a    ...B    DCD    1118359578
        0x00004768:    4605d200    ...F    DCD    1174786560
        0x0000476c:    700d4669    iF.p    DCD    1879918185
        0x00004770:    1c6d7ce0    .|m.    DCD    476937440
        0x00004774:    7ce25585    .U.|    DCD    2095207813
        0x00004778:    21094620     F.!    DCD    554255904
        0x0000477c:    54113015    .0.T    DCD    1410412565
        0x00004780:    1c407ce1    .|@.    DCD    473988321
        0x00004784:    46691808    ..iF    DCD    1181292552
        0x00004788:    a901780a    .x..    DCD    2835445770
        0x0000478c:    f98df000    ....    DCD    4186828800
        0x00004790:    78084669    iF.x    DCD    2013808233
        0x00004794:    1c807ce2    .|..    DCD    478182626
        0x00004798:    74e01810    ...t    DCD    1960843280
        0x0000479c:    bdf0b013    ....    DCD    3186667539
        0x000047a0:    f000b510    ....    DCD    4026578192
        0x000047a4:    2803f8fe    ...(    DCD    671348990
        0x000047a8:    2805d003    ...(    DCD    671469571
        0x000047ac:    2804d001    ...(    DCD    671404033
        0x000047b0:    f7ffd101    ....    DCD    4160737537
        0x000047b4:    bd10fb31    1...    DCD    3172006705
        0x000047b8:    4d30b570    p.0M    DCD    1295037808
        0x000047bc:    78e82400    .$.x    DCD    2028479488
        0x000047c0:    d2072802    .(..    DCD    3523684354
        0x000047c4:    d1012801    .(..    DCD    3506513921
        0x000047c8:    f899f000    ....    DCD    4170838016
        0x000047cc:    1c4078e8    .x@.    DCD    473987304
        0x000047d0:    e00070e8    .p..    DCD    3758125288
        0x000047d4:    46202401    .$ F    DCD    1176511489
        0x000047d8:    2003bd70    p..     DCD    537116016
        0x000047dc:    200a7008    .p.     DCD    537554952
        0x000047e0:    20007048    Hp.     DCD    536899656
        0x000047e4:    75088248    H..u    DCD    1963491912
        0x000047e8:    22087548    Hu."    DCD    570979656
        0x000047ec:    2210830a    ..."    DCD    571507466
        0x000047f0:    8388834a    J...    DCD    2206761802
        0x000047f4:    83ca2264    d"..    DCD    2211062372
        0x000047f8:    54502220     "PT    DCD    1414537760
        0x000047fc:    82c820a0    . ..    DCD    2194153632
        0x00004800:    b5104770    pG..    DCD    3037742960
        0x00004804:    20322101    .!2     DCD    540156161
        0x00004808:    fa1bf000    ....    DCD    4196134912
        0x0000480c:    fadaf7ff    ....    DCD    4208654335
        0x00004810:    d0012800    .(..    DCD    3489736704
        0x00004814:    fb00f7ff    ....    DCD    4211144703
        0x00004818:    4770bd10    ..pG    DCD    1198570768
        0x0000481c:    47704770    pGpG    DCD    1198540656
        0x00004820:    f000b510    ....    DCD    4026578192
        0x00004824:    2802f8be    ...(    DCD    671283390
        0x00004828:    f7ffd101    ....    DCD    4160737537
        0x0000482c:    bd10faf5    ....    DCD    3172006645
        0x00004830:    f7ffb510    ....    DCD    4160730384
        0x00004834:    bd10faf1    ....    DCD    3172006641
        0x00004838:    b5104770    pG..    DCD    3037742960
        0x0000483c:    22322301    .#2"    DCD    573711105
        0x00004840:    481a210d    .!.H    DCD    1209671949
        0x00004844:    f961f000    ..a.    DCD    4183945216
        0x00004848:    70012101    .!.p    DCD    1879122177
        0x0000484c:    f963f000    ..c.    DCD    4184076288
        0x00004850:    b510bd10    ....    DCD    3037773072
        0x00004854:    2232230e    .#2"    DCD    573711118
        0x00004858:    48154619    .F.H    DCD    1209353753
        0x0000485c:    f955f000    ..U.    DCD    4183158784
        0x00004860:    7001210a    .!.p    DCD    1879122186
        0x00004864:    80818041    A...    DCD    2155970625
        0x00004868:    80c12100    .!..    DCD    2160140544
        0x0000486c:    00c9217d    }!..    DCD    13181309
        0x00004870:    f0008101    ....    DCD    4026564865
        0x00004874:    bd10f950    P...    DCD    3172006224
        0x00004878:    47704770    pGpG    DCD    1198540656
        0x0000487c:    806e4770    pGn.    DCD    2154710896
        0x00004880:    30012000    . .0    DCD    805380096
        0x00004884:    07110000    ....    DCD    118554624
        0x00004888:    d2495cb7    .\I.    DCD    3528023223
        0x0000488c:    7140a304    ..@q    DCD    1900061444
        0x00004890:    8535b5a0    ..5.    DCD    2234889632
        0x00004894:    0783b03e    >...    DCD    126070846
        0x00004898:    03030000    ....    DCD    50528256
        0x0000489c:    00000783    ....    DCD    1923
        0x000048a0:    41440000    ..DA    DCD    1094975488
        0x000048a4:    38353431    1458    DCD    943010865
        0x000048a8:    50532030    0 SP    DCD    1347625008
        0x000048ac:    34020053    S..4    DCD    872546387
        0x000048b0:    380e0000    ...8    DCD    940441600
        0x000048b4:    b5100000    ....    DCD    3037724672
        0x000048b8:    460c4610    .F.F    DCD    1175209488
        0x000048bc:    f871f000    ..q.    DCD    4168216576
        0x000048c0:    d1092801    .(..    DCD    3507038209
        0x000048c4:    23012232    2".#    DCD    587276850
        0x000048c8:    02904611    .F..    DCD    43009553
        0x000048cc:    f91df000    ....    DCD    4179488768
        0x000048d0:    70017821    !x.p    DCD    1879144481
        0x000048d4:    f91ff000    ....    DCD    4179619840
        0x000048d8:    bd102000    . ..    DCD    3171950592
        0x000048dc:    47702000    . pG    DCD    1198530560
        0x000048e0:    4805b510    ...H    DCD    1208333584
        0x000048e4:    28017800    .x.(    DCD    671184896
        0x000048e8:    2001d004    ...     DCD    536989700
        0x000048ec:    f82af000    ..*.    DCD    4163563520
        0x000048f0:    bd102000    . ..    DCD    3171950592
        0x000048f4:    e7f92002    . ..    DCD    3891863554
        0x000048f8:    80c80000    ....    DCD    2160590848
        0x000048fc:    b5102000    . ..    DCD    3037732864
        0x00004900:    22322302    .#2"    DCD    573711106
        0x00004904:    481b2136    6!.H    DCD    1209737526
        0x00004908:    f8fff000    ....    DCD    4177522688
        0x0000490c:    80012100    .!..    DCD    2147557632
        0x00004910:    f901f000    ....    DCD    4177653760
        0x00004914:    b510bd10    ....    DCD    3037773072
        0x00004918:    fd26f7ff    ..&.    DCD    4247189503
        0x0000491c:    fd48f7ff    ..H.    DCD    4249417727
        0x00004920:    fd4ff7ff    ..O.    DCD    4249876479
        0x00004924:    b510bd10    ....    DCD    3037773072
        0x00004928:    23042136    6!.#    DCD    587473206
        0x0000492c:    02882232    2"..    DCD    42476082
        0x00004930:    f8ebf000    ....    DCD    4176211968
        0x00004934:    80012132    2!..    DCD    2147557682
        0x00004938:    88094910    .I..    DCD    2282309904
        0x0000493c:    f0008041    A...    DCD    4026564673
        0x00004940:    bd10f8ea    ....    DCD    3172006122
        0x00004944:    4604b510    ...F    DCD    1174713616
        0x00004948:    2301480b    .H.#    DCD    587286539
        0x0000494c:    21362232    2"6!    DCD    557195826
        0x00004950:    f0001cc0    ....    DCD    4026539200
        0x00004954:    7004f8da    ...p    DCD    1879374042
        0x00004958:    f8ddf000    ....    DCD    4175294464
        0x0000495c:    4805bd10    ...H    DCD    1208335632
        0x00004960:    2301b510    ...#    DCD    587314448
        0x00004964:    21362232    2"6!    DCD    557195826
        0x00004968:    f0001c80    ....    DCD    4026539136
        0x0000496c:    f000f8ce    ....    DCD    4026595534
        0x00004970:    bd10f8d2    ....    DCD    3172006098
        0x00004974:    d8020000    ....    DCD    3624009728
        0x00004978:    806e0000    ..n.    DCD    2154692608
        0x0000497c:    4c062000    . .L    DCD    1275469824
        0x00004980:    4e062501    .%.N    DCD    1309025537
        0x00004984:    68e3e005    ...h    DCD    1759764485
        0x00004988:    432bcc07    ..+C    DCD    1126943751
        0x0000498c:    47983c0c    .<.G    DCD    1201159180
        0x00004990:    42b43410    .4.B    DCD    1119106064
        0x00004994:    f7fdd3f7    ....    DCD    4160607223
        0x00004998:    3620f97a    z. 6    DCD    908130682
        0x0000499c:    36502000    . P6    DCD    911220736
        0x000049a0:    b4032000    . ..    DCD    3020103680
        0x000049a4:    90014801    .H..    DCD    2416003073
        0x000049a8:    24adbd01    ...$    DCD    615365889
        0x000049ac:    b4030003    ....    DCD    3020095491
        0x000049b0:    90014801    .H..    DCD    2416003073
        0x000049b4:    d231bd01    ..1.    DCD    3526475009
        0x000049b8:    b4030002    ....    DCD    3020095490
        0x000049bc:    90014801    .H..    DCD    2416003073
        0x000049c0:    1b9dbd01    ....    DCD    463322369
        0x000049c4:    b4030002    ....    DCD    3020095490
        0x000049c8:    90014801    .H..    DCD    2416003073
        0x000049cc:    396fbd01    ..o9    DCD    963624193
        0x000049d0:    b4030003    ....    DCD    3020095491
        0x000049d4:    90014801    .H..    DCD    2416003073
        0x000049d8:    29dfbd01    ...)    DCD    702528769
        0x000049dc:    b4030003    ....    DCD    3020095491
        0x000049e0:    90014801    .H..    DCD    2416003073
        0x000049e4:    2b03bd01    ...+    DCD    721665281
        0x000049e8:    b4030003    ....    DCD    3020095491
        0x000049ec:    90014801    .H..    DCD    2416003073
        0x000049f0:    8d21bd01    ..!.    DCD    2367798529
        0x000049f4:    b4030002    ....    DCD    3020095490
        0x000049f8:    90014801    .H..    DCD    2416003073
        0x000049fc:    2bf9bd01    ...+    DCD    737787137
        0x00004a00:    b4030003    ....    DCD    3020095491
        0x00004a04:    90014801    .H..    DCD    2416003073
        0x00004a08:    1ebdbd01    ....    DCD    515751169
        0x00004a0c:    b4030003    ....    DCD    3020095491
        0x00004a10:    90014801    .H..    DCD    2416003073
        0x00004a14:    2c01bd01    ...,    DCD    738311425
        0x00004a18:    b4030003    ....    DCD    3020095491
        0x00004a1c:    90014801    .H..    DCD    2416003073
        0x00004a20:    657fbd01    ...e    DCD    1702870273
        0x00004a24:    b4030002    ....    DCD    3020095490
        0x00004a28:    90014801    .H..    DCD    2416003073
        0x00004a2c:    301bbd01    ...0    DCD    807124225
        0x00004a30:    b4030003    ....    DCD    3020095491
        0x00004a34:    90014801    .H..    DCD    2416003073
        0x00004a38:    306bbd01    ..k0    DCD    812367105
        0x00004a3c:    b4030003    ....    DCD    3020095491
        0x00004a40:    90014801    .H..    DCD    2416003073
        0x00004a44:    1f8fbd01    ....    DCD    529513729
        0x00004a48:    b4030003    ....    DCD    3020095491
        0x00004a4c:    90014801    .H..    DCD    2416003073
        0x00004a50:    1b7bbd01    ..{.    DCD    461094145
        0x00004a54:    b4030002    ....    DCD    3020095490
        0x00004a58:    90014801    .H..    DCD    2416003073
        0x00004a5c:    2d67bd01    ..g-    DCD    761773313
        0x00004a60:    b4030003    ....    DCD    3020095491
        0x00004a64:    90014801    .H..    DCD    2416003073
        0x00004a68:    8cb1bd01    ....    DCD    2360458497
        0x00004a6c:    b4030002    ....    DCD    3020095490
        0x00004a70:    90014801    .H..    DCD    2416003073
        0x00004a74:    8cabbd01    ....    DCD    2360065281
        0x00004a78:    b4030002    ....    DCD    3020095490
        0x00004a7c:    90014801    .H..    DCD    2416003073
        0x00004a80:    89dfbd01    ....    DCD    2313141505
        0x00004a84:    b4030002    ....    DCD    3020095490
        0x00004a88:    90014801    .H..    DCD    2416003073
        0x00004a8c:    8c59bd01    ..Y.    DCD    2354691329
        0x00004a90:    b4030002    ....    DCD    3020095490
        0x00004a94:    90014801    .H..    DCD    2416003073
        0x00004a98:    647bbd01    ..{d    DCD    1685830913
        0x00004a9c:    b4030002    ....    DCD    3020095490
        0x00004aa0:    90014801    .H..    DCD    2416003073
        0x00004aa4:    648dbd01    ...d    DCD    1687010561
        0x00004aa8:    b4030002    ....    DCD    3020095490
        0x00004aac:    90014801    .H..    DCD    2416003073
        0x00004ab0:    3981bd01    ...9    DCD    964803841
        0x00004ab4:    b4030003    ....    DCD    3020095491
        0x00004ab8:    90014801    .H..    DCD    2416003073
        0x00004abc:    3bf1bd01    ...;    DCD    1005698305
        0x00004ac0:    b4030003    ....    DCD    3020095491
        0x00004ac4:    90014801    .H..    DCD    2416003073
        0x00004ac8:    a43dbd01    ..=.    DCD    2755509505
        0x00004acc:    b4030002    ....    DCD    3020095490
        0x00004ad0:    90014801    .H..    DCD    2416003073
        0x00004ad4:    b00fbd01    ....    DCD    2953821441
        0x00004ad8:    b4030002    ....    DCD    3020095490
        0x00004adc:    90014801    .H..    DCD    2416003073
        0x00004ae0:    a2a3bd01    ....    DCD    2728639745
        0x00004ae4:    b4030002    ....    DCD    3020095490
        0x00004ae8:    90014801    .H..    DCD    2416003073
        0x00004aec:    a2fbbd01    ....    DCD    2734406913
        0x00004af0:    b4030002    ....    DCD    3020095490
        0x00004af4:    90014801    .H..    DCD    2416003073
        0x00004af8:    a299bd01    ....    DCD    2727984385
        0x00004afc:    b4030002    ....    DCD    3020095490
        0x00004b00:    90014801    .H..    DCD    2416003073
        0x00004b04:    966bbd01    ..k.    DCD    2523643137
        0x00004b08:    b4030002    ....    DCD    3020095490
        0x00004b0c:    90014801    .H..    DCD    2416003073
        0x00004b10:    217dbd01    ..}!    DCD    561888513
        0x00004b14:    b4030003    ....    DCD    3020095491
        0x00004b18:    90014801    .H..    DCD    2416003073
        0x00004b1c:    21adbd01    ...!    DCD    565034241
        0x00004b20:    b4030003    ....    DCD    3020095491
        0x00004b24:    90014801    .H..    DCD    2416003073
        0x00004b28:    61efbd01    ...a    DCD    1643101441
        0x00004b2c:    b4030002    ....    DCD    3020095490
        0x00004b30:    90014801    .H..    DCD    2416003073
        0x00004b34:    5053bd01    ..SP    DCD    1347665153
        0x00004b38:    b4030002    ....    DCD    3020095490
        0x00004b3c:    90014801    .H..    DCD    2416003073
        0x00004b40:    502dbd01    ..-P    DCD    1345174785
        0x00004b44:    b4030002    ....    DCD    3020095490
        0x00004b48:    90014801    .H..    DCD    2416003073
        0x00004b4c:    39d9bd01    ...9    DCD    970571009
        0x00004b50:    b4030003    ....    DCD    3020095491
        0x00004b54:    90014801    .H..    DCD    2416003073
        0x00004b58:    27e7bd01    ...'    DCD    669498625
        0x00004b5c:    b4030003    ....    DCD    3020095491
        0x00004b60:    90014801    .H..    DCD    2416003073
        0x00004b64:    1e2dbd01    ..-.    DCD    506313985
        0x00004b68:    b4030003    ....    DCD    3020095491
        0x00004b6c:    90014801    .H..    DCD    2416003073
        0x00004b70:    272dbd01    ..-'    DCD    657308929
        0x00004b74:    b4030003    ....    DCD    3020095491
        0x00004b78:    90014801    .H..    DCD    2416003073
        0x00004b7c:    3907bd01    ...9    DCD    956808449
        0x00004b80:    b4030003    ....    DCD    3020095491
        0x00004b84:    90014801    .H..    DCD    2416003073
        0x00004b88:    651bbd01    ...e    DCD    1696316673
        0x00004b8c:    b4030002    ....    DCD    3020095490
        0x00004b90:    90014801    .H..    DCD    2416003073
        0x00004b94:    2a45bd01    ..E*    DCD    709213441
        0x00004b98:    b4030003    ....    DCD    3020095491
        0x00004b9c:    90014801    .H..    DCD    2416003073
        0x00004ba0:    2f45bd01    ..E/    DCD    793099521
        0x00004ba4:    b4030003    ....    DCD    3020095491
        0x00004ba8:    90014801    .H..    DCD    2416003073
        0x00004bac:    624fbd01    ..Ob    DCD    1649392897
        0x00004bb0:    b4030002    ....    DCD    3020095490
        0x00004bb4:    90014801    .H..    DCD    2416003073
        0x00004bb8:    2a9dbd01    ...*    DCD    714980609
        0x00004bbc:    b4030003    ....    DCD    3020095491
        0x00004bc0:    90014801    .H..    DCD    2416003073
        0x00004bc4:    2d13bd01    ...-    DCD    756268289
        0x00004bc8:    b4030003    ....    DCD    3020095491
        0x00004bcc:    90014801    .H..    DCD    2416003073
        0x00004bd0:    1bedbd01    ....    DCD    468565249
        0x00004bd4:    b4030002    ....    DCD    3020095490
        0x00004bd8:    90014801    .H..    DCD    2416003073
        0x00004bdc:    2afbbd01    ...*    DCD    721140993
        0x00004be0:    b4030003    ....    DCD    3020095491
        0x00004be4:    90014801    .H..    DCD    2416003073
        0x00004be8:    626fbd01    ..ob    DCD    1651490049
        0x00004bec:    b4030002    ....    DCD    3020095490
        0x00004bf0:    90014801    .H..    DCD    2416003073
        0x00004bf4:    625fbd01    .._b    DCD    1650441473
        0x00004bf8:    b4030002    ....    DCD    3020095490
        0x00004bfc:    90014801    .H..    DCD    2416003073
        0x00004c00:    8a19bd01    ....    DCD    2316942593
        0x00004c04:    b4030002    ....    DCD    3020095490
        0x00004c08:    90014801    .H..    DCD    2416003073
        0x00004c0c:    8ce7bd01    ....    DCD    2363997441
        0x00004c10:    b4030002    ....    DCD    3020095490
        0x00004c14:    90014801    .H..    DCD    2416003073
        0x00004c18:    e18bbd01    ....    DCD    3784031489
        0x00004c1c:    b4030002    ....    DCD    3020095490
        0x00004c20:    90014801    .H..    DCD    2416003073
        0x00004c24:    e13dbd01    ..=.    DCD    3778919681
        0x00004c28:    b4030002    ....    DCD    3020095490
        0x00004c2c:    90014801    .H..    DCD    2416003073
        0x00004c30:    39b3bd01    ...9    DCD    968080641
        0x00004c34:    b4030003    ....    DCD    3020095491
        0x00004c38:    90014801    .H..    DCD    2416003073
        0x00004c3c:    236bbd01    ..k#    DCD    594263297
        0x00004c40:    b4030003    ....    DCD    3020095491
        0x00004c44:    90014801    .H..    DCD    2416003073
        0x00004c48:    2429bd01    ..)$    DCD    606715137
        0x00004c4c:    b4030003    ....    DCD    3020095491
        0x00004c50:    90014801    .H..    DCD    2416003073
        0x00004c54:    95a9bd01    ....    DCD    2510929153
        0x00004c58:    b4030002    ....    DCD    3020095490
        0x00004c5c:    90014801    .H..    DCD    2416003073
        0x00004c60:    96a9bd01    ....    DCD    2527706369
        0x00004c64:    b4030002    ....    DCD    3020095490
        0x00004c68:    90014801    .H..    DCD    2416003073
        0x00004c6c:    988bbd01    ....    DCD    2559294721
        0x00004c70:    b4030002    ....    DCD    3020095490
        0x00004c74:    90014801    .H..    DCD    2416003073
        0x00004c78:    999dbd01    ....    DCD    2577251585
        0x00004c7c:    b4030002    ....    DCD    3020095490
        0x00004c80:    90014801    .H..    DCD    2416003073
        0x00004c84:    e15fbd01    .._.    DCD    3781147905
        0x00004c88:    b4030002    ....    DCD    3020095490
        0x00004c8c:    90014801    .H..    DCD    2416003073
        0x00004c90:    ad23bd01    ..#.    DCD    2904800513
        0x00004c94:    b4030002    ....    DCD    3020095490
        0x00004c98:    90014801    .H..    DCD    2416003073
        0x00004c9c:    27e1bd01    ...'    DCD    669105409
        0x00004ca0:    b4030003    ....    DCD    3020095491
        0x00004ca4:    90014801    .H..    DCD    2416003073
        0x00004ca8:    261fbd01    ...&    DCD    639614209
        0x00004cac:    b4030003    ....    DCD    3020095491
        0x00004cb0:    90014801    .H..    DCD    2416003073
        0x00004cb4:    26b1bd01    ...&    DCD    649182465
        0x00004cb8:    b4030003    ....    DCD    3020095491
        0x00004cbc:    90014801    .H..    DCD    2416003073
        0x00004cc0:    1fcdbd01    ....    DCD    533576961
        0x00004cc4:    b4030003    ....    DCD    3020095491
        0x00004cc8:    90014801    .H..    DCD    2416003073
        0x00004ccc:    3981bd01    ...9    DCD    964803841
        0x00004cd0:    e0020003    ....    DCD    3758227459
        0x00004cd4:    1f12c808    ....    DCD    521324552
        0x00004cd8:    2a00c108    ...*    DCD    704692488
        0x00004cdc:    4770d1fa    ..pG    DCD    1198576122
        0x00004ce0:    20004770    pG.     DCD    536889200
        0x00004ce4:    c101e001    ....    DCD    3238125569
        0x00004ce8:    2a001f12    ...*    DCD    704651026
        0x00004cec:    4770d1fb    ..pG    DCD    1198576123
        0x00004cf0:    1b410000    ..A.    DCD    457244672
        0x00004cf4:    1bcd2000    . ..    DCD    466427904
        0x00004cf8:    01012000    . ..    DCD    16850944
        0x00004cfc:    28040a00    ...(    DCD    671353344
        0x00004d00:    0302040a    ....    DCD    50463754
        0x00004d04:    035500aa    ..U.    DCD    55902378
        0x00004d08:    01a0002a    *...    DCD    27263018
        0x00004d0c:    012cffff    ..,.    DCD    19726335
        0x00004d10:    003f00ff    ..?.    DCD    4129023
        0x00004d14:    01ff03ff    ....    DCD    33489919
        0x00004d18:    35980000    ...5    DCD    899153920
        0x00004d1c:    35b02000    . .5    DCD    900734976
        0x00004d20:    90f22000    . ..    DCD    2431787008
        0x00004d24:    00032000    . ..    DCD    204800
        0x00004d28:    65530001    ..Se    DCD    1699938305
        0x00004d2c:    72657672    rver    DCD    1919252082
        0x00004d30:    20585420     TX     DCD    542659616
        0x00004d34:    61746144    Data    DCD    1635017028
        0x00004d38:    72655300    .Ser    DCD    1919243008
        0x00004d3c:    20726576    ver     DCD    544367990
        0x00004d40:    44205852    RX D    DCD    1142970450
        0x00004d44:    00617461    ata.    DCD    6386785
        0x00004d48:    776f6c46    Flow    DCD    2003790918
        0x00004d4c:    6e6f4320     Con    DCD    1852785440
        0x00004d50:    6c6f7274    trol    DCD    1819243124
        0x00004d54:    495cb700    ..\I    DCD    1230812928
        0x00004d58:    40a304d2    ...@    DCD    1084425426
        0x00004d5c:    35b5a071    q..5    DCD    901095537
        0x00004d60:    83b03e85    .>..    DCD    2209365637
        0x00004d64:    495cb807    ..\I    DCD    1230813191
        0x00004d68:    40a304d2    ...@    DCD    1084425426
        0x00004d6c:    35b5a071    q..5    DCD    901095537
        0x00004d70:    83b03e85    .>..    DCD    2209365637
        0x00004d74:    495cba07    ..\I    DCD    1230813703
        0x00004d78:    40a304d2    ...@    DCD    1084425426
        0x00004d7c:    35b5a071    q..5    DCD    901095537
        0x00004d80:    83b03e85    .>..    DCD    2209365637
        0x00004d84:    495cb907    ..\I    DCD    1230813447
        0x00004d88:    40a304d2    ...@    DCD    1084425426
        0x00004d8c:    35b5a071    q..5    DCD    901095537
        0x00004d90:    83b03e85    .>..    DCD    2209365637
        0x00004d94:    d8020007    ....    DCD    3624009735
        0x00004d98:    20dd0000    ...     DCD    551354368
        0x00004d9c:    d8002000    . ..    DCD    3623886848
        0x00004da0:    23110000    ...#    DCD    588316672
        0x00004da4:    38032000    . .8    DCD    939728896
        0x00004da8:    235b0000    ..[#    DCD    593166336
        0x00004dac:    30002000    . .0    DCD    805314560
        0x00004db0:    23730000    ..s#    DCD    594739200
        0x00004db4:    300e2000    . .0    DCD    806232064
        0x00004db8:    24a30000    ...$    DCD    614662144
        0x00004dbc:    d8042000    . ..    DCD    3624148992
        0x00004dc0:    23f30000    ...#    DCD    603127808
        0x00004dc4:    d8052000    . ..    DCD    3624214528
        0x00004dc8:    24770000    ..w$    DCD    611778560
        0x00004dcc:    35602000    . `5    DCD    895492096
        0x00004dd0:    00012000    . ..    DCD    73728
        0x00004dd4:    35680000    ..h5    DCD    896008192
        0x00004dd8:    00012000    . ..    DCD    73728
        0x00004ddc:    35700000    ..p5    DCD    896532480
        0x00004de0:    00052000    . ..    DCD    335872
        0x00004de4:    00000000    ....    DCD    0
        0x00004de8:    00000000    ....    DCD    0
        0x00004dec:    00000000    ....    DCD    0
        0x00004df0:    36180000    ...6    DCD    907542528
        0x00004df4:    807b2000    . {.    DCD    2155552768
        0x00004df8:    00062000    . ..    DCD    401408
        0x00004dfc:    34010001    ...4    DCD    872480769
        0x00004e00:    27150000    ...'    DCD    655687680
        0x00004e04:    34002000    . .4    DCD    872423424
        0x00004e08:    27390000    ..9'    DCD    658046976
        0x00004e0c:    34102000    . .4    DCD    873472000
        0x00004e10:    28970000    ...(    DCD    680984576
        0x00004e14:    38002000    . .8    DCD    939532288
        0x00004e18:    28210000    ..!(    DCD    673251328
        0x00004e1c:    38012000    . .8    DCD    939597824
        0x00004e20:    27c70000    ...'    DCD    667353088
        0x00004e24:    38032000    . .8    DCD    939728896
        0x00004e28:    28470000    ..G(    DCD    675741696
        0x00004e2c:    c8002000    . ..    DCD    3355451392
        0x00004e30:    28730000    ..s(    DCD    678625280
        0x00004e34:    d8032000    . ..    DCD    3624083456
        0x00004e38:    30810000    ...0    DCD    813760512
        0x00004e3c:    d8012000    . ..    DCD    3623952384
        0x00004e40:    30a70000    ...0    DCD    816250880
        0x00004e44:    d8062000    . ..    DCD    3624280064
        0x00004e48:    30ab0000    ...0    DCD    816513024
        0x00004e4c:    35c82000    . .5    DCD    902307840
        0x00004e50:    000a2000    . ..    DCD    663552
        0x00004e54:    36900000    ...6    DCD    915406848
        0x00004e58:    80002000    . ..    DCD    2147491840
        0x00004e5c:    00f02000    . ..    DCD    15736832
        0x00004e60:    34ac0000    ...4    DCD    883687424
        0x00004e64:    36902000    . .6    DCD    915415040
        0x00004e68:    90202000    .  .    DCD    2418024448
        0x00004e6c:    00d42000    . ..    DCD    13901824
        0x00004e70:    34ac0000    ...4    DCD    883687424
        0x00004e74:    09082000    . ..    DCD    151527424
        0x00004e78:    28d00008    ...(    DCD    684720136
        0x00004e7c:    07300008    ..0.    DCD    120586248
        0x00004e80:    34ac0000    ...4    DCD    883687424
        0x00004e84:    0c802000    . ..    DCD    209723392
        0x00004e88:    00100000    ....    DCD    1048576
        0x00004e8c:    495cb800    ..\I    DCD    1230813184
        0x00004e90:    40a304d2    ...@    DCD    1084425426
        0x00004e94:    35b5a071    q..5    DCD    901095537
        0x00004e98:    83b03e85    .>..    DCD    2209365637
        0x00004e9c:    00000407    ....    DCD    1031
        0x00004ea0:    d2495cba    .\I.    DCD    3528023226
        0x00004ea4:    7140a304    ..@q    DCD    1900061444
        0x00004ea8:    8535b5a0    ..5.    DCD    2234889632
        0x00004eac:    0783b03e    >...    DCD    126070846
        0x00004eb0:    b9000016    ....    DCD    3103784982
        0x00004eb4:    04d2495c    \I..    DCD    80890204
        0x00004eb8:    a07140a3    .@q.    DCD    2691776675
        0x00004ebc:    3e8535b5    .5.>    DCD    1048917429
        0x00004ec0:    000783b0    ....    DCD    492464
        0x00004ec4:    00000000    ....    DCD    0
    Region$$Table$$Base
        0x00004ec8:    00004ee8    .N..    DCD    20200
        0x00004ecc:    10000000    ....    DCD    268435456
        0x00004ed0:    00000084    ....    DCD    132
        0x00004ed4:    000000d4    ....    DCD    212
        0x00004ed8:    00004f6c    lO..    DCD    20332
        0x00004edc:    10000084    ....    DCD    268435588
        0x00004ee0:    00000b8c    ....    DCD    2956
        0x00004ee4:    000000f0    ....    DCD    240
    Region$$Table$$Limit

** Section #2 'SRAM' (SHT_PROGBITS) [SHF_ALLOC + SHF_WRITE]
    Size   : 132 bytes (alignment 4)
    Address: 0x10000000

    0x10000000:   01 00 00 00 80 b5 01 00 60 00 00 00 00 00 00 00    ........`.......
    0x10000010:   00 00 00 00 00 c0 00 00 00 00 00 00 00 00 00 00    ................
    0x10000020:   00 00 00 00 2b 00 00 00 00 00 00 00 2c 00 00 00    ....+.......,...
    0x10000030:   00 00 00 00 2d 00 00 00 00 00 00 00 2f 00 00 00    ....-......./...
    0x10000040:   00 00 00 00 27 00 00 00 01 00 00 00 00 00 00 00    ....'...........
    0x10000050:   00 00 00 00 1a 00 00 00 01 00 00 00 00 00 00 00    ................
    0x10000060:   00 00 00 00 18 00 00 00 01 00 00 00 00 00 00 00    ................
    0x10000070:   00 00 00 00 2e 00 00 00 01 00 00 00 00 00 00 00    ................
    0x10000080:   00 00 00 00                                        ....


** Section #3 'SRAM' (SHT_NOBITS) [SHF_ALLOC + SHF_WRITE]
    Size   : 2956 bytes (alignment 8)
    Address: 0x10000084


** Section #4 '.debug_abbrev' (SHT_PROGBITS)
    Size   : 1476 bytes


** Section #5 '.debug_frame' (SHT_PROGBITS)
    Size   : 3156 bytes


** Section #6 '.debug_info' (SHT_PROGBITS)
    Size   : 17420 bytes


** Section #7 '.debug_line' (SHT_PROGBITS)
    Size   : 7456 bytes


** Section #8 '.debug_loc' (SHT_PROGBITS)
    Size   : 2384 bytes


** Section #9 '.debug_macinfo' (SHT_PROGBITS)
    Size   : 6568 bytes


** Section #10 '.debug_pubnames' (SHT_PROGBITS)
    Size   : 1137 bytes


** Section #11 '.symtab' (SHT_SYMTAB)
    Size   : 8256 bytes (alignment 4)
    String table #12 '.strtab'
    Last local symbol no. 349

    Symbol table .symtab (515 symbols, 349 local)

      #  Symbol Name                Value      Bind  Sec  Type  Vis  Size
    ========================================================================

      1  $d                         0x00000000   Lc    1   --   De 
      2  $t                         0x00000070   Lc    1   --   De 
      3  $d                         0x00000092   Lc    1   --   De 
      4  $t                         0x00000098   Lc    1   --   De 
      5  $d                         0x000000cc   Lc    1   --   De 
      6  $t                         0x000000d4   Lc    1   --   De 
      7  $d                         0x00000176   Lc    1   --   De 
      8  $t                         0x00000184   Lc    1   --   De 
      9  $d                         0x000001e4   Lc    1   --   De 
     10  $t                         0x000001e8   Lc    1   --   De 
     11  $d                         0x000001f0   Lc    1   --   De 
     12  $t                         0x000001f4   Lc    1   --   De 
     13  $d                         0x0000024a   Lc    1   --   De 
     14  $t                         0x00000260   Lc    1   --   De 
     15  $d                         0x00000316   Lc    1   --   De 
     16  $t                         0x0000031c   Lc    1   --   De 
     17  $d                         0x0000046c   Lc    1   --   De 
     18  $t                         0x00000470   Lc    1   --   De 
     19  $d                         0x000004f6   Lc    1   --   De 
     20  $t                         0x000004fc   Lc    1   --   De 
     21  $d                         0x000005fa   Lc    1   --   De 
     22  $t                         0x00000600   Lc    1   --   De 
     23  $d                         0x00000622   Lc    1   --   De 
     24  $t                         0x00000628   Lc    1   --   De 
     25  $d                         0x0000064a   Lc    1   --   De 
     26  $t                         0x00000650   Lc    1   --   De 
     27  $d                         0x0000067e   Lc    1   --   De 
     28  $t                         0x00000686   Lc    1   --   De 
     29  $d                         0x000006ac   Lc    1   --   De 
     30  $t                         0x000006cc   Lc    1   --   De 
     31  $d                         0x000006fe   Lc    1   --   De 
     32  $t                         0x00000704   Lc    1   --   De 
     33  $d                         0x0000070c   Lc    1   --   De 
     34  $t                         0x00000710   Lc    1   --   De 
     35  $d                         0x0000071e   Lc    1   --   De 
     36  $t                         0x00000724   Lc    1   --   De 
     37  $d                         0x0000078e   Lc    1   --   De 
     38  $t                         0x0000079c   Lc    1   --   De 
     39  $d                         0x000007b4   Lc    1   --   De 
     40  $t                         0x000007b8   Lc    1   --   De 
     41  $d                         0x000007fe   Lc    1   --   De 
     42  $t                         0x00000804   Lc    1   --   De 
     43  $d                         0x00000810   Lc    1   --   De 
     44  $t                         0x00000814   Lc    1   --   De 
     45  $d                         0x00000838   Lc    1   --   De 
     46  $t                         0x0000083c   Lc    1   --   De 
     47  $d                         0x0000088a   Lc    1   --   De 
     48  $t                         0x00000894   Lc    1   --   De 
     49  $d                         0x000008a4   Lc    1   --   De 
     50  $t                         0x000008a8   Lc    1   --   De 
     51  $d                         0x000008b6   Lc    1   --   De 
     52  $t                         0x000008bc   Lc    1   --   De 
     53  $d                         0x000008d4   Lc    1   --   De 
     54  $t                         0x000008d8   Lc    1   --   De 
     55  $d                         0x000008f8   Lc    1   --   De 
     56  $t                         0x000008fc   Lc    1   --   De 
     57  $d                         0x0000094a   Lc    1   --   De 
     58  $t                         0x00000950   Lc    1   --   De 
     59  $d                         0x00000960   Lc    1   --   De 
     60  $t                         0x00000964   Lc    1   --   De 
     61  $d                         0x00000972   Lc    1   --   De 
     62  $t                         0x00000978   Lc    1   --   De 
     63  $d                         0x0000097e   Lc    1   --   De 
     64  $t                         0x00000984   Lc    1   --   De 
     65  $d                         0x000009c4   Lc    1   --   De 
     66  $t                         0x000009cc   Lc    1   --   De 
     67  $d                         0x000009d2   Lc    1   --   De 
     68  $t                         0x000009d8   Lc    1   --   De 
     69  $d                         0x000009e2   Lc    1   --   De 
     70  $t                         0x000009e8   Lc    1   --   De 
     71  $d                         0x000009f4   Lc    1   --   De 
     72  $t                         0x000009f8   Lc    1   --   De 
     73  $d                         0x00000a96   Lc    1   --   De 
     74  $t                         0x00000aa4   Lc    1   --   De 
     75  $d                         0x00000b04   Lc    1   --   De 
     76  $t                         0x00000b0c   Lc    1   --   De 
     77  $d                         0x00000b14   Lc    1   --   De 
     78  $t                         0x00000b18   Lc    1   --   De 
     79  $d                         0x00000b5a   Lc    1   --   De 
     80  $t                         0x00000b60   Lc    1   --   De 
     81  $d                         0x00000c04   Lc    1   --   De 
     82  $t                         0x00000c08   Lc    1   --   De 
     83  $d                         0x00000c30   Lc    1   --   De 
     84  $t                         0x00000c38   Lc    1   --   De 
     85  $d                         0x00000c3e   Lc    1   --   De 
     86  $t                         0x00000c44   Lc    1   --   De 
     87  $d                         0x00000f74   Lc    1   --   De 
     88  $t                         0x00000f84   Lc    1   --   De 
     89  $d                         0x00000fe8   Lc    1   --   De 
     90  $t                         0x00000ff0   Lc    1   --   De 
     91  $d                         0x000010d4   Lc    1   --   De 
     92  $t                         0x000010d8   Lc    1   --   De 
     93  $d                         0x000010ee   Lc    1   --   De 
     94  $t                         0x000010f4   Lc    1   --   De 
     95  $d                         0x0000133a   Lc    1   --   De 
     96  $t                         0x00001340   Lc    1   --   De 
     97  $d                         0x000013b2   Lc    1   --   De 
     98  $t                         0x000013c8   Lc    1   --   De 
     99  $d                         0x00001514   Lc    1   --   De 
    100  $t                         0x0000151c   Lc    1   --   De 
    101  $d                         0x000015d2   Lc    1   --   De 
    102  $t                         0x000015e0   Lc    1   --   De 
    103  $d                         0x00001624   Lc    1   --   De 
    104  $t                         0x00001628   Lc    1   --   De 
    105  $d                         0x00001774   Lc    1   --   De 
    106  $t                         0x00001778   Lc    1   --   De 
    107  $d                         0x000017f6   Lc    1   --   De 
    108  $t                         0x000017fa   Lc    1   --   De 
    109  $d.realdata                0x00001836   Lc    1   --   De 
    110  $d.realdata                0x10000000   Lc    2   --   De 
    111  ../src/dsps_image.c        0x00000000   Lc  Abs  File  De 
    112  .constdata                 0x00001836   Lc    1  Sect  De   0x3690
    113  ../src/dsps_print.c        0x00000000   Lc  Abs  File  De 
    114  i.am_ctimer_isr            0x00000220   Lc    1  Sect  De 
    115  i.am_uart_isr              0x00000b18   Lc    1  Sect  De 
    116  i.boot_radio               0x00000f84   Lc    1  Sect  De 
    117  i.configure_radio_pins     0x00000ff0   Lc    1  Sect  De 
    118  i.configure_radio_uart     0x000010d8   Lc    1  Sect  De 
    119  i.main                     0x00001340   Lc    1  Sect  De 
    120  i.radio_uart_disable       0x0000145c   Lc    1  Sect  De 
    121  i.radio_uart_enable        0x0000151c   Lc    1  Sect  De 
    122  i.setup_buttons            0x000015e0   Lc    1  Sect  De 
    123  .bss                       0x10000084   Lc    3  Sect  De   0x800
    124  .data                      0x10000000   Lc    2  Sect  De   0x18
    125  ..\..\..\..\..\utils\am_util_delay.c
                                    0x00000000   Lc  Abs  File  De 
    126  .emb_text                  0x00000138   Lc    1  Sect  De   0x6
    127  $v0                        0x00000138   Lc    1   --   De 
    128  ../../../../../utils/am_util_delay.c
                                    0x00000000   Lc  Abs  File  De 
    129  i.am_util_delay_us         0x00000b40   Lc    1  Sect  De 
    130  ..\..\..\..\..\utils\am_util_faultisr.c
                                    0x00000000   Lc  Abs  File  De 
    131  .emb_text                  0x00000140   Lc    1  Sect  De   0x14
    132  $v0                        0x00000140   Lc    1   --   De 
    133  ../../../../../utils/am_util_faultisr.c
                                    0x00000000   Lc  Abs  File  De 
    134  i.am_util_faultisr_collect_data
                                    0x00000b60   Lc    1  Sect  De 
    135  ../../../../../utils/am_util_stdio.c
                                    0x00000000   Lc  Abs  File  De 
    136  i.am_util_stdio_printf     0x00000c08   Lc    1  Sect  De 
    137  i.am_util_stdio_printf_init
                                    0x00000c38   Lc    1  Sect  De 
    138  i.am_util_stdio_vsprintf   0x00000c44   Lc    1  Sect  De 
    139  i.decstr_to_u              0x000010f4   Lc    1  Sect  De 
    140  decstr_to_u                0x000010f5   Lc    1  Code  De   0x2c
    141  i.divu64_10                0x00001120   Lc    1  Sect  De 
    142  divu64_10                  0x00001121   Lc    1  Code  De   0xcc
    143  i.ftoa                     0x000011ec   Lc    1  Sect  De 
    144  ftoa                       0x000011ed   Lc    1  Code  De   0x14e
    145  i.ndigits_in_hex           0x000013c8   Lc    1  Sect  De 
    146  ndigits_in_hex             0x000013c9   Lc    1  Code  De   0x34
    147  i.ndigits_in_i64           0x000013fc   Lc    1  Sect  De 
    148  ndigits_in_i64             0x000013fd   Lc    1  Code  De   0x24
    149  i.ndigits_in_u64           0x00001420   Lc    1  Sect  De 
    150  ndigits_in_u64             0x00001421   Lc    1  Code  De   0x3a
    151  i.uint64_to_hexstr         0x00001628   Lc    1  Sect  De 
    152  uint64_to_hexstr           0x00001629   Lc    1  Code  De   0x8a
    153  i.uint64_to_str            0x000016b2   Lc    1  Sect  De 
    154  uint64_to_str              0x000016b3   Lc    1  Code  De   0x70
    155  .bss                       0x10000884   Lc    3  Sect  De   0x100
    156  g_prfbuf                   0x10000884   Lc    3  Data  De   0x100
    157  .data                      0x10000018   Lc    2  Sect  De   0x5
    158  g_bTxtXlate                0x1000001c   Lc    2  Data  De   0x1
    159  ../../../../../devices/am_devices_button.c
                                    0x00000000   Lc  Abs  File  De 
    160  i.am_devices_button_array_init
                                    0x00000260   Lc    1  Sect  De 
    161  i.am_devices_button_array_tick
                                    0x0000027a   Lc    1  Sect  De 
    162  i.am_devices_button_init   0x00000294   Lc    1  Sect  De 
    163  i.am_devices_button_tick   0x0000031c   Lc    1  Sect  De 
    164  ../../../../../devices/am_devices_da14581.c
                                    0x00000000   Lc  Abs  File  De 
    165  i.am_devices_da14581_uart_boot
                                    0x00000470   Lc    1  Sect  De 
    166  ../../../../../devices/am_devices_led.c
                                    0x00000000   Lc  Abs  File  De 
    167  i.am_devices_led_array_init
                                    0x000004fc   Lc    1  Sect  De 
    168  i.am_devices_led_init      0x00000518   Lc    1  Sect  De 
    169  i.am_devices_led_off       0x00000600   Lc    1  Sect  De 
    170  i.am_devices_led_on        0x00000628   Lc    1  Sect  De 
    171  ../keil/startup_keil.s     0x00000000   Lc  Abs  File  De 
    172  STACK                      0x10000a10   Lc    3  Sect  De   0x200
    173  StackMem                   0x10000a10   Lc    3  Data  De 
    174  HEAP                       0x10000a10   Lc    3  Sect  De 
    175  HeapMem                    0x10000a10   Lc    3  Data  De 
    176  RESET                      0x00000000   Lc    1  Sect  De   0x98
    177  $v0                        0x00000070   Lc    1   --   De 
    178  .text                      0x0000016c   Lc    1  Sect  De   0x18
    179  $v0                        0x0000016c   Lc    1   --   De 
    180  ../am_hal_global.c         0x00000000   Lc  Abs  File  De 
    181  .data                      0x10000020   Lc    2  Sect  De   0x4
    182  ../am_hal_clkgen.c         0x00000000   Lc  Abs  File  De 
    183  i.am_hal_clkgen_osc_start  0x00000650   Lc    1  Sect  De 
    184  i.am_hal_clkgen_osc_stop   0x0000065e   Lc    1  Sect  De 
    185  i.am_hal_clkgen_sysclk_get 0x0000066c   Lc    1  Sect  De 
    186  i.am_hal_clkgen_sysclk_select
                                    0x000006cc   Lc    1  Sect  De 
    187  ..\am_hal_ctimer.c         0x00000000   Lc  Abs  File  De 
    188  ../am_hal_ctimer.c         0x00000000   Lc  Abs  File  De 
    189  i.am_hal_ctimer_config_single
                                    0x000006dc   Lc    1  Sect  De 
    190  i.am_hal_ctimer_int_clear  0x00000704   Lc    1  Sect  De 
    191  i.am_hal_ctimer_int_enable 0x00000710   Lc    1  Sect  De 
    192  i.am_hal_ctimer_period_set 0x00000724   Lc    1  Sect  De 
    193  i.am_hal_ctimer_start      0x0000079c   Lc    1  Sect  De 
    194  ../am_hal_gpio.c           0x00000000   Lc  Abs  File  De 
    195  ..\am_hal_interrupt.c      0x00000000   Lc  Abs  File  De 
    196  .emb_text                  0x00000154   Lc    1  Sect  De   0x16
    197  $v0                        0x00000154   Lc    1   --   De 
    198  ../am_hal_interrupt.c      0x00000000   Lc  Abs  File  De 
    199  i.am_hal_interrupt_enable  0x000007b8   Lc    1  Sect  De 
    200  ../am_hal_iom.c            0x00000000   Lc  Abs  File  De 
    201  ../am_hal_sysctrl.c        0x00000000   Lc  Abs  File  De 
    202  i.am_hal_sysctrl_sleep     0x00000860   Lc    1  Sect  De 
    203  ../am_hal_uart.c           0x00000000   Lc  Abs  File  De 
    204  i.am_hal_uart_char_receive_polled
                                    0x00000894   Lc    1  Sect  De 
    205  i.am_hal_uart_char_transmit_polled
                                    0x000008a8   Lc    1  Sect  De 
    206  i.am_hal_uart_clock_disable
                                    0x000008bc   Lc    1  Sect  De 
    207  i.am_hal_uart_clock_enable 0x000008d8   Lc    1  Sect  De 
    208  i.am_hal_uart_config       0x000008fc   Lc    1  Sect  De 
    209  i.am_hal_uart_disable      0x00000950   Lc    1  Sect  De 
    210  i.am_hal_uart_enable       0x00000964   Lc    1  Sect  De 
    211  i.am_hal_uart_flags_get    0x00000978   Lc    1  Sect  De 
    212  i.am_hal_uart_init_buffered
                                    0x00000984   Lc    1  Sect  De 
    213  i.am_hal_uart_int_clear    0x000009cc   Lc    1  Sect  De 
    214  i.am_hal_uart_int_enable   0x000009d8   Lc    1  Sect  De 
    215  i.am_hal_uart_int_status_get
                                    0x000009e8   Lc    1  Sect  De 
    216  i.am_hal_uart_service_buffered
                                    0x000009f8   Lc    1  Sect  De 
    217  i.am_hal_uart_string_transmit_buffered
                                    0x00000aa4   Lc    1  Sect  De 
    218  .bss                       0x10000984   Lc    3  Sect  De   0x28
    219  ../am_bsp.c                0x00000000   Lc  Abs  File  De 
    220  i.am_bsp_low_power_init    0x000001f6   Lc    1  Sect  De 
    221  .data                      0x10000024   Lc    2  Sect  De   0x20
    222  .data                      0x10000044   Lc    2  Sect  De   0x40
    223  ../am_hal_debug.c          0x00000000   Lc  Abs  File  De 
    224  ../am_hal_i2c_bit_bang.c   0x00000000   Lc  Abs  File  De 
    225  ..\am_hal_itm.c            0x00000000   Lc  Abs  File  De 
    226  ../am_hal_itm.c            0x00000000   Lc  Abs  File  De 
    227  ../am_hal_mcuctrl.c        0x00000000   Lc  Abs  File  De 
    228  i.am_hal_mcuctrl_bandgap_disable
                                    0x00000804   Lc    1  Sect  De 
    229  i.am_hal_mcuctrl_bucks_enable
                                    0x00000814   Lc    1  Sect  De 
    230  ../am_hal_rtc.c            0x00000000   Lc  Abs  File  De 
    231  i.am_hal_rtc_osc_disable   0x0000083c   Lc    1  Sect  De 
    232  i.am_hal_rtc_osc_select    0x0000084a   Lc    1  Sect  De 
    233  ../am_hal_tpiu.c           0x00000000   Lc  Abs  File  De 
    234  ../am_hal_vcomp.c          0x00000000   Lc  Abs  File  De 
    235  i.am_hal_vcomp_disable     0x00000b0c   Lc    1  Sect  De 
    236  dc.s                       0x00000000   Lc  Abs  File  De 
    237  ../clib/heapaux.c          0x00000000   Lc  Abs  File  De 
    238  .text                      0x00000184   Lc    1  Sect  De 
    239  ../clib/angel/startup.s    0x00000000   Lc  Abs  File  De 
    240  !!!main                    0x00000098   Lc    1  Sect  De   0x8
    241  ../fplib/d2f.s             0x00000000   Lc  Abs  File  De 
    242  x$fpl$d2f                  0x00001724   Lc    1  Sect  De   0x62
    243  $v0                        0x00001724   Lc    1   --   De 
    244  ../clib/angel/kernel.s     0x00000000   Lc  Abs  File  De 
    245  .ARM.Collect$$rtentry$$00000000
                                    0x00000118   Lc    1  Sect  De 
    246  ../fplib/dnaninf.s         0x00000000   Lc  Abs  File  De 
    247  x$fpl$dnaninf              0x00001786   Lc    1  Sect  De   0x9c
    248  $v0                        0x00001786   Lc    1   --   De 
    249  ../fplib/fretinf.s         0x00000000   Lc  Abs  File  De 
    250  x$fpl$fretinf              0x0000182c   Lc    1  Sect  De   0xa
    251  $v0                        0x0000182c   Lc    1   --   De 
    252  ../fplib/usenofp.s         0x00000000   Lc  Abs  File  De 
    253  x$fpl$usenofp              0x00001836   Lc    1  Sect  De 
    254  ../clib/angel/kernel.s     0x00000000   Lc  Abs  File  De 
    255  .ARM.Collect$$rtentry$$00000002
                                    0x00000118   Lc    1  Sect  De 
    256  .ARM.Collect$$rtentry$$00000009
                                    0x0000011e   Lc    1  Sect  De 
    257  .ARM.Collect$$rtentry$$0000000A
                                    0x0000011e   Lc    1  Sect  De   0x4
    258  .ARM.Collect$$rtentry$$0000000C
                                    0x00000122   Lc    1  Sect  De 
    259  .ARM.Collect$$rtentry$$0000000D
                                    0x00000122   Lc    1  Sect  De   0x8
    260  ../clib/angel/kernel.s     0x00000000   Lc  Abs  File  De 
    261  .ARM.Collect$$rtentry$$00000004
                                    0x00000118   Lc    1  Sect  De   0x6
    262  ../clib/angel/sys.s        0x00000000   Lc  Abs  File  De 
    263  .text                      0x0000018a   Lc    1  Sect  De   0x4a
    264  ../clib/stdlib.c           0x00000000   Lc  Abs  File  De 
    265  .text                      0x000001d4   Lc    1  Sect  De 
    266  ../clib/angel/boardlib.s   0x00000000   Lc  Abs  File  De 
    267  ../clib/angel/boardlib.s   0x00000000   Lc  Abs  File  De 
    268  ../clib/angel/boardlib.s   0x00000000   Lc  Abs  File  De 
    269  ../clib/libinit.s          0x00000000   Lc  Abs  File  De 
    270  .ARM.Collect$$libinit$$00000000
                                    0x0000010c   Lc    1  Sect  De   0x2
    271  ../clib/angel/sys.s        0x00000000   Lc  Abs  File  De 
    272  .text                      0x000001e0   Lc    1  Sect  De   0x8
    273  .bss                       0x100009ac   Lc    3  Sect  De   0x60
    274  ../clib/angel/kernel.s     0x00000000   Lc  Abs  File  De 
    275  .ARM.Collect$$rtexit$$00000000
                                    0x0000012a   Lc    1  Sect  De   0x2
    276  ../clib/libinit.s          0x00000000   Lc  Abs  File  De 
    277  .ARM.Collect$$libinit$$00000001
                                    0x0000010e   Lc    1  Sect  De   0x4
    278  .ARM.Collect$$libinit$$00000004
                                    0x00000112   Lc    1  Sect  De 
    279  .ARM.Collect$$libinit$$0000000A
                                    0x00000112   Lc    1  Sect  De 
    280  .ARM.Collect$$libinit$$0000000C
                                    0x00000112   Lc    1  Sect  De 
    281  .ARM.Collect$$libinit$$0000000E
                                    0x00000112   Lc    1  Sect  De 
    282  .ARM.Collect$$libinit$$00000011
                                    0x00000112   Lc    1  Sect  De 
    283  .ARM.Collect$$libinit$$00000013
                                    0x00000112   Lc    1  Sect  De 
    284  .ARM.Collect$$libinit$$00000015
                                    0x00000112   Lc    1  Sect  De 
    285  .ARM.Collect$$libinit$$00000017
                                    0x00000112   Lc    1  Sect  De 
    286  .ARM.Collect$$libinit$$00000019
                                    0x00000112   Lc    1  Sect  De 
    287  .ARM.Collect$$libinit$$0000001B
                                    0x00000112   Lc    1  Sect  De 
    288  .ARM.Collect$$libinit$$0000001D
                                    0x00000112   Lc    1  Sect  De 
    289  .ARM.Collect$$libinit$$0000001F
                                    0x00000112   Lc    1  Sect  De 
    290  .ARM.Collect$$libinit$$00000021
                                    0x00000112   Lc    1  Sect  De 
    291  .ARM.Collect$$libinit$$00000023
                                    0x00000112   Lc    1  Sect  De 
    292  .ARM.Collect$$libinit$$00000025
                                    0x00000112   Lc    1  Sect  De 
    293  .ARM.Collect$$libinit$$0000002C
                                    0x00000112   Lc    1  Sect  De 
    294  .ARM.Collect$$libinit$$0000002E
                                    0x00000112   Lc    1  Sect  De 
    295  .ARM.Collect$$libinit$$00000030
                                    0x00000112   Lc    1  Sect  De 
    296  .ARM.Collect$$libinit$$00000032
                                    0x00000112   Lc    1  Sect  De 
    297  .ARM.Collect$$libinit$$00000033
                                    0x00000112   Lc    1  Sect  De   0x2
    298  ../clib/angel/kernel.s     0x00000000   Lc  Abs  File  De 
    299  .ARM.Collect$$rtexit$$00000002
                                    0x0000012c   Lc    1  Sect  De 
    300  .ARM.Collect$$rtexit$$00000003
                                    0x0000012c   Lc    1  Sect  De   0x4
    301  .ARM.Collect$$rtexit$$00000004
                                    0x00000130   Lc    1  Sect  De   0x6
    302  ../clib/armsys.c           0x00000000   Lc  Abs  File  De 
    303  ../clib/armsys.c           0x00000000   Lc  Abs  File  De 
    304  ../fplib/fpinit.s          0x00000000   Lc  Abs  File  De 
    305  x$fpl$fpinit               0x00001822   Lc    1  Sect  De   0xa
    306  $v0                        0x00001822   Lc    1   --   De 
    307  ../clib/angel/sysapp.c     0x00000000   Lc  Abs  File  De 
    308  .text                      0x000001e8   Lc    1  Sect  De 
    309  ../clib/angel/boardlib.s   0x00000000   Lc  Abs  File  De 
    310  ../clib/armsys.c           0x00000000   Lc  Abs  File  De 
    311  ../clib/armsys.c           0x00000000   Lc  Abs  File  De 
    312  ../clib/libinit.s          0x00000000   Lc  Abs  File  De 
    313  .ARM.Collect$$libshutdown$$00000000
                                    0x00000114   Lc    1  Sect  De   0x2
    314  ../clib/angel/sysapp.c     0x00000000   Lc  Abs  File  De 
    315  ../clib/angel/sys.s        0x00000000   Lc  Abs  File  De 
    316  .text                      0x000001f4   Lc    1  Sect  De   0x2
    317  ../clib/angel/sys.s        0x00000000   Lc  Abs  File  De 
    318  .text                      0x000001f6   Lc    1  Sect  De 
    319  ../clib/heapalloc.c        0x00000000   Lc  Abs  File  De 
    320  ../clib/signal.c           0x00000000   Lc  Abs  File  De 
    321  ../clib/signal.c           0x00000000   Lc  Abs  File  De 
    322  ../clib/libinit.s          0x00000000   Lc  Abs  File  De 
    323  .ARM.Collect$$libshutdown$$00000003
                                    0x00000116   Lc    1  Sect  De 
    324  .ARM.Collect$$libshutdown$$00000006
                                    0x00000116   Lc    1  Sect  De 
    325  .ARM.Collect$$libshutdown$$00000009
                                    0x00000116   Lc    1  Sect  De 
    326  .ARM.Collect$$libshutdown$$0000000B
                                    0x00000116   Lc    1  Sect  De 
    327  .ARM.Collect$$libshutdown$$0000000E
                                    0x00000116   Lc    1  Sect  De 
    328  .ARM.Collect$$libshutdown$$0000000F
                                    0x00000116   Lc    1  Sect  De   0x2
    329  ../clib/angel/rt.s         0x00000000   Lc  Abs  File  De 
    330  ../clib/signal.c           0x00000000   Lc  Abs  File  De 
    331  ../clib/signal.c           0x00000000   Lc  Abs  File  De 
    332  ../clib/signal.c           0x00000000   Lc  Abs  File  De 
    333  ../clib/signal.c           0x00000000   Lc  Abs  File  De 
    334  ../clib/angel/sysapp.c     0x00000000   Lc  Abs  File  De 
    335  ../clib/signal.s           0x00000000   Lc  Abs  File  De 
    336  ../clib/signal.c           0x00000000   Lc  Abs  File  De 
    337  ../clib/signal.c           0x00000000   Lc  Abs  File  De 
    338  ../clib/signal.c           0x00000000   Lc  Abs  File  De 
    339  ../clib/signal.c           0x00000000   Lc  Abs  File  De 
    340  ../clib/signal.c           0x00000000   Lc  Abs  File  De 
    341  ../clib/signal.c           0x00000000   Lc  Abs  File  De 
    342  ../clib/signal.c           0x00000000   Lc  Abs  File  De 
    343  ../clib/signal.c           0x00000000   Lc  Abs  File  De 
    344  ../clib/angel/scatter.s    0x00000000   Lc  Abs  File  De 
    345  !!!scatter                 0x000000a0   Lc    1  Sect  De   0x34
    346  ../clib/angel/handlers.s   0x00000000   Lc  Abs  File  De 
    347  !!handler_copy             0x000000d4   Lc    1  Sect  De   0x1a
    348  ../clib/angel/handlers.s   0x00000000   Lc  Abs  File  De 
    349  !!handler_zi               0x000000f0   Lc    1  Sect  De   0x1c
    350  BuildAttributes$$THM_ISAv4$E$P$D$K$B$S$7EM$VFPi3$EXTD16$VFPS$VFMA$PE$A:L22UL41UL21$X:L11$S22US41US21$IEEE1$IW$USESV6$~STKCKD$USESV7$~SHL$OTIME$ROPI$EBA8$UX$STANDARDLIB$REQ8$EABIv2
                                    0x00000000   Gb  Abs   --   Hi 
    351  __ARM_use_no_argv          0x00000000   Gb  Abs   --   Hi 
    352  __Vectors                  0x00000000   Gb    1  Data  Hi 
    353  Reset_Handler              0x00000071   Wk    1  Code  Hi   0x14
    354  am_nmi_isr                 0x00000085   Wk    1  Code  Hi   0x2
    355  am_memmanage_isr           0x00000089   Wk    1  Code  Hi   0x2
    356  am_mpufault_isr            0x0000008b   Wk    1  Code  Hi   0x2
    357  am_busfault_isr            0x0000008d   Wk    1  Code  Hi   0x2
    358  am_usagefault_isr          0x0000008f   Wk    1  Code  Hi   0x2
    359  am_adc_isr                 0x00000091   Wk    1  Code  Hi 
    360  am_brownout_isr            0x00000091   Wk    1  Code  Hi 
    361  am_clkgen_isr              0x00000091   Wk    1  Code  Hi 
    362  am_debugmon_isr            0x00000091   Wk    1  Code  Hi 
    363  am_gpio_isr                0x00000091   Wk    1  Code  Hi 
    364  am_iomaster0_isr           0x00000091   Wk    1  Code  Hi 
    365  am_iomaster1_isr           0x00000091   Wk    1  Code  Hi 
    366  am_ioslave_acc_isr         0x00000091   Wk    1  Code  Hi 
    367  am_ioslave_ios_isr         0x00000091   Wk    1  Code  Hi 
    368  am_pendsv_isr              0x00000091   Wk    1  Code  Hi 
    369  am_svcall_isr              0x00000091   Wk    1  Code  Hi 
    370  am_systick_isr             0x00000091   Wk    1  Code  Hi 
    371  am_vcomp_isr               0x00000091   Wk    1  Code  Hi 
    372  am_watchdog_isr            0x00000091   Wk    1  Code  Hi 
    373  __main                     0x00000099   Gb    1  Code  Hi   0x8
    374  __scatterload              0x000000a1   Gb    1  Code  Hi 
    375  __scatterload_rt2          0x000000a1   Gb    1  Code  Hi   0x2c
    376  __scatterload_rt2_thumb_only
                                    0x000000a1   Gb    1  Code  Hi 
    377  __scatterload_null         0x000000af   Gb    1  Code  Hi 
    378  __scatterload_copy         0x000000d5   Gb    1  Code  Hi   0x1a
    379  __scatterload_zeroinit     0x000000f1   Gb    1  Code  Hi   0x1c
    380  __rt_lib_init              0x0000010d   Gb    1  Code  De 
    381  __rt_lib_init_fp_1         0x0000010f   Gb    1  Code  Hi 
    382  __rt_lib_init_alloca_1     0x00000113   Gb    1  Code  Hi 
    383  __rt_lib_init_argv_1       0x00000113   Gb    1  Code  Hi 
    384  __rt_lib_init_atexit_1     0x00000113   Gb    1  Code  Hi 
    385  __rt_lib_init_clock_1      0x00000113   Gb    1  Code  Hi 
    386  __rt_lib_init_cpp_1        0x00000113   Gb    1  Code  Hi 
    387  __rt_lib_init_exceptions_1 0x00000113   Gb    1  Code  Hi 
    388  __rt_lib_init_fp_trap_1    0x00000113   Gb    1  Code  Hi 
    389  __rt_lib_init_getenv_1     0x00000113   Gb    1  Code  Hi 
    390  __rt_lib_init_heap_1       0x00000113   Gb    1  Code  Hi 
    391  __rt_lib_init_lc_collate_1 0x00000113   Gb    1  Code  Hi 
    392  __rt_lib_init_lc_ctype_1   0x00000113   Gb    1  Code  Hi 
    393  __rt_lib_init_lc_monetary_1
                                    0x00000113   Gb    1  Code  Hi 
    394  __rt_lib_init_lc_numeric_1 0x00000113   Gb    1  Code  Hi 
    395  __rt_lib_init_lc_time_1    0x00000113   Gb    1  Code  Hi 
    396  __rt_lib_init_preinit_1    0x00000113   Gb    1  Code  Hi 
    397  __rt_lib_init_rand_1       0x00000113   Gb    1  Code  Hi 
    398  __rt_lib_init_return       0x00000113   Gb    1  Code  Hi 
    399  __rt_lib_init_signal_1     0x00000113   Gb    1  Code  Hi 
    400  __rt_lib_init_stdio_1      0x00000113   Gb    1  Code  Hi 
    401  __rt_lib_init_user_alloc_1 0x00000113   Gb    1  Code  Hi 
    402  __rt_lib_shutdown          0x00000115   Gb    1  Code  De 
    403  __rt_lib_shutdown_fp_trap_1
                                    0x00000117   Gb    1  Code  Hi 
    404  __rt_lib_shutdown_heap_1   0x00000117   Gb    1  Code  Hi 
    405  __rt_lib_shutdown_return   0x00000117   Gb    1  Code  Hi 
    406  __rt_lib_shutdown_signal_1 0x00000117   Gb    1  Code  Hi 
    407  __rt_lib_shutdown_stdio_1  0x00000117   Gb    1  Code  Hi 
    408  __rt_lib_shutdown_user_alloc_1
                                    0x00000117   Gb    1  Code  Hi 
    409  __rt_entry                 0x00000119   Gb    1  Code  Hi 
    410  __rt_entry_presh_1         0x00000119   Gb    1  Code  Hi 
    411  __rt_entry_sh              0x00000119   Gb    1  Code  Hi 
    412  __rt_entry_li              0x0000011f   Gb    1  Code  Hi 
    413  __rt_entry_postsh_1        0x0000011f   Gb    1  Code  Hi 
    414  __rt_entry_main            0x00000123   Gb    1  Code  Hi 
    415  __rt_entry_postli_1        0x00000123   Gb    1  Code  Hi 
    416  __rt_exit                  0x0000012b   Gb    1  Code  De 
    417  __rt_exit_ls               0x0000012d   Gb    1  Code  Hi 
    418  __rt_exit_prels_1          0x0000012d   Gb    1  Code  Hi 
    419  __rt_exit_exit             0x00000131   Gb    1  Code  Hi 
    420  am_util_delay_cycles       0x00000139   Gb    1  Code  Hi   0x6
    421  am_fault_isr               0x00000141   Gb    1  Code  Hi   0xc
    422  getStackedReg              0x0000014d   Gb    1  Code  Hi   0x8
    423  am_hal_interrupt_master_enable
                                    0x00000155   Gb    1  Code  Hi   0x8
    424  am_hal_interrupt_master_disable
                                    0x0000015d   Gb    1  Code  Hi   0x8
    425  am_hal_interrupt_master_set
                                    0x00000165   Gb    1  Code  Hi   0x6
    426  __user_initial_stackheap   0x0000016d   Gb    1  Code  Hi   0xa
    427  __use_two_region_memory    0x00000185   Gb    1  Code  Hi   0x2
    428  __rt_heap_escrow$2region   0x00000187   Gb    1  Code  De   0x2
    429  __rt_heap_expand$2region   0x00000189   Gb    1  Code  De   0x2
    430  __user_setup_stackheap     0x0000018b   Gb    1  Code  De   0x4a
    431  exit                       0x000001d5   Gb    1  Code  De   0xc
    432  __user_libspace            0x000001e1   Wk    1  Code  De   0x8
    433  __user_perproc_libspace    0x000001e1   Wk    1  Code  De 
    434  __user_perthread_libspace  0x000001e1   Wk    1  Code  De 
    435  _sys_exit                  0x000001e9   Gb    1  Code  De   0x8
    436  __I$use$semihosting        0x000001f5   Gb    1  Code  Hi 
    437  __use_no_semihosting_swi   0x000001f5   Gb    1  Code  Hi   0x2
    438  __semihosting_library_function
                                    0x000001f7   Gb    1  Code  Hi 
    439  am_bsp_low_power_init      0x000001f7   Gb    1  Code  Hi   0x28
    440  am_ctimer_isr              0x00000221   Gb    1  Code  Hi   0x2a
    441  am_devices_button_array_init
                                    0x00000261   Gb    1  Code  Hi   0x1a
    442  am_devices_button_array_tick
                                    0x0000027b   Gb    1  Code  Hi   0x1a
    443  am_devices_button_init     0x00000295   Gb    1  Code  Hi   0x82
    444  am_devices_button_tick     0x0000031d   Gb    1  Code  Hi   0x150
    445  am_devices_da14581_uart_boot
                                    0x00000471   Gb    1  Code  Hi   0x86
    446  am_devices_led_array_init  0x000004fd   Gb    1  Code  Hi   0x1a
    447  am_devices_led_init        0x00000519   Gb    1  Code  Hi   0xe2
    448  am_devices_led_off         0x00000601   Gb    1  Code  Hi   0x22
    449  am_devices_led_on          0x00000629   Gb    1  Code  Hi   0x22
    450  am_hal_clkgen_osc_start    0x00000651   Gb    1  Code  Hi   0xe
    451  am_hal_clkgen_osc_stop     0x0000065f   Gb    1  Code  Hi   0xc
    452  am_hal_clkgen_sysclk_get   0x0000066d   Gb    1  Code  Hi   0x40
    453  am_hal_clkgen_sysclk_select
                                    0x000006cd   Gb    1  Code  Hi   0x10
    454  am_hal_ctimer_config_single
                                    0x000006dd   Gb    1  Code  Hi   0x22
    455  am_hal_ctimer_int_clear    0x00000705   Gb    1  Code  Hi   0x8
    456  am_hal_ctimer_int_enable   0x00000711   Gb    1  Code  Hi   0xe
    457  am_hal_ctimer_period_set   0x00000725   Gb    1  Code  Hi   0x6a
    458  am_hal_ctimer_start        0x0000079d   Gb    1  Code  Hi   0x18
    459  am_hal_interrupt_enable    0x000007b9   Gb    1  Code  Hi   0x46
    460  am_hal_mcuctrl_bandgap_disable
                                    0x00000805   Gb    1  Code  Hi   0xc
    461  am_hal_mcuctrl_bucks_enable
                                    0x00000815   Gb    1  Code  Hi   0x24
    462  am_hal_rtc_osc_disable     0x0000083d   Gb    1  Code  Hi   0xe
    463  am_hal_rtc_osc_select      0x0000084b   Gb    1  Code  Hi   0x16
    464  am_hal_sysctrl_sleep       0x00000861   Gb    1  Code  Hi   0x2a
    465  am_hal_uart_char_receive_polled
                                    0x00000895   Gb    1  Code  Hi   0x10
    466  am_hal_uart_char_transmit_polled
                                    0x000008a9   Gb    1  Code  Hi   0xe
    467  am_hal_uart_clock_disable  0x000008bd   Gb    1  Code  Hi   0x18
    468  am_hal_uart_clock_enable   0x000008d9   Gb    1  Code  Hi   0x20
    469  am_hal_uart_config         0x000008fd   Gb    1  Code  Hi   0x4e
    470  am_hal_uart_disable        0x00000951   Gb    1  Code  Hi   0x10
    471  am_hal_uart_enable         0x00000965   Gb    1  Code  Hi   0xe
    472  am_hal_uart_flags_get      0x00000979   Gb    1  Code  Hi   0x6
    473  am_hal_uart_init_buffered  0x00000985   Gb    1  Code  Hi   0x40
    474  am_hal_uart_int_clear      0x000009cd   Gb    1  Code  Hi   0x6
    475  am_hal_uart_int_enable     0x000009d9   Gb    1  Code  Hi   0xa
    476  am_hal_uart_int_status_get 0x000009e9   Gb    1  Code  Hi   0xc
    477  am_hal_uart_service_buffered
                                    0x000009f9   Gb    1  Code  Hi   0x9e
    478  am_hal_uart_string_transmit_buffered
                                    0x00000aa5   Gb    1  Code  Hi   0x60
    479  am_hal_vcomp_disable       0x00000b0d   Gb    1  Code  Hi   0x8
    480  am_uart_isr                0x00000b19   Gb    1  Code  Hi   0x26
    481  am_util_delay_us           0x00000b41   Gb    1  Code  Hi   0x1a
    482  am_util_faultisr_collect_data
                                    0x00000b61   Gb    1  Code  Hi   0xa4
    483  am_util_stdio_printf       0x00000c09   Gb    1  Code  Hi   0x28
    484  am_util_stdio_printf_init  0x00000c39   Gb    1  Code  Hi   0x6
    485  am_util_stdio_vsprintf     0x00000c45   Gb    1  Code  Hi   0x330
    486  boot_radio                 0x00000f85   Gb    1  Code  Hi   0x64
    487  configure_radio_pins       0x00000ff1   Gb    1  Code  Hi   0xe4
    488  configure_radio_uart       0x000010d9   Gb    1  Code  Hi   0x16
    489  main                       0x00001341   Gb    1  Code  Hi   0x72
    490  radio_uart_disable         0x0000145d   Gb    1  Code  Hi   0xb8
    491  radio_uart_enable          0x0000151d   Gb    1  Code  Hi   0xb6
    492  setup_buttons              0x000015e1   Gb    1  Code  Hi   0x44
    493  __aeabi_d2f                0x00001725   Gb    1  Code  Hi 
    494  _d2f                       0x00001725   Gb    1  Code  De   0x62
    495  __fpl_dnaninf              0x00001787   Gb    1  Code  De   0x9c
    496  _fp_init                   0x00001823   Gb    1  Code  De   0xa
    497  __fplib_config_fpu_vfp     0x0000182b   Gb    1  Code  De 
    498  __fplib_config_pureend_doubles
                                    0x0000182b   Gb    1  Code  De 
    499  __fpl_fretinf              0x0000182d   Gb    1  Code  De   0xa
    500  __I$use$fp                 0x00001836   Gb    1   --   De 
    501  g_pui8DspsImage            0x00001836   Gb    1  Data  Hi   0x3690
    502  Region$$Table$$Base        0x00004ec8   Gb    1   --   Hi 
    503  Region$$Table$$Limit       0x00004ee8   Gb    1   --   Hi 
    504  g_bUARTIdle                0x10000000   Gb    2  Data  Hi   0x1
    505  g_sUartConfig              0x10000004   Gb    2  Data  Hi   0x14
    506  g_pfnCharPrint             0x10000018   Gb    2  Data  Hi   0x4
    507  g_ui32HALflags             0x10000020   Gb    2  Data  Hi   0x4
    508  am_bsp_psLEDs              0x10000024   Gb    2  Data  Hi   0x20
    509  am_bsp_psButtons           0x10000044   Gb    2  Data  Hi   0x40
    510  g_pui8TxArray              0x10000084   Gb    3  Data  Hi   0x400
    511  g_pui8RxArray              0x10000484   Gb    3  Data  Hi   0x400
    512  g_sTxBuffer                0x10000984   Gb    3  Data  Hi   0x14
    513  g_sRxBuffer                0x10000998   Gb    3  Data  Hi   0x14
    514  __libspace_start           0x100009ac   Gb    3  Data  De   0x60
    515  __temporary_stack_top$libspace
                                    0x10000a0c   Gb    3  Data  De 


** Section #12 '.strtab' (SHT_STRTAB)
    Size   : 7756 bytes

            #  Offset String
        ====================================

            1      1: $d
            2      4: $t
            3      7: $d.realdata
            4     19: ../src/dsps_image.c
            5     39: .constdata
            6     50: ../src/dsps_print.c
            7     70: i.am_ctimer_isr
            8     86: i.am_uart_isr
            9    100: i.boot_radio
           10    113: i.configure_radio_pins
           11    136: i.configure_radio_uart
           12    159: i.main
           13    166: i.radio_uart_disable
           14    187: i.radio_uart_enable
           15    207: i.setup_buttons
           16    223: .bss
           17    228: .data
           18    234: ..\..\..\..\..\utils\am_util_delay.c
           19    271: .emb_text
           20    281: $v0
           21    285: ../../../../../utils/am_util_delay.c
           22    322: i.am_util_delay_us
           23    341: ..\..\..\..\..\utils\am_util_faultisr.c
           24    381: ../../../../../utils/am_util_faultisr.c
           25    421: i.am_util_faultisr_collect_data
           26    453: ../../../../../utils/am_util_stdio.c
           27    490: i.am_util_stdio_printf
           28    513: i.am_util_stdio_printf_init
           29    541: i.am_util_stdio_vsprintf
           30    566: i.decstr_to_u
           31    580: decstr_to_u
           32    592: i.divu64_10
           33    604: divu64_10
           34    614: i.ftoa
           35    621: ftoa
           36    626: i.ndigits_in_hex
           37    643: ndigits_in_hex
           38    658: i.ndigits_in_i64
           39    675: ndigits_in_i64
           40    690: i.ndigits_in_u64
           41    707: ndigits_in_u64
           42    722: i.uint64_to_hexstr
           43    741: uint64_to_hexstr
           44    758: i.uint64_to_str
           45    774: uint64_to_str
           46    788: g_prfbuf
           47    797: g_bTxtXlate
           48    809: ../../../../../devices/am_devices_button.c
           49    852: i.am_devices_button_array_init
           50    883: i.am_devices_button_array_tick
           51    914: i.am_devices_button_init
           52    939: i.am_devices_button_tick
           53    964: ../../../../../devices/am_devices_da14581.c
           54   1008: i.am_devices_da14581_uart_boot
           55   1039: ../../../../../devices/am_devices_led.c
           56   1079: i.am_devices_led_array_init
           57   1107: i.am_devices_led_init
           58   1129: i.am_devices_led_off
           59   1150: i.am_devices_led_on
           60   1170: ../keil/startup_keil.s
           61   1193: STACK
           62   1199: StackMem
           63   1208: HEAP
           64   1213: HeapMem
           65   1221: RESET
           66   1227: .text
           67   1233: ../am_hal_global.c
           68   1252: ../am_hal_clkgen.c
           69   1271: i.am_hal_clkgen_osc_start
           70   1297: i.am_hal_clkgen_osc_stop
           71   1322: i.am_hal_clkgen_sysclk_get
           72   1349: i.am_hal_clkgen_sysclk_select
           73   1379: ..\am_hal_ctimer.c
           74   1398: ../am_hal_ctimer.c
           75   1417: i.am_hal_ctimer_config_single
           76   1447: i.am_hal_ctimer_int_clear
           77   1473: i.am_hal_ctimer_int_enable
           78   1500: i.am_hal_ctimer_period_set
           79   1527: i.am_hal_ctimer_start
           80   1549: ../am_hal_gpio.c
           81   1566: ..\am_hal_interrupt.c
           82   1588: ../am_hal_interrupt.c
           83   1610: i.am_hal_interrupt_enable
           84   1636: ../am_hal_iom.c
           85   1652: ../am_hal_sysctrl.c
           86   1672: i.am_hal_sysctrl_sleep
           87   1695: ../am_hal_uart.c
           88   1712: i.am_hal_uart_char_receive_polled
           89   1746: i.am_hal_uart_char_transmit_polled
           90   1781: i.am_hal_uart_clock_disable
           91   1809: i.am_hal_uart_clock_enable
           92   1836: i.am_hal_uart_config
           93   1857: i.am_hal_uart_disable
           94   1879: i.am_hal_uart_enable
           95   1900: i.am_hal_uart_flags_get
           96   1924: i.am_hal_uart_init_buffered
           97   1952: i.am_hal_uart_int_clear
           98   1976: i.am_hal_uart_int_enable
           99   2001: i.am_hal_uart_int_status_get
          100   2030: i.am_hal_uart_service_buffered
          101   2061: i.am_hal_uart_string_transmit_buffered
          102   2100: ../am_bsp.c
          103   2112: i.am_bsp_low_power_init
          104   2136: ../am_hal_debug.c
          105   2154: ../am_hal_i2c_bit_bang.c
          106   2179: ..\am_hal_itm.c
          107   2195: ../am_hal_itm.c
          108   2211: ../am_hal_mcuctrl.c
          109   2231: i.am_hal_mcuctrl_bandgap_disable
          110   2264: i.am_hal_mcuctrl_bucks_enable
          111   2294: ../am_hal_rtc.c
          112   2310: i.am_hal_rtc_osc_disable
          113   2335: i.am_hal_rtc_osc_select
          114   2359: ../am_hal_tpiu.c
          115   2376: ../am_hal_vcomp.c
          116   2394: i.am_hal_vcomp_disable
          117   2417: dc.s
          118   2422: ../clib/heapaux.c
          119   2440: ../clib/angel/startup.s
          120   2464: !!!main
          121   2472: ../fplib/d2f.s
          122   2487: x$fpl$d2f
          123   2497: ../clib/angel/kernel.s
          124   2520: .ARM.Collect$$rtentry$$00000000
          125   2552: ../fplib/dnaninf.s
          126   2571: x$fpl$dnaninf
          127   2585: ../fplib/fretinf.s
          128   2604: x$fpl$fretinf
          129   2618: ../fplib/usenofp.s
          130   2637: x$fpl$usenofp
          131   2651: .ARM.Collect$$rtentry$$00000002
          132   2683: .ARM.Collect$$rtentry$$00000009
          133   2715: .ARM.Collect$$rtentry$$0000000A
          134   2747: .ARM.Collect$$rtentry$$0000000C
          135   2779: .ARM.Collect$$rtentry$$0000000D
          136   2811: .ARM.Collect$$rtentry$$00000004
          137   2843: ../clib/angel/sys.s
          138   2863: ../clib/stdlib.c
          139   2880: ../clib/angel/boardlib.s
          140   2905: ../clib/libinit.s
          141   2923: .ARM.Collect$$libinit$$00000000
          142   2955: .ARM.Collect$$rtexit$$00000000
          143   2986: .ARM.Collect$$libinit$$00000001
          144   3018: .ARM.Collect$$libinit$$00000004
          145   3050: .ARM.Collect$$libinit$$0000000A
          146   3082: .ARM.Collect$$libinit$$0000000C
          147   3114: .ARM.Collect$$libinit$$0000000E
          148   3146: .ARM.Collect$$libinit$$00000011
          149   3178: .ARM.Collect$$libinit$$00000013
          150   3210: .ARM.Collect$$libinit$$00000015
          151   3242: .ARM.Collect$$libinit$$00000017
          152   3274: .ARM.Collect$$libinit$$00000019
          153   3306: .ARM.Collect$$libinit$$0000001B
          154   3338: .ARM.Collect$$libinit$$0000001D
          155   3370: .ARM.Collect$$libinit$$0000001F
          156   3402: .ARM.Collect$$libinit$$00000021
          157   3434: .ARM.Collect$$libinit$$00000023
          158   3466: .ARM.Collect$$libinit$$00000025
          159   3498: .ARM.Collect$$libinit$$0000002C
          160   3530: .ARM.Collect$$libinit$$0000002E
          161   3562: .ARM.Collect$$libinit$$00000030
          162   3594: .ARM.Collect$$libinit$$00000032
          163   3626: .ARM.Collect$$libinit$$00000033
          164   3658: .ARM.Collect$$rtexit$$00000002
          165   3689: .ARM.Collect$$rtexit$$00000003
          166   3720: .ARM.Collect$$rtexit$$00000004
          167   3751: ../clib/armsys.c
          168   3768: ../fplib/fpinit.s
          169   3786: x$fpl$fpinit
          170   3799: ../clib/angel/sysapp.c
          171   3822: .ARM.Collect$$libshutdown$$00000000
          172   3858: ../clib/heapalloc.c
          173   3878: ../clib/signal.c
          174   3895: .ARM.Collect$$libshutdown$$00000003
          175   3931: .ARM.Collect$$libshutdown$$00000006
          176   3967: .ARM.Collect$$libshutdown$$00000009
          177   4003: .ARM.Collect$$libshutdown$$0000000B
          178   4039: .ARM.Collect$$libshutdown$$0000000E
          179   4075: .ARM.Collect$$libshutdown$$0000000F
          180   4111: ../clib/angel/rt.s
          181   4130: ../clib/signal.s
          182   4147: ../clib/angel/scatter.s
          183   4171: !!!scatter
          184   4182: ../clib/angel/handlers.s
          185   4207: !!handler_copy
          186   4222: !!handler_zi
          187   4235: BuildAttributes$$THM_ISAv4$E$P$D$K$B$S$7EM$VFPi3$EXTD16$VFPS$VFMA$PE$A:L22UL41UL21$X:L11$S22US41US21$IEEE1$IW$USESV6$~STKCKD$USESV7$~SHL$OTIME$ROPI$EBA8$UX$STANDARDLIB$REQ8$EABIv2
          188   4415: __ARM_use_no_argv
          189   4433: __Vectors
          190   4443: Reset_Handler
          191   4457: am_nmi_isr
          192   4468: am_memmanage_isr
          193   4485: am_mpufault_isr
          194   4501: am_busfault_isr
          195   4517: am_usagefault_isr
          196   4535: am_adc_isr
          197   4546: am_brownout_isr
          198   4562: am_clkgen_isr
          199   4576: am_debugmon_isr
          200   4592: am_gpio_isr
          201   4604: am_iomaster0_isr
          202   4621: am_iomaster1_isr
          203   4638: am_ioslave_acc_isr
          204   4657: am_ioslave_ios_isr
          205   4676: am_pendsv_isr
          206   4690: am_svcall_isr
          207   4704: am_systick_isr
          208   4719: am_vcomp_isr
          209   4732: am_watchdog_isr
          210   4748: __main
          211   4755: __scatterload
          212   4769: __scatterload_rt2
          213   4787: __scatterload_rt2_thumb_only
          214   4816: __scatterload_null
          215   4835: __scatterload_copy
          216   4854: __scatterload_zeroinit
          217   4877: __rt_lib_init
          218   4891: __rt_lib_init_fp_1
          219   4910: __rt_lib_init_alloca_1
          220   4933: __rt_lib_init_argv_1
          221   4954: __rt_lib_init_atexit_1
          222   4977: __rt_lib_init_clock_1
          223   4999: __rt_lib_init_cpp_1
          224   5019: __rt_lib_init_exceptions_1
          225   5046: __rt_lib_init_fp_trap_1
          226   5070: __rt_lib_init_getenv_1
          227   5093: __rt_lib_init_heap_1
          228   5114: __rt_lib_init_lc_collate_1
          229   5141: __rt_lib_init_lc_ctype_1
          230   5166: __rt_lib_init_lc_monetary_1
          231   5194: __rt_lib_init_lc_numeric_1
          232   5221: __rt_lib_init_lc_time_1
          233   5245: __rt_lib_init_preinit_1
          234   5269: __rt_lib_init_rand_1
          235   5290: __rt_lib_init_return
          236   5311: __rt_lib_init_signal_1
          237   5334: __rt_lib_init_stdio_1
          238   5356: __rt_lib_init_user_alloc_1
          239   5383: __rt_lib_shutdown
          240   5401: __rt_lib_shutdown_fp_trap_1
          241   5429: __rt_lib_shutdown_heap_1
          242   5454: __rt_lib_shutdown_return
          243   5479: __rt_lib_shutdown_signal_1
          244   5506: __rt_lib_shutdown_stdio_1
          245   5532: __rt_lib_shutdown_user_alloc_1
          246   5563: __rt_entry
          247   5574: __rt_entry_presh_1
          248   5593: __rt_entry_sh
          249   5607: __rt_entry_li
          250   5621: __rt_entry_postsh_1
          251   5641: __rt_entry_main
          252   5657: __rt_entry_postli_1
          253   5677: __rt_exit
          254   5687: __rt_exit_ls
          255   5700: __rt_exit_prels_1
          256   5718: __rt_exit_exit
          257   5733: am_util_delay_cycles
          258   5754: am_fault_isr
          259   5767: getStackedReg
          260   5781: am_hal_interrupt_master_enable
          261   5812: am_hal_interrupt_master_disable
          262   5844: am_hal_interrupt_master_set
          263   5872: __user_initial_stackheap
          264   5897: __use_two_region_memory
          265   5921: __rt_heap_escrow$2region
          266   5946: __rt_heap_expand$2region
          267   5971: __user_setup_stackheap
          268   5994: exit
          269   5999: __user_libspace
          270   6015: __user_perproc_libspace
          271   6039: __user_perthread_libspace
          272   6065: _sys_exit
          273   6075: __I$use$semihosting
          274   6095: __use_no_semihosting_swi
          275   6120: __semihosting_library_function
          276   6151: am_bsp_low_power_init
          277   6173: am_ctimer_isr
          278   6187: am_devices_button_array_init
          279   6216: am_devices_button_array_tick
          280   6245: am_devices_button_init
          281   6268: am_devices_button_tick
          282   6291: am_devices_da14581_uart_boot
          283   6320: am_devices_led_array_init
          284   6346: am_devices_led_init
          285   6366: am_devices_led_off
          286   6385: am_devices_led_on
          287   6403: am_hal_clkgen_osc_start
          288   6427: am_hal_clkgen_osc_stop
          289   6450: am_hal_clkgen_sysclk_get
          290   6475: am_hal_clkgen_sysclk_select
          291   6503: am_hal_ctimer_config_single
          292   6531: am_hal_ctimer_int_clear
          293   6555: am_hal_ctimer_int_enable
          294   6580: am_hal_ctimer_period_set
          295   6605: am_hal_ctimer_start
          296   6625: am_hal_interrupt_enable
          297   6649: am_hal_mcuctrl_bandgap_disable
          298   6680: am_hal_mcuctrl_bucks_enable
          299   6708: am_hal_rtc_osc_disable
          300   6731: am_hal_rtc_osc_select
          301   6753: am_hal_sysctrl_sleep
          302   6774: am_hal_uart_char_receive_polled
          303   6806: am_hal_uart_char_transmit_polled
          304   6839: am_hal_uart_clock_disable
          305   6865: am_hal_uart_clock_enable
          306   6890: am_hal_uart_config
          307   6909: am_hal_uart_disable
          308   6929: am_hal_uart_enable
          309   6948: am_hal_uart_flags_get
          310   6970: am_hal_uart_init_buffered
          311   6996: am_hal_uart_int_clear
          312   7018: am_hal_uart_int_enable
          313   7041: am_hal_uart_int_status_get
          314   7068: am_hal_uart_service_buffered
          315   7097: am_hal_uart_string_transmit_buffered
          316   7134: am_hal_vcomp_disable
          317   7155: am_uart_isr
          318   7167: am_util_delay_us
          319   7184: am_util_faultisr_collect_data
          320   7214: am_util_stdio_printf
          321   7235: am_util_stdio_printf_init
          322   7261: am_util_stdio_vsprintf
          323   7284: boot_radio
          324   7295: configure_radio_pins
          325   7316: configure_radio_uart
          326   7337: main
          327   7342: radio_uart_disable
          328   7361: radio_uart_enable
          329   7379: setup_buttons
          330   7393: __aeabi_d2f
          331   7405: _d2f
          332   7410: __fpl_dnaninf
          333   7424: _fp_init
          334   7433: __fplib_config_fpu_vfp
          335   7456: __fplib_config_pureend_doubles
          336   7487: __fpl_fretinf
          337   7501: __I$use$fp
          338   7512: g_pui8DspsImage
          339   7528: Region$$Table$$Base
          340   7548: Region$$Table$$Limit
          341   7569: g_bUARTIdle
          342   7581: g_sUartConfig
          343   7595: g_pfnCharPrint
          344   7610: g_ui32HALflags
          345   7625: am_bsp_psLEDs
          346   7639: am_bsp_psButtons
          347   7656: g_pui8TxArray
          348   7670: g_pui8RxArray
          349   7684: g_sTxBuffer
          350   7696: g_sRxBuffer
          351   7708: __libspace_start
          352   7725: __temporary_stack_top$libspace


** Section #13 '.note' (SHT_NOTE)
    Size   : 28 bytes (alignment 4)


** Section #14 '.comment' (SHT_PROGBITS)
    Size   : 18204 bytes


** Section #15 '.shstrtab' (SHT_STRTAB)
    Size   : 148 bytes

            #  Offset String
        ====================================

            1      1: FLASH
            2      7: SRAM
            3     12: .debug_abbrev
            4     26: .debug_frame
            5     39: .debug_info
            6     51: .debug_line
            7     63: .debug_loc
            8     74: .debug_macinfo
            9     89: .debug_pubnames
           10    105: .symtab
           11    113: .strtab
           12    121: .note
           13    127: .comment
           14    136: .shstrtab
           15    146: 
           16    147: 


