
bin/exactle_fit.axf:     file format elf32-littlearm


Disassembly of section .text:

00000000 <g_am_pfnVectors>:
       0:	00 02 00 10 a5 55 00 00 09 56 00 00 fd 53 00 00     .....U...V...S..
	...
      18:	11 56 00 00 00 00 00 00 00 00 00 00 00 00 00 00     .V..............
      28:	00 00 00 00 11 56 00 00 11 56 00 00 00 00 00 00     .....V...V......
      38:	11 56 00 00 11 56 00 00 11 56 00 00 11 56 00 00     .V...V...V...V..
      48:	11 56 00 00 11 56 00 00 11 56 00 00 11 56 00 00     .V...V...V...V..
      58:	11 56 00 00 11 56 00 00 11 56 00 00 01 53 00 00     .V...V...V...S..
      68:	e5 52 00 00 09 2d 00 00 11 56 00 00 11 56 00 00     .R...-...V...V..
      78:	11 56 00 00 11 56 00 00                             .V...V..

00000080 <appProcMsg>:
 *
 *  \return None.
 */
/*************************************************************************************************/
static void appProcMsg(wsfMsgHdr_t *pMsg)
{
      80:	b580      	push	{r7, lr}
      82:	b082      	sub	sp, #8
      84:	af00      	add	r7, sp, #0
      86:	6078      	str	r0, [r7, #4]
  switch(pMsg->event)
      88:	687b      	ldr	r3, [r7, #4]
      8a:	789b      	ldrb	r3, [r3, #2]
      8c:	2b00      	cmp	r3, #0
      8e:	d002      	beq.n	96 <appProcMsg+0x16>
      90:	2b01      	cmp	r3, #1
      92:	d003      	beq.n	9c <appProcMsg+0x1c>
    case APP_UI_TIMER_IND:
      appUiTimerExpired(pMsg);
      break;
            
    default:
      break;
      94:	e006      	b.n	a4 <appProcMsg+0x24>
static void appProcMsg(wsfMsgHdr_t *pMsg)
{
  switch(pMsg->event)
  {
    case APP_BTN_POLL_IND:
      appUiBtnPoll();
      96:	f001 f873 	bl	1180 <appUiBtnPoll>
      break;
      9a:	e003      	b.n	a4 <appProcMsg+0x24>

    case APP_UI_TIMER_IND:
      appUiTimerExpired(pMsg);
      9c:	6878      	ldr	r0, [r7, #4]
      9e:	f001 f865 	bl	116c <appUiTimerExpired>
      break;
      a2:	bf00      	nop
            
    default:
      break;
  }
}
      a4:	3708      	adds	r7, #8
      a6:	46bd      	mov	sp, r7
      a8:	bd80      	pop	{r7, pc}
      aa:	bf00      	nop

000000ac <appCheckBonded>:
 *
 *  \return Bonded state.
 */
/*************************************************************************************************/
bool_t appCheckBonded(dmConnId_t connId)
{
      ac:	b480      	push	{r7}
      ae:	b083      	sub	sp, #12
      b0:	af00      	add	r7, sp, #0
      b2:	4603      	mov	r3, r0
      b4:	71fb      	strb	r3, [r7, #7]
  WSF_ASSERT((connId > 0) && (connId <= DM_CONN_MAX));
  
  return appConnCb[connId - 1].bonded;
      b6:	79fb      	ldrb	r3, [r7, #7]
      b8:	3b01      	subs	r3, #1
      ba:	4a05      	ldr	r2, [pc, #20]	; (d0 <appCheckBonded+0x24>)
      bc:	011b      	lsls	r3, r3, #4
      be:	4413      	add	r3, r2
      c0:	795b      	ldrb	r3, [r3, #5]
}
      c2:	4618      	mov	r0, r3
      c4:	370c      	adds	r7, #12
      c6:	46bd      	mov	sp, r7
      c8:	f85d 7b04 	ldr.w	r7, [sp], #4
      cc:	4770      	bx	lr
      ce:	bf00      	nop
      d0:	10000d18 	.word	0x10000d18

000000d4 <appCheckBondByLtk>:
 *
 *  \return Bond-by-LTK state.
 */
/*************************************************************************************************/
bool_t appCheckBondByLtk(dmConnId_t connId)
{
      d4:	b480      	push	{r7}
      d6:	b083      	sub	sp, #12
      d8:	af00      	add	r7, sp, #0
      da:	4603      	mov	r3, r0
      dc:	71fb      	strb	r3, [r7, #7]
  WSF_ASSERT((connId > 0) && (connId <= DM_CONN_MAX));
  
  return appConnCb[connId - 1].bondByLtk;
      de:	79fb      	ldrb	r3, [r7, #7]
      e0:	3b01      	subs	r3, #1
      e2:	4a05      	ldr	r2, [pc, #20]	; (f8 <appCheckBondByLtk+0x24>)
      e4:	011b      	lsls	r3, r3, #4
      e6:	4413      	add	r3, r2
      e8:	799b      	ldrb	r3, [r3, #6]
}
      ea:	4618      	mov	r0, r3
      ec:	370c      	adds	r7, #12
      ee:	46bd      	mov	sp, r7
      f0:	f85d 7b04 	ldr.w	r7, [sp], #4
      f4:	4770      	bx	lr
      f6:	bf00      	nop
      f8:	10000d18 	.word	0x10000d18

000000fc <appNumConns>:
 *
 *  \return Number of connections.
 */
/*************************************************************************************************/
uint8_t appNumConns(void)
{
      fc:	b480      	push	{r7}
      fe:	b083      	sub	sp, #12
     100:	af00      	add	r7, sp, #0
  appConnCb_t   *pCcb = appConnCb;
     102:	4b0f      	ldr	r3, [pc, #60]	; (140 <appNumConns+0x44>)
     104:	607b      	str	r3, [r7, #4]
  uint8_t       i, j;
  
  for (i = DM_CONN_MAX, j = 0; i > 0; i--, pCcb++)
     106:	2303      	movs	r3, #3
     108:	70fb      	strb	r3, [r7, #3]
     10a:	2300      	movs	r3, #0
     10c:	70bb      	strb	r3, [r7, #2]
     10e:	e00c      	b.n	12a <appNumConns+0x2e>
  {
    if (pCcb->connId != DM_CONN_ID_NONE)
     110:	687b      	ldr	r3, [r7, #4]
     112:	791b      	ldrb	r3, [r3, #4]
     114:	2b00      	cmp	r3, #0
     116:	d002      	beq.n	11e <appNumConns+0x22>
    {      
      j++;
     118:	78bb      	ldrb	r3, [r7, #2]
     11a:	3301      	adds	r3, #1
     11c:	70bb      	strb	r3, [r7, #2]
uint8_t appNumConns(void)
{
  appConnCb_t   *pCcb = appConnCb;
  uint8_t       i, j;
  
  for (i = DM_CONN_MAX, j = 0; i > 0; i--, pCcb++)
     11e:	78fb      	ldrb	r3, [r7, #3]
     120:	3b01      	subs	r3, #1
     122:	70fb      	strb	r3, [r7, #3]
     124:	687b      	ldr	r3, [r7, #4]
     126:	3310      	adds	r3, #16
     128:	607b      	str	r3, [r7, #4]
     12a:	78fb      	ldrb	r3, [r7, #3]
     12c:	2b00      	cmp	r3, #0
     12e:	d1ef      	bne.n	110 <appNumConns+0x14>
    if (pCcb->connId != DM_CONN_ID_NONE)
    {      
      j++;
    }
  }
  return j;
     130:	78bb      	ldrb	r3, [r7, #2]
}
     132:	4618      	mov	r0, r3
     134:	370c      	adds	r7, #12
     136:	46bd      	mov	sp, r7
     138:	f85d 7b04 	ldr.w	r7, [sp], #4
     13c:	4770      	bx	lr
     13e:	bf00      	nop
     140:	10000d18 	.word	0x10000d18

00000144 <AppHandlerInit>:
 *
 *  \return None.
 */
/*************************************************************************************************/
void AppHandlerInit(wsfHandlerId_t handlerId)
{
     144:	b580      	push	{r7, lr}
     146:	b082      	sub	sp, #8
     148:	af00      	add	r7, sp, #0
     14a:	4603      	mov	r3, r0
     14c:	71fb      	strb	r3, [r7, #7]
  appHandlerId = handlerId;
     14e:	4b04      	ldr	r3, [pc, #16]	; (160 <AppHandlerInit+0x1c>)
     150:	79fa      	ldrb	r2, [r7, #7]
     152:	701a      	strb	r2, [r3, #0]
  
  AppDbInit();
     154:	f000 fdb4 	bl	cc0 <AppDbInit>
}
     158:	3708      	adds	r7, #8
     15a:	46bd      	mov	sp, r7
     15c:	bd80      	pop	{r7, pc}
     15e:	bf00      	nop
     160:	10000d0c 	.word	0x10000d0c

00000164 <AppHandler>:
 *
 *  \return None.
 */
/*************************************************************************************************/
void AppHandler(wsfEventMask_t event, wsfMsgHdr_t *pMsg)
{
     164:	b580      	push	{r7, lr}
     166:	b082      	sub	sp, #8
     168:	af00      	add	r7, sp, #0
     16a:	4603      	mov	r3, r0
     16c:	6039      	str	r1, [r7, #0]
     16e:	71fb      	strb	r3, [r7, #7]
  if (pMsg != NULL)
     170:	683b      	ldr	r3, [r7, #0]
     172:	2b00      	cmp	r3, #0
     174:	d015      	beq.n	1a2 <AppHandler+0x3e>
  {
    APP_TRACE_INFO1("App got evt %d", pMsg->event);
    
    if (pMsg->event >= APP_MASTER_MSG_START)
     176:	683b      	ldr	r3, [r7, #0]
     178:	789b      	ldrb	r3, [r3, #2]
     17a:	2b1f      	cmp	r3, #31
     17c:	d904      	bls.n	188 <AppHandler+0x24>
    {
      /* pass event to master handler */
      (*appCb.masterCback)(pMsg);    
     17e:	4b0e      	ldr	r3, [pc, #56]	; (1b8 <AppHandler+0x54>)
     180:	685b      	ldr	r3, [r3, #4]
     182:	6838      	ldr	r0, [r7, #0]
     184:	4798      	blx	r3
     186:	e013      	b.n	1b0 <AppHandler+0x4c>
    }
    else if (pMsg->event >= APP_SLAVE_MSG_START)
     188:	683b      	ldr	r3, [r7, #0]
     18a:	789b      	ldrb	r3, [r3, #2]
     18c:	2b0f      	cmp	r3, #15
     18e:	d904      	bls.n	19a <AppHandler+0x36>
    {
      /* pass event to slave handler */
      (*appCb.slaveCback)(pMsg);    
     190:	4b09      	ldr	r3, [pc, #36]	; (1b8 <AppHandler+0x54>)
     192:	681b      	ldr	r3, [r3, #0]
     194:	6838      	ldr	r0, [r7, #0]
     196:	4798      	blx	r3
     198:	e00a      	b.n	1b0 <AppHandler+0x4c>
    }
    else
    {
      appProcMsg(pMsg);
     19a:	6838      	ldr	r0, [r7, #0]
     19c:	f7ff ff70 	bl	80 <appProcMsg>
     1a0:	e006      	b.n	1b0 <AppHandler+0x4c>
    }
  }
  else
  {
    if (event & APP_BTN_DOWN_EVT)
     1a2:	79fb      	ldrb	r3, [r7, #7]
     1a4:	f003 0310 	and.w	r3, r3, #16
     1a8:	2b00      	cmp	r3, #0
     1aa:	d001      	beq.n	1b0 <AppHandler+0x4c>
    {
      AppUiBtnPressed();
     1ac:	f000 fffc 	bl	11a8 <AppUiBtnPressed>
    }
  }
}
     1b0:	3708      	adds	r7, #8
     1b2:	46bd      	mov	sp, r7
     1b4:	bd80      	pop	{r7, pc}
     1b6:	bf00      	nop
     1b8:	10000d00 	.word	0x10000d00

000001bc <AppHandlePasskey>:
 *
 *  \return None.
 */
/*************************************************************************************************/
void AppHandlePasskey(dmSecAuthReqIndEvt_t *pAuthReq)
{
     1bc:	b580      	push	{r7, lr}
     1be:	b084      	sub	sp, #16
     1c0:	af00      	add	r7, sp, #0
     1c2:	6078      	str	r0, [r7, #4]
  uint32_t passkey;
  uint8_t  buf[SMP_PIN_LEN];
  
  if (pAuthReq->display)
     1c4:	687b      	ldr	r3, [r7, #4]
     1c6:	795b      	ldrb	r3, [r3, #5]
     1c8:	2b00      	cmp	r3, #0
     1ca:	d029      	beq.n	220 <AppHandlePasskey+0x64>
  {
    /* generate random passkey, limit to 6 digit max */
    WsfSecRand((uint8_t *) &passkey, sizeof(uint32_t));
     1cc:	f107 030c 	add.w	r3, r7, #12
     1d0:	4618      	mov	r0, r3
     1d2:	2104      	movs	r1, #4
     1d4:	f004 fe0c 	bl	4df0 <WsfSecRand>
    passkey %= 1000000;
     1d8:	68fa      	ldr	r2, [r7, #12]
     1da:	4b14      	ldr	r3, [pc, #80]	; (22c <AppHandlePasskey+0x70>)
     1dc:	fba3 1302 	umull	r1, r3, r3, r2
     1e0:	0c9b      	lsrs	r3, r3, #18
     1e2:	4913      	ldr	r1, [pc, #76]	; (230 <AppHandlePasskey+0x74>)
     1e4:	fb01 f303 	mul.w	r3, r1, r3
     1e8:	1ad3      	subs	r3, r2, r3
     1ea:	60fb      	str	r3, [r7, #12]
    
    /* convert to byte buffer */
    buf[0] = UINT32_TO_BYTE0(passkey);
     1ec:	68fb      	ldr	r3, [r7, #12]
     1ee:	b2db      	uxtb	r3, r3
     1f0:	723b      	strb	r3, [r7, #8]
    buf[1] = UINT32_TO_BYTE1(passkey);
     1f2:	68fb      	ldr	r3, [r7, #12]
     1f4:	0a1b      	lsrs	r3, r3, #8
     1f6:	b2db      	uxtb	r3, r3
     1f8:	727b      	strb	r3, [r7, #9]
    buf[2] = UINT32_TO_BYTE2(passkey);
     1fa:	68fb      	ldr	r3, [r7, #12]
     1fc:	0c1b      	lsrs	r3, r3, #16
     1fe:	b2db      	uxtb	r3, r3
     200:	72bb      	strb	r3, [r7, #10]
    
    /* send authentication response to DM */
    DmSecAuthRsp((dmConnId_t) pAuthReq->hdr.param, SMP_PIN_LEN, buf);
     202:	687b      	ldr	r3, [r7, #4]
     204:	881b      	ldrh	r3, [r3, #0]
     206:	b2da      	uxtb	r2, r3
     208:	f107 0308 	add.w	r3, r7, #8
     20c:	4610      	mov	r0, r2
     20e:	2103      	movs	r1, #3
     210:	461a      	mov	r2, r3
     212:	f008 fc6b 	bl	8aec <DmSecAuthRsp>
    
    /* display passkey */
    AppUiDisplayPasskey(passkey);
     216:	68fb      	ldr	r3, [r7, #12]
     218:	4618      	mov	r0, r3
     21a:	f000 ff9d 	bl	1158 <AppUiDisplayPasskey>
     21e:	e002      	b.n	226 <AppHandlePasskey+0x6a>
  }
  else
  {
    /* prompt user to enter passkey */
    AppUiAction(APP_UI_PASSKEY_PROMPT);
     220:	200e      	movs	r0, #14
     222:	f000 ff63 	bl	10ec <AppUiAction>
  } 
}
     226:	3710      	adds	r7, #16
     228:	46bd      	mov	sp, r7
     22a:	bd80      	pop	{r7, pc}
     22c:	431bde83 	.word	0x431bde83
     230:	000f4240 	.word	0x000f4240

00000234 <AppConnClose>:
 *
 *  \return None.
 */
/*************************************************************************************************/
void AppConnClose(dmConnId_t connId)
{
     234:	b580      	push	{r7, lr}
     236:	b082      	sub	sp, #8
     238:	af00      	add	r7, sp, #0
     23a:	4603      	mov	r3, r0
     23c:	71fb      	strb	r3, [r7, #7]
  DmConnClose(DM_CLIENT_ID_APP, connId, HCI_ERR_REMOTE_TERMINATED);
     23e:	79fb      	ldrb	r3, [r7, #7]
     240:	2003      	movs	r0, #3
     242:	4619      	mov	r1, r3
     244:	2213      	movs	r2, #19
     246:	f008 f887 	bl	8358 <DmConnClose>
}
     24a:	3708      	adds	r7, #8
     24c:	46bd      	mov	sp, r7
     24e:	bd80      	pop	{r7, pc}

00000250 <AppConnIsOpen>:
 *
 *  \return Connection ID of open connection or DM_CONN_ID_NONE if no open connections.
 */
/*************************************************************************************************/
dmConnId_t AppConnIsOpen(void)
{
     250:	b480      	push	{r7}
     252:	b083      	sub	sp, #12
     254:	af00      	add	r7, sp, #0
  appConnCb_t   *pCcb = appConnCb;
     256:	4b0e      	ldr	r3, [pc, #56]	; (290 <AppConnIsOpen+0x40>)
     258:	607b      	str	r3, [r7, #4]
  uint8_t       i;
  
  for (i = DM_CONN_MAX; i > 0; i--, pCcb++)
     25a:	2303      	movs	r3, #3
     25c:	70fb      	strb	r3, [r7, #3]
     25e:	e00c      	b.n	27a <AppConnIsOpen+0x2a>
  {
    if (pCcb->connId != DM_CONN_ID_NONE)
     260:	687b      	ldr	r3, [r7, #4]
     262:	791b      	ldrb	r3, [r3, #4]
     264:	2b00      	cmp	r3, #0
     266:	d002      	beq.n	26e <AppConnIsOpen+0x1e>
    {      
      return pCcb->connId;
     268:	687b      	ldr	r3, [r7, #4]
     26a:	791b      	ldrb	r3, [r3, #4]
     26c:	e009      	b.n	282 <AppConnIsOpen+0x32>
dmConnId_t AppConnIsOpen(void)
{
  appConnCb_t   *pCcb = appConnCb;
  uint8_t       i;
  
  for (i = DM_CONN_MAX; i > 0; i--, pCcb++)
     26e:	78fb      	ldrb	r3, [r7, #3]
     270:	3b01      	subs	r3, #1
     272:	70fb      	strb	r3, [r7, #3]
     274:	687b      	ldr	r3, [r7, #4]
     276:	3310      	adds	r3, #16
     278:	607b      	str	r3, [r7, #4]
     27a:	78fb      	ldrb	r3, [r7, #3]
     27c:	2b00      	cmp	r3, #0
     27e:	d1ef      	bne.n	260 <AppConnIsOpen+0x10>
    {      
      return pCcb->connId;
    }
  }
  
  return DM_CONN_ID_NONE;
     280:	2300      	movs	r3, #0
}
     282:	4618      	mov	r0, r3
     284:	370c      	adds	r7, #12
     286:	46bd      	mov	sp, r7
     288:	f85d 7b04 	ldr.w	r7, [sp], #4
     28c:	4770      	bx	lr
     28e:	bf00      	nop
     290:	10000d18 	.word	0x10000d18

00000294 <AppDbGetHdl>:
 *
 *  \return Database record handle or APP_DB_HDL_NONE.
 */
/*************************************************************************************************/
appDbHdl_t AppDbGetHdl(dmConnId_t connId)
{
     294:	b480      	push	{r7}
     296:	b083      	sub	sp, #12
     298:	af00      	add	r7, sp, #0
     29a:	4603      	mov	r3, r0
     29c:	71fb      	strb	r3, [r7, #7]
  return appConnCb[connId-1].dbHdl;
     29e:	79fb      	ldrb	r3, [r7, #7]
     2a0:	3b01      	subs	r3, #1
     2a2:	4a05      	ldr	r2, [pc, #20]	; (2b8 <AppDbGetHdl+0x24>)
     2a4:	011b      	lsls	r3, r3, #4
     2a6:	4413      	add	r3, r2
     2a8:	681b      	ldr	r3, [r3, #0]
}
     2aa:	4618      	mov	r0, r3
     2ac:	370c      	adds	r7, #12
     2ae:	46bd      	mov	sp, r7
     2b0:	f85d 7b04 	ldr.w	r7, [sp], #4
     2b4:	4770      	bx	lr
     2b6:	bf00      	nop
     2b8:	10000d18 	.word	0x10000d18

000002bc <AppServerConnCback>:
 *
 *  \return None.
 */
/*************************************************************************************************/
void AppServerConnCback(dmEvt_t *pDmEvt)
{
     2bc:	b580      	push	{r7, lr}
     2be:	b084      	sub	sp, #16
     2c0:	af00      	add	r7, sp, #0
     2c2:	6078      	str	r0, [r7, #4]
  bool_t      bonded;
  appDbHdl_t  dbHdl;
  dmConnId_t  connId = (dmConnId_t) pDmEvt->hdr.param;
     2c4:	687b      	ldr	r3, [r7, #4]
     2c6:	881b      	ldrh	r3, [r3, #0]
     2c8:	73fb      	strb	r3, [r7, #15]
  
  if (pDmEvt->hdr.event == DM_CONN_OPEN_IND)
     2ca:	687b      	ldr	r3, [r7, #4]
     2cc:	789b      	ldrb	r3, [r3, #2]
     2ce:	2b27      	cmp	r3, #39	; 0x27
     2d0:	d105      	bne.n	2de <AppServerConnCback+0x22>
  {
    /* set up CCC table with uninitialized (all zero) values */
    AttsCccInitTable(connId, NULL);
     2d2:	7bfb      	ldrb	r3, [r7, #15]
     2d4:	4618      	mov	r0, r3
     2d6:	2100      	movs	r1, #0
     2d8:	f006 fb00 	bl	68dc <AttsCccInitTable>
     2dc:	e052      	b.n	384 <AppServerConnCback+0xc8>
  }
  else if (pDmEvt->hdr.event == DM_SEC_PAIR_CMPL_IND)
     2de:	687b      	ldr	r3, [r7, #4]
     2e0:	789b      	ldrb	r3, [r3, #2]
     2e2:	2b2a      	cmp	r3, #42	; 0x2a
     2e4:	d125      	bne.n	332 <AppServerConnCback+0x76>
  {
    bonded = ((pDmEvt->pairCmpl.auth & DM_AUTH_BOND_FLAG) == DM_AUTH_BOND_FLAG);
     2e6:	687b      	ldr	r3, [r7, #4]
     2e8:	791b      	ldrb	r3, [r3, #4]
     2ea:	f003 0301 	and.w	r3, r3, #1
     2ee:	2b00      	cmp	r3, #0
     2f0:	bf0c      	ite	eq
     2f2:	2300      	moveq	r3, #0
     2f4:	2301      	movne	r3, #1
     2f6:	b2db      	uxtb	r3, r3
     2f8:	73bb      	strb	r3, [r7, #14]
    
    /* if going from unbonded to bonded update CCC table */
    if (bonded && (appCheckBonded(connId) == FALSE))
     2fa:	7bbb      	ldrb	r3, [r7, #14]
     2fc:	2b00      	cmp	r3, #0
     2fe:	d041      	beq.n	384 <AppServerConnCback+0xc8>
     300:	7bfb      	ldrb	r3, [r7, #15]
     302:	4618      	mov	r0, r3
     304:	f7ff fed2 	bl	ac <appCheckBonded>
     308:	4603      	mov	r3, r0
     30a:	2b00      	cmp	r3, #0
     30c:	d13a      	bne.n	384 <AppServerConnCback+0xc8>
    {
      if ((dbHdl = AppDbGetHdl(connId)) != APP_DB_HDL_NONE)
     30e:	7bfb      	ldrb	r3, [r7, #15]
     310:	4618      	mov	r0, r3
     312:	f7ff ffbf 	bl	294 <AppDbGetHdl>
     316:	60b8      	str	r0, [r7, #8]
     318:	68bb      	ldr	r3, [r7, #8]
     31a:	2b00      	cmp	r3, #0
     31c:	d032      	beq.n	384 <AppServerConnCback+0xc8>
      {
        AttsCccInitTable(connId, AppDbGetCccTbl(dbHdl));
     31e:	68b8      	ldr	r0, [r7, #8]
     320:	f000 fe7a 	bl	1018 <AppDbGetCccTbl>
     324:	4603      	mov	r3, r0
     326:	7bfa      	ldrb	r2, [r7, #15]
     328:	4610      	mov	r0, r2
     32a:	4619      	mov	r1, r3
     32c:	f006 fad6 	bl	68dc <AttsCccInitTable>
     330:	e028      	b.n	384 <AppServerConnCback+0xc8>
      }
    }      
  }
  else if (pDmEvt->hdr.event == DM_SEC_ENCRYPT_IND)
     332:	687b      	ldr	r3, [r7, #4]
     334:	789b      	ldrb	r3, [r3, #2]
     336:	2b2c      	cmp	r3, #44	; 0x2c
     338:	d11c      	bne.n	374 <AppServerConnCback+0xb8>
  {
    /* if going from unbonded to bonded update CCC table */
    if (pDmEvt->encryptInd.usingLtk && appCheckBondByLtk(connId))
     33a:	687b      	ldr	r3, [r7, #4]
     33c:	791b      	ldrb	r3, [r3, #4]
     33e:	2b00      	cmp	r3, #0
     340:	d020      	beq.n	384 <AppServerConnCback+0xc8>
     342:	7bfb      	ldrb	r3, [r7, #15]
     344:	4618      	mov	r0, r3
     346:	f7ff fec5 	bl	d4 <appCheckBondByLtk>
     34a:	4603      	mov	r3, r0
     34c:	2b00      	cmp	r3, #0
     34e:	d019      	beq.n	384 <AppServerConnCback+0xc8>
    {
      if ((dbHdl = AppDbGetHdl(connId)) != APP_DB_HDL_NONE)
     350:	7bfb      	ldrb	r3, [r7, #15]
     352:	4618      	mov	r0, r3
     354:	f7ff ff9e 	bl	294 <AppDbGetHdl>
     358:	60b8      	str	r0, [r7, #8]
     35a:	68bb      	ldr	r3, [r7, #8]
     35c:	2b00      	cmp	r3, #0
     35e:	d011      	beq.n	384 <AppServerConnCback+0xc8>
      {
        AttsCccInitTable(connId, AppDbGetCccTbl(dbHdl));
     360:	68b8      	ldr	r0, [r7, #8]
     362:	f000 fe59 	bl	1018 <AppDbGetCccTbl>
     366:	4603      	mov	r3, r0
     368:	7bfa      	ldrb	r2, [r7, #15]
     36a:	4610      	mov	r0, r2
     36c:	4619      	mov	r1, r3
     36e:	f006 fab5 	bl	68dc <AttsCccInitTable>
     372:	e007      	b.n	384 <AppServerConnCback+0xc8>
      }
    }    
  }
  else if (pDmEvt->hdr.event == DM_CONN_CLOSE_IND)
     374:	687b      	ldr	r3, [r7, #4]
     376:	789b      	ldrb	r3, [r3, #2]
     378:	2b28      	cmp	r3, #40	; 0x28
     37a:	d103      	bne.n	384 <AppServerConnCback+0xc8>
  {
    /* clear CCC table on connection close */
    AttsCccClearTable(connId);
     37c:	7bfb      	ldrb	r3, [r7, #15]
     37e:	4618      	mov	r0, r3
     380:	f006 faec 	bl	695c <AttsCccClearTable>
  }
}
     384:	3710      	adds	r7, #16
     386:	46bd      	mov	sp, r7
     388:	bd80      	pop	{r7, pc}
     38a:	bf00      	nop

0000038c <appSetAdvScanData>:
 *
 *  \return None.
 */
/*************************************************************************************************/
static void appSetAdvScanData(uint8_t mode)
{
     38c:	b580      	push	{r7, lr}
     38e:	b084      	sub	sp, #16
     390:	af00      	add	r7, sp, #0
     392:	4603      	mov	r3, r0
     394:	71fb      	strb	r3, [r7, #7]
  uint8_t     advLoc;
  uint8_t     scanLoc;

  /* get advertising/scan data location based on mode */
  advLoc = APP_MODE_2_ADV_LOC(mode);
     396:	79fb      	ldrb	r3, [r7, #7]
     398:	005b      	lsls	r3, r3, #1
     39a:	73fb      	strb	r3, [r7, #15]
  scanLoc = APP_MODE_2_SCAN_LOC(mode);
     39c:	79fb      	ldrb	r3, [r7, #7]
     39e:	005b      	lsls	r3, r3, #1
     3a0:	b2db      	uxtb	r3, r3
     3a2:	3301      	adds	r3, #1
     3a4:	73bb      	strb	r3, [r7, #14]

  DmAdvSetData(DM_DATA_LOC_ADV, appSlaveCb.advDataLen[advLoc], appSlaveCb.pAdvData[advLoc]);
     3a6:	7bfb      	ldrb	r3, [r7, #15]
     3a8:	4a0f      	ldr	r2, [pc, #60]	; (3e8 <appSetAdvScanData+0x5c>)
     3aa:	4413      	add	r3, r2
     3ac:	f893 2020 	ldrb.w	r2, [r3, #32]
     3b0:	7bf9      	ldrb	r1, [r7, #15]
     3b2:	4b0d      	ldr	r3, [pc, #52]	; (3e8 <appSetAdvScanData+0x5c>)
     3b4:	3104      	adds	r1, #4
     3b6:	f853 3021 	ldr.w	r3, [r3, r1, lsl #2]
     3ba:	2000      	movs	r0, #0
     3bc:	4611      	mov	r1, r2
     3be:	461a      	mov	r2, r3
     3c0:	f007 fd7a 	bl	7eb8 <DmAdvSetData>
  DmAdvSetData(DM_DATA_LOC_SCAN, appSlaveCb.advDataLen[scanLoc], appSlaveCb.pAdvData[scanLoc]);
     3c4:	7bbb      	ldrb	r3, [r7, #14]
     3c6:	4a08      	ldr	r2, [pc, #32]	; (3e8 <appSetAdvScanData+0x5c>)
     3c8:	4413      	add	r3, r2
     3ca:	f893 2020 	ldrb.w	r2, [r3, #32]
     3ce:	7bb9      	ldrb	r1, [r7, #14]
     3d0:	4b05      	ldr	r3, [pc, #20]	; (3e8 <appSetAdvScanData+0x5c>)
     3d2:	3104      	adds	r1, #4
     3d4:	f853 3021 	ldr.w	r3, [r3, r1, lsl #2]
     3d8:	2001      	movs	r0, #1
     3da:	4611      	mov	r1, r2
     3dc:	461a      	mov	r2, r3
     3de:	f007 fd6b 	bl	7eb8 <DmAdvSetData>
}
     3e2:	3710      	adds	r7, #16
     3e4:	46bd      	mov	sp, r7
     3e6:	bd80      	pop	{r7, pc}
     3e8:	10000320 	.word	0x10000320

000003ec <appSlaveAdvStart>:
 *
 *  \return None.
 */
/*************************************************************************************************/
static void appSlaveAdvStart(void)
{
     3ec:	b580      	push	{r7, lr}
     3ee:	b082      	sub	sp, #8
     3f0:	af00      	add	r7, sp, #0
  uint16_t interval;

  if (!appSlaveCb.advDataSynced)
     3f2:	4b27      	ldr	r3, [pc, #156]	; (490 <appSlaveAdvStart+0xa4>)
     3f4:	f893 3025 	ldrb.w	r3, [r3, #37]	; 0x25
     3f8:	2b00      	cmp	r3, #0
     3fa:	d109      	bne.n	410 <appSlaveAdvStart+0x24>
  {
    appSlaveCb.advDataSynced = TRUE;
     3fc:	4b24      	ldr	r3, [pc, #144]	; (490 <appSlaveAdvStart+0xa4>)
     3fe:	2201      	movs	r2, #1
     400:	f883 2025 	strb.w	r2, [r3, #37]	; 0x25
    appSetAdvScanData(appSlaveCb.discMode);
     404:	4b22      	ldr	r3, [pc, #136]	; (490 <appSlaveAdvStart+0xa4>)
     406:	f893 3029 	ldrb.w	r3, [r3, #41]	; 0x29
     40a:	4618      	mov	r0, r3
     40c:	f7ff ffbe 	bl	38c <appSetAdvScanData>
  }

  /* start advertising if not connectable advertising or multiple connections supported */
  if ((appSlaveCb.advType != DM_ADV_CONN_UNDIRECT) || (appNumConns() < pAppSlaveCfg->connMax))
     410:	4b1f      	ldr	r3, [pc, #124]	; (490 <appSlaveAdvStart+0xa4>)
     412:	f893 3027 	ldrb.w	r3, [r3, #39]	; 0x27
     416:	2b00      	cmp	r3, #0
     418:	d108      	bne.n	42c <appSlaveAdvStart+0x40>
     41a:	f7ff fe6f 	bl	fc <appNumConns>
     41e:	4603      	mov	r3, r0
     420:	461a      	mov	r2, r3
     422:	4b1c      	ldr	r3, [pc, #112]	; (494 <appSlaveAdvStart+0xa8>)
     424:	681b      	ldr	r3, [r3, #0]
     426:	781b      	ldrb	r3, [r3, #0]
     428:	429a      	cmp	r2, r3
     42a:	d22a      	bcs.n	482 <appSlaveAdvStart+0x96>
  {
    interval = pAppAdvCfg->advInterval[appSlaveCb.advState];
     42c:	4b1a      	ldr	r3, [pc, #104]	; (498 <appSlaveAdvStart+0xac>)
     42e:	681a      	ldr	r2, [r3, #0]
     430:	4b17      	ldr	r3, [pc, #92]	; (490 <appSlaveAdvStart+0xa4>)
     432:	f893 3026 	ldrb.w	r3, [r3, #38]	; 0x26
     436:	005b      	lsls	r3, r3, #1
     438:	4413      	add	r3, r2
     43a:	88db      	ldrh	r3, [r3, #6]
     43c:	80fb      	strh	r3, [r7, #6]
    
    /* if this advertising state is being used */
    if (interval > 0)
     43e:	88fb      	ldrh	r3, [r7, #6]
     440:	2b00      	cmp	r3, #0
     442:	d01e      	beq.n	482 <appSlaveAdvStart+0x96>
    {
      /* if minimum non-connectable advertising interval is set to less than what's allowed (100ms) */
      if ((appSlaveCb.advType != DM_ADV_CONN_UNDIRECT) && (interval < HCI_ADV_NONCONN_MIN_INTERVAL))
     444:	4b12      	ldr	r3, [pc, #72]	; (490 <appSlaveAdvStart+0xa4>)
     446:	f893 3027 	ldrb.w	r3, [r3, #39]	; 0x27
     44a:	2b00      	cmp	r3, #0
     44c:	d004      	beq.n	458 <appSlaveAdvStart+0x6c>
     44e:	88fb      	ldrh	r3, [r7, #6]
     450:	2b9f      	cmp	r3, #159	; 0x9f
     452:	d801      	bhi.n	458 <appSlaveAdvStart+0x6c>
      {
        /* set minimum non-connectable advertising interval to 100ms */
        interval = HCI_ADV_NONCONN_MIN_INTERVAL;
     454:	23a0      	movs	r3, #160	; 0xa0
     456:	80fb      	strh	r3, [r7, #6]
      }

      /* set interval and start advertising */  
      DmAdvSetInterval(interval, interval);
     458:	88fa      	ldrh	r2, [r7, #6]
     45a:	88fb      	ldrh	r3, [r7, #6]
     45c:	4610      	mov	r0, r2
     45e:	4619      	mov	r1, r3
     460:	f007 fd10 	bl	7e84 <DmAdvSetInterval>
      DmAdvStart(appSlaveCb.advType, pAppAdvCfg->advDuration[appSlaveCb.advState]);
     464:	4b0a      	ldr	r3, [pc, #40]	; (490 <appSlaveAdvStart+0xa4>)
     466:	f893 2027 	ldrb.w	r2, [r3, #39]	; 0x27
     46a:	4b0b      	ldr	r3, [pc, #44]	; (498 <appSlaveAdvStart+0xac>)
     46c:	681b      	ldr	r3, [r3, #0]
     46e:	4908      	ldr	r1, [pc, #32]	; (490 <appSlaveAdvStart+0xa4>)
     470:	f891 1026 	ldrb.w	r1, [r1, #38]	; 0x26
     474:	f833 3011 	ldrh.w	r3, [r3, r1, lsl #1]
     478:	4610      	mov	r0, r2
     47a:	4619      	mov	r1, r3
     47c:	f007 fcda 	bl	7e34 <DmAdvStart>
      return;
     480:	e003      	b.n	48a <appSlaveAdvStart+0x9e>
    }
  }

  /* done with all advertising states */
  appSlaveCb.advState = APP_ADV_STOPPED;
     482:	4b03      	ldr	r3, [pc, #12]	; (490 <appSlaveAdvStart+0xa4>)
     484:	2203      	movs	r2, #3
     486:	f883 2026 	strb.w	r2, [r3, #38]	; 0x26
}
     48a:	3708      	adds	r7, #8
     48c:	46bd      	mov	sp, r7
     48e:	bd80      	pop	{r7, pc}
     490:	10000320 	.word	0x10000320
     494:	10000cfc 	.word	0x10000cfc
     498:	10000d14 	.word	0x10000d14

0000049c <appSlaveAdvTypeChanged>:
 *
 *  \return None.
 */
/*************************************************************************************************/
static void appSlaveAdvTypeChanged(dmEvt_t *pMsg)
{
     49c:	b580      	push	{r7, lr}
     49e:	b082      	sub	sp, #8
     4a0:	af00      	add	r7, sp, #0
     4a2:	6078      	str	r0, [r7, #4]
  /* clear advertising type changed flag */
  appSlaveCb.advTypeChanged = FALSE;
     4a4:	4b06      	ldr	r3, [pc, #24]	; (4c0 <appSlaveAdvTypeChanged+0x24>)
     4a6:	2200      	movs	r2, #0
     4a8:	f883 2028 	strb.w	r2, [r3, #40]	; 0x28

  /* set advertising state */
  appSlaveCb.advState = APP_ADV_STATE1;
     4ac:	4b04      	ldr	r3, [pc, #16]	; (4c0 <appSlaveAdvTypeChanged+0x24>)
     4ae:	2200      	movs	r2, #0
     4b0:	f883 2026 	strb.w	r2, [r3, #38]	; 0x26

  /* start advertising */
  appSlaveAdvStart();
     4b4:	f7ff ff9a 	bl	3ec <appSlaveAdvStart>
}
     4b8:	3708      	adds	r7, #8
     4ba:	46bd      	mov	sp, r7
     4bc:	bd80      	pop	{r7, pc}
     4be:	bf00      	nop
     4c0:	10000320 	.word	0x10000320

000004c4 <appSlaveNextAdvState>:
 *
 *  \return None.
 */
/*************************************************************************************************/
static void appSlaveNextAdvState(dmEvt_t *pMsg)
{
     4c4:	b580      	push	{r7, lr}
     4c6:	b082      	sub	sp, #8
     4c8:	af00      	add	r7, sp, #0
     4ca:	6078      	str	r0, [r7, #4]
  /* go to next advertising state */
  appSlaveCb.advState++;
     4cc:	4b08      	ldr	r3, [pc, #32]	; (4f0 <appSlaveNextAdvState+0x2c>)
     4ce:	f893 3026 	ldrb.w	r3, [r3, #38]	; 0x26
     4d2:	3301      	adds	r3, #1
     4d4:	b2da      	uxtb	r2, r3
     4d6:	4b06      	ldr	r3, [pc, #24]	; (4f0 <appSlaveNextAdvState+0x2c>)
     4d8:	f883 2026 	strb.w	r2, [r3, #38]	; 0x26
  
  /* if haven't reached stopped state then start advertising */
  if (appSlaveCb.advState < APP_ADV_STOPPED)
     4dc:	4b04      	ldr	r3, [pc, #16]	; (4f0 <appSlaveNextAdvState+0x2c>)
     4de:	f893 3026 	ldrb.w	r3, [r3, #38]	; 0x26
     4e2:	2b02      	cmp	r3, #2
     4e4:	d801      	bhi.n	4ea <appSlaveNextAdvState+0x26>
  {
    appSlaveAdvStart();
     4e6:	f7ff ff81 	bl	3ec <appSlaveAdvStart>
  } 
}
     4ea:	3708      	adds	r7, #8
     4ec:	46bd      	mov	sp, r7
     4ee:	bd80      	pop	{r7, pc}
     4f0:	10000320 	.word	0x10000320

000004f4 <appConnUpdateTimerStart>:
 *
 *  \return None.
 */
/*************************************************************************************************/
static void appConnUpdateTimerStart(dmConnId_t connId)
{
     4f4:	b580      	push	{r7, lr}
     4f6:	b082      	sub	sp, #8
     4f8:	af00      	add	r7, sp, #0
     4fa:	4603      	mov	r3, r0
     4fc:	71fb      	strb	r3, [r7, #7]
  appSlaveCb.updateTimer.handlerId = appHandlerId;
     4fe:	4b0a      	ldr	r3, [pc, #40]	; (528 <appConnUpdateTimerStart+0x34>)
     500:	781a      	ldrb	r2, [r3, #0]
     502:	4b0a      	ldr	r3, [pc, #40]	; (52c <appConnUpdateTimerStart+0x38>)
     504:	721a      	strb	r2, [r3, #8]
  appSlaveCb.updateTimer.msg.event = APP_SLAVE_MSG_START;
     506:	4b09      	ldr	r3, [pc, #36]	; (52c <appConnUpdateTimerStart+0x38>)
     508:	2210      	movs	r2, #16
     50a:	731a      	strb	r2, [r3, #12]
  appSlaveCb.updateTimer.msg.param = connId;
     50c:	79fb      	ldrb	r3, [r7, #7]
     50e:	b29a      	uxth	r2, r3
     510:	4b06      	ldr	r3, [pc, #24]	; (52c <appConnUpdateTimerStart+0x38>)
     512:	815a      	strh	r2, [r3, #10]
  WsfTimerStartMs(&appSlaveCb.updateTimer, pAppUpdateCfg->idlePeriod);
     514:	4b06      	ldr	r3, [pc, #24]	; (530 <appConnUpdateTimerStart+0x3c>)
     516:	681b      	ldr	r3, [r3, #0]
     518:	681b      	ldr	r3, [r3, #0]
     51a:	4804      	ldr	r0, [pc, #16]	; (52c <appConnUpdateTimerStart+0x38>)
     51c:	4619      	mov	r1, r3
     51e:	f004 fd3d 	bl	4f9c <WsfTimerStartMs>
}
     522:	3708      	adds	r7, #8
     524:	46bd      	mov	sp, r7
     526:	bd80      	pop	{r7, pc}
     528:	10000d0c 	.word	0x10000d0c
     52c:	10000320 	.word	0x10000320
     530:	10000cf8 	.word	0x10000cf8

00000534 <appConnUpdateTimerStop>:
 *
 *  \return None.
 */
/*************************************************************************************************/
static void appConnUpdateTimerStop(void)
{
     534:	b580      	push	{r7, lr}
     536:	af00      	add	r7, sp, #0
  /* stop connection update timer */
  if (pAppUpdateCfg->idlePeriod != 0)
     538:	4b04      	ldr	r3, [pc, #16]	; (54c <appConnUpdateTimerStop+0x18>)
     53a:	681b      	ldr	r3, [r3, #0]
     53c:	681b      	ldr	r3, [r3, #0]
     53e:	2b00      	cmp	r3, #0
     540:	d002      	beq.n	548 <appConnUpdateTimerStop+0x14>
  {
    WsfTimerStop(&appSlaveCb.updateTimer);
     542:	4803      	ldr	r0, [pc, #12]	; (550 <appConnUpdateTimerStop+0x1c>)
     544:	f004 fd3e 	bl	4fc4 <WsfTimerStop>
  }  
}
     548:	bd80      	pop	{r7, pc}
     54a:	bf00      	nop
     54c:	10000cf8 	.word	0x10000cf8
     550:	10000320 	.word	0x10000320

00000554 <appSlaveConnOpen>:
 *
 *  \return None.
 */
/*************************************************************************************************/
static void appSlaveConnOpen(dmEvt_t *pMsg, appConnCb_t *pCb)
{
     554:	b580      	push	{r7, lr}
     556:	b082      	sub	sp, #8
     558:	af00      	add	r7, sp, #0
     55a:	6078      	str	r0, [r7, #4]
     55c:	6039      	str	r1, [r7, #0]
  /* advertising is stopped once a connection is opened */
  appSlaveCb.advState = APP_ADV_STOPPED;
     55e:	4b1f      	ldr	r3, [pc, #124]	; (5dc <appSlaveConnOpen+0x88>)
     560:	2203      	movs	r2, #3
     562:	f883 2026 	strb.w	r2, [r3, #38]	; 0x26
  
  /* store connection ID */
  pCb->connId = (dmConnId_t) pMsg->hdr.param;
     566:	687b      	ldr	r3, [r7, #4]
     568:	881b      	ldrh	r3, [r3, #0]
     56a:	b2da      	uxtb	r2, r3
     56c:	683b      	ldr	r3, [r7, #0]
     56e:	711a      	strb	r2, [r3, #4]
  
  /* check if we should do connection parameter update */
  if ((pAppUpdateCfg->idlePeriod != 0) &&
     570:	4b1b      	ldr	r3, [pc, #108]	; (5e0 <appSlaveConnOpen+0x8c>)
     572:	681b      	ldr	r3, [r3, #0]
     574:	681b      	ldr	r3, [r3, #0]
     576:	2b00      	cmp	r3, #0
     578:	d026      	beq.n	5c8 <appSlaveConnOpen+0x74>
      ((pMsg->connOpen.connInterval < pAppUpdateCfg->connIntervalMin) ||
     57a:	687b      	ldr	r3, [r7, #4]
     57c:	8a1a      	ldrh	r2, [r3, #16]
     57e:	4b18      	ldr	r3, [pc, #96]	; (5e0 <appSlaveConnOpen+0x8c>)
     580:	681b      	ldr	r3, [r3, #0]
     582:	889b      	ldrh	r3, [r3, #4]
  
  /* store connection ID */
  pCb->connId = (dmConnId_t) pMsg->hdr.param;
  
  /* check if we should do connection parameter update */
  if ((pAppUpdateCfg->idlePeriod != 0) &&
     584:	429a      	cmp	r2, r3
     586:	d314      	bcc.n	5b2 <appSlaveConnOpen+0x5e>
      ((pMsg->connOpen.connInterval < pAppUpdateCfg->connIntervalMin) ||
       (pMsg->connOpen.connInterval > pAppUpdateCfg->connIntervalMax) ||
     588:	687b      	ldr	r3, [r7, #4]
     58a:	8a1a      	ldrh	r2, [r3, #16]
     58c:	4b14      	ldr	r3, [pc, #80]	; (5e0 <appSlaveConnOpen+0x8c>)
     58e:	681b      	ldr	r3, [r3, #0]
     590:	88db      	ldrh	r3, [r3, #6]
  /* store connection ID */
  pCb->connId = (dmConnId_t) pMsg->hdr.param;
  
  /* check if we should do connection parameter update */
  if ((pAppUpdateCfg->idlePeriod != 0) &&
      ((pMsg->connOpen.connInterval < pAppUpdateCfg->connIntervalMin) ||
     592:	429a      	cmp	r2, r3
     594:	d80d      	bhi.n	5b2 <appSlaveConnOpen+0x5e>
       (pMsg->connOpen.connInterval > pAppUpdateCfg->connIntervalMax) ||
       (pMsg->connOpen.connLatency != pAppUpdateCfg->connLatency) ||
     596:	687b      	ldr	r3, [r7, #4]
     598:	8a5a      	ldrh	r2, [r3, #18]
     59a:	4b11      	ldr	r3, [pc, #68]	; (5e0 <appSlaveConnOpen+0x8c>)
     59c:	681b      	ldr	r3, [r3, #0]
     59e:	891b      	ldrh	r3, [r3, #8]
  pCb->connId = (dmConnId_t) pMsg->hdr.param;
  
  /* check if we should do connection parameter update */
  if ((pAppUpdateCfg->idlePeriod != 0) &&
      ((pMsg->connOpen.connInterval < pAppUpdateCfg->connIntervalMin) ||
       (pMsg->connOpen.connInterval > pAppUpdateCfg->connIntervalMax) ||
     5a0:	429a      	cmp	r2, r3
     5a2:	d106      	bne.n	5b2 <appSlaveConnOpen+0x5e>
       (pMsg->connOpen.connLatency != pAppUpdateCfg->connLatency) ||
       (pMsg->connOpen.supTimeout != pAppUpdateCfg->supTimeout)))
     5a4:	687b      	ldr	r3, [r7, #4]
     5a6:	8a9a      	ldrh	r2, [r3, #20]
     5a8:	4b0d      	ldr	r3, [pc, #52]	; (5e0 <appSlaveConnOpen+0x8c>)
     5aa:	681b      	ldr	r3, [r3, #0]
     5ac:	895b      	ldrh	r3, [r3, #10]
  
  /* check if we should do connection parameter update */
  if ((pAppUpdateCfg->idlePeriod != 0) &&
      ((pMsg->connOpen.connInterval < pAppUpdateCfg->connIntervalMin) ||
       (pMsg->connOpen.connInterval > pAppUpdateCfg->connIntervalMax) ||
       (pMsg->connOpen.connLatency != pAppUpdateCfg->connLatency) ||
     5ae:	429a      	cmp	r2, r3
     5b0:	d00a      	beq.n	5c8 <appSlaveConnOpen+0x74>
       (pMsg->connOpen.supTimeout != pAppUpdateCfg->supTimeout)))
  {
    pCb->connWasIdle = FALSE;
     5b2:	683b      	ldr	r3, [r7, #0]
     5b4:	2200      	movs	r2, #0
     5b6:	729a      	strb	r2, [r3, #10]
    pCb->attempts = 0;
     5b8:	683b      	ldr	r3, [r7, #0]
     5ba:	2200      	movs	r2, #0
     5bc:	731a      	strb	r2, [r3, #12]
    appConnUpdateTimerStart(pCb->connId);
     5be:	683b      	ldr	r3, [r7, #0]
     5c0:	791b      	ldrb	r3, [r3, #4]
     5c2:	4618      	mov	r0, r3
     5c4:	f7ff ff96 	bl	4f4 <appConnUpdateTimerStart>
  }
  
  /* restart advertising */
  appSlaveCb.advState = APP_ADV_STATE1;  
     5c8:	4b04      	ldr	r3, [pc, #16]	; (5dc <appSlaveConnOpen+0x88>)
     5ca:	2200      	movs	r2, #0
     5cc:	f883 2026 	strb.w	r2, [r3, #38]	; 0x26
  appSlaveAdvStart();
     5d0:	f7ff ff0c 	bl	3ec <appSlaveAdvStart>
}
     5d4:	3708      	adds	r7, #8
     5d6:	46bd      	mov	sp, r7
     5d8:	bd80      	pop	{r7, pc}
     5da:	bf00      	nop
     5dc:	10000320 	.word	0x10000320
     5e0:	10000cf8 	.word	0x10000cf8

000005e4 <appSlaveConnClose>:
 *
 *  \return None.
 */
/*************************************************************************************************/
static void appSlaveConnClose(dmEvt_t *pMsg, appConnCb_t *pCb)
{
     5e4:	b580      	push	{r7, lr}
     5e6:	b082      	sub	sp, #8
     5e8:	af00      	add	r7, sp, #0
     5ea:	6078      	str	r0, [r7, #4]
     5ec:	6039      	str	r1, [r7, #0]
  /* stop connection update timer */
  appConnUpdateTimerStop();
     5ee:	f7ff ffa1 	bl	534 <appConnUpdateTimerStop>
  
  /* clear connection ID */
  pCb->connId = DM_CONN_ID_NONE;
     5f2:	683b      	ldr	r3, [r7, #0]
     5f4:	2200      	movs	r2, #0
     5f6:	711a      	strb	r2, [r3, #4]

  /* if switching to connectable mode then set it up */
  if (pCb->setConnectable)
     5f8:	683b      	ldr	r3, [r7, #0]
     5fa:	7a5b      	ldrb	r3, [r3, #9]
     5fc:	2b00      	cmp	r3, #0
     5fe:	d00a      	beq.n	616 <appSlaveConnClose+0x32>
  {
    pCb->setConnectable = FALSE;
     600:	683b      	ldr	r3, [r7, #0]
     602:	2200      	movs	r2, #0
     604:	725a      	strb	r2, [r3, #9]
    appSlaveCb.discMode = APP_MODE_CONNECTABLE;
     606:	4b0b      	ldr	r3, [pc, #44]	; (634 <appSlaveConnClose+0x50>)
     608:	2200      	movs	r2, #0
     60a:	f883 2029 	strb.w	r2, [r3, #41]	; 0x29
    
    /* force update of advertising data */
    appSlaveCb.advDataSynced = FALSE;
     60e:	4b09      	ldr	r3, [pc, #36]	; (634 <appSlaveConnClose+0x50>)
     610:	2200      	movs	r2, #0
     612:	f883 2025 	strb.w	r2, [r3, #37]	; 0x25
  }
  
  /* if advertising stopped restart advertising */
  if (appSlaveCb.advState == APP_ADV_STOPPED)
     616:	4b07      	ldr	r3, [pc, #28]	; (634 <appSlaveConnClose+0x50>)
     618:	f893 3026 	ldrb.w	r3, [r3, #38]	; 0x26
     61c:	2b03      	cmp	r3, #3
     61e:	d105      	bne.n	62c <appSlaveConnClose+0x48>
  {
    /* set advertising state */
    appSlaveCb.advState = APP_ADV_STATE1;
     620:	4b04      	ldr	r3, [pc, #16]	; (634 <appSlaveConnClose+0x50>)
     622:	2200      	movs	r2, #0
     624:	f883 2026 	strb.w	r2, [r3, #38]	; 0x26
    
    /* start advertising */
    appSlaveAdvStart();
     628:	f7ff fee0 	bl	3ec <appSlaveAdvStart>
  }
}
     62c:	3708      	adds	r7, #8
     62e:	46bd      	mov	sp, r7
     630:	bd80      	pop	{r7, pc}
     632:	bf00      	nop
     634:	10000320 	.word	0x10000320

00000638 <appSlaveConnUpdate>:
 *
 *  \return None.
 */
/*************************************************************************************************/
static void appSlaveConnUpdate(dmEvt_t *pMsg, appConnCb_t *pCb)
{
     638:	b580      	push	{r7, lr}
     63a:	b082      	sub	sp, #8
     63c:	af00      	add	r7, sp, #0
     63e:	6078      	str	r0, [r7, #4]
     640:	6039      	str	r1, [r7, #0]
  if (pAppUpdateCfg->idlePeriod != 0)
     642:	4b0d      	ldr	r3, [pc, #52]	; (678 <appSlaveConnUpdate+0x40>)
     644:	681b      	ldr	r3, [r3, #0]
     646:	681b      	ldr	r3, [r3, #0]
     648:	2b00      	cmp	r3, #0
     64a:	d012      	beq.n	672 <appSlaveConnUpdate+0x3a>
  {
    /* if successful */
    if (pMsg->hdr.status == HCI_SUCCESS)
     64c:	687b      	ldr	r3, [r7, #4]
     64e:	78db      	ldrb	r3, [r3, #3]
     650:	2b00      	cmp	r3, #0
     652:	d102      	bne.n	65a <appSlaveConnUpdate+0x22>
    {
      /* stop connection update timer */
      appConnUpdateTimerStop();
     654:	f7ff ff6e 	bl	534 <appConnUpdateTimerStop>
     658:	e00b      	b.n	672 <appSlaveConnUpdate+0x3a>
    }
    /* else if update failed and still attempting to do update */
    else if (pCb->attempts < pAppUpdateCfg->maxAttempts)
     65a:	683b      	ldr	r3, [r7, #0]
     65c:	7b1a      	ldrb	r2, [r3, #12]
     65e:	4b06      	ldr	r3, [pc, #24]	; (678 <appSlaveConnUpdate+0x40>)
     660:	681b      	ldr	r3, [r3, #0]
     662:	7b1b      	ldrb	r3, [r3, #12]
     664:	429a      	cmp	r2, r3
     666:	d204      	bcs.n	672 <appSlaveConnUpdate+0x3a>
    {
      /* start timer and try again */
      appConnUpdateTimerStart(pCb->connId);
     668:	683b      	ldr	r3, [r7, #0]
     66a:	791b      	ldrb	r3, [r3, #4]
     66c:	4618      	mov	r0, r3
     66e:	f7ff ff41 	bl	4f4 <appConnUpdateTimerStart>
    }
  }
}
     672:	3708      	adds	r7, #8
     674:	46bd      	mov	sp, r7
     676:	bd80      	pop	{r7, pc}
     678:	10000cf8 	.word	0x10000cf8

0000067c <appSlaveSecConnOpen>:
 *
 *  \return None.
 */
/*************************************************************************************************/
static void appSlaveSecConnOpen(dmEvt_t *pMsg, appConnCb_t *pCb)
{
     67c:	b580      	push	{r7, lr}
     67e:	b082      	sub	sp, #8
     680:	af00      	add	r7, sp, #0
     682:	6078      	str	r0, [r7, #4]
     684:	6039      	str	r1, [r7, #0]
  /* initialize state variables */
  pCb->bonded = FALSE;
     686:	683b      	ldr	r3, [r7, #0]
     688:	2200      	movs	r2, #0
     68a:	715a      	strb	r2, [r3, #5]
  pCb->bondByLtk = FALSE;
     68c:	683b      	ldr	r3, [r7, #0]
     68e:	2200      	movs	r2, #0
     690:	719a      	strb	r2, [r3, #6]
  pCb->bondByPairing = FALSE;
     692:	683b      	ldr	r3, [r7, #0]
     694:	2200      	movs	r2, #0
     696:	71da      	strb	r2, [r3, #7]
    
  /* find record for peer device */
  pCb->dbHdl = AppDbFindByAddr(pMsg->connOpen.addrType, pMsg->connOpen.peerAddr);
     698:	687b      	ldr	r3, [r7, #4]
     69a:	7a5a      	ldrb	r2, [r3, #9]
     69c:	687b      	ldr	r3, [r7, #4]
     69e:	330a      	adds	r3, #10
     6a0:	4610      	mov	r0, r2
     6a2:	4619      	mov	r1, r3
     6a4:	f000 fbc4 	bl	e30 <AppDbFindByAddr>
     6a8:	4602      	mov	r2, r0
     6aa:	683b      	ldr	r3, [r7, #0]
     6ac:	601a      	str	r2, [r3, #0]

  /* send slave security request if configured to do so */
  if (pAppSecCfg->initiateSec && AppDbCheckBonded())
     6ae:	4b0b      	ldr	r3, [pc, #44]	; (6dc <appSlaveSecConnOpen+0x60>)
     6b0:	681b      	ldr	r3, [r3, #0]
     6b2:	791b      	ldrb	r3, [r3, #4]
     6b4:	2b00      	cmp	r3, #0
     6b6:	d00e      	beq.n	6d6 <appSlaveSecConnOpen+0x5a>
     6b8:	f000 fb7e 	bl	db8 <AppDbCheckBonded>
     6bc:	4603      	mov	r3, r0
     6be:	2b00      	cmp	r3, #0
     6c0:	d009      	beq.n	6d6 <appSlaveSecConnOpen+0x5a>
  {
    DmSecSlaveReq((dmConnId_t) pMsg->hdr.param, pAppSecCfg->auth);
     6c2:	687b      	ldr	r3, [r7, #4]
     6c4:	881b      	ldrh	r3, [r3, #0]
     6c6:	b2da      	uxtb	r2, r3
     6c8:	4b04      	ldr	r3, [pc, #16]	; (6dc <appSlaveSecConnOpen+0x60>)
     6ca:	681b      	ldr	r3, [r3, #0]
     6cc:	781b      	ldrb	r3, [r3, #0]
     6ce:	4610      	mov	r0, r2
     6d0:	4619      	mov	r1, r3
     6d2:	f008 fa76 	bl	8bc2 <DmSecSlaveReq>
  }
}
     6d6:	3708      	adds	r7, #8
     6d8:	46bd      	mov	sp, r7
     6da:	bd80      	pop	{r7, pc}
     6dc:	10000d10 	.word	0x10000d10

000006e0 <appSecConnClose>:
 *
 *  \return None.
 */
/*************************************************************************************************/
static void appSecConnClose(dmEvt_t *pMsg, appConnCb_t *pCb)
{
     6e0:	b580      	push	{r7, lr}
     6e2:	b082      	sub	sp, #8
     6e4:	af00      	add	r7, sp, #0
     6e6:	6078      	str	r0, [r7, #4]
     6e8:	6039      	str	r1, [r7, #0]
  /* if a device record was created check if it is valid */
  if (pCb->dbHdl != APP_DB_HDL_NONE)
     6ea:	683b      	ldr	r3, [r7, #0]
     6ec:	681b      	ldr	r3, [r3, #0]
     6ee:	2b00      	cmp	r3, #0
     6f0:	d004      	beq.n	6fc <appSecConnClose+0x1c>
  {
    AppDbCheckValidRecord(pCb->dbHdl);
     6f2:	683b      	ldr	r3, [r7, #0]
     6f4:	681b      	ldr	r3, [r3, #0]
     6f6:	4618      	mov	r0, r3
     6f8:	f000 fb50 	bl	d9c <AppDbCheckValidRecord>
  }
}
     6fc:	3708      	adds	r7, #8
     6fe:	46bd      	mov	sp, r7
     700:	bd80      	pop	{r7, pc}
     702:	bf00      	nop

00000704 <appSecPairInd>:
 *
 *  \return None.
 */
/*************************************************************************************************/
static void appSecPairInd(dmEvt_t *pMsg, appConnCb_t *pCb)
{
     704:	b590      	push	{r4, r7, lr}
     706:	b087      	sub	sp, #28
     708:	af02      	add	r7, sp, #8
     70a:	6078      	str	r0, [r7, #4]
     70c:	6039      	str	r1, [r7, #0]
  uint8_t rKeyDist;
  
  /* if in bondable mode or if peer is not requesting bonding
   * or if already bonded with this device and link is encrypted
   */
  if (appSlaveCb.bondable ||
     70e:	4b3d      	ldr	r3, [pc, #244]	; (804 <appSecPairInd+0x100>)
     710:	f893 3024 	ldrb.w	r3, [r3, #36]	; 0x24
     714:	2b00      	cmp	r3, #0
     716:	d111      	bne.n	73c <appSecPairInd+0x38>
      ((pMsg->pairInd.auth & DM_AUTH_BOND_FLAG) != DM_AUTH_BOND_FLAG) ||
     718:	687b      	ldr	r3, [r7, #4]
     71a:	791b      	ldrb	r3, [r3, #4]
     71c:	f003 0301 	and.w	r3, r3, #1
  uint8_t rKeyDist;
  
  /* if in bondable mode or if peer is not requesting bonding
   * or if already bonded with this device and link is encrypted
   */
  if (appSlaveCb.bondable ||
     720:	2b00      	cmp	r3, #0
     722:	d00b      	beq.n	73c <appSecPairInd+0x38>
      ((pMsg->pairInd.auth & DM_AUTH_BOND_FLAG) != DM_AUTH_BOND_FLAG) ||
      (pCb->bonded && (DmConnSecLevel(pCb->connId) > DM_SEC_LEVEL_NONE)))
     724:	683b      	ldr	r3, [r7, #0]
     726:	795b      	ldrb	r3, [r3, #5]
  
  /* if in bondable mode or if peer is not requesting bonding
   * or if already bonded with this device and link is encrypted
   */
  if (appSlaveCb.bondable ||
      ((pMsg->pairInd.auth & DM_AUTH_BOND_FLAG) != DM_AUTH_BOND_FLAG) ||
     728:	2b00      	cmp	r3, #0
     72a:	d061      	beq.n	7f0 <appSecPairInd+0xec>
      (pCb->bonded && (DmConnSecLevel(pCb->connId) > DM_SEC_LEVEL_NONE)))
     72c:	683b      	ldr	r3, [r7, #0]
     72e:	791b      	ldrb	r3, [r3, #4]
     730:	4618      	mov	r0, r3
     732:	f007 fec1 	bl	84b8 <DmConnSecLevel>
     736:	4603      	mov	r3, r0
     738:	2b00      	cmp	r3, #0
     73a:	d059      	beq.n	7f0 <appSecPairInd+0xec>
  {
    /* store bonding state:  if peer is requesting bonding and we want bonding */
    pCb->bondByPairing = (pMsg->pairInd.auth & pAppSecCfg->auth & DM_AUTH_BOND_FLAG) == DM_AUTH_BOND_FLAG;
     73c:	687b      	ldr	r3, [r7, #4]
     73e:	791a      	ldrb	r2, [r3, #4]
     740:	4b31      	ldr	r3, [pc, #196]	; (808 <appSecPairInd+0x104>)
     742:	681b      	ldr	r3, [r3, #0]
     744:	781b      	ldrb	r3, [r3, #0]
     746:	4013      	ands	r3, r2
     748:	b2db      	uxtb	r3, r3
     74a:	f003 0301 	and.w	r3, r3, #1
     74e:	2b00      	cmp	r3, #0
     750:	bf0c      	ite	eq
     752:	2300      	moveq	r3, #0
     754:	2301      	movne	r3, #1
     756:	b2db      	uxtb	r3, r3
     758:	461a      	mov	r2, r3
     75a:	683b      	ldr	r3, [r7, #0]
     75c:	71da      	strb	r2, [r3, #7]
    
    /* if bonding and no device record */
    if (pCb->bondByPairing && pCb->dbHdl == APP_DB_HDL_NONE)
     75e:	683b      	ldr	r3, [r7, #0]
     760:	79db      	ldrb	r3, [r3, #7]
     762:	2b00      	cmp	r3, #0
     764:	d017      	beq.n	796 <appSecPairInd+0x92>
     766:	683b      	ldr	r3, [r7, #0]
     768:	681b      	ldr	r3, [r3, #0]
     76a:	2b00      	cmp	r3, #0
     76c:	d113      	bne.n	796 <appSecPairInd+0x92>
    {
      /* create a device record if none exists */
      pCb->dbHdl = AppDbNewRecord(DmConnPeerAddrType(pCb->connId), DmConnPeerAddr(pCb->connId));
     76e:	683b      	ldr	r3, [r7, #0]
     770:	791b      	ldrb	r3, [r3, #4]
     772:	4618      	mov	r0, r3
     774:	f007 fe7a 	bl	846c <DmConnPeerAddrType>
     778:	4603      	mov	r3, r0
     77a:	461c      	mov	r4, r3
     77c:	683b      	ldr	r3, [r7, #0]
     77e:	791b      	ldrb	r3, [r3, #4]
     780:	4618      	mov	r0, r3
     782:	f007 fe7d 	bl	8480 <DmConnPeerAddr>
     786:	4603      	mov	r3, r0
     788:	4620      	mov	r0, r4
     78a:	4619      	mov	r1, r3
     78c:	f000 faa0 	bl	cd0 <AppDbNewRecord>
     790:	4602      	mov	r2, r0
     792:	683b      	ldr	r3, [r7, #0]
     794:	601a      	str	r2, [r3, #0]
    }

    /* initialize stored keys */
    pCb->rcvdKeys = 0;
     796:	683b      	ldr	r3, [r7, #0]
     798:	2200      	movs	r2, #0
     79a:	72da      	strb	r2, [r3, #11]

    /* initialize key distribution */
    rKeyDist = pAppSecCfg->rKeyDist;
     79c:	4b1a      	ldr	r3, [pc, #104]	; (808 <appSecPairInd+0x104>)
     79e:	681b      	ldr	r3, [r3, #0]
     7a0:	789b      	ldrb	r3, [r3, #2]
     7a2:	73bb      	strb	r3, [r7, #14]
    iKeyDist = pAppSecCfg->iKeyDist;
     7a4:	4b18      	ldr	r3, [pc, #96]	; (808 <appSecPairInd+0x104>)
     7a6:	681b      	ldr	r3, [r3, #0]
     7a8:	785b      	ldrb	r3, [r3, #1]
     7aa:	73fb      	strb	r3, [r7, #15]
    
    /* if peer is using random address request IRK */
    if (DmConnPeerAddrType(pCb->connId) == DM_ADDR_RANDOM)
     7ac:	683b      	ldr	r3, [r7, #0]
     7ae:	791b      	ldrb	r3, [r3, #4]
     7b0:	4618      	mov	r0, r3
     7b2:	f007 fe5b 	bl	846c <DmConnPeerAddrType>
     7b6:	4603      	mov	r3, r0
     7b8:	2b01      	cmp	r3, #1
     7ba:	d101      	bne.n	7c0 <appSecPairInd+0xbc>
    {
      iKeyDist = DM_KEY_DIST_IRK;
     7bc:	2302      	movs	r3, #2
     7be:	73fb      	strb	r3, [r7, #15]
    }
    
    /* only distribute keys both sides have agreed to */
    rKeyDist &= pMsg->pairInd.rKeyDist;
     7c0:	687b      	ldr	r3, [r7, #4]
     7c2:	79da      	ldrb	r2, [r3, #7]
     7c4:	7bbb      	ldrb	r3, [r7, #14]
     7c6:	4013      	ands	r3, r2
     7c8:	73bb      	strb	r3, [r7, #14]
    iKeyDist &= pMsg->pairInd.iKeyDist;
     7ca:	687b      	ldr	r3, [r7, #4]
     7cc:	799a      	ldrb	r2, [r3, #6]
     7ce:	7bfb      	ldrb	r3, [r7, #15]
     7d0:	4013      	ands	r3, r2
     7d2:	73fb      	strb	r3, [r7, #15]
    
    /* accept pairing request */
    DmSecPairRsp(pCb->connId, pAppSecCfg->oob, pAppSecCfg->auth, iKeyDist, rKeyDist);
     7d4:	683b      	ldr	r3, [r7, #0]
     7d6:	7918      	ldrb	r0, [r3, #4]
     7d8:	4b0b      	ldr	r3, [pc, #44]	; (808 <appSecPairInd+0x104>)
     7da:	681b      	ldr	r3, [r3, #0]
     7dc:	78d9      	ldrb	r1, [r3, #3]
     7de:	4b0a      	ldr	r3, [pc, #40]	; (808 <appSecPairInd+0x104>)
     7e0:	681b      	ldr	r3, [r3, #0]
     7e2:	781a      	ldrb	r2, [r3, #0]
     7e4:	7bfb      	ldrb	r3, [r7, #15]
     7e6:	7bbc      	ldrb	r4, [r7, #14]
     7e8:	9400      	str	r4, [sp, #0]
     7ea:	f008 f9cb 	bl	8b84 <DmSecPairRsp>
     7ee:	e005      	b.n	7fc <appSecPairInd+0xf8>
  }
  /* otherwise reject pairing request */
  else
  {
    DmSecCancelReq(pCb->connId, SMP_ERR_PAIRING_NOT_SUP);
     7f0:	683b      	ldr	r3, [r7, #0]
     7f2:	791b      	ldrb	r3, [r3, #4]
     7f4:	4618      	mov	r0, r3
     7f6:	2105      	movs	r1, #5
     7f8:	f008 f968 	bl	8acc <DmSecCancelReq>
  }
}
     7fc:	3714      	adds	r7, #20
     7fe:	46bd      	mov	sp, r7
     800:	bd90      	pop	{r4, r7, pc}
     802:	bf00      	nop
     804:	10000320 	.word	0x10000320
     808:	10000d10 	.word	0x10000d10

0000080c <appSecStoreKey>:
 *
 *  \return None.
 */
/*************************************************************************************************/
static void appSecStoreKey(dmEvt_t *pMsg, appConnCb_t *pCb)
{
     80c:	b580      	push	{r7, lr}
     80e:	b082      	sub	sp, #8
     810:	af00      	add	r7, sp, #0
     812:	6078      	str	r0, [r7, #4]
     814:	6039      	str	r1, [r7, #0]
  if (pCb->bondByPairing && pCb->dbHdl != APP_DB_HDL_NONE)
     816:	683b      	ldr	r3, [r7, #0]
     818:	79db      	ldrb	r3, [r3, #7]
     81a:	2b00      	cmp	r3, #0
     81c:	d012      	beq.n	844 <appSecStoreKey+0x38>
     81e:	683b      	ldr	r3, [r7, #0]
     820:	681b      	ldr	r3, [r3, #0]
     822:	2b00      	cmp	r3, #0
     824:	d00e      	beq.n	844 <appSecStoreKey+0x38>
  {
    /* key was received */
    pCb->rcvdKeys |= pMsg->keyInd.type;
     826:	683b      	ldr	r3, [r7, #0]
     828:	7ada      	ldrb	r2, [r3, #11]
     82a:	687b      	ldr	r3, [r7, #4]
     82c:	7f9b      	ldrb	r3, [r3, #30]
     82e:	4313      	orrs	r3, r2
     830:	b2da      	uxtb	r2, r3
     832:	683b      	ldr	r3, [r7, #0]
     834:	72da      	strb	r2, [r3, #11]
    
    /* store key in record */
    AppDbSetKey(pCb->dbHdl, &pMsg->keyInd);
     836:	683b      	ldr	r3, [r7, #0]
     838:	681a      	ldr	r2, [r3, #0]
     83a:	687b      	ldr	r3, [r7, #4]
     83c:	4610      	mov	r0, r2
     83e:	4619      	mov	r1, r3
     840:	f000 fb96 	bl	f70 <AppDbSetKey>
  }
}
     844:	3708      	adds	r7, #8
     846:	46bd      	mov	sp, r7
     848:	bd80      	pop	{r7, pc}
     84a:	bf00      	nop

0000084c <appSecPairCmpl>:
 *
 *  \return None.
 */
/*************************************************************************************************/
static void appSecPairCmpl(dmEvt_t *pMsg, appConnCb_t *pCb)
{
     84c:	b580      	push	{r7, lr}
     84e:	b082      	sub	sp, #8
     850:	af00      	add	r7, sp, #0
     852:	6078      	str	r0, [r7, #4]
     854:	6039      	str	r1, [r7, #0]

  /* if bonding */
  if (pCb->bondByPairing)
     856:	683b      	ldr	r3, [r7, #0]
     858:	79db      	ldrb	r3, [r3, #7]
     85a:	2b00      	cmp	r3, #0
     85c:	d01a      	beq.n	894 <appSecPairCmpl+0x48>
  {
    /* set bonded state */
    pCb->bonded = TRUE;
     85e:	683b      	ldr	r3, [r7, #0]
     860:	2201      	movs	r2, #1
     862:	715a      	strb	r2, [r3, #5]

    /* validate record and received keys */
    if (pCb->dbHdl != APP_DB_HDL_NONE)
     864:	683b      	ldr	r3, [r7, #0]
     866:	681b      	ldr	r3, [r3, #0]
     868:	2b00      	cmp	r3, #0
     86a:	d007      	beq.n	87c <appSecPairCmpl+0x30>
    {
      AppDbValidateRecord(pCb->dbHdl, pCb->rcvdKeys);
     86c:	683b      	ldr	r3, [r7, #0]
     86e:	681a      	ldr	r2, [r3, #0]
     870:	683b      	ldr	r3, [r7, #0]
     872:	7adb      	ldrb	r3, [r3, #11]
     874:	4610      	mov	r0, r2
     876:	4619      	mov	r1, r3
     878:	f000 fa7e 	bl	d78 <AppDbValidateRecord>
    }    

    /* if bonded clear bondable mode */
    appSlaveCb.bondable = FALSE;
     87c:	4b07      	ldr	r3, [pc, #28]	; (89c <appSecPairCmpl+0x50>)
     87e:	2200      	movs	r2, #0
     880:	f883 2024 	strb.w	r2, [r3, #36]	; 0x24
    
    /* if discoverable switch to connectable mode when connection closes */
    if (appSlaveCb.discMode == APP_MODE_DISCOVERABLE)
     884:	4b05      	ldr	r3, [pc, #20]	; (89c <appSecPairCmpl+0x50>)
     886:	f893 3029 	ldrb.w	r3, [r3, #41]	; 0x29
     88a:	2b01      	cmp	r3, #1
     88c:	d102      	bne.n	894 <appSecPairCmpl+0x48>
    {
      pCb->setConnectable = TRUE;
     88e:	683b      	ldr	r3, [r7, #0]
     890:	2201      	movs	r2, #1
     892:	725a      	strb	r2, [r3, #9]
    }

    /*  if bonded and device is using static or public address add device to white list */
  }
}
     894:	3708      	adds	r7, #8
     896:	46bd      	mov	sp, r7
     898:	bd80      	pop	{r7, pc}
     89a:	bf00      	nop
     89c:	10000320 	.word	0x10000320

000008a0 <appSecPairFailed>:
 *
 *  \return None.
 */
/*************************************************************************************************/
static void appSecPairFailed(dmEvt_t *pMsg, appConnCb_t *pCb)
{
     8a0:	b480      	push	{r7}
     8a2:	b083      	sub	sp, #12
     8a4:	af00      	add	r7, sp, #0
     8a6:	6078      	str	r0, [r7, #4]
     8a8:	6039      	str	r1, [r7, #0]
  return;
     8aa:	bf00      	nop
}
     8ac:	370c      	adds	r7, #12
     8ae:	46bd      	mov	sp, r7
     8b0:	f85d 7b04 	ldr.w	r7, [sp], #4
     8b4:	4770      	bx	lr
     8b6:	bf00      	nop

000008b8 <appSecEncryptInd>:
 *
 *  \return None.
 */
/*************************************************************************************************/
static void appSecEncryptInd(dmEvt_t *pMsg, appConnCb_t *pCb)
{
     8b8:	b480      	push	{r7}
     8ba:	b083      	sub	sp, #12
     8bc:	af00      	add	r7, sp, #0
     8be:	6078      	str	r0, [r7, #4]
     8c0:	6039      	str	r1, [r7, #0]
  /* check if bonding state should be set */
  if (pCb->bondByLtk && pMsg->encryptInd.usingLtk)
     8c2:	683b      	ldr	r3, [r7, #0]
     8c4:	799b      	ldrb	r3, [r3, #6]
     8c6:	2b00      	cmp	r3, #0
     8c8:	d009      	beq.n	8de <appSecEncryptInd+0x26>
     8ca:	687b      	ldr	r3, [r7, #4]
     8cc:	791b      	ldrb	r3, [r3, #4]
     8ce:	2b00      	cmp	r3, #0
     8d0:	d005      	beq.n	8de <appSecEncryptInd+0x26>
  {
    pCb->bonded = TRUE;
     8d2:	683b      	ldr	r3, [r7, #0]
     8d4:	2201      	movs	r2, #1
     8d6:	715a      	strb	r2, [r3, #5]
    pCb->bondByLtk = FALSE;
     8d8:	683b      	ldr	r3, [r7, #0]
     8da:	2200      	movs	r2, #0
     8dc:	719a      	strb	r2, [r3, #6]
  }
}
     8de:	370c      	adds	r7, #12
     8e0:	46bd      	mov	sp, r7
     8e2:	f85d 7b04 	ldr.w	r7, [sp], #4
     8e6:	4770      	bx	lr

000008e8 <appSecFindLtk>:
 *
 *  \return None.
 */
/*************************************************************************************************/
static void appSecFindLtk(dmEvt_t *pMsg, appConnCb_t *pCb)
{
     8e8:	b580      	push	{r7, lr}
     8ea:	b084      	sub	sp, #16
     8ec:	af00      	add	r7, sp, #0
     8ee:	6078      	str	r0, [r7, #4]
     8f0:	6039      	str	r1, [r7, #0]
  dmSecKey_t  *pKey = NULL;
     8f2:	2300      	movs	r3, #0
     8f4:	60fb      	str	r3, [r7, #12]
  uint8_t     secLevel;
  
  /* if device record is not in place */
  if (pCb->dbHdl == APP_DB_HDL_NONE)
     8f6:	683b      	ldr	r3, [r7, #0]
     8f8:	681b      	ldr	r3, [r3, #0]
     8fa:	2b00      	cmp	r3, #0
     8fc:	d10a      	bne.n	914 <appSecFindLtk+0x2c>
  {
    /* find record */
    pCb->dbHdl = AppDbFindByLtkReq(pMsg->ltkReqInd.encDiversifier, pMsg->ltkReqInd.randNum);
     8fe:	687b      	ldr	r3, [r7, #4]
     900:	89da      	ldrh	r2, [r3, #14]
     902:	687b      	ldr	r3, [r7, #4]
     904:	3306      	adds	r3, #6
     906:	4610      	mov	r0, r2
     908:	4619      	mov	r1, r3
     90a:	f000 fabf 	bl	e8c <AppDbFindByLtkReq>
     90e:	4602      	mov	r2, r0
     910:	683b      	ldr	r3, [r7, #0]
     912:	601a      	str	r2, [r3, #0]
  }
  
  /* if there is a record */
  if (pCb->dbHdl != APP_DB_HDL_NONE)
     914:	683b      	ldr	r3, [r7, #0]
     916:	681b      	ldr	r3, [r3, #0]
     918:	2b00      	cmp	r3, #0
     91a:	d009      	beq.n	930 <appSecFindLtk+0x48>
  {
    /* get ltk */
    pKey = AppDbGetKey(pCb->dbHdl, DM_KEY_LOCAL_LTK, &secLevel);
     91c:	683b      	ldr	r3, [r7, #0]
     91e:	681a      	ldr	r2, [r3, #0]
     920:	f107 030b 	add.w	r3, r7, #11
     924:	4610      	mov	r0, r2
     926:	2101      	movs	r1, #1
     928:	461a      	mov	r2, r3
     92a:	f000 fadf 	bl	eec <AppDbGetKey>
     92e:	60f8      	str	r0, [r7, #12]
  }
  
  if (pKey != NULL)
     930:	68fb      	ldr	r3, [r7, #12]
     932:	2b00      	cmp	r3, #0
     934:	d012      	beq.n	95c <appSecFindLtk+0x74>
  {
    /* if not bonded we need to update bonding state when encrypted */
    pCb->bondByLtk = !pCb->bonded;
     936:	683b      	ldr	r3, [r7, #0]
     938:	795b      	ldrb	r3, [r3, #5]
     93a:	2b00      	cmp	r3, #0
     93c:	bf14      	ite	ne
     93e:	2300      	movne	r3, #0
     940:	2301      	moveq	r3, #1
     942:	b2db      	uxtb	r3, r3
     944:	461a      	mov	r2, r3
     946:	683b      	ldr	r3, [r7, #0]
     948:	719a      	strb	r2, [r3, #6]

    /* we found the key */
    DmSecLtkRsp(pCb->connId, TRUE, secLevel, pKey->ltk.key);
     94a:	683b      	ldr	r3, [r7, #0]
     94c:	7919      	ldrb	r1, [r3, #4]
     94e:	7afa      	ldrb	r2, [r7, #11]
     950:	68fb      	ldr	r3, [r7, #12]
     952:	4608      	mov	r0, r1
     954:	2101      	movs	r1, #1
     956:	f008 f944 	bl	8be2 <DmSecLtkRsp>
     95a:	e00a      	b.n	972 <appSecFindLtk+0x8a>
  }
  else
  {
    pCb->bondByLtk = FALSE;
     95c:	683b      	ldr	r3, [r7, #0]
     95e:	2200      	movs	r2, #0
     960:	719a      	strb	r2, [r3, #6]
    
    /* key not found */
    DmSecLtkRsp(pCb->connId, FALSE, 0, NULL);
     962:	683b      	ldr	r3, [r7, #0]
     964:	791b      	ldrb	r3, [r3, #4]
     966:	4618      	mov	r0, r3
     968:	2100      	movs	r1, #0
     96a:	2200      	movs	r2, #0
     96c:	2300      	movs	r3, #0
     96e:	f008 f938 	bl	8be2 <DmSecLtkRsp>
  }
}
     972:	3710      	adds	r7, #16
     974:	46bd      	mov	sp, r7
     976:	bd80      	pop	{r7, pc}

00000978 <appSlaveConnUpdateTimeout>:
 *
 *  \return None.
 */
/*************************************************************************************************/
static void appSlaveConnUpdateTimeout(wsfMsgHdr_t *pMsg, appConnCb_t *pCb)
{
     978:	b580      	push	{r7, lr}
     97a:	b086      	sub	sp, #24
     97c:	af00      	add	r7, sp, #0
     97e:	6078      	str	r0, [r7, #4]
     980:	6039      	str	r1, [r7, #0]
  hciConnSpec_t connSpec;
  bool_t        idle;
  
  /* check if connection is idle */
  idle = (DmConnCheckIdle(pCb->connId) == 0);
     982:	683b      	ldr	r3, [r7, #0]
     984:	791b      	ldrb	r3, [r3, #4]
     986:	4618      	mov	r0, r3
     988:	f007 fdbc 	bl	8504 <DmConnCheckIdle>
     98c:	4603      	mov	r3, r0
     98e:	2b00      	cmp	r3, #0
     990:	bf14      	ite	ne
     992:	2300      	movne	r3, #0
     994:	2301      	moveq	r3, #1
     996:	b2db      	uxtb	r3, r3
     998:	75fb      	strb	r3, [r7, #23]
  
  /* if connection is idle and was also idle on last check */
  if (idle && pCb->connWasIdle)
     99a:	7dfb      	ldrb	r3, [r7, #23]
     99c:	2b00      	cmp	r3, #0
     99e:	d022      	beq.n	9e6 <appSlaveConnUpdateTimeout+0x6e>
     9a0:	683b      	ldr	r3, [r7, #0]
     9a2:	7a9b      	ldrb	r3, [r3, #10]
     9a4:	2b00      	cmp	r3, #0
     9a6:	d01e      	beq.n	9e6 <appSlaveConnUpdateTimeout+0x6e>
  {
    /* do update */
    pCb->attempts++;
     9a8:	683b      	ldr	r3, [r7, #0]
     9aa:	7b1b      	ldrb	r3, [r3, #12]
     9ac:	3301      	adds	r3, #1
     9ae:	b2da      	uxtb	r2, r3
     9b0:	683b      	ldr	r3, [r7, #0]
     9b2:	731a      	strb	r2, [r3, #12]
    connSpec.connIntervalMin = pAppUpdateCfg->connIntervalMin;
     9b4:	4b11      	ldr	r3, [pc, #68]	; (9fc <appSlaveConnUpdateTimeout+0x84>)
     9b6:	681b      	ldr	r3, [r3, #0]
     9b8:	889b      	ldrh	r3, [r3, #4]
     9ba:	813b      	strh	r3, [r7, #8]
    connSpec.connIntervalMax = pAppUpdateCfg->connIntervalMax;
     9bc:	4b0f      	ldr	r3, [pc, #60]	; (9fc <appSlaveConnUpdateTimeout+0x84>)
     9be:	681b      	ldr	r3, [r3, #0]
     9c0:	88db      	ldrh	r3, [r3, #6]
     9c2:	817b      	strh	r3, [r7, #10]
    connSpec.connLatency = pAppUpdateCfg->connLatency;
     9c4:	4b0d      	ldr	r3, [pc, #52]	; (9fc <appSlaveConnUpdateTimeout+0x84>)
     9c6:	681b      	ldr	r3, [r3, #0]
     9c8:	891b      	ldrh	r3, [r3, #8]
     9ca:	81bb      	strh	r3, [r7, #12]
    connSpec.supTimeout = pAppUpdateCfg->supTimeout;
     9cc:	4b0b      	ldr	r3, [pc, #44]	; (9fc <appSlaveConnUpdateTimeout+0x84>)
     9ce:	681b      	ldr	r3, [r3, #0]
     9d0:	895b      	ldrh	r3, [r3, #10]
     9d2:	81fb      	strh	r3, [r7, #14]
    DmConnUpdate(pCb->connId, &connSpec);
     9d4:	683b      	ldr	r3, [r7, #0]
     9d6:	791a      	ldrb	r2, [r3, #4]
     9d8:	f107 0308 	add.w	r3, r7, #8
     9dc:	4610      	mov	r0, r2
     9de:	4619      	mov	r1, r3
     9e0:	f007 fcd2 	bl	8388 <DmConnUpdate>
     9e4:	e007      	b.n	9f6 <appSlaveConnUpdateTimeout+0x7e>
  }
  else
  {
    pCb->connWasIdle = idle;
     9e6:	683b      	ldr	r3, [r7, #0]
     9e8:	7dfa      	ldrb	r2, [r7, #23]
     9ea:	729a      	strb	r2, [r3, #10]
    appConnUpdateTimerStart(pCb->connId);
     9ec:	683b      	ldr	r3, [r7, #0]
     9ee:	791b      	ldrb	r3, [r3, #4]
     9f0:	4618      	mov	r0, r3
     9f2:	f7ff fd7f 	bl	4f4 <appConnUpdateTimerStart>
  }
}
     9f6:	3718      	adds	r7, #24
     9f8:	46bd      	mov	sp, r7
     9fa:	bd80      	pop	{r7, pc}
     9fc:	10000cf8 	.word	0x10000cf8

00000a00 <appSlaveProcMsg>:
 *
 *  \return None.
 */
/*************************************************************************************************/
void appSlaveProcMsg(wsfMsgHdr_t *pMsg)
{
     a00:	b580      	push	{r7, lr}
     a02:	b084      	sub	sp, #16
     a04:	af00      	add	r7, sp, #0
     a06:	6078      	str	r0, [r7, #4]
  appConnCb_t *pCb;
  
  /* look up app connection control block from DM connection ID */
  pCb = &appConnCb[pMsg->param - 1];
     a08:	687b      	ldr	r3, [r7, #4]
     a0a:	881b      	ldrh	r3, [r3, #0]
     a0c:	3b01      	subs	r3, #1
     a0e:	011a      	lsls	r2, r3, #4
     a10:	4b07      	ldr	r3, [pc, #28]	; (a30 <appSlaveProcMsg+0x30>)
     a12:	4413      	add	r3, r2
     a14:	60fb      	str	r3, [r7, #12]

  switch(pMsg->event)
     a16:	687b      	ldr	r3, [r7, #4]
     a18:	789b      	ldrb	r3, [r3, #2]
     a1a:	2b10      	cmp	r3, #16
     a1c:	d000      	beq.n	a20 <appSlaveProcMsg+0x20>
    case APP_CONN_UPDATE_TIMEOUT_IND:
      appSlaveConnUpdateTimeout(pMsg, pCb);
      break;

    default:
      break;
     a1e:	e004      	b.n	a2a <appSlaveProcMsg+0x2a>
  pCb = &appConnCb[pMsg->param - 1];

  switch(pMsg->event)
  {
    case APP_CONN_UPDATE_TIMEOUT_IND:
      appSlaveConnUpdateTimeout(pMsg, pCb);
     a20:	6878      	ldr	r0, [r7, #4]
     a22:	68f9      	ldr	r1, [r7, #12]
     a24:	f7ff ffa8 	bl	978 <appSlaveConnUpdateTimeout>
      break;
     a28:	bf00      	nop

    default:
      break;
  }
}
     a2a:	3710      	adds	r7, #16
     a2c:	46bd      	mov	sp, r7
     a2e:	bd80      	pop	{r7, pc}
     a30:	10000d18 	.word	0x10000d18

00000a34 <AppSlaveInit>:
 *
 *  \return None.
 */
/*************************************************************************************************/
void AppSlaveInit(void)
{
     a34:	b480      	push	{r7}
     a36:	af00      	add	r7, sp, #0
  /* initialize advertising state */
  appSlaveCb.advState = APP_ADV_STOPPED;
     a38:	4b0b      	ldr	r3, [pc, #44]	; (a68 <AppSlaveInit+0x34>)
     a3a:	2203      	movs	r2, #3
     a3c:	f883 2026 	strb.w	r2, [r3, #38]	; 0x26
  
  /* initialize advertising type */
  appSlaveCb.advType = DM_ADV_CONN_UNDIRECT;
     a40:	4b09      	ldr	r3, [pc, #36]	; (a68 <AppSlaveInit+0x34>)
     a42:	2200      	movs	r2, #0
     a44:	f883 2027 	strb.w	r2, [r3, #39]	; 0x27

  /* initialize advertising type changed flag */
  appSlaveCb.advTypeChanged = FALSE;
     a48:	4b07      	ldr	r3, [pc, #28]	; (a68 <AppSlaveInit+0x34>)
     a4a:	2200      	movs	r2, #0
     a4c:	f883 2028 	strb.w	r2, [r3, #40]	; 0x28

  /* initialize discovery mode */
  appSlaveCb.discMode = APP_MODE_NONE;
     a50:	4b05      	ldr	r3, [pc, #20]	; (a68 <AppSlaveInit+0x34>)
     a52:	22ff      	movs	r2, #255	; 0xff
     a54:	f883 2029 	strb.w	r2, [r3, #41]	; 0x29

  /* set up callback from main */
  appCb.slaveCback = appSlaveProcMsg;
     a58:	4b04      	ldr	r3, [pc, #16]	; (a6c <AppSlaveInit+0x38>)
     a5a:	4a05      	ldr	r2, [pc, #20]	; (a70 <AppSlaveInit+0x3c>)
     a5c:	601a      	str	r2, [r3, #0]
}
     a5e:	46bd      	mov	sp, r7
     a60:	f85d 7b04 	ldr.w	r7, [sp], #4
     a64:	4770      	bx	lr
     a66:	bf00      	nop
     a68:	10000320 	.word	0x10000320
     a6c:	10000d00 	.word	0x10000d00
     a70:	00000a01 	.word	0x00000a01

00000a74 <AppSlaveProcDmMsg>:
 *
 *  \return None.
 */
/*************************************************************************************************/
void AppSlaveProcDmMsg(dmEvt_t *pMsg)
{
     a74:	b580      	push	{r7, lr}
     a76:	b084      	sub	sp, #16
     a78:	af00      	add	r7, sp, #0
     a7a:	6078      	str	r0, [r7, #4]
  appConnCb_t *pCb = NULL;
     a7c:	2300      	movs	r3, #0
     a7e:	60fb      	str	r3, [r7, #12]
  
  /* look up app connection control block from DM connection ID */
  if (pMsg->hdr.event != DM_ADV_STOP_IND)
     a80:	687b      	ldr	r3, [r7, #4]
     a82:	789b      	ldrb	r3, [r3, #2]
     a84:	2b22      	cmp	r3, #34	; 0x22
     a86:	d006      	beq.n	a96 <AppSlaveProcDmMsg+0x22>
  {
    pCb = &appConnCb[pMsg->hdr.param - 1];
     a88:	687b      	ldr	r3, [r7, #4]
     a8a:	881b      	ldrh	r3, [r3, #0]
     a8c:	3b01      	subs	r3, #1
     a8e:	011a      	lsls	r2, r3, #4
     a90:	4b1d      	ldr	r3, [pc, #116]	; (b08 <AppSlaveProcDmMsg+0x94>)
     a92:	4413      	add	r3, r2
     a94:	60fb      	str	r3, [r7, #12]
  }
  
  switch(pMsg->hdr.event)
     a96:	687b      	ldr	r3, [r7, #4]
     a98:	789b      	ldrb	r3, [r3, #2]
     a9a:	3b22      	subs	r3, #34	; 0x22
     a9c:	2b07      	cmp	r3, #7
     a9e:	d82f      	bhi.n	b00 <AppSlaveProcDmMsg+0x8c>
     aa0:	a201      	add	r2, pc, #4	; (adr r2, aa8 <AppSlaveProcDmMsg+0x34>)
     aa2:	f852 f023 	ldr.w	pc, [r2, r3, lsl #2]
     aa6:	bf00      	nop
     aa8:	00000ac9 	.word	0x00000ac9
     aac:	00000b01 	.word	0x00000b01
     ab0:	00000b01 	.word	0x00000b01
     ab4:	00000b01 	.word	0x00000b01
     ab8:	00000b01 	.word	0x00000b01
     abc:	00000ae3 	.word	0x00000ae3
     ac0:	00000aed 	.word	0x00000aed
     ac4:	00000af7 	.word	0x00000af7
  {
    case DM_ADV_STOP_IND:
      if (appSlaveCb.advTypeChanged)
     ac8:	4b10      	ldr	r3, [pc, #64]	; (b0c <AppSlaveProcDmMsg+0x98>)
     aca:	f893 3028 	ldrb.w	r3, [r3, #40]	; 0x28
     ace:	2b00      	cmp	r3, #0
     ad0:	d003      	beq.n	ada <AppSlaveProcDmMsg+0x66>
      {
        appSlaveAdvTypeChanged(pMsg);
     ad2:	6878      	ldr	r0, [r7, #4]
     ad4:	f7ff fce2 	bl	49c <appSlaveAdvTypeChanged>
      }
      else
      {
        appSlaveNextAdvState(pMsg);
      }
      break;
     ad8:	e013      	b.n	b02 <AppSlaveProcDmMsg+0x8e>
      {
        appSlaveAdvTypeChanged(pMsg);
      }
      else
      {
        appSlaveNextAdvState(pMsg);
     ada:	6878      	ldr	r0, [r7, #4]
     adc:	f7ff fcf2 	bl	4c4 <appSlaveNextAdvState>
      }
      break;
     ae0:	e00f      	b.n	b02 <AppSlaveProcDmMsg+0x8e>
      
    case DM_CONN_OPEN_IND:
      appSlaveConnOpen(pMsg, pCb);
     ae2:	6878      	ldr	r0, [r7, #4]
     ae4:	68f9      	ldr	r1, [r7, #12]
     ae6:	f7ff fd35 	bl	554 <appSlaveConnOpen>
      break;
     aea:	e00a      	b.n	b02 <AppSlaveProcDmMsg+0x8e>

    case DM_CONN_CLOSE_IND:
      appSlaveConnClose(pMsg, pCb);
     aec:	6878      	ldr	r0, [r7, #4]
     aee:	68f9      	ldr	r1, [r7, #12]
     af0:	f7ff fd78 	bl	5e4 <appSlaveConnClose>
      break;
     af4:	e005      	b.n	b02 <AppSlaveProcDmMsg+0x8e>

    case DM_CONN_UPDATE_IND:
      appSlaveConnUpdate(pMsg, pCb);
     af6:	6878      	ldr	r0, [r7, #4]
     af8:	68f9      	ldr	r1, [r7, #12]
     afa:	f7ff fd9d 	bl	638 <appSlaveConnUpdate>
      break;
     afe:	e000      	b.n	b02 <AppSlaveProcDmMsg+0x8e>
      
    default:
      break;
     b00:	bf00      	nop
  }
}
     b02:	3710      	adds	r7, #16
     b04:	46bd      	mov	sp, r7
     b06:	bd80      	pop	{r7, pc}
     b08:	10000d18 	.word	0x10000d18
     b0c:	10000320 	.word	0x10000320

00000b10 <AppSlaveSecProcDmMsg>:
 *
 *  \return None.
 */
/*************************************************************************************************/
void AppSlaveSecProcDmMsg(dmEvt_t *pMsg)
{
     b10:	b580      	push	{r7, lr}
     b12:	b084      	sub	sp, #16
     b14:	af00      	add	r7, sp, #0
     b16:	6078      	str	r0, [r7, #4]
  appConnCb_t *pCb;
  
  /* look up app connection control block from DM connection ID */
  pCb = &appConnCb[pMsg->hdr.param - 1];
     b18:	687b      	ldr	r3, [r7, #4]
     b1a:	881b      	ldrh	r3, [r3, #0]
     b1c:	3b01      	subs	r3, #1
     b1e:	011a      	lsls	r2, r3, #4
     b20:	4b26      	ldr	r3, [pc, #152]	; (bbc <AppSlaveSecProcDmMsg+0xac>)
     b22:	4413      	add	r3, r2
     b24:	60fb      	str	r3, [r7, #12]

  switch(pMsg->hdr.event)
     b26:	687b      	ldr	r3, [r7, #4]
     b28:	789b      	ldrb	r3, [r3, #2]
     b2a:	3b27      	subs	r3, #39	; 0x27
     b2c:	2b0a      	cmp	r3, #10
     b2e:	d841      	bhi.n	bb4 <AppSlaveSecProcDmMsg+0xa4>
     b30:	a201      	add	r2, pc, #4	; (adr r2, b38 <AppSlaveSecProcDmMsg+0x28>)
     b32:	f852 f023 	ldr.w	pc, [r2, r3, lsl #2]
     b36:	bf00      	nop
     b38:	00000b65 	.word	0x00000b65
     b3c:	00000b6f 	.word	0x00000b6f
     b40:	00000bb5 	.word	0x00000bb5
     b44:	00000b79 	.word	0x00000b79
     b48:	00000b83 	.word	0x00000b83
     b4c:	00000b8d 	.word	0x00000b8d
     b50:	00000bb5 	.word	0x00000bb5
     b54:	00000bb5 	.word	0x00000bb5
     b58:	00000b97 	.word	0x00000b97
     b5c:	00000bab 	.word	0x00000bab
     b60:	00000ba1 	.word	0x00000ba1
  {
    case DM_CONN_OPEN_IND:
      appSlaveSecConnOpen(pMsg, pCb);
     b64:	6878      	ldr	r0, [r7, #4]
     b66:	68f9      	ldr	r1, [r7, #12]
     b68:	f7ff fd88 	bl	67c <appSlaveSecConnOpen>
      break;
     b6c:	e023      	b.n	bb6 <AppSlaveSecProcDmMsg+0xa6>

    case DM_CONN_CLOSE_IND:
      appSecConnClose(pMsg, pCb);
     b6e:	6878      	ldr	r0, [r7, #4]
     b70:	68f9      	ldr	r1, [r7, #12]
     b72:	f7ff fdb5 	bl	6e0 <appSecConnClose>
      break;
     b76:	e01e      	b.n	bb6 <AppSlaveSecProcDmMsg+0xa6>

    case DM_SEC_PAIR_CMPL_IND:
      appSecPairCmpl(pMsg, pCb);
     b78:	6878      	ldr	r0, [r7, #4]
     b7a:	68f9      	ldr	r1, [r7, #12]
     b7c:	f7ff fe66 	bl	84c <appSecPairCmpl>
      break;
     b80:	e019      	b.n	bb6 <AppSlaveSecProcDmMsg+0xa6>
      
    case DM_SEC_PAIR_FAIL_IND:
      appSecPairFailed(pMsg, pCb);
     b82:	6878      	ldr	r0, [r7, #4]
     b84:	68f9      	ldr	r1, [r7, #12]
     b86:	f7ff fe8b 	bl	8a0 <appSecPairFailed>
      break;
     b8a:	e014      	b.n	bb6 <AppSlaveSecProcDmMsg+0xa6>

    case DM_SEC_ENCRYPT_IND:
      appSecEncryptInd(pMsg, pCb);
     b8c:	6878      	ldr	r0, [r7, #4]
     b8e:	68f9      	ldr	r1, [r7, #12]
     b90:	f7ff fe92 	bl	8b8 <appSecEncryptInd>
      break;
     b94:	e00f      	b.n	bb6 <AppSlaveSecProcDmMsg+0xa6>
      
    case DM_SEC_ENCRYPT_FAIL_IND:
      break;

    case DM_SEC_KEY_IND:
      appSecStoreKey(pMsg, pCb);
     b96:	6878      	ldr	r0, [r7, #4]
     b98:	68f9      	ldr	r1, [r7, #12]
     b9a:	f7ff fe37 	bl	80c <appSecStoreKey>
      break;
     b9e:	e00a      	b.n	bb6 <AppSlaveSecProcDmMsg+0xa6>

    case DM_SEC_PAIR_IND:
      appSecPairInd(pMsg, pCb);
     ba0:	6878      	ldr	r0, [r7, #4]
     ba2:	68f9      	ldr	r1, [r7, #12]
     ba4:	f7ff fdae 	bl	704 <appSecPairInd>
      break;
     ba8:	e005      	b.n	bb6 <AppSlaveSecProcDmMsg+0xa6>
      
    case DM_SEC_LTK_REQ_IND:
      appSecFindLtk(pMsg, pCb);
     baa:	6878      	ldr	r0, [r7, #4]
     bac:	68f9      	ldr	r1, [r7, #12]
     bae:	f7ff fe9b 	bl	8e8 <appSecFindLtk>
      break;
     bb2:	e000      	b.n	bb6 <AppSlaveSecProcDmMsg+0xa6>
      
    default:
      break;
     bb4:	bf00      	nop
  }
}
     bb6:	3710      	adds	r7, #16
     bb8:	46bd      	mov	sp, r7
     bba:	bd80      	pop	{r7, pc}
     bbc:	10000d18 	.word	0x10000d18

00000bc0 <AppAdvSetData>:
 *
 *  \return None.
 */
/*************************************************************************************************/
void AppAdvSetData(uint8_t location, uint8_t len, uint8_t *pData)
{
     bc0:	b580      	push	{r7, lr}
     bc2:	b082      	sub	sp, #8
     bc4:	af00      	add	r7, sp, #0
     bc6:	460b      	mov	r3, r1
     bc8:	603a      	str	r2, [r7, #0]
     bca:	4602      	mov	r2, r0
     bcc:	71fa      	strb	r2, [r7, #7]
     bce:	71bb      	strb	r3, [r7, #6]
  /* store data for location */
  appSlaveCb.pAdvData[location] = pData;
     bd0:	79fa      	ldrb	r2, [r7, #7]
     bd2:	4b15      	ldr	r3, [pc, #84]	; (c28 <AppAdvSetData+0x68>)
     bd4:	3204      	adds	r2, #4
     bd6:	6839      	ldr	r1, [r7, #0]
     bd8:	f843 1022 	str.w	r1, [r3, r2, lsl #2]
  appSlaveCb.advDataLen[location] = len;
     bdc:	79fb      	ldrb	r3, [r7, #7]
     bde:	4a12      	ldr	r2, [pc, #72]	; (c28 <AppAdvSetData+0x68>)
     be0:	4413      	add	r3, r2
     be2:	79ba      	ldrb	r2, [r7, #6]
     be4:	f883 2020 	strb.w	r2, [r3, #32]
  
  /* Set the data now if we are in the right mode */
  if ((appSlaveCb.advState != APP_ADV_STOPPED) &&
     be8:	4b0f      	ldr	r3, [pc, #60]	; (c28 <AppAdvSetData+0x68>)
     bea:	f893 3026 	ldrb.w	r3, [r3, #38]	; 0x26
     bee:	2b03      	cmp	r3, #3
     bf0:	d012      	beq.n	c18 <AppAdvSetData+0x58>
      (APP_LOC_2_MODE(location) == appSlaveCb.discMode))
     bf2:	79fb      	ldrb	r3, [r7, #7]
     bf4:	085b      	lsrs	r3, r3, #1
     bf6:	b2da      	uxtb	r2, r3
     bf8:	4b0b      	ldr	r3, [pc, #44]	; (c28 <AppAdvSetData+0x68>)
     bfa:	f893 3029 	ldrb.w	r3, [r3, #41]	; 0x29
  /* store data for location */
  appSlaveCb.pAdvData[location] = pData;
  appSlaveCb.advDataLen[location] = len;
  
  /* Set the data now if we are in the right mode */
  if ((appSlaveCb.advState != APP_ADV_STOPPED) &&
     bfe:	429a      	cmp	r2, r3
     c00:	d10a      	bne.n	c18 <AppAdvSetData+0x58>
      (APP_LOC_2_MODE(location) == appSlaveCb.discMode))
  {    
    DmAdvSetData(APP_LOC_2_DM_LOC(location), len, pData);
     c02:	79fb      	ldrb	r3, [r7, #7]
     c04:	f003 0301 	and.w	r3, r3, #1
     c08:	b2da      	uxtb	r2, r3
     c0a:	79bb      	ldrb	r3, [r7, #6]
     c0c:	4610      	mov	r0, r2
     c0e:	4619      	mov	r1, r3
     c10:	683a      	ldr	r2, [r7, #0]
     c12:	f007 f951 	bl	7eb8 <DmAdvSetData>
     c16:	e003      	b.n	c20 <AppAdvSetData+0x60>
  }
  /* Otherwise set it when advertising is started or mode changes */
  else
  {
    appSlaveCb.advDataSynced = FALSE;
     c18:	4b03      	ldr	r3, [pc, #12]	; (c28 <AppAdvSetData+0x68>)
     c1a:	2200      	movs	r2, #0
     c1c:	f883 2025 	strb.w	r2, [r3, #37]	; 0x25
  }
}
     c20:	3708      	adds	r7, #8
     c22:	46bd      	mov	sp, r7
     c24:	bd80      	pop	{r7, pc}
     c26:	bf00      	nop
     c28:	10000320 	.word	0x10000320

00000c2c <AppAdvStart>:
 *
 *  \return None.
 */
/*************************************************************************************************/
void AppAdvStart(uint8_t mode)
{
     c2c:	b580      	push	{r7, lr}
     c2e:	b084      	sub	sp, #16
     c30:	af00      	add	r7, sp, #0
     c32:	4603      	mov	r3, r0
     c34:	71fb      	strb	r3, [r7, #7]
  uint8_t prevMode = appSlaveCb.discMode;
     c36:	4b19      	ldr	r3, [pc, #100]	; (c9c <AppAdvStart+0x70>)
     c38:	f893 3029 	ldrb.w	r3, [r3, #41]	; 0x29
     c3c:	73fb      	strb	r3, [r7, #15]
  
  /* initialize advertising state */
  appSlaveCb.advState = APP_ADV_STATE1;
     c3e:	4b17      	ldr	r3, [pc, #92]	; (c9c <AppAdvStart+0x70>)
     c40:	2200      	movs	r2, #0
     c42:	f883 2026 	strb.w	r2, [r3, #38]	; 0x26

  /* handle auto init mode */
  if (mode == APP_MODE_AUTO_INIT)
     c46:	79fb      	ldrb	r3, [r7, #7]
     c48:	2b02      	cmp	r3, #2
     c4a:	d114      	bne.n	c76 <AppAdvStart+0x4a>
  {
    if (AppDbCheckBonded() == FALSE)
     c4c:	f000 f8b4 	bl	db8 <AppDbCheckBonded>
     c50:	4603      	mov	r3, r0
     c52:	2b00      	cmp	r3, #0
     c54:	d107      	bne.n	c66 <AppAdvStart+0x3a>
    {
      AppSetBondable(TRUE);    
     c56:	2001      	movs	r0, #1
     c58:	f000 f822 	bl	ca0 <AppSetBondable>
      appSlaveCb.discMode = APP_MODE_DISCOVERABLE;
     c5c:	4b0f      	ldr	r3, [pc, #60]	; (c9c <AppAdvStart+0x70>)
     c5e:	2201      	movs	r2, #1
     c60:	f883 2029 	strb.w	r2, [r3, #41]	; 0x29
     c64:	e00b      	b.n	c7e <AppAdvStart+0x52>
    }
    else
    {
      AppSetBondable(FALSE);    
     c66:	2000      	movs	r0, #0
     c68:	f000 f81a 	bl	ca0 <AppSetBondable>
      appSlaveCb.discMode = APP_MODE_CONNECTABLE;
     c6c:	4b0b      	ldr	r3, [pc, #44]	; (c9c <AppAdvStart+0x70>)
     c6e:	2200      	movs	r2, #0
     c70:	f883 2029 	strb.w	r2, [r3, #41]	; 0x29
     c74:	e003      	b.n	c7e <AppAdvStart+0x52>
      /* init white list with bonded device addresses */
    }    
  }
  else
  {  
    appSlaveCb.discMode = mode;
     c76:	4b09      	ldr	r3, [pc, #36]	; (c9c <AppAdvStart+0x70>)
     c78:	79fa      	ldrb	r2, [r7, #7]
     c7a:	f883 2029 	strb.w	r2, [r3, #41]	; 0x29
  }

  /* if mode changed force update of advertising data */
  if (prevMode != appSlaveCb.discMode)
     c7e:	4b07      	ldr	r3, [pc, #28]	; (c9c <AppAdvStart+0x70>)
     c80:	f893 3029 	ldrb.w	r3, [r3, #41]	; 0x29
     c84:	7bfa      	ldrb	r2, [r7, #15]
     c86:	429a      	cmp	r2, r3
     c88:	d003      	beq.n	c92 <AppAdvStart+0x66>
  {
    appSlaveCb.advDataSynced = FALSE;
     c8a:	4b04      	ldr	r3, [pc, #16]	; (c9c <AppAdvStart+0x70>)
     c8c:	2200      	movs	r2, #0
     c8e:	f883 2025 	strb.w	r2, [r3, #37]	; 0x25
  }
  
  /* start advertising */
  appSlaveAdvStart();              
     c92:	f7ff fbab 	bl	3ec <appSlaveAdvStart>
}
     c96:	3710      	adds	r7, #16
     c98:	46bd      	mov	sp, r7
     c9a:	bd80      	pop	{r7, pc}
     c9c:	10000320 	.word	0x10000320

00000ca0 <AppSetBondable>:
 *
 *  \return None.
 */
/*************************************************************************************************/
void AppSetBondable(bool_t bondable)
{
     ca0:	b480      	push	{r7}
     ca2:	b083      	sub	sp, #12
     ca4:	af00      	add	r7, sp, #0
     ca6:	4603      	mov	r3, r0
     ca8:	71fb      	strb	r3, [r7, #7]
  appSlaveCb.bondable = bondable;
     caa:	4b04      	ldr	r3, [pc, #16]	; (cbc <AppSetBondable+0x1c>)
     cac:	79fa      	ldrb	r2, [r7, #7]
     cae:	f883 2024 	strb.w	r2, [r3, #36]	; 0x24
}
     cb2:	370c      	adds	r7, #12
     cb4:	46bd      	mov	sp, r7
     cb6:	f85d 7b04 	ldr.w	r7, [sp], #4
     cba:	4770      	bx	lr
     cbc:	10000320 	.word	0x10000320

00000cc0 <AppDbInit>:
 *
 *  \return None.
 */
/*************************************************************************************************/
void AppDbInit(void)
{
     cc0:	b480      	push	{r7}
     cc2:	af00      	add	r7, sp, #0
  return;
     cc4:	bf00      	nop
}
     cc6:	46bd      	mov	sp, r7
     cc8:	f85d 7b04 	ldr.w	r7, [sp], #4
     ccc:	4770      	bx	lr
     cce:	bf00      	nop

00000cd0 <AppDbNewRecord>:
 *
 *  \return Database record handle.
 */
/*************************************************************************************************/
appDbHdl_t AppDbNewRecord(uint8_t addrType, uint8_t *pAddr)
{
     cd0:	b580      	push	{r7, lr}
     cd2:	b084      	sub	sp, #16
     cd4:	af00      	add	r7, sp, #0
     cd6:	4603      	mov	r3, r0
     cd8:	6039      	str	r1, [r7, #0]
     cda:	71fb      	strb	r3, [r7, #7]
  appDbRec_t  *pRec = appDb.rec;
     cdc:	4b1d      	ldr	r3, [pc, #116]	; (d54 <AppDbNewRecord+0x84>)
     cde:	60fb      	str	r3, [r7, #12]
  uint8_t     i;
  
  /* find a free record */
  for (i = APP_DB_NUM_RECS; i > 0; i--, pRec++)
     ce0:	2303      	movs	r3, #3
     ce2:	72fb      	strb	r3, [r7, #11]
     ce4:	e00a      	b.n	cfc <AppDbNewRecord+0x2c>
  {
    if (!pRec->inUse)
     ce6:	68fb      	ldr	r3, [r7, #12]
     ce8:	7a1b      	ldrb	r3, [r3, #8]
     cea:	2b00      	cmp	r3, #0
     cec:	d100      	bne.n	cf0 <AppDbNewRecord+0x20>
    {
      break;
     cee:	e008      	b.n	d02 <AppDbNewRecord+0x32>
{
  appDbRec_t  *pRec = appDb.rec;
  uint8_t     i;
  
  /* find a free record */
  for (i = APP_DB_NUM_RECS; i > 0; i--, pRec++)
     cf0:	7afb      	ldrb	r3, [r7, #11]
     cf2:	3b01      	subs	r3, #1
     cf4:	72fb      	strb	r3, [r7, #11]
     cf6:	68fb      	ldr	r3, [r7, #12]
     cf8:	3380      	adds	r3, #128	; 0x80
     cfa:	60fb      	str	r3, [r7, #12]
     cfc:	7afb      	ldrb	r3, [r7, #11]
     cfe:	2b00      	cmp	r3, #0
     d00:	d1f1      	bne.n	ce6 <AppDbNewRecord+0x16>
      break;
    }
  }
  
  /* if all records were allocated */
  if (i == 0)
     d02:	7afb      	ldrb	r3, [r7, #11]
     d04:	2b00      	cmp	r3, #0
     d06:	d110      	bne.n	d2a <AppDbNewRecord+0x5a>
  {
    /* overwrite a record */
    pRec = pAppDbNewRec;
     d08:	4b13      	ldr	r3, [pc, #76]	; (d58 <AppDbNewRecord+0x88>)
     d0a:	681b      	ldr	r3, [r3, #0]
     d0c:	60fb      	str	r3, [r7, #12]
    
    /* get next record to overwrite */
    pAppDbNewRec++;
     d0e:	4b12      	ldr	r3, [pc, #72]	; (d58 <AppDbNewRecord+0x88>)
     d10:	681b      	ldr	r3, [r3, #0]
     d12:	f103 0280 	add.w	r2, r3, #128	; 0x80
     d16:	4b10      	ldr	r3, [pc, #64]	; (d58 <AppDbNewRecord+0x88>)
     d18:	601a      	str	r2, [r3, #0]
    if (pAppDbNewRec == &appDb.rec[APP_DB_NUM_RECS])
     d1a:	4b0f      	ldr	r3, [pc, #60]	; (d58 <AppDbNewRecord+0x88>)
     d1c:	681a      	ldr	r2, [r3, #0]
     d1e:	4b0f      	ldr	r3, [pc, #60]	; (d5c <AppDbNewRecord+0x8c>)
     d20:	429a      	cmp	r2, r3
     d22:	d102      	bne.n	d2a <AppDbNewRecord+0x5a>
    {
      pAppDbNewRec = appDb.rec;
     d24:	4b0c      	ldr	r3, [pc, #48]	; (d58 <AppDbNewRecord+0x88>)
     d26:	4a0b      	ldr	r2, [pc, #44]	; (d54 <AppDbNewRecord+0x84>)
     d28:	601a      	str	r2, [r3, #0]
    }
  }
  
  /* initialize record */
  memset(pRec, 0, sizeof(appDbRec_t));
     d2a:	68f8      	ldr	r0, [r7, #12]
     d2c:	2100      	movs	r1, #0
     d2e:	2280      	movs	r2, #128	; 0x80
     d30:	f009 f8a0 	bl	9e74 <memset>
  pRec->inUse = TRUE;
     d34:	68fb      	ldr	r3, [r7, #12]
     d36:	2201      	movs	r2, #1
     d38:	721a      	strb	r2, [r3, #8]
  pRec->addrType = addrType;
     d3a:	68fb      	ldr	r3, [r7, #12]
     d3c:	79fa      	ldrb	r2, [r7, #7]
     d3e:	719a      	strb	r2, [r3, #6]
  BdaCpy(pRec->peerAddr, pAddr);
     d40:	68fb      	ldr	r3, [r7, #12]
     d42:	4618      	mov	r0, r3
     d44:	6839      	ldr	r1, [r7, #0]
     d46:	f003 fc2d 	bl	45a4 <BdaCpy>
  
  return (appDbHdl_t) pRec;
     d4a:	68fb      	ldr	r3, [r7, #12]
}
     d4c:	4618      	mov	r0, r3
     d4e:	3710      	adds	r7, #16
     d50:	46bd      	mov	sp, r7
     d52:	bd80      	pop	{r7, pc}
     d54:	1000034c 	.word	0x1000034c
     d58:	10000200 	.word	0x10000200
     d5c:	100004cc 	.word	0x100004cc

00000d60 <AppDbDeleteRecord>:
 *
 *  \return None.
 */
/*************************************************************************************************/
void AppDbDeleteRecord(appDbHdl_t hdl)
{
     d60:	b480      	push	{r7}
     d62:	b083      	sub	sp, #12
     d64:	af00      	add	r7, sp, #0
     d66:	6078      	str	r0, [r7, #4]
  ((appDbRec_t *) hdl)->inUse = FALSE;
     d68:	687b      	ldr	r3, [r7, #4]
     d6a:	2200      	movs	r2, #0
     d6c:	721a      	strb	r2, [r3, #8]
}
     d6e:	370c      	adds	r7, #12
     d70:	46bd      	mov	sp, r7
     d72:	f85d 7b04 	ldr.w	r7, [sp], #4
     d76:	4770      	bx	lr

00000d78 <AppDbValidateRecord>:
 *
 *  \return None.
 */
/*************************************************************************************************/
void AppDbValidateRecord(appDbHdl_t hdl, uint8_t keyMask)
{
     d78:	b480      	push	{r7}
     d7a:	b083      	sub	sp, #12
     d7c:	af00      	add	r7, sp, #0
     d7e:	6078      	str	r0, [r7, #4]
     d80:	460b      	mov	r3, r1
     d82:	70fb      	strb	r3, [r7, #3]
  ((appDbRec_t *) hdl)->valid = TRUE;
     d84:	687b      	ldr	r3, [r7, #4]
     d86:	2201      	movs	r2, #1
     d88:	725a      	strb	r2, [r3, #9]
  ((appDbRec_t *) hdl)->keyValidMask = keyMask;
     d8a:	687b      	ldr	r3, [r7, #4]
     d8c:	78fa      	ldrb	r2, [r7, #3]
     d8e:	71da      	strb	r2, [r3, #7]
}
     d90:	370c      	adds	r7, #12
     d92:	46bd      	mov	sp, r7
     d94:	f85d 7b04 	ldr.w	r7, [sp], #4
     d98:	4770      	bx	lr
     d9a:	bf00      	nop

00000d9c <AppDbCheckValidRecord>:
 *
 *  \return None.
 */
/*************************************************************************************************/
void AppDbCheckValidRecord(appDbHdl_t hdl)
{
     d9c:	b580      	push	{r7, lr}
     d9e:	b082      	sub	sp, #8
     da0:	af00      	add	r7, sp, #0
     da2:	6078      	str	r0, [r7, #4]
  if (((appDbRec_t *) hdl)->valid == FALSE)
     da4:	687b      	ldr	r3, [r7, #4]
     da6:	7a5b      	ldrb	r3, [r3, #9]
     da8:	2b00      	cmp	r3, #0
     daa:	d102      	bne.n	db2 <AppDbCheckValidRecord+0x16>
  {
    AppDbDeleteRecord(hdl);
     dac:	6878      	ldr	r0, [r7, #4]
     dae:	f7ff ffd7 	bl	d60 <AppDbDeleteRecord>
  }
}
     db2:	3708      	adds	r7, #8
     db4:	46bd      	mov	sp, r7
     db6:	bd80      	pop	{r7, pc}

00000db8 <AppDbCheckBonded>:
 *
 *  \return TRUE if a bonded device is found, FALSE otherwise.
 */
/*************************************************************************************************/
bool_t AppDbCheckBonded(void)
{
     db8:	b480      	push	{r7}
     dba:	b083      	sub	sp, #12
     dbc:	af00      	add	r7, sp, #0
  appDbRec_t  *pRec = appDb.rec;
     dbe:	4b0d      	ldr	r3, [pc, #52]	; (df4 <AppDbCheckBonded+0x3c>)
     dc0:	607b      	str	r3, [r7, #4]
  uint8_t     i;
  
  /* find a record */
  for (i = APP_DB_NUM_RECS; i > 0; i--, pRec++)
     dc2:	2303      	movs	r3, #3
     dc4:	70fb      	strb	r3, [r7, #3]
     dc6:	e00b      	b.n	de0 <AppDbCheckBonded+0x28>
  {
    if (pRec->inUse)
     dc8:	687b      	ldr	r3, [r7, #4]
     dca:	7a1b      	ldrb	r3, [r3, #8]
     dcc:	2b00      	cmp	r3, #0
     dce:	d001      	beq.n	dd4 <AppDbCheckBonded+0x1c>
    {
      return TRUE;
     dd0:	2301      	movs	r3, #1
     dd2:	e009      	b.n	de8 <AppDbCheckBonded+0x30>
{
  appDbRec_t  *pRec = appDb.rec;
  uint8_t     i;
  
  /* find a record */
  for (i = APP_DB_NUM_RECS; i > 0; i--, pRec++)
     dd4:	78fb      	ldrb	r3, [r7, #3]
     dd6:	3b01      	subs	r3, #1
     dd8:	70fb      	strb	r3, [r7, #3]
     dda:	687b      	ldr	r3, [r7, #4]
     ddc:	3380      	adds	r3, #128	; 0x80
     dde:	607b      	str	r3, [r7, #4]
     de0:	78fb      	ldrb	r3, [r7, #3]
     de2:	2b00      	cmp	r3, #0
     de4:	d1f0      	bne.n	dc8 <AppDbCheckBonded+0x10>
    {
      return TRUE;
    }
  }
  
  return FALSE;
     de6:	2300      	movs	r3, #0
}
     de8:	4618      	mov	r0, r3
     dea:	370c      	adds	r7, #12
     dec:	46bd      	mov	sp, r7
     dee:	f85d 7b04 	ldr.w	r7, [sp], #4
     df2:	4770      	bx	lr
     df4:	1000034c 	.word	0x1000034c

00000df8 <AppDbDeleteAllRecords>:
 *
 *  \return None.
 */
/*************************************************************************************************/
void AppDbDeleteAllRecords(void)
{
     df8:	b480      	push	{r7}
     dfa:	b083      	sub	sp, #12
     dfc:	af00      	add	r7, sp, #0
  appDbRec_t  *pRec = appDb.rec;
     dfe:	4b0b      	ldr	r3, [pc, #44]	; (e2c <AppDbDeleteAllRecords+0x34>)
     e00:	607b      	str	r3, [r7, #4]
  uint8_t     i;

  /* set in use to false for all records */
  for (i = APP_DB_NUM_RECS; i > 0; i--, pRec++)
     e02:	2303      	movs	r3, #3
     e04:	70fb      	strb	r3, [r7, #3]
     e06:	e008      	b.n	e1a <AppDbDeleteAllRecords+0x22>
  {
    pRec->inUse = FALSE;
     e08:	687b      	ldr	r3, [r7, #4]
     e0a:	2200      	movs	r2, #0
     e0c:	721a      	strb	r2, [r3, #8]
{
  appDbRec_t  *pRec = appDb.rec;
  uint8_t     i;

  /* set in use to false for all records */
  for (i = APP_DB_NUM_RECS; i > 0; i--, pRec++)
     e0e:	78fb      	ldrb	r3, [r7, #3]
     e10:	3b01      	subs	r3, #1
     e12:	70fb      	strb	r3, [r7, #3]
     e14:	687b      	ldr	r3, [r7, #4]
     e16:	3380      	adds	r3, #128	; 0x80
     e18:	607b      	str	r3, [r7, #4]
     e1a:	78fb      	ldrb	r3, [r7, #3]
     e1c:	2b00      	cmp	r3, #0
     e1e:	d1f3      	bne.n	e08 <AppDbDeleteAllRecords+0x10>
  {
    pRec->inUse = FALSE;
  }  
}
     e20:	370c      	adds	r7, #12
     e22:	46bd      	mov	sp, r7
     e24:	f85d 7b04 	ldr.w	r7, [sp], #4
     e28:	4770      	bx	lr
     e2a:	bf00      	nop
     e2c:	1000034c 	.word	0x1000034c

00000e30 <AppDbFindByAddr>:
 *
 *  \return Database record handle or APP_DB_HDL_NONE if not found.
 */
/*************************************************************************************************/
appDbHdl_t AppDbFindByAddr(uint8_t addrType, uint8_t *pAddr)
{
     e30:	b580      	push	{r7, lr}
     e32:	b084      	sub	sp, #16
     e34:	af00      	add	r7, sp, #0
     e36:	4603      	mov	r3, r0
     e38:	6039      	str	r1, [r7, #0]
     e3a:	71fb      	strb	r3, [r7, #7]
  appDbRec_t  *pRec = appDb.rec;
     e3c:	4b12      	ldr	r3, [pc, #72]	; (e88 <AppDbFindByAddr+0x58>)
     e3e:	60fb      	str	r3, [r7, #12]
  uint8_t     i;
  
  /* find matching record */
  for (i = APP_DB_NUM_RECS; i > 0; i--, pRec++)
     e40:	2303      	movs	r3, #3
     e42:	72fb      	strb	r3, [r7, #11]
     e44:	e018      	b.n	e78 <AppDbFindByAddr+0x48>
  {
    if (pRec->inUse && (pRec->addrType == addrType) && BdaCmp(pRec->peerAddr, pAddr))
     e46:	68fb      	ldr	r3, [r7, #12]
     e48:	7a1b      	ldrb	r3, [r3, #8]
     e4a:	2b00      	cmp	r3, #0
     e4c:	d00e      	beq.n	e6c <AppDbFindByAddr+0x3c>
     e4e:	68fb      	ldr	r3, [r7, #12]
     e50:	799b      	ldrb	r3, [r3, #6]
     e52:	79fa      	ldrb	r2, [r7, #7]
     e54:	429a      	cmp	r2, r3
     e56:	d109      	bne.n	e6c <AppDbFindByAddr+0x3c>
     e58:	68fb      	ldr	r3, [r7, #12]
     e5a:	4618      	mov	r0, r3
     e5c:	6839      	ldr	r1, [r7, #0]
     e5e:	f003 fbaf 	bl	45c0 <BdaCmp>
     e62:	4603      	mov	r3, r0
     e64:	2b00      	cmp	r3, #0
     e66:	d001      	beq.n	e6c <AppDbFindByAddr+0x3c>
    {
      return (appDbHdl_t) pRec;
     e68:	68fb      	ldr	r3, [r7, #12]
     e6a:	e009      	b.n	e80 <AppDbFindByAddr+0x50>
{
  appDbRec_t  *pRec = appDb.rec;
  uint8_t     i;
  
  /* find matching record */
  for (i = APP_DB_NUM_RECS; i > 0; i--, pRec++)
     e6c:	7afb      	ldrb	r3, [r7, #11]
     e6e:	3b01      	subs	r3, #1
     e70:	72fb      	strb	r3, [r7, #11]
     e72:	68fb      	ldr	r3, [r7, #12]
     e74:	3380      	adds	r3, #128	; 0x80
     e76:	60fb      	str	r3, [r7, #12]
     e78:	7afb      	ldrb	r3, [r7, #11]
     e7a:	2b00      	cmp	r3, #0
     e7c:	d1e3      	bne.n	e46 <AppDbFindByAddr+0x16>
    {
      return (appDbHdl_t) pRec;
    }
  }
  
  return APP_DB_HDL_NONE;
     e7e:	2300      	movs	r3, #0
}
     e80:	4618      	mov	r0, r3
     e82:	3710      	adds	r7, #16
     e84:	46bd      	mov	sp, r7
     e86:	bd80      	pop	{r7, pc}
     e88:	1000034c 	.word	0x1000034c

00000e8c <AppDbFindByLtkReq>:
 *
 *  \return Database record handle or APP_DB_HDL_NONE if not found.
 */
/*************************************************************************************************/
appDbHdl_t AppDbFindByLtkReq(uint16_t encDiversifier, uint8_t *pRandNum)
{
     e8c:	b580      	push	{r7, lr}
     e8e:	b084      	sub	sp, #16
     e90:	af00      	add	r7, sp, #0
     e92:	4603      	mov	r3, r0
     e94:	6039      	str	r1, [r7, #0]
     e96:	80fb      	strh	r3, [r7, #6]
  appDbRec_t  *pRec = appDb.rec;
     e98:	4b13      	ldr	r3, [pc, #76]	; (ee8 <AppDbFindByLtkReq+0x5c>)
     e9a:	60fb      	str	r3, [r7, #12]
  uint8_t     i;
  
  /* find matching record */
  for (i = APP_DB_NUM_RECS; i > 0; i--, pRec++)
     e9c:	2303      	movs	r3, #3
     e9e:	72fb      	strb	r3, [r7, #11]
     ea0:	e01a      	b.n	ed8 <AppDbFindByLtkReq+0x4c>
  {
    if (pRec->inUse && (pRec->localLtk.ediv == encDiversifier) &&
     ea2:	68fb      	ldr	r3, [r7, #12]
     ea4:	7a1b      	ldrb	r3, [r3, #8]
     ea6:	2b00      	cmp	r3, #0
     ea8:	d010      	beq.n	ecc <AppDbFindByLtkReq+0x40>
     eaa:	68fb      	ldr	r3, [r7, #12]
     eac:	8c5b      	ldrh	r3, [r3, #34]	; 0x22
     eae:	88fa      	ldrh	r2, [r7, #6]
     eb0:	429a      	cmp	r2, r3
     eb2:	d10b      	bne.n	ecc <AppDbFindByLtkReq+0x40>
        (memcmp(pRec->localLtk.rand, pRandNum, SMP_RAND8_LEN) == 0))
     eb4:	68fb      	ldr	r3, [r7, #12]
     eb6:	331a      	adds	r3, #26
     eb8:	4618      	mov	r0, r3
     eba:	6839      	ldr	r1, [r7, #0]
     ebc:	2208      	movs	r2, #8
     ebe:	f008 feab 	bl	9c18 <memcmp>
     ec2:	4603      	mov	r3, r0
  uint8_t     i;
  
  /* find matching record */
  for (i = APP_DB_NUM_RECS; i > 0; i--, pRec++)
  {
    if (pRec->inUse && (pRec->localLtk.ediv == encDiversifier) &&
     ec4:	2b00      	cmp	r3, #0
     ec6:	d101      	bne.n	ecc <AppDbFindByLtkReq+0x40>
        (memcmp(pRec->localLtk.rand, pRandNum, SMP_RAND8_LEN) == 0))
    {
      return (appDbHdl_t) pRec;
     ec8:	68fb      	ldr	r3, [r7, #12]
     eca:	e009      	b.n	ee0 <AppDbFindByLtkReq+0x54>
{
  appDbRec_t  *pRec = appDb.rec;
  uint8_t     i;
  
  /* find matching record */
  for (i = APP_DB_NUM_RECS; i > 0; i--, pRec++)
     ecc:	7afb      	ldrb	r3, [r7, #11]
     ece:	3b01      	subs	r3, #1
     ed0:	72fb      	strb	r3, [r7, #11]
     ed2:	68fb      	ldr	r3, [r7, #12]
     ed4:	3380      	adds	r3, #128	; 0x80
     ed6:	60fb      	str	r3, [r7, #12]
     ed8:	7afb      	ldrb	r3, [r7, #11]
     eda:	2b00      	cmp	r3, #0
     edc:	d1e1      	bne.n	ea2 <AppDbFindByLtkReq+0x16>
    {
      return (appDbHdl_t) pRec;
    }
  }
  
  return APP_DB_HDL_NONE;
     ede:	2300      	movs	r3, #0
}
     ee0:	4618      	mov	r0, r3
     ee2:	3710      	adds	r7, #16
     ee4:	46bd      	mov	sp, r7
     ee6:	bd80      	pop	{r7, pc}
     ee8:	1000034c 	.word	0x1000034c

00000eec <AppDbGetKey>:
 *
 *  \return Pointer to key if key is valid or NULL if not valid.
 */
/*************************************************************************************************/
dmSecKey_t *AppDbGetKey(appDbHdl_t hdl, uint8_t type, uint8_t *pSecLevel)
{
     eec:	b480      	push	{r7}
     eee:	b087      	sub	sp, #28
     ef0:	af00      	add	r7, sp, #0
     ef2:	60f8      	str	r0, [r7, #12]
     ef4:	460b      	mov	r3, r1
     ef6:	607a      	str	r2, [r7, #4]
     ef8:	72fb      	strb	r3, [r7, #11]
  dmSecKey_t *pKey = NULL;
     efa:	2300      	movs	r3, #0
     efc:	617b      	str	r3, [r7, #20]
  
  /* if key valid */
  if ((type & ((appDbRec_t *) hdl)->keyValidMask) != 0)
     efe:	68fb      	ldr	r3, [r7, #12]
     f00:	79da      	ldrb	r2, [r3, #7]
     f02:	7afb      	ldrb	r3, [r7, #11]
     f04:	4013      	ands	r3, r2
     f06:	b2db      	uxtb	r3, r3
     f08:	2b00      	cmp	r3, #0
     f0a:	d02a      	beq.n	f62 <AppDbGetKey+0x76>
  {
    switch(type)
     f0c:	7afb      	ldrb	r3, [r7, #11]
     f0e:	3b01      	subs	r3, #1
     f10:	2b07      	cmp	r3, #7
     f12:	d825      	bhi.n	f60 <AppDbGetKey+0x74>
     f14:	a201      	add	r2, pc, #4	; (adr r2, f1c <AppDbGetKey+0x30>)
     f16:	f852 f023 	ldr.w	pc, [r2, r3, lsl #2]
     f1a:	bf00      	nop
     f1c:	00000f3d 	.word	0x00000f3d
     f20:	00000f4f 	.word	0x00000f4f
     f24:	00000f61 	.word	0x00000f61
     f28:	00000f61 	.word	0x00000f61
     f2c:	00000f61 	.word	0x00000f61
     f30:	00000f61 	.word	0x00000f61
     f34:	00000f61 	.word	0x00000f61
     f38:	00000f61 	.word	0x00000f61
    {
      case DM_KEY_LOCAL_LTK:
        *pSecLevel = ((appDbRec_t *) hdl)->localLtkSecLevel;
     f3c:	68fb      	ldr	r3, [r7, #12]
     f3e:	f893 2024 	ldrb.w	r2, [r3, #36]	; 0x24
     f42:	687b      	ldr	r3, [r7, #4]
     f44:	701a      	strb	r2, [r3, #0]
        pKey = (dmSecKey_t *) &((appDbRec_t *) hdl)->localLtk;
     f46:	68fb      	ldr	r3, [r7, #12]
     f48:	330a      	adds	r3, #10
     f4a:	617b      	str	r3, [r7, #20]
        break;
     f4c:	e009      	b.n	f62 <AppDbGetKey+0x76>

      case DM_KEY_PEER_LTK:
        *pSecLevel = ((appDbRec_t *) hdl)->peerLtkSecLevel;
     f4e:	68fb      	ldr	r3, [r7, #12]
     f50:	f893 2040 	ldrb.w	r2, [r3, #64]	; 0x40
     f54:	687b      	ldr	r3, [r7, #4]
     f56:	701a      	strb	r2, [r3, #0]
        pKey = (dmSecKey_t *) &((appDbRec_t *) hdl)->peerLtk;
     f58:	68fb      	ldr	r3, [r7, #12]
     f5a:	3326      	adds	r3, #38	; 0x26
     f5c:	617b      	str	r3, [r7, #20]
        break;
     f5e:	e000      	b.n	f62 <AppDbGetKey+0x76>

      case DM_KEY_CSRK:
        break;
        
      default:
        break;
     f60:	bf00      	nop
    }
  }
  
  return pKey;
     f62:	697b      	ldr	r3, [r7, #20]
}
     f64:	4618      	mov	r0, r3
     f66:	371c      	adds	r7, #28
     f68:	46bd      	mov	sp, r7
     f6a:	f85d 7b04 	ldr.w	r7, [sp], #4
     f6e:	4770      	bx	lr

00000f70 <AppDbSetKey>:
 *
 *  \return None.
 */
/*************************************************************************************************/
void AppDbSetKey(appDbHdl_t hdl, dmSecKeyIndEvt_t *pKey)
{
     f70:	b4b0      	push	{r4, r5, r7}
     f72:	b083      	sub	sp, #12
     f74:	af00      	add	r7, sp, #0
     f76:	6078      	str	r0, [r7, #4]
     f78:	6039      	str	r1, [r7, #0]
  switch(pKey->type)
     f7a:	683b      	ldr	r3, [r7, #0]
     f7c:	7f9b      	ldrb	r3, [r3, #30]
     f7e:	3b01      	subs	r3, #1
     f80:	2b07      	cmp	r3, #7
     f82:	d843      	bhi.n	100c <AppDbSetKey+0x9c>
     f84:	a201      	add	r2, pc, #4	; (adr r2, f8c <AppDbSetKey+0x1c>)
     f86:	f852 f023 	ldr.w	pc, [r2, r3, lsl #2]
     f8a:	bf00      	nop
     f8c:	00000fad 	.word	0x00000fad
     f90:	00000fdd 	.word	0x00000fdd
     f94:	0000100d 	.word	0x0000100d
     f98:	0000100d 	.word	0x0000100d
     f9c:	0000100d 	.word	0x0000100d
     fa0:	0000100d 	.word	0x0000100d
     fa4:	0000100d 	.word	0x0000100d
     fa8:	0000100d 	.word	0x0000100d
  {
    case DM_KEY_LOCAL_LTK:
      ((appDbRec_t *) hdl)->localLtkSecLevel = pKey->secLevel;
     fac:	683b      	ldr	r3, [r7, #0]
     fae:	7fda      	ldrb	r2, [r3, #31]
     fb0:	687b      	ldr	r3, [r7, #4]
     fb2:	f883 2024 	strb.w	r2, [r3, #36]	; 0x24
      ((appDbRec_t *) hdl)->localLtk = pKey->keyData.ltk;
     fb6:	687b      	ldr	r3, [r7, #4]
     fb8:	683a      	ldr	r2, [r7, #0]
     fba:	330a      	adds	r3, #10
     fbc:	3204      	adds	r2, #4
     fbe:	6810      	ldr	r0, [r2, #0]
     fc0:	6851      	ldr	r1, [r2, #4]
     fc2:	6895      	ldr	r5, [r2, #8]
     fc4:	68d4      	ldr	r4, [r2, #12]
     fc6:	6018      	str	r0, [r3, #0]
     fc8:	6059      	str	r1, [r3, #4]
     fca:	609d      	str	r5, [r3, #8]
     fcc:	60dc      	str	r4, [r3, #12]
     fce:	6910      	ldr	r0, [r2, #16]
     fd0:	6951      	ldr	r1, [r2, #20]
     fd2:	6118      	str	r0, [r3, #16]
     fd4:	6159      	str	r1, [r3, #20]
     fd6:	8b12      	ldrh	r2, [r2, #24]
     fd8:	831a      	strh	r2, [r3, #24]
      break;
     fda:	e018      	b.n	100e <AppDbSetKey+0x9e>

    case DM_KEY_PEER_LTK:
      ((appDbRec_t *) hdl)->peerLtkSecLevel = pKey->secLevel;
     fdc:	683b      	ldr	r3, [r7, #0]
     fde:	7fda      	ldrb	r2, [r3, #31]
     fe0:	687b      	ldr	r3, [r7, #4]
     fe2:	f883 2040 	strb.w	r2, [r3, #64]	; 0x40
      ((appDbRec_t *) hdl)->peerLtk = pKey->keyData.ltk;
     fe6:	687b      	ldr	r3, [r7, #4]
     fe8:	683a      	ldr	r2, [r7, #0]
     fea:	3326      	adds	r3, #38	; 0x26
     fec:	3204      	adds	r2, #4
     fee:	6810      	ldr	r0, [r2, #0]
     ff0:	6851      	ldr	r1, [r2, #4]
     ff2:	6895      	ldr	r5, [r2, #8]
     ff4:	68d4      	ldr	r4, [r2, #12]
     ff6:	6018      	str	r0, [r3, #0]
     ff8:	6059      	str	r1, [r3, #4]
     ffa:	609d      	str	r5, [r3, #8]
     ffc:	60dc      	str	r4, [r3, #12]
     ffe:	6910      	ldr	r0, [r2, #16]
    1000:	6951      	ldr	r1, [r2, #20]
    1002:	6118      	str	r0, [r3, #16]
    1004:	6159      	str	r1, [r3, #20]
    1006:	8b12      	ldrh	r2, [r2, #24]
    1008:	831a      	strh	r2, [r3, #24]
      break;
    100a:	e000      	b.n	100e <AppDbSetKey+0x9e>

    case DM_KEY_CSRK:
      break;
      
    default:
      break;
    100c:	bf00      	nop
  }
}
    100e:	370c      	adds	r7, #12
    1010:	46bd      	mov	sp, r7
    1012:	bcb0      	pop	{r4, r5, r7}
    1014:	4770      	bx	lr
    1016:	bf00      	nop

00001018 <AppDbGetCccTbl>:
 *
 *  \return Pointer to client characteristic configuration descriptor table.
 */
/*************************************************************************************************/
uint16_t *AppDbGetCccTbl(appDbHdl_t hdl)
{
    1018:	b480      	push	{r7}
    101a:	b083      	sub	sp, #12
    101c:	af00      	add	r7, sp, #0
    101e:	6078      	str	r0, [r7, #4]
  return ((appDbRec_t *) hdl)->cccTbl;
    1020:	687b      	ldr	r3, [r7, #4]
    1022:	3342      	adds	r3, #66	; 0x42
}
    1024:	4618      	mov	r0, r3
    1026:	370c      	adds	r7, #12
    1028:	46bd      	mov	sp, r7
    102a:	f85d 7b04 	ldr.w	r7, [sp], #4
    102e:	4770      	bx	lr

00001030 <AppDbSetCccTblValue>:
 *
 *  \return None.
 */
/*************************************************************************************************/
void AppDbSetCccTblValue(appDbHdl_t hdl, uint16_t idx, uint16_t value)
{
    1030:	b480      	push	{r7}
    1032:	b083      	sub	sp, #12
    1034:	af00      	add	r7, sp, #0
    1036:	6078      	str	r0, [r7, #4]
    1038:	4613      	mov	r3, r2
    103a:	460a      	mov	r2, r1
    103c:	807a      	strh	r2, [r7, #2]
    103e:	803b      	strh	r3, [r7, #0]
  WSF_ASSERT(idx < APP_DB_NUM_CCCD);
  
  ((appDbRec_t *) hdl)->cccTbl[idx] = value;
    1040:	887b      	ldrh	r3, [r7, #2]
    1042:	687a      	ldr	r2, [r7, #4]
    1044:	3320      	adds	r3, #32
    1046:	005b      	lsls	r3, r3, #1
    1048:	4413      	add	r3, r2
    104a:	883a      	ldrh	r2, [r7, #0]
    104c:	805a      	strh	r2, [r3, #2]
}
    104e:	370c      	adds	r7, #12
    1050:	46bd      	mov	sp, r7
    1052:	f85d 7b04 	ldr.w	r7, [sp], #4
    1056:	4770      	bx	lr

00001058 <AppHwBattRead>:
 *
 *  \return None.
 */
/*************************************************************************************************/
void AppHwBattRead(uint8_t *pLevel)
{
    1058:	b480      	push	{r7}
    105a:	b083      	sub	sp, #12
    105c:	af00      	add	r7, sp, #0
    105e:	6078      	str	r0, [r7, #4]
 *pLevel = appHwBattLevel;
    1060:	4b04      	ldr	r3, [pc, #16]	; (1074 <AppHwBattRead+0x1c>)
    1062:	781a      	ldrb	r2, [r3, #0]
    1064:	687b      	ldr	r3, [r7, #4]
    1066:	701a      	strb	r2, [r3, #0]
}
    1068:	370c      	adds	r7, #12
    106a:	46bd      	mov	sp, r7
    106c:	f85d 7b04 	ldr.w	r7, [sp], #4
    1070:	4770      	bx	lr
    1072:	bf00      	nop
    1074:	10000204 	.word	0x10000204

00001078 <AppHwHrmRead>:
 *
 *  \return None.
 */
/*************************************************************************************************/
void AppHwHrmRead(appHrm_t *pHrm)
{
    1078:	b480      	push	{r7}
    107a:	b083      	sub	sp, #12
    107c:	af00      	add	r7, sp, #0
    107e:	6078      	str	r0, [r7, #4]
  pHrm->heartRate = appHwHeartRate;
    1080:	4b10      	ldr	r3, [pc, #64]	; (10c4 <AppHwHrmRead+0x4c>)
    1082:	781a      	ldrb	r2, [r3, #0]
    1084:	687b      	ldr	r3, [r7, #4]
    1086:	721a      	strb	r2, [r3, #8]

  /* calculate simulated RR intervals from heart rate */
  appHwRrInterval[0] = APP_HR_MEAS_SIM_RR(appHwHeartRate);
    1088:	4b0e      	ldr	r3, [pc, #56]	; (10c4 <AppHwHrmRead+0x4c>)
    108a:	781b      	ldrb	r3, [r3, #0]
    108c:	f44f 4270 	mov.w	r2, #61440	; 0xf000
    1090:	fb92 f3f3 	sdiv	r3, r2, r3
    1094:	b29a      	uxth	r2, r3
    1096:	4b0c      	ldr	r3, [pc, #48]	; (10c8 <AppHwHrmRead+0x50>)
    1098:	801a      	strh	r2, [r3, #0]
  appHwRrInterval[1] = APP_HR_MEAS_SIM_RR(appHwHeartRate);
    109a:	4b0a      	ldr	r3, [pc, #40]	; (10c4 <AppHwHrmRead+0x4c>)
    109c:	781b      	ldrb	r3, [r3, #0]
    109e:	f44f 4270 	mov.w	r2, #61440	; 0xf000
    10a2:	fb92 f3f3 	sdiv	r3, r2, r3
    10a6:	b29a      	uxth	r2, r3
    10a8:	4b07      	ldr	r3, [pc, #28]	; (10c8 <AppHwHrmRead+0x50>)
    10aa:	805a      	strh	r2, [r3, #2]
  
  pHrm->pRrInterval = appHwRrInterval;
    10ac:	687b      	ldr	r3, [r7, #4]
    10ae:	4a06      	ldr	r2, [pc, #24]	; (10c8 <AppHwHrmRead+0x50>)
    10b0:	601a      	str	r2, [r3, #0]
  pHrm->numIntervals = 2;
    10b2:	687b      	ldr	r3, [r7, #4]
    10b4:	2202      	movs	r2, #2
    10b6:	711a      	strb	r2, [r3, #4]
}
    10b8:	370c      	adds	r7, #12
    10ba:	46bd      	mov	sp, r7
    10bc:	f85d 7b04 	ldr.w	r7, [sp], #4
    10c0:	4770      	bx	lr
    10c2:	bf00      	nop
    10c4:	10000205 	.word	0x10000205
    10c8:	100004e4 	.word	0x100004e4

000010cc <AppHwHrmTest>:
 *
 *  \return None.
 */
/*************************************************************************************************/
void AppHwHrmTest(uint8_t heartRate)
{
    10cc:	b480      	push	{r7}
    10ce:	b083      	sub	sp, #12
    10d0:	af00      	add	r7, sp, #0
    10d2:	4603      	mov	r3, r0
    10d4:	71fb      	strb	r3, [r7, #7]
  appHwHeartRate = heartRate;
    10d6:	4b04      	ldr	r3, [pc, #16]	; (10e8 <AppHwHrmTest+0x1c>)
    10d8:	79fa      	ldrb	r2, [r7, #7]
    10da:	701a      	strb	r2, [r3, #0]
}
    10dc:	370c      	adds	r7, #12
    10de:	46bd      	mov	sp, r7
    10e0:	f85d 7b04 	ldr.w	r7, [sp], #4
    10e4:	4770      	bx	lr
    10e6:	bf00      	nop
    10e8:	10000205 	.word	0x10000205

000010ec <AppUiAction>:
 *
 *  \return None.
 */
/*************************************************************************************************/
void AppUiAction(uint8_t event)
{
    10ec:	b480      	push	{r7}
    10ee:	b083      	sub	sp, #12
    10f0:	af00      	add	r7, sp, #0
    10f2:	4603      	mov	r3, r0
    10f4:	71fb      	strb	r3, [r7, #7]
  switch (event)
    10f6:	79fb      	ldrb	r3, [r7, #7]
    10f8:	2b11      	cmp	r3, #17
    10fa:	d827      	bhi.n	114c <AppUiAction+0x60>
    10fc:	a201      	add	r2, pc, #4	; (adr r2, 1104 <AppUiAction+0x18>)
    10fe:	f852 f023 	ldr.w	pc, [r2, r3, lsl #2]
    1102:	bf00      	nop
    1104:	0000114d 	.word	0x0000114d
    1108:	0000114d 	.word	0x0000114d
    110c:	0000114d 	.word	0x0000114d
    1110:	0000114d 	.word	0x0000114d
    1114:	0000114d 	.word	0x0000114d
    1118:	0000114d 	.word	0x0000114d
    111c:	0000114d 	.word	0x0000114d
    1120:	0000114d 	.word	0x0000114d
    1124:	0000114d 	.word	0x0000114d
    1128:	0000114d 	.word	0x0000114d
    112c:	0000114d 	.word	0x0000114d
    1130:	0000114d 	.word	0x0000114d
    1134:	0000114d 	.word	0x0000114d
    1138:	0000114d 	.word	0x0000114d
    113c:	0000114d 	.word	0x0000114d
    1140:	0000114d 	.word	0x0000114d
    1144:	0000114d 	.word	0x0000114d
    1148:	0000114d 	.word	0x0000114d

    case APP_UI_ALERT_HIGH:
      APP_TRACE_INFO0(">>> High alert <<<");
      break;
  }
}
    114c:	370c      	adds	r7, #12
    114e:	46bd      	mov	sp, r7
    1150:	f85d 7b04 	ldr.w	r7, [sp], #4
    1154:	4770      	bx	lr
    1156:	bf00      	nop

00001158 <AppUiDisplayPasskey>:
 *
 *  \return None.
 */
/*************************************************************************************************/
void AppUiDisplayPasskey(uint32_t passkey)
{
    1158:	b480      	push	{r7}
    115a:	b083      	sub	sp, #12
    115c:	af00      	add	r7, sp, #0
    115e:	6078      	str	r0, [r7, #4]
  APP_TRACE_INFO1(">>> Passkey: %d <<<", passkey);
}
    1160:	370c      	adds	r7, #12
    1162:	46bd      	mov	sp, r7
    1164:	f85d 7b04 	ldr.w	r7, [sp], #4
    1168:	4770      	bx	lr
    116a:	bf00      	nop

0000116c <appUiTimerExpired>:
 *
 *  \return None.
 */
/*************************************************************************************************/
void appUiTimerExpired(wsfMsgHdr_t *pMsg)
{
    116c:	b480      	push	{r7}
    116e:	b083      	sub	sp, #12
    1170:	af00      	add	r7, sp, #0
    1172:	6078      	str	r0, [r7, #4]

}
    1174:	370c      	adds	r7, #12
    1176:	46bd      	mov	sp, r7
    1178:	f85d 7b04 	ldr.w	r7, [sp], #4
    117c:	4770      	bx	lr
    117e:	bf00      	nop

00001180 <appUiBtnPoll>:
 *
 *  \return None.
 */
/*************************************************************************************************/
void appUiBtnPoll(void)
{
    1180:	b480      	push	{r7}
    1182:	af00      	add	r7, sp, #0

}
    1184:	46bd      	mov	sp, r7
    1186:	f85d 7b04 	ldr.w	r7, [sp], #4
    118a:	4770      	bx	lr

0000118c <AppUiBtnRegister>:
 *
 *  \return None.
 */
/*************************************************************************************************/
void AppUiBtnRegister(appUiBtnCback_t cback)
{
    118c:	b480      	push	{r7}
    118e:	b083      	sub	sp, #12
    1190:	af00      	add	r7, sp, #0
    1192:	6078      	str	r0, [r7, #4]
  appUiBtn.cback = cback;
    1194:	4b03      	ldr	r3, [pc, #12]	; (11a4 <AppUiBtnRegister+0x18>)
    1196:	687a      	ldr	r2, [r7, #4]
    1198:	601a      	str	r2, [r3, #0]
}
    119a:	370c      	adds	r7, #12
    119c:	46bd      	mov	sp, r7
    119e:	f85d 7b04 	ldr.w	r7, [sp], #4
    11a2:	4770      	bx	lr
    11a4:	100004e8 	.word	0x100004e8

000011a8 <AppUiBtnPressed>:
 *
 *  \return None.
 */
/*************************************************************************************************/
void AppUiBtnPressed(void)
{
    11a8:	b480      	push	{r7}
    11aa:	af00      	add	r7, sp, #0

}
    11ac:	46bd      	mov	sp, r7
    11ae:	f85d 7b04 	ldr.w	r7, [sp], #4
    11b2:	4770      	bx	lr

000011b4 <fitDmCback>:
 *
 *  \return None.
 */
/*************************************************************************************************/
static void fitDmCback(dmEvt_t *pDmEvt)
{
    11b4:	b580      	push	{r7, lr}
    11b6:	b084      	sub	sp, #16
    11b8:	af00      	add	r7, sp, #0
    11ba:	6078      	str	r0, [r7, #4]
  dmEvt_t *pMsg;

  if ((pMsg = WsfMsgAlloc(sizeof(dmEvt_t))) != NULL)
    11bc:	2064      	movs	r0, #100	; 0x64
    11be:	f003 fc7d 	bl	4abc <WsfMsgAlloc>
    11c2:	60f8      	str	r0, [r7, #12]
    11c4:	68fb      	ldr	r3, [r7, #12]
    11c6:	2b00      	cmp	r3, #0
    11c8:	d00a      	beq.n	11e0 <fitDmCback+0x2c>
  {
    memcpy(pMsg, pDmEvt, sizeof(dmEvt_t));
    11ca:	68f8      	ldr	r0, [r7, #12]
    11cc:	6879      	ldr	r1, [r7, #4]
    11ce:	2264      	movs	r2, #100	; 0x64
    11d0:	f008 fd56 	bl	9c80 <memcpy>
    WsfMsgSend(fitHandlerId, pMsg);
    11d4:	4b04      	ldr	r3, [pc, #16]	; (11e8 <fitDmCback+0x34>)
    11d6:	781b      	ldrb	r3, [r3, #0]
    11d8:	4618      	mov	r0, r3
    11da:	68f9      	ldr	r1, [r7, #12]
    11dc:	f003 fc92 	bl	4b04 <WsfMsgSend>
  }
}
    11e0:	3710      	adds	r7, #16
    11e2:	46bd      	mov	sp, r7
    11e4:	bd80      	pop	{r7, pc}
    11e6:	bf00      	nop
    11e8:	10000d48 	.word	0x10000d48

000011ec <fitAttCback>:
 *
 *  \return None.
 */
/*************************************************************************************************/
static void fitAttCback(attEvt_t *pEvt)
{
    11ec:	b580      	push	{r7, lr}
    11ee:	b084      	sub	sp, #16
    11f0:	af00      	add	r7, sp, #0
    11f2:	6078      	str	r0, [r7, #4]
  attEvt_t *pMsg;

  if ((pMsg = WsfMsgAlloc(sizeof(attEvt_t) + pEvt->valueLen)) != NULL)
    11f4:	687b      	ldr	r3, [r7, #4]
    11f6:	891b      	ldrh	r3, [r3, #8]
    11f8:	3310      	adds	r3, #16
    11fa:	b29b      	uxth	r3, r3
    11fc:	4618      	mov	r0, r3
    11fe:	f003 fc5d 	bl	4abc <WsfMsgAlloc>
    1202:	60f8      	str	r0, [r7, #12]
    1204:	68fb      	ldr	r3, [r7, #12]
    1206:	2b00      	cmp	r3, #0
    1208:	d01a      	beq.n	1240 <fitAttCback+0x54>
  {
    memcpy(pMsg, pEvt, sizeof(attEvt_t));
    120a:	68f8      	ldr	r0, [r7, #12]
    120c:	6879      	ldr	r1, [r7, #4]
    120e:	2210      	movs	r2, #16
    1210:	f008 fd36 	bl	9c80 <memcpy>
    pMsg->pValue = (uint8_t *) (pMsg + 1);
    1214:	68fb      	ldr	r3, [r7, #12]
    1216:	f103 0210 	add.w	r2, r3, #16
    121a:	68fb      	ldr	r3, [r7, #12]
    121c:	605a      	str	r2, [r3, #4]
    memcpy(pMsg->pValue, pEvt->pValue, pEvt->valueLen);
    121e:	68fb      	ldr	r3, [r7, #12]
    1220:	6859      	ldr	r1, [r3, #4]
    1222:	687b      	ldr	r3, [r7, #4]
    1224:	685a      	ldr	r2, [r3, #4]
    1226:	687b      	ldr	r3, [r7, #4]
    1228:	891b      	ldrh	r3, [r3, #8]
    122a:	4608      	mov	r0, r1
    122c:	4611      	mov	r1, r2
    122e:	461a      	mov	r2, r3
    1230:	f008 fd26 	bl	9c80 <memcpy>
    WsfMsgSend(fitHandlerId, pMsg);
    1234:	4b04      	ldr	r3, [pc, #16]	; (1248 <fitAttCback+0x5c>)
    1236:	781b      	ldrb	r3, [r3, #0]
    1238:	4618      	mov	r0, r3
    123a:	68f9      	ldr	r1, [r7, #12]
    123c:	f003 fc62 	bl	4b04 <WsfMsgSend>
  }
}
    1240:	3710      	adds	r7, #16
    1242:	46bd      	mov	sp, r7
    1244:	bd80      	pop	{r7, pc}
    1246:	bf00      	nop
    1248:	10000d48 	.word	0x10000d48

0000124c <fitCccCback>:
 *
 *  \return None.
 */
/*************************************************************************************************/
static void fitCccCback(attsCccEvt_t *pEvt)
{
    124c:	b580      	push	{r7, lr}
    124e:	b084      	sub	sp, #16
    1250:	af00      	add	r7, sp, #0
    1252:	6078      	str	r0, [r7, #4]
  attsCccEvt_t  *pMsg;
  appDbHdl_t    dbHdl;

  /* if CCC not set from initialization and there's a device record */
  if ((pEvt->handle != ATT_HANDLE_NONE) &&
    1254:	687b      	ldr	r3, [r7, #4]
    1256:	889b      	ldrh	r3, [r3, #4]
    1258:	2b00      	cmp	r3, #0
    125a:	d013      	beq.n	1284 <fitCccCback+0x38>
      ((dbHdl = AppDbGetHdl((dmConnId_t) pEvt->hdr.param)) != APP_DB_HDL_NONE))
    125c:	687b      	ldr	r3, [r7, #4]
    125e:	881b      	ldrh	r3, [r3, #0]
    1260:	b2db      	uxtb	r3, r3
{
  attsCccEvt_t  *pMsg;
  appDbHdl_t    dbHdl;

  /* if CCC not set from initialization and there's a device record */
  if ((pEvt->handle != ATT_HANDLE_NONE) &&
    1262:	4618      	mov	r0, r3
    1264:	f7ff f816 	bl	294 <AppDbGetHdl>
    1268:	60f8      	str	r0, [r7, #12]
    126a:	68fb      	ldr	r3, [r7, #12]
    126c:	2b00      	cmp	r3, #0
    126e:	d009      	beq.n	1284 <fitCccCback+0x38>
      ((dbHdl = AppDbGetHdl((dmConnId_t) pEvt->hdr.param)) != APP_DB_HDL_NONE))
  {
    /* store value in device database */
    AppDbSetCccTblValue(dbHdl, pEvt->idx, pEvt->value);
    1270:	687b      	ldr	r3, [r7, #4]
    1272:	7a1b      	ldrb	r3, [r3, #8]
    1274:	461a      	mov	r2, r3
    1276:	687b      	ldr	r3, [r7, #4]
    1278:	88db      	ldrh	r3, [r3, #6]
    127a:	68f8      	ldr	r0, [r7, #12]
    127c:	4611      	mov	r1, r2
    127e:	461a      	mov	r2, r3
    1280:	f7ff fed6 	bl	1030 <AppDbSetCccTblValue>
  }

  if ((pMsg = WsfMsgAlloc(sizeof(attsCccEvt_t))) != NULL)
    1284:	200a      	movs	r0, #10
    1286:	f003 fc19 	bl	4abc <WsfMsgAlloc>
    128a:	60b8      	str	r0, [r7, #8]
    128c:	68bb      	ldr	r3, [r7, #8]
    128e:	2b00      	cmp	r3, #0
    1290:	d00a      	beq.n	12a8 <fitCccCback+0x5c>
  {
    memcpy(pMsg, pEvt, sizeof(attsCccEvt_t));
    1292:	68b8      	ldr	r0, [r7, #8]
    1294:	6879      	ldr	r1, [r7, #4]
    1296:	220a      	movs	r2, #10
    1298:	f008 fcf2 	bl	9c80 <memcpy>
    WsfMsgSend(fitHandlerId, pMsg);
    129c:	4b04      	ldr	r3, [pc, #16]	; (12b0 <fitCccCback+0x64>)
    129e:	781b      	ldrb	r3, [r3, #0]
    12a0:	4618      	mov	r0, r3
    12a2:	68b9      	ldr	r1, [r7, #8]
    12a4:	f003 fc2e 	bl	4b04 <WsfMsgSend>
  }
}
    12a8:	3710      	adds	r7, #16
    12aa:	46bd      	mov	sp, r7
    12ac:	bd80      	pop	{r7, pc}
    12ae:	bf00      	nop
    12b0:	10000d48 	.word	0x10000d48

000012b4 <fitProcCccState>:
 *
 *  \return None.
 */
/*************************************************************************************************/
static void fitProcCccState(fitMsg_t *pMsg)
{
    12b4:	b580      	push	{r7, lr}
    12b6:	b082      	sub	sp, #8
    12b8:	af00      	add	r7, sp, #0
    12ba:	6078      	str	r0, [r7, #4]
  APP_TRACE_INFO3("ccc state ind value:%d handle:%d idx:%d", pMsg->ccc.value, pMsg->ccc.handle, pMsg->ccc.idx);

  /* handle heart rate measurement CCC */
  if (pMsg->ccc.idx == FIT_HRS_HRM_CCC_IDX)
    12bc:	687b      	ldr	r3, [r7, #4]
    12be:	7a1b      	ldrb	r3, [r3, #8]
    12c0:	2b01      	cmp	r3, #1
    12c2:	d113      	bne.n	12ec <fitProcCccState+0x38>
  {
    if (pMsg->ccc.value == ATT_CLIENT_CFG_NOTIFY)
    12c4:	687b      	ldr	r3, [r7, #4]
    12c6:	88db      	ldrh	r3, [r3, #6]
    12c8:	2b01      	cmp	r3, #1
    12ca:	d108      	bne.n	12de <fitProcCccState+0x2a>
    {
      HrpsMeasStart((dmConnId_t) pMsg->ccc.hdr.param, FIT_HR_TIMER_IND, FIT_HRS_HRM_CCC_IDX);
    12cc:	687b      	ldr	r3, [r7, #4]
    12ce:	881b      	ldrh	r3, [r3, #0]
    12d0:	b2db      	uxtb	r3, r3
    12d2:	4618      	mov	r0, r3
    12d4:	21a0      	movs	r1, #160	; 0xa0
    12d6:	2201      	movs	r2, #1
    12d8:	f003 f832 	bl	4340 <HrpsMeasStart>
    }
    else
    {
      HrpsMeasStop((dmConnId_t) pMsg->ccc.hdr.param);
    }
    return;
    12dc:	e01e      	b.n	131c <fitProcCccState+0x68>
    {
      HrpsMeasStart((dmConnId_t) pMsg->ccc.hdr.param, FIT_HR_TIMER_IND, FIT_HRS_HRM_CCC_IDX);
    }
    else
    {
      HrpsMeasStop((dmConnId_t) pMsg->ccc.hdr.param);
    12de:	687b      	ldr	r3, [r7, #4]
    12e0:	881b      	ldrh	r3, [r3, #0]
    12e2:	b2db      	uxtb	r3, r3
    12e4:	4618      	mov	r0, r3
    12e6:	f003 f853 	bl	4390 <HrpsMeasStop>
    }
    return;
    12ea:	e017      	b.n	131c <fitProcCccState+0x68>
  }

  /* handle battery level CCC */
  if (pMsg->ccc.idx == FIT_BATT_LVL_CCC_IDX)
    12ec:	687b      	ldr	r3, [r7, #4]
    12ee:	7a1b      	ldrb	r3, [r3, #8]
    12f0:	2b02      	cmp	r3, #2
    12f2:	d113      	bne.n	131c <fitProcCccState+0x68>
  {
    if (pMsg->ccc.value == ATT_CLIENT_CFG_NOTIFY)
    12f4:	687b      	ldr	r3, [r7, #4]
    12f6:	88db      	ldrh	r3, [r3, #6]
    12f8:	2b01      	cmp	r3, #1
    12fa:	d108      	bne.n	130e <fitProcCccState+0x5a>
    {
      BasMeasBattStart((dmConnId_t) pMsg->ccc.hdr.param, FIT_BATT_TIMER_IND, FIT_BATT_LVL_CCC_IDX);
    12fc:	687b      	ldr	r3, [r7, #4]
    12fe:	881b      	ldrh	r3, [r3, #0]
    1300:	b2db      	uxtb	r3, r3
    1302:	4618      	mov	r0, r3
    1304:	21a1      	movs	r1, #161	; 0xa1
    1306:	2202      	movs	r2, #2
    1308:	f002 fe2c 	bl	3f64 <BasMeasBattStart>
    130c:	e005      	b.n	131a <fitProcCccState+0x66>
    }
    else
    {
      BasMeasBattStop((dmConnId_t) pMsg->ccc.hdr.param);
    130e:	687b      	ldr	r3, [r7, #4]
    1310:	881b      	ldrh	r3, [r3, #0]
    1312:	b2db      	uxtb	r3, r3
    1314:	4618      	mov	r0, r3
    1316:	f002 fe61 	bl	3fdc <BasMeasBattStop>
    }
    return;
    131a:	bf00      	nop
  }
}
    131c:	3708      	adds	r7, #8
    131e:	46bd      	mov	sp, r7
    1320:	bd80      	pop	{r7, pc}
    1322:	bf00      	nop

00001324 <fitClose>:
 *
 *  \return None.
 */
/*************************************************************************************************/
static void fitClose(fitMsg_t *pMsg)
{
    1324:	b580      	push	{r7, lr}
    1326:	b082      	sub	sp, #8
    1328:	af00      	add	r7, sp, #0
    132a:	6078      	str	r0, [r7, #4]
  /* stop heart rate measurement */
  HrpsMeasStop((dmConnId_t) pMsg->hdr.param);
    132c:	687b      	ldr	r3, [r7, #4]
    132e:	881b      	ldrh	r3, [r3, #0]
    1330:	b2db      	uxtb	r3, r3
    1332:	4618      	mov	r0, r3
    1334:	f003 f82c 	bl	4390 <HrpsMeasStop>

  /* stop battery measurement */
  BasMeasBattStop((dmConnId_t) pMsg->hdr.param);
    1338:	687b      	ldr	r3, [r7, #4]
    133a:	881b      	ldrh	r3, [r3, #0]
    133c:	b2db      	uxtb	r3, r3
    133e:	4618      	mov	r0, r3
    1340:	f002 fe4c 	bl	3fdc <BasMeasBattStop>
}
    1344:	3708      	adds	r7, #8
    1346:	46bd      	mov	sp, r7
    1348:	bd80      	pop	{r7, pc}
    134a:	bf00      	nop

0000134c <fitSetup>:
 *
 *  \return None.
 */
/*************************************************************************************************/
static void fitSetup(fitMsg_t *pMsg)
{
    134c:	b580      	push	{r7, lr}
    134e:	b082      	sub	sp, #8
    1350:	af00      	add	r7, sp, #0
    1352:	6078      	str	r0, [r7, #4]
  /* set advertising and scan response data for discoverable mode */
  AppAdvSetData(APP_ADV_DATA_DISCOVERABLE, sizeof(fitAdvDataDisc), (uint8_t *) fitAdvDataDisc);
    1354:	2002      	movs	r0, #2
    1356:	210e      	movs	r1, #14
    1358:	4a0b      	ldr	r2, [pc, #44]	; (1388 <fitSetup+0x3c>)
    135a:	f7ff fc31 	bl	bc0 <AppAdvSetData>
  AppAdvSetData(APP_SCAN_DATA_DISCOVERABLE, sizeof(fitScanDataDisc), (uint8_t *) fitScanDataDisc);
    135e:	2003      	movs	r0, #3
    1360:	210f      	movs	r1, #15
    1362:	4a0a      	ldr	r2, [pc, #40]	; (138c <fitSetup+0x40>)
    1364:	f7ff fc2c 	bl	bc0 <AppAdvSetData>

  /* set advertising and scan response data for connectable mode */
  AppAdvSetData(APP_ADV_DATA_CONNECTABLE, 0, NULL);
    1368:	2000      	movs	r0, #0
    136a:	2100      	movs	r1, #0
    136c:	2200      	movs	r2, #0
    136e:	f7ff fc27 	bl	bc0 <AppAdvSetData>
  AppAdvSetData(APP_SCAN_DATA_CONNECTABLE, 0, NULL);
    1372:	2001      	movs	r0, #1
    1374:	2100      	movs	r1, #0
    1376:	2200      	movs	r2, #0
    1378:	f7ff fc22 	bl	bc0 <AppAdvSetData>

  /* start advertising; automatically set connectable/discoverable mode and bondable mode */
  AppAdvStart(APP_MODE_AUTO_INIT);
    137c:	2002      	movs	r0, #2
    137e:	f7ff fc55 	bl	c2c <AppAdvStart>
}
    1382:	3708      	adds	r7, #8
    1384:	46bd      	mov	sp, r7
    1386:	bd80      	pop	{r7, pc}
    1388:	00009f3c 	.word	0x00009f3c
    138c:	00009f4c 	.word	0x00009f4c

00001390 <fitBtnCback>:
 *
 *  \return None.
 */
/*************************************************************************************************/
static void fitBtnCback(uint8_t btn)
{
    1390:	b580      	push	{r7, lr}
    1392:	b084      	sub	sp, #16
    1394:	af00      	add	r7, sp, #0
    1396:	4603      	mov	r3, r0
    1398:	71fb      	strb	r3, [r7, #7]
  dmConnId_t      connId;
  static uint8_t  heartRate = 78;    /* for testing/demonstration */

  /* button actions when connected */
  if ((connId = AppConnIsOpen()) != DM_CONN_ID_NONE)
    139a:	f7fe ff59 	bl	250 <AppConnIsOpen>
    139e:	4603      	mov	r3, r0
    13a0:	73fb      	strb	r3, [r7, #15]
    13a2:	7bfb      	ldrb	r3, [r7, #15]
    13a4:	2b00      	cmp	r3, #0
    13a6:	d032      	beq.n	140e <fitBtnCback+0x7e>
  {
    switch (btn)
    13a8:	79fb      	ldrb	r3, [r7, #7]
    13aa:	3b02      	subs	r3, #2
    13ac:	2b05      	cmp	r3, #5
    13ae:	d82c      	bhi.n	140a <fitBtnCback+0x7a>
    13b0:	a201      	add	r2, pc, #4	; (adr r2, 13b8 <fitBtnCback+0x28>)
    13b2:	f852 f023 	ldr.w	pc, [r2, r3, lsl #2]
    13b6:	bf00      	nop
    13b8:	000013d1 	.word	0x000013d1
    13bc:	0000140b 	.word	0x0000140b
    13c0:	000013e9 	.word	0x000013e9
    13c4:	0000140b 	.word	0x0000140b
    13c8:	0000140b 	.word	0x0000140b
    13cc:	000013f3 	.word	0x000013f3
    {
      case APP_UI_BTN_1_SHORT:
        /* increment the heart rate */
        AppHwHrmTest(++heartRate);
    13d0:	4b1d      	ldr	r3, [pc, #116]	; (1448 <fitBtnCback+0xb8>)
    13d2:	781b      	ldrb	r3, [r3, #0]
    13d4:	3301      	adds	r3, #1
    13d6:	b2da      	uxtb	r2, r3
    13d8:	4b1b      	ldr	r3, [pc, #108]	; (1448 <fitBtnCback+0xb8>)
    13da:	701a      	strb	r2, [r3, #0]
    13dc:	4b1a      	ldr	r3, [pc, #104]	; (1448 <fitBtnCback+0xb8>)
    13de:	781b      	ldrb	r3, [r3, #0]
    13e0:	4618      	mov	r0, r3
    13e2:	f7ff fe73 	bl	10cc <AppHwHrmTest>
        break;
    13e6:	e011      	b.n	140c <fitBtnCback+0x7c>

      case APP_UI_BTN_1_MED:
        break;

      case APP_UI_BTN_1_LONG:
        AppConnClose(connId);
    13e8:	7bfb      	ldrb	r3, [r7, #15]
    13ea:	4618      	mov	r0, r3
    13ec:	f7fe ff22 	bl	234 <AppConnClose>
        break;
    13f0:	e00c      	b.n	140c <fitBtnCback+0x7c>

      case APP_UI_BTN_2_SHORT:
        /* decrement the heart rate */
        AppHwHrmTest(--heartRate);
    13f2:	4b15      	ldr	r3, [pc, #84]	; (1448 <fitBtnCback+0xb8>)
    13f4:	781b      	ldrb	r3, [r3, #0]
    13f6:	3b01      	subs	r3, #1
    13f8:	b2da      	uxtb	r2, r3
    13fa:	4b13      	ldr	r3, [pc, #76]	; (1448 <fitBtnCback+0xb8>)
    13fc:	701a      	strb	r2, [r3, #0]
    13fe:	4b12      	ldr	r3, [pc, #72]	; (1448 <fitBtnCback+0xb8>)
    1400:	781b      	ldrb	r3, [r3, #0]
    1402:	4618      	mov	r0, r3
    1404:	f7ff fe62 	bl	10cc <AppHwHrmTest>
        break;
    1408:	e000      	b.n	140c <fitBtnCback+0x7c>

      default:
        break;
    140a:	bf00      	nop
    140c:	e018      	b.n	1440 <fitBtnCback+0xb0>
    }
  }
  /* button actions when not connected */
  else
  {
    switch (btn)
    140e:	79fb      	ldrb	r3, [r7, #7]
    1410:	2b03      	cmp	r3, #3
    1412:	d008      	beq.n	1426 <fitBtnCback+0x96>
    1414:	2b04      	cmp	r3, #4
    1416:	d00d      	beq.n	1434 <fitBtnCback+0xa4>
    1418:	2b02      	cmp	r3, #2
    141a:	d000      	beq.n	141e <fitBtnCback+0x8e>
        AppDbDeleteAllRecords();
        AppAdvStart(APP_MODE_AUTO_INIT);
        break;

      default:
        break;
    141c:	e010      	b.n	1440 <fitBtnCback+0xb0>
  {
    switch (btn)
    {
      case APP_UI_BTN_1_SHORT:
        /* start or restart advertising */
        AppAdvStart(APP_MODE_AUTO_INIT);
    141e:	2002      	movs	r0, #2
    1420:	f7ff fc04 	bl	c2c <AppAdvStart>
        break;
    1424:	e00c      	b.n	1440 <fitBtnCback+0xb0>

      case APP_UI_BTN_1_MED:
        /* enter discoverable and bondable mode mode */
        AppSetBondable(TRUE);
    1426:	2001      	movs	r0, #1
    1428:	f7ff fc3a 	bl	ca0 <AppSetBondable>
        AppAdvStart(APP_MODE_DISCOVERABLE);
    142c:	2001      	movs	r0, #1
    142e:	f7ff fbfd 	bl	c2c <AppAdvStart>
        break;
    1432:	e005      	b.n	1440 <fitBtnCback+0xb0>

      case APP_UI_BTN_1_LONG:
        /* clear bonded device info and restart advertising */
        AppDbDeleteAllRecords();
    1434:	f7ff fce0 	bl	df8 <AppDbDeleteAllRecords>
        AppAdvStart(APP_MODE_AUTO_INIT);
    1438:	2002      	movs	r0, #2
    143a:	f7ff fbf7 	bl	c2c <AppAdvStart>
        break;
    143e:	bf00      	nop

      default:
        break;
    }
  }
}
    1440:	3710      	adds	r7, #16
    1442:	46bd      	mov	sp, r7
    1444:	bd80      	pop	{r7, pc}
    1446:	bf00      	nop
    1448:	10000206 	.word	0x10000206

0000144c <fitProcMsg>:
 *
 *  \return None.
 */
/*************************************************************************************************/
static void fitProcMsg(fitMsg_t *pMsg)
{
    144c:	b580      	push	{r7, lr}
    144e:	b084      	sub	sp, #16
    1450:	af00      	add	r7, sp, #0
    1452:	6078      	str	r0, [r7, #4]
  uint8_t uiEvent = APP_UI_NONE;
    1454:	2300      	movs	r3, #0
    1456:	73fb      	strb	r3, [r7, #15]

  switch(pMsg->hdr.event)
    1458:	687b      	ldr	r3, [r7, #4]
    145a:	789b      	ldrb	r3, [r3, #2]
    145c:	2b28      	cmp	r3, #40	; 0x28
    145e:	d051      	beq.n	1504 <fitProcMsg+0xb8>
    1460:	2b28      	cmp	r3, #40	; 0x28
    1462:	dc0f      	bgt.n	1484 <fitProcMsg+0x38>
    1464:	2b20      	cmp	r3, #32
    1466:	d036      	beq.n	14d6 <fitProcMsg+0x8a>
    1468:	2b20      	cmp	r3, #32
    146a:	dc04      	bgt.n	1476 <fitProcMsg+0x2a>
    146c:	2b0f      	cmp	r3, #15
    146e:	d025      	beq.n	14bc <fitProcMsg+0x70>
    1470:	2b10      	cmp	r3, #16
    1472:	d02c      	beq.n	14ce <fitProcMsg+0x82>
    case DM_SEC_AUTH_REQ_IND:
      AppHandlePasskey(&pMsg->dm.authReq);
      break;

    default:
      break;
    1474:	e05d      	b.n	1532 <fitProcMsg+0xe6>
/*************************************************************************************************/
static void fitProcMsg(fitMsg_t *pMsg)
{
  uint8_t uiEvent = APP_UI_NONE;

  switch(pMsg->hdr.event)
    1476:	2b22      	cmp	r3, #34	; 0x22
    1478:	d036      	beq.n	14e8 <fitProcMsg+0x9c>
    147a:	2b22      	cmp	r3, #34	; 0x22
    147c:	db31      	blt.n	14e2 <fitProcMsg+0x96>
    147e:	2b27      	cmp	r3, #39	; 0x27
    1480:	d035      	beq.n	14ee <fitProcMsg+0xa2>
    case DM_SEC_AUTH_REQ_IND:
      AppHandlePasskey(&pMsg->dm.authReq);
      break;

    default:
      break;
    1482:	e056      	b.n	1532 <fitProcMsg+0xe6>
/*************************************************************************************************/
static void fitProcMsg(fitMsg_t *pMsg)
{
  uint8_t uiEvent = APP_UI_NONE;

  switch(pMsg->hdr.event)
    1484:	2b2d      	cmp	r3, #45	; 0x2d
    1486:	d04c      	beq.n	1522 <fitProcMsg+0xd6>
    1488:	2b2d      	cmp	r3, #45	; 0x2d
    148a:	dc06      	bgt.n	149a <fitProcMsg+0x4e>
    148c:	2b2b      	cmp	r3, #43	; 0x2b
    148e:	d042      	beq.n	1516 <fitProcMsg+0xca>
    1490:	2b2b      	cmp	r3, #43	; 0x2b
    1492:	dc43      	bgt.n	151c <fitProcMsg+0xd0>
    1494:	2b2a      	cmp	r3, #42	; 0x2a
    1496:	d03b      	beq.n	1510 <fitProcMsg+0xc4>
    case DM_SEC_AUTH_REQ_IND:
      AppHandlePasskey(&pMsg->dm.authReq);
      break;

    default:
      break;
    1498:	e04b      	b.n	1532 <fitProcMsg+0xe6>
/*************************************************************************************************/
static void fitProcMsg(fitMsg_t *pMsg)
{
  uint8_t uiEvent = APP_UI_NONE;

  switch(pMsg->hdr.event)
    149a:	2ba0      	cmp	r3, #160	; 0xa0
    149c:	d004      	beq.n	14a8 <fitProcMsg+0x5c>
    149e:	2ba1      	cmp	r3, #161	; 0xa1
    14a0:	d007      	beq.n	14b2 <fitProcMsg+0x66>
    14a2:	2b2e      	cmp	r3, #46	; 0x2e
    14a4:	d040      	beq.n	1528 <fitProcMsg+0xdc>
    case DM_SEC_AUTH_REQ_IND:
      AppHandlePasskey(&pMsg->dm.authReq);
      break;

    default:
      break;
    14a6:	e044      	b.n	1532 <fitProcMsg+0xe6>
  uint8_t uiEvent = APP_UI_NONE;

  switch(pMsg->hdr.event)
  {
    case FIT_HR_TIMER_IND:
      HrpsProcMsg(&pMsg->hdr);
    14a8:	687b      	ldr	r3, [r7, #4]
    14aa:	4618      	mov	r0, r3
    14ac:	f002 ff92 	bl	43d4 <HrpsProcMsg>
      break;
    14b0:	e03f      	b.n	1532 <fitProcMsg+0xe6>

    case FIT_BATT_TIMER_IND:
      BasProcMsg(&pMsg->hdr);
    14b2:	687b      	ldr	r3, [r7, #4]
    14b4:	4618      	mov	r0, r3
    14b6:	f002 fdb7 	bl	4028 <BasProcMsg>
      break;
    14ba:	e03a      	b.n	1532 <fitProcMsg+0xe6>

    case ATTS_HANDLE_VALUE_CNF:
      HrpsProcMsg(&pMsg->hdr);
    14bc:	687b      	ldr	r3, [r7, #4]
    14be:	4618      	mov	r0, r3
    14c0:	f002 ff88 	bl	43d4 <HrpsProcMsg>
      BasProcMsg(&pMsg->hdr);
    14c4:	687b      	ldr	r3, [r7, #4]
    14c6:	4618      	mov	r0, r3
    14c8:	f002 fdae 	bl	4028 <BasProcMsg>
      break;
    14cc:	e031      	b.n	1532 <fitProcMsg+0xe6>

    case ATTS_CCC_STATE_IND:
      fitProcCccState(pMsg);
    14ce:	6878      	ldr	r0, [r7, #4]
    14d0:	f7ff fef0 	bl	12b4 <fitProcCccState>
      break;
    14d4:	e02d      	b.n	1532 <fitProcMsg+0xe6>

    case DM_RESET_CMPL_IND:
      fitSetup(pMsg);
    14d6:	6878      	ldr	r0, [r7, #4]
    14d8:	f7ff ff38 	bl	134c <fitSetup>
      uiEvent = APP_UI_RESET_CMPL;
    14dc:	2301      	movs	r3, #1
    14de:	73fb      	strb	r3, [r7, #15]
      break;
    14e0:	e027      	b.n	1532 <fitProcMsg+0xe6>

    case DM_ADV_START_IND:
      uiEvent = APP_UI_ADV_START;
    14e2:	2303      	movs	r3, #3
    14e4:	73fb      	strb	r3, [r7, #15]
      break;
    14e6:	e024      	b.n	1532 <fitProcMsg+0xe6>

    case DM_ADV_STOP_IND:
      uiEvent = APP_UI_ADV_STOP;
    14e8:	2304      	movs	r3, #4
    14ea:	73fb      	strb	r3, [r7, #15]
      break;
    14ec:	e021      	b.n	1532 <fitProcMsg+0xe6>

    case DM_CONN_OPEN_IND:
      HrpsProcMsg(&pMsg->hdr);
    14ee:	687b      	ldr	r3, [r7, #4]
    14f0:	4618      	mov	r0, r3
    14f2:	f002 ff6f 	bl	43d4 <HrpsProcMsg>
      BasProcMsg(&pMsg->hdr);
    14f6:	687b      	ldr	r3, [r7, #4]
    14f8:	4618      	mov	r0, r3
    14fa:	f002 fd95 	bl	4028 <BasProcMsg>
      uiEvent = APP_UI_CONN_OPEN;
    14fe:	2308      	movs	r3, #8
    1500:	73fb      	strb	r3, [r7, #15]
      break;
    1502:	e016      	b.n	1532 <fitProcMsg+0xe6>

    case DM_CONN_CLOSE_IND:
      fitClose(pMsg);
    1504:	6878      	ldr	r0, [r7, #4]
    1506:	f7ff ff0d 	bl	1324 <fitClose>
      uiEvent = APP_UI_CONN_CLOSE;
    150a:	2309      	movs	r3, #9
    150c:	73fb      	strb	r3, [r7, #15]
      break;
    150e:	e010      	b.n	1532 <fitProcMsg+0xe6>

    case DM_SEC_PAIR_CMPL_IND:
      uiEvent = APP_UI_SEC_PAIR_CMPL;
    1510:	230a      	movs	r3, #10
    1512:	73fb      	strb	r3, [r7, #15]
      break;
    1514:	e00d      	b.n	1532 <fitProcMsg+0xe6>

    case DM_SEC_PAIR_FAIL_IND:
      uiEvent = APP_UI_SEC_PAIR_FAIL;
    1516:	230b      	movs	r3, #11
    1518:	73fb      	strb	r3, [r7, #15]
      break;
    151a:	e00a      	b.n	1532 <fitProcMsg+0xe6>

    case DM_SEC_ENCRYPT_IND:
      uiEvent = APP_UI_SEC_ENCRYPT;
    151c:	230c      	movs	r3, #12
    151e:	73fb      	strb	r3, [r7, #15]
      break;
    1520:	e007      	b.n	1532 <fitProcMsg+0xe6>

    case DM_SEC_ENCRYPT_FAIL_IND:
      uiEvent = APP_UI_SEC_ENCRYPT_FAIL;
    1522:	230d      	movs	r3, #13
    1524:	73fb      	strb	r3, [r7, #15]
      break;
    1526:	e004      	b.n	1532 <fitProcMsg+0xe6>

    case DM_SEC_AUTH_REQ_IND:
      AppHandlePasskey(&pMsg->dm.authReq);
    1528:	687b      	ldr	r3, [r7, #4]
    152a:	4618      	mov	r0, r3
    152c:	f7fe fe46 	bl	1bc <AppHandlePasskey>
      break;
    1530:	bf00      	nop

    default:
      break;
  }

  if (uiEvent != APP_UI_NONE)
    1532:	7bfb      	ldrb	r3, [r7, #15]
    1534:	2b00      	cmp	r3, #0
    1536:	d003      	beq.n	1540 <fitProcMsg+0xf4>
  {
    AppUiAction(uiEvent);
    1538:	7bfb      	ldrb	r3, [r7, #15]
    153a:	4618      	mov	r0, r3
    153c:	f7ff fdd6 	bl	10ec <AppUiAction>
  }
}
    1540:	3710      	adds	r7, #16
    1542:	46bd      	mov	sp, r7
    1544:	bd80      	pop	{r7, pc}
    1546:	bf00      	nop

00001548 <FitHandlerInit>:
 *
 *  \return None.
 */
/*************************************************************************************************/
void FitHandlerInit(wsfHandlerId_t handlerId)
{
    1548:	b580      	push	{r7, lr}
    154a:	b082      	sub	sp, #8
    154c:	af00      	add	r7, sp, #0
    154e:	4603      	mov	r3, r0
    1550:	71fb      	strb	r3, [r7, #7]
  APP_TRACE_INFO0("FitHandlerInit");

  /* store handler ID */
  fitHandlerId = handlerId;
    1552:	4b10      	ldr	r3, [pc, #64]	; (1594 <FitHandlerInit+0x4c>)
    1554:	79fa      	ldrb	r2, [r7, #7]
    1556:	701a      	strb	r2, [r3, #0]

  /* Set configuration pointers */
  pAppAdvCfg = (appAdvCfg_t *) &fitAdvCfg;
    1558:	4b0f      	ldr	r3, [pc, #60]	; (1598 <FitHandlerInit+0x50>)
    155a:	4a10      	ldr	r2, [pc, #64]	; (159c <FitHandlerInit+0x54>)
    155c:	601a      	str	r2, [r3, #0]
  pAppSlaveCfg = (appSlaveCfg_t *) &fitSlaveCfg;
    155e:	4b10      	ldr	r3, [pc, #64]	; (15a0 <FitHandlerInit+0x58>)
    1560:	4a10      	ldr	r2, [pc, #64]	; (15a4 <FitHandlerInit+0x5c>)
    1562:	601a      	str	r2, [r3, #0]
  pAppSecCfg = (appSecCfg_t *) &fitSecCfg;
    1564:	4b10      	ldr	r3, [pc, #64]	; (15a8 <FitHandlerInit+0x60>)
    1566:	4a11      	ldr	r2, [pc, #68]	; (15ac <FitHandlerInit+0x64>)
    1568:	601a      	str	r2, [r3, #0]
  pAppUpdateCfg = (appUpdateCfg_t *) &fitUpdateCfg;
    156a:	4b11      	ldr	r3, [pc, #68]	; (15b0 <FitHandlerInit+0x68>)
    156c:	4a11      	ldr	r2, [pc, #68]	; (15b4 <FitHandlerInit+0x6c>)
    156e:	601a      	str	r2, [r3, #0]

  /* Initialize application framework */
  AppSlaveInit();
    1570:	f7ff fa60 	bl	a34 <AppSlaveInit>

  /* initialize heart rate profile sensor */
  HrpsInit(handlerId, (hrpsCfg_t *) &fitHrpsCfg);
    1574:	79fb      	ldrb	r3, [r7, #7]
    1576:	4618      	mov	r0, r3
    1578:	490f      	ldr	r1, [pc, #60]	; (15b8 <FitHandlerInit+0x70>)
    157a:	f002 fecd 	bl	4318 <HrpsInit>
  HrpsSetFlags(CH_HRM_FLAGS_VALUE_8BIT | CH_HRM_FLAGS_ENERGY_EXP);
    157e:	2008      	movs	r0, #8
    1580:	f002 ff64 	bl	444c <HrpsSetFlags>

  /* initialize battery service server */
  BasInit(handlerId, (basCfg_t *) &fitBasCfg);
    1584:	79fb      	ldrb	r3, [r7, #7]
    1586:	4618      	mov	r0, r3
    1588:	490c      	ldr	r1, [pc, #48]	; (15bc <FitHandlerInit+0x74>)
    158a:	f002 fcd3 	bl	3f34 <BasInit>
}
    158e:	3708      	adds	r7, #8
    1590:	46bd      	mov	sp, r7
    1592:	bd80      	pop	{r7, pc}
    1594:	10000d48 	.word	0x10000d48
    1598:	10000d14 	.word	0x10000d14
    159c:	00009f08 	.word	0x00009f08
    15a0:	10000cfc 	.word	0x10000cfc
    15a4:	00009f14 	.word	0x00009f14
    15a8:	10000d10 	.word	0x10000d10
    15ac:	00009f18 	.word	0x00009f18
    15b0:	10000cf8 	.word	0x10000cf8
    15b4:	00009f20 	.word	0x00009f20
    15b8:	00009f30 	.word	0x00009f30
    15bc:	00009f34 	.word	0x00009f34

000015c0 <FitHandler>:
 *
 *  \return None.
 */
/*************************************************************************************************/
void FitHandler(wsfEventMask_t event, wsfMsgHdr_t *pMsg)
{
    15c0:	b580      	push	{r7, lr}
    15c2:	b082      	sub	sp, #8
    15c4:	af00      	add	r7, sp, #0
    15c6:	4603      	mov	r3, r0
    15c8:	6039      	str	r1, [r7, #0]
    15ca:	71fb      	strb	r3, [r7, #7]
  if (pMsg != NULL)
    15cc:	683b      	ldr	r3, [r7, #0]
    15ce:	2b00      	cmp	r3, #0
    15d0:	d010      	beq.n	15f4 <FitHandler+0x34>
  {
    APP_TRACE_INFO1("Fit got evt %d", pMsg->event);

    if (pMsg->event >= DM_CBACK_START && pMsg->event <= DM_CBACK_END)
    15d2:	683b      	ldr	r3, [r7, #0]
    15d4:	789b      	ldrb	r3, [r3, #2]
    15d6:	2b1f      	cmp	r3, #31
    15d8:	d909      	bls.n	15ee <FitHandler+0x2e>
    15da:	683b      	ldr	r3, [r7, #0]
    15dc:	789b      	ldrb	r3, [r3, #2]
    15de:	2b39      	cmp	r3, #57	; 0x39
    15e0:	d805      	bhi.n	15ee <FitHandler+0x2e>
    {
      /* process advertising and connection-related messages */
      AppSlaveProcDmMsg((dmEvt_t *) pMsg);
    15e2:	6838      	ldr	r0, [r7, #0]
    15e4:	f7ff fa46 	bl	a74 <AppSlaveProcDmMsg>

      /* process security-related messages */
      AppSlaveSecProcDmMsg((dmEvt_t *) pMsg);
    15e8:	6838      	ldr	r0, [r7, #0]
    15ea:	f7ff fa91 	bl	b10 <AppSlaveSecProcDmMsg>
    }

    /* perform profile and user interface-related operations */
    fitProcMsg((fitMsg_t *) pMsg);
    15ee:	6838      	ldr	r0, [r7, #0]
    15f0:	f7ff ff2c 	bl	144c <fitProcMsg>
  }
}
    15f4:	3708      	adds	r7, #8
    15f6:	46bd      	mov	sp, r7
    15f8:	bd80      	pop	{r7, pc}
    15fa:	bf00      	nop

000015fc <FitStart>:
 *
 *  \return None.
 */
/*************************************************************************************************/
void FitStart(void)
{
    15fc:	b580      	push	{r7, lr}
    15fe:	af00      	add	r7, sp, #0
  /* Register for stack callbacks */
  DmRegister(fitDmCback);
    1600:	4813      	ldr	r0, [pc, #76]	; (1650 <FitStart+0x54>)
    1602:	f007 f871 	bl	86e8 <DmRegister>
  DmConnRegister(DM_CLIENT_ID_APP, fitDmCback);
    1606:	2003      	movs	r0, #3
    1608:	4911      	ldr	r1, [pc, #68]	; (1650 <FitStart+0x54>)
    160a:	f006 fe95 	bl	8338 <DmConnRegister>
  AttRegister(fitAttCback);
    160e:	4811      	ldr	r0, [pc, #68]	; (1654 <FitStart+0x58>)
    1610:	f004 fb34 	bl	5c7c <AttRegister>
  AttConnRegister(AppServerConnCback);
    1614:	4810      	ldr	r0, [pc, #64]	; (1658 <FitStart+0x5c>)
    1616:	f004 fb37 	bl	5c88 <AttConnRegister>
  AttsCccRegister(FIT_NUM_CCC_IDX, (attsCccSet_t *) fitCccSet, fitCccCback);
    161a:	2003      	movs	r0, #3
    161c:	490f      	ldr	r1, [pc, #60]	; (165c <FitStart+0x60>)
    161e:	4a10      	ldr	r2, [pc, #64]	; (1660 <FitStart+0x64>)
    1620:	f005 f94e 	bl	68c0 <AttsCccRegister>

  /* Register for app framework callbacks */
  AppUiBtnRegister(fitBtnCback);
    1624:	480f      	ldr	r0, [pc, #60]	; (1664 <FitStart+0x68>)
    1626:	f7ff fdb1 	bl	118c <AppUiBtnRegister>

  /* Initialize attribute server database */
  SvcCoreAddGroup();
    162a:	f002 ff39 	bl	44a0 <SvcCoreAddGroup>
  SvcHrsCbackRegister(NULL, HrpsWriteCback);
    162e:	2000      	movs	r0, #0
    1630:	490d      	ldr	r1, [pc, #52]	; (1668 <FitStart+0x6c>)
    1632:	f002 ff53 	bl	44dc <SvcHrsCbackRegister>
  SvcHrsAddGroup();
    1636:	f002 ff49 	bl	44cc <SvcHrsAddGroup>
  SvcDisAddGroup();
    163a:	f002 ff3f 	bl	44bc <SvcDisAddGroup>
  SvcBattCbackRegister(BasReadCback, NULL);
    163e:	480b      	ldr	r0, [pc, #44]	; (166c <FitStart+0x70>)
    1640:	2100      	movs	r1, #0
    1642:	f002 ff1b 	bl	447c <SvcBattCbackRegister>
  SvcBattAddGroup();
    1646:	f002 ff11 	bl	446c <SvcBattAddGroup>

  /* Reset the device */
  DmDevReset();
    164a:	f007 f808 	bl	865e <DmDevReset>
}
    164e:	bd80      	pop	{r7, pc}
    1650:	000011b5 	.word	0x000011b5
    1654:	000011ed 	.word	0x000011ed
    1658:	000002bd 	.word	0x000002bd
    165c:	00009f5c 	.word	0x00009f5c
    1660:	0000124d 	.word	0x0000124d
    1664:	00001391 	.word	0x00001391
    1668:	00004419 	.word	0x00004419
    166c:	000040a5 	.word	0x000040a5

00001670 <hciCmdAlloc>:
 *
 *  \return Pointer to WSF msg buffer.
 */
/*************************************************************************************************/
uint8_t *hciCmdAlloc(uint16_t opcode, uint8_t len)
{
    1670:	b580      	push	{r7, lr}
    1672:	b084      	sub	sp, #16
    1674:	af00      	add	r7, sp, #0
    1676:	4602      	mov	r2, r0
    1678:	460b      	mov	r3, r1
    167a:	80fa      	strh	r2, [r7, #6]
    167c:	717b      	strb	r3, [r7, #5]
  uint8_t   *p;
  
  /* allocate buffer */
  if ((p = WsfMsgAlloc(len + HCI_CMD_HDR_LEN)) != NULL)
    167e:	797b      	ldrb	r3, [r7, #5]
    1680:	b29b      	uxth	r3, r3
    1682:	3303      	adds	r3, #3
    1684:	b29b      	uxth	r3, r3
    1686:	4618      	mov	r0, r3
    1688:	f003 fa18 	bl	4abc <WsfMsgAlloc>
    168c:	60f8      	str	r0, [r7, #12]
    168e:	68fb      	ldr	r3, [r7, #12]
    1690:	2b00      	cmp	r3, #0
    1692:	d015      	beq.n	16c0 <hciCmdAlloc+0x50>
  {
    /* set HCI command header */
    UINT16_TO_BSTREAM(p, opcode);
    1694:	68fb      	ldr	r3, [r7, #12]
    1696:	1c5a      	adds	r2, r3, #1
    1698:	60fa      	str	r2, [r7, #12]
    169a:	88fa      	ldrh	r2, [r7, #6]
    169c:	b2d2      	uxtb	r2, r2
    169e:	701a      	strb	r2, [r3, #0]
    16a0:	68fb      	ldr	r3, [r7, #12]
    16a2:	1c5a      	adds	r2, r3, #1
    16a4:	60fa      	str	r2, [r7, #12]
    16a6:	88fa      	ldrh	r2, [r7, #6]
    16a8:	0a12      	lsrs	r2, r2, #8
    16aa:	b292      	uxth	r2, r2
    16ac:	b2d2      	uxtb	r2, r2
    16ae:	701a      	strb	r2, [r3, #0]
    UINT8_TO_BSTREAM(p, len);
    16b0:	68fb      	ldr	r3, [r7, #12]
    16b2:	1c5a      	adds	r2, r3, #1
    16b4:	60fa      	str	r2, [r7, #12]
    16b6:	797a      	ldrb	r2, [r7, #5]
    16b8:	701a      	strb	r2, [r3, #0]
    p -= HCI_CMD_HDR_LEN;
    16ba:	68fb      	ldr	r3, [r7, #12]
    16bc:	3b03      	subs	r3, #3
    16be:	60fb      	str	r3, [r7, #12]
  }
  
  return p;
    16c0:	68fb      	ldr	r3, [r7, #12]
}
    16c2:	4618      	mov	r0, r3
    16c4:	3710      	adds	r7, #16
    16c6:	46bd      	mov	sp, r7
    16c8:	bd80      	pop	{r7, pc}
    16ca:	bf00      	nop

000016cc <hciCmdSend>:
 *
 *  \return None.
 */
/*************************************************************************************************/
void hciCmdSend(uint8_t *pData)
{
    16cc:	b580      	push	{r7, lr}
    16ce:	b084      	sub	sp, #16
    16d0:	af00      	add	r7, sp, #0
    16d2:	6078      	str	r0, [r7, #4]
  uint8_t         *p;
  wsfHandlerId_t  handlerId;
  
  /* queue command if present */
  if (pData != NULL)
    16d4:	687b      	ldr	r3, [r7, #4]
    16d6:	2b00      	cmp	r3, #0
    16d8:	d004      	beq.n	16e4 <hciCmdSend+0x18>
  {
    WsfMsgEnq(&hciCmdCb.cmdQueue, 0, pData);
    16da:	4817      	ldr	r0, [pc, #92]	; (1738 <hciCmdSend+0x6c>)
    16dc:	2100      	movs	r1, #0
    16de:	687a      	ldr	r2, [r7, #4]
    16e0:	f003 fa2a 	bl	4b38 <WsfMsgEnq>
  }
  
  /* service the HCI command queue; first check if controller can accept any commands */
  if (hciCmdCb.numCmdPkts > 0)
    16e4:	4b15      	ldr	r3, [pc, #84]	; (173c <hciCmdSend+0x70>)
    16e6:	7e9b      	ldrb	r3, [r3, #26]
    16e8:	2b00      	cmp	r3, #0
    16ea:	d022      	beq.n	1732 <hciCmdSend+0x66>
  {
    /* if queue not empty */
    if ((p = WsfMsgDeq(&hciCmdCb.cmdQueue, &handlerId)) != NULL)
    16ec:	f107 030b 	add.w	r3, r7, #11
    16f0:	4811      	ldr	r0, [pc, #68]	; (1738 <hciCmdSend+0x6c>)
    16f2:	4619      	mov	r1, r3
    16f4:	f003 fa34 	bl	4b60 <WsfMsgDeq>
    16f8:	60f8      	str	r0, [r7, #12]
    16fa:	68fb      	ldr	r3, [r7, #12]
    16fc:	2b00      	cmp	r3, #0
    16fe:	d018      	beq.n	1732 <hciCmdSend+0x66>
    {
      /* decrement controller command packet count */
      hciCmdCb.numCmdPkts--;
    1700:	4b0e      	ldr	r3, [pc, #56]	; (173c <hciCmdSend+0x70>)
    1702:	7e9b      	ldrb	r3, [r3, #26]
    1704:	3b01      	subs	r3, #1
    1706:	b2da      	uxtb	r2, r3
    1708:	4b0c      	ldr	r3, [pc, #48]	; (173c <hciCmdSend+0x70>)
    170a:	769a      	strb	r2, [r3, #26]
      
      /* store opcode of command we're sending */
      BYTES_TO_UINT16(hciCmdCb.cmdOpcode, p);
    170c:	68fb      	ldr	r3, [r7, #12]
    170e:	781b      	ldrb	r3, [r3, #0]
    1710:	461a      	mov	r2, r3
    1712:	68fb      	ldr	r3, [r7, #12]
    1714:	3301      	adds	r3, #1
    1716:	781b      	ldrb	r3, [r3, #0]
    1718:	021b      	lsls	r3, r3, #8
    171a:	b29b      	uxth	r3, r3
    171c:	4413      	add	r3, r2
    171e:	b29a      	uxth	r2, r3
    1720:	4b06      	ldr	r3, [pc, #24]	; (173c <hciCmdSend+0x70>)
    1722:	831a      	strh	r2, [r3, #24]
      
      /* start command timeout */
      WsfTimerStartSec(&hciCmdCb.cmdTimer, HCI_CMD_TIMEOUT);
    1724:	4805      	ldr	r0, [pc, #20]	; (173c <hciCmdSend+0x70>)
    1726:	2102      	movs	r1, #2
    1728:	f003 fc28 	bl	4f7c <WsfTimerStartSec>
      
      /* send command to transport */
      hciTrSendCmd(p);
    172c:	68f8      	ldr	r0, [r7, #12]
    172e:	f002 f933 	bl	3998 <hciTrSendCmd>
    }
  }
}
    1732:	3710      	adds	r7, #16
    1734:	46bd      	mov	sp, r7
    1736:	bd80      	pop	{r7, pc}
    1738:	10000d5c 	.word	0x10000d5c
    173c:	10000d4c 	.word	0x10000d4c

00001740 <hciCmdInit>:
 *
 *  \return None.
 */
/*************************************************************************************************/
void hciCmdInit(void)
{
    1740:	b480      	push	{r7}
    1742:	af00      	add	r7, sp, #0
  WSF_QUEUE_INIT(&hciCmdCb.cmdQueue);
    1744:	4b09      	ldr	r3, [pc, #36]	; (176c <hciCmdInit+0x2c>)
    1746:	2200      	movs	r2, #0
    1748:	611a      	str	r2, [r3, #16]
    174a:	4b08      	ldr	r3, [pc, #32]	; (176c <hciCmdInit+0x2c>)
    174c:	2200      	movs	r2, #0
    174e:	615a      	str	r2, [r3, #20]

  /* initialize numCmdPkts for special case of first command */
  hciCmdCb.numCmdPkts = 1;
    1750:	4b06      	ldr	r3, [pc, #24]	; (176c <hciCmdInit+0x2c>)
    1752:	2201      	movs	r2, #1
    1754:	769a      	strb	r2, [r3, #26]

  /* initialize timer */
  hciCmdCb.cmdTimer.msg.event = HCI_MSG_CMD_TIMEOUT;
    1756:	4b05      	ldr	r3, [pc, #20]	; (176c <hciCmdInit+0x2c>)
    1758:	2201      	movs	r2, #1
    175a:	731a      	strb	r2, [r3, #12]
  hciCmdCb.cmdTimer.handlerId = hciCb.handlerId;
    175c:	4b04      	ldr	r3, [pc, #16]	; (1770 <hciCmdInit+0x30>)
    175e:	7e1a      	ldrb	r2, [r3, #24]
    1760:	4b02      	ldr	r3, [pc, #8]	; (176c <hciCmdInit+0x2c>)
    1762:	721a      	strb	r2, [r3, #8]
}
    1764:	46bd      	mov	sp, r7
    1766:	f85d 7b04 	ldr.w	r7, [sp], #4
    176a:	4770      	bx	lr
    176c:	10000d4c 	.word	0x10000d4c
    1770:	10000de4 	.word	0x10000de4

00001774 <hciCmdTimeout>:
 *
 *  \return None.
 */
/*************************************************************************************************/
void hciCmdTimeout(wsfMsgHdr_t *pMsg)
{
    1774:	b480      	push	{r7}
    1776:	b083      	sub	sp, #12
    1778:	af00      	add	r7, sp, #0
    177a:	6078      	str	r0, [r7, #4]
  HCI_TRACE_INFO0("hciCmdTimeout");
}
    177c:	370c      	adds	r7, #12
    177e:	46bd      	mov	sp, r7
    1780:	f85d 7b04 	ldr.w	r7, [sp], #4
    1784:	4770      	bx	lr
    1786:	bf00      	nop

00001788 <hciCmdRecvCmpl>:
 *
 *  \return None.
 */
/*************************************************************************************************/
void hciCmdRecvCmpl(uint8_t numCmdPkts)
{
    1788:	b580      	push	{r7, lr}
    178a:	b082      	sub	sp, #8
    178c:	af00      	add	r7, sp, #0
    178e:	4603      	mov	r3, r0
    1790:	71fb      	strb	r3, [r7, #7]
  /* stop the command timeout timer */
  WsfTimerStop(&hciCmdCb.cmdTimer);
    1792:	4806      	ldr	r0, [pc, #24]	; (17ac <hciCmdRecvCmpl+0x24>)
    1794:	f003 fc16 	bl	4fc4 <WsfTimerStop>
  /*
   * Set the number of commands that can be sent to the controller.  Setting this
   * to 1 rather than incrementing by numCmdPkts allows only one command at a time to
   * be sent to the controller and simplifies the code.
   */
  hciCmdCb.numCmdPkts = 1;
    1798:	4b04      	ldr	r3, [pc, #16]	; (17ac <hciCmdRecvCmpl+0x24>)
    179a:	2201      	movs	r2, #1
    179c:	769a      	strb	r2, [r3, #26]
  
  /* send the next queued command */
  hciCmdSend(NULL);
    179e:	2000      	movs	r0, #0
    17a0:	f7ff ff94 	bl	16cc <hciCmdSend>
}
    17a4:	3708      	adds	r7, #8
    17a6:	46bd      	mov	sp, r7
    17a8:	bd80      	pop	{r7, pc}
    17aa:	bf00      	nop
    17ac:	10000d4c 	.word	0x10000d4c

000017b0 <HciDisconnectCmd>:
 *        
 *  \brief  HCI disconnect command.
 */
/*************************************************************************************************/
void HciDisconnectCmd(uint16_t handle, uint8_t reason)
{
    17b0:	b580      	push	{r7, lr}
    17b2:	b084      	sub	sp, #16
    17b4:	af00      	add	r7, sp, #0
    17b6:	4602      	mov	r2, r0
    17b8:	460b      	mov	r3, r1
    17ba:	80fa      	strh	r2, [r7, #6]
    17bc:	717b      	strb	r3, [r7, #5]
  uint8_t *pBuf;
  uint8_t *p;
  
  if ((pBuf = hciCmdAlloc(HCI_OPCODE_DISCONNECT, HCI_LEN_DISCONNECT)) != NULL)
    17be:	f240 4006 	movw	r0, #1030	; 0x406
    17c2:	2103      	movs	r1, #3
    17c4:	f7ff ff54 	bl	1670 <hciCmdAlloc>
    17c8:	60f8      	str	r0, [r7, #12]
    17ca:	68fb      	ldr	r3, [r7, #12]
    17cc:	2b00      	cmp	r3, #0
    17ce:	d018      	beq.n	1802 <HciDisconnectCmd+0x52>
  {
    p = pBuf + HCI_CMD_HDR_LEN;
    17d0:	68fb      	ldr	r3, [r7, #12]
    17d2:	3303      	adds	r3, #3
    17d4:	60bb      	str	r3, [r7, #8]
    UINT16_TO_BSTREAM(p, handle);
    17d6:	68bb      	ldr	r3, [r7, #8]
    17d8:	1c5a      	adds	r2, r3, #1
    17da:	60ba      	str	r2, [r7, #8]
    17dc:	88fa      	ldrh	r2, [r7, #6]
    17de:	b2d2      	uxtb	r2, r2
    17e0:	701a      	strb	r2, [r3, #0]
    17e2:	68bb      	ldr	r3, [r7, #8]
    17e4:	1c5a      	adds	r2, r3, #1
    17e6:	60ba      	str	r2, [r7, #8]
    17e8:	88fa      	ldrh	r2, [r7, #6]
    17ea:	0a12      	lsrs	r2, r2, #8
    17ec:	b292      	uxth	r2, r2
    17ee:	b2d2      	uxtb	r2, r2
    17f0:	701a      	strb	r2, [r3, #0]
    UINT8_TO_BSTREAM(p, reason);
    17f2:	68bb      	ldr	r3, [r7, #8]
    17f4:	1c5a      	adds	r2, r3, #1
    17f6:	60ba      	str	r2, [r7, #8]
    17f8:	797a      	ldrb	r2, [r7, #5]
    17fa:	701a      	strb	r2, [r3, #0]
    hciCmdSend(pBuf);
    17fc:	68f8      	ldr	r0, [r7, #12]
    17fe:	f7ff ff65 	bl	16cc <hciCmdSend>
  }
}
    1802:	3710      	adds	r7, #16
    1804:	46bd      	mov	sp, r7
    1806:	bd80      	pop	{r7, pc}

00001808 <HciLeAddDevWhiteListCmd>:
 *        
 *  \brief  HCI LE add device white list command.
 */
/*************************************************************************************************/
void HciLeAddDevWhiteListCmd(uint8_t addrType, uint8_t *pAddr)
{
    1808:	b580      	push	{r7, lr}
    180a:	b084      	sub	sp, #16
    180c:	af00      	add	r7, sp, #0
    180e:	4603      	mov	r3, r0
    1810:	6039      	str	r1, [r7, #0]
    1812:	71fb      	strb	r3, [r7, #7]
  uint8_t *pBuf;
  uint8_t *p;
  
  if ((pBuf = hciCmdAlloc(HCI_OPCODE_LE_ADD_DEV_WHITE_LIST, HCI_LEN_LE_ADD_DEV_WHITE_LIST)) != NULL)
    1814:	f242 0011 	movw	r0, #8209	; 0x2011
    1818:	2107      	movs	r1, #7
    181a:	f7ff ff29 	bl	1670 <hciCmdAlloc>
    181e:	60f8      	str	r0, [r7, #12]
    1820:	68fb      	ldr	r3, [r7, #12]
    1822:	2b00      	cmp	r3, #0
    1824:	d011      	beq.n	184a <HciLeAddDevWhiteListCmd+0x42>
  {
    p = pBuf + HCI_CMD_HDR_LEN;
    1826:	68fb      	ldr	r3, [r7, #12]
    1828:	3303      	adds	r3, #3
    182a:	60bb      	str	r3, [r7, #8]
    UINT8_TO_BSTREAM(p, addrType);
    182c:	68bb      	ldr	r3, [r7, #8]
    182e:	1c5a      	adds	r2, r3, #1
    1830:	60ba      	str	r2, [r7, #8]
    1832:	79fa      	ldrb	r2, [r7, #7]
    1834:	701a      	strb	r2, [r3, #0]
    BDA_TO_BSTREAM(p, pAddr);
    1836:	68b8      	ldr	r0, [r7, #8]
    1838:	6839      	ldr	r1, [r7, #0]
    183a:	f002 feb3 	bl	45a4 <BdaCpy>
    183e:	68bb      	ldr	r3, [r7, #8]
    1840:	3306      	adds	r3, #6
    1842:	60bb      	str	r3, [r7, #8]
    hciCmdSend(pBuf);
    1844:	68f8      	ldr	r0, [r7, #12]
    1846:	f7ff ff41 	bl	16cc <hciCmdSend>
  }
}
    184a:	3710      	adds	r7, #16
    184c:	46bd      	mov	sp, r7
    184e:	bd80      	pop	{r7, pc}

00001850 <HciLeClearWhiteListCmd>:
 *
 *  \return None.
 */
/*************************************************************************************************/
void HciLeClearWhiteListCmd(void)
{
    1850:	b580      	push	{r7, lr}
    1852:	b082      	sub	sp, #8
    1854:	af00      	add	r7, sp, #0
  uint8_t *pBuf;
  
  if ((pBuf = hciCmdAlloc(HCI_OPCODE_LE_CLEAR_WHITE_LIST, HCI_LEN_LE_CLEAR_WHITE_LIST)) != NULL)
    1856:	f242 0010 	movw	r0, #8208	; 0x2010
    185a:	2100      	movs	r1, #0
    185c:	f7ff ff08 	bl	1670 <hciCmdAlloc>
    1860:	6078      	str	r0, [r7, #4]
    1862:	687b      	ldr	r3, [r7, #4]
    1864:	2b00      	cmp	r3, #0
    1866:	d002      	beq.n	186e <HciLeClearWhiteListCmd+0x1e>
  {
    hciCmdSend(pBuf);
    1868:	6878      	ldr	r0, [r7, #4]
    186a:	f7ff ff2f 	bl	16cc <hciCmdSend>
  }
}
    186e:	3708      	adds	r7, #8
    1870:	46bd      	mov	sp, r7
    1872:	bd80      	pop	{r7, pc}

00001874 <HciLeEncryptCmd>:
 *        
 *  \return None.
 */
/*************************************************************************************************/
void HciLeEncryptCmd(uint8_t *pKey, uint8_t *pData)
{
    1874:	b580      	push	{r7, lr}
    1876:	b084      	sub	sp, #16
    1878:	af00      	add	r7, sp, #0
    187a:	6078      	str	r0, [r7, #4]
    187c:	6039      	str	r1, [r7, #0]
  uint8_t *pBuf;
  uint8_t *p;
  
  if ((pBuf = hciCmdAlloc(HCI_OPCODE_LE_ENCRYPT, HCI_LEN_LE_ENCRYPT)) != NULL)
    187e:	f242 0017 	movw	r0, #8215	; 0x2017
    1882:	2120      	movs	r1, #32
    1884:	f7ff fef4 	bl	1670 <hciCmdAlloc>
    1888:	60f8      	str	r0, [r7, #12]
    188a:	68fb      	ldr	r3, [r7, #12]
    188c:	2b00      	cmp	r3, #0
    188e:	d012      	beq.n	18b6 <HciLeEncryptCmd+0x42>
  {
    p = pBuf + HCI_CMD_HDR_LEN;
    1890:	68fb      	ldr	r3, [r7, #12]
    1892:	3303      	adds	r3, #3
    1894:	60bb      	str	r3, [r7, #8]
    memcpy(p, pKey, HCI_KEY_LEN);
    1896:	68b8      	ldr	r0, [r7, #8]
    1898:	6879      	ldr	r1, [r7, #4]
    189a:	2210      	movs	r2, #16
    189c:	f008 f9f0 	bl	9c80 <memcpy>
    p += HCI_KEY_LEN;
    18a0:	68bb      	ldr	r3, [r7, #8]
    18a2:	3310      	adds	r3, #16
    18a4:	60bb      	str	r3, [r7, #8]
    memcpy(p, pData, HCI_ENCRYPT_DATA_LEN);
    18a6:	68b8      	ldr	r0, [r7, #8]
    18a8:	6839      	ldr	r1, [r7, #0]
    18aa:	2210      	movs	r2, #16
    18ac:	f008 f9e8 	bl	9c80 <memcpy>
    hciCmdSend(pBuf);
    18b0:	68f8      	ldr	r0, [r7, #12]
    18b2:	f7ff ff0b 	bl	16cc <hciCmdSend>
  }
}
    18b6:	3710      	adds	r7, #16
    18b8:	46bd      	mov	sp, r7
    18ba:	bd80      	pop	{r7, pc}

000018bc <HciLeLtkReqNegReplCmd>:
 *        
 *  \return None.
 */
/*************************************************************************************************/
void HciLeLtkReqNegReplCmd(uint16_t handle)
{
    18bc:	b580      	push	{r7, lr}
    18be:	b084      	sub	sp, #16
    18c0:	af00      	add	r7, sp, #0
    18c2:	4603      	mov	r3, r0
    18c4:	80fb      	strh	r3, [r7, #6]
  uint8_t *pBuf;
  uint8_t *p;
  
  if ((pBuf = hciCmdAlloc(HCI_OPCODE_LE_LTK_REQ_NEG_REPL, HCI_LEN_LE_LTK_REQ_NEG_REPL)) != NULL)
    18c6:	f242 001b 	movw	r0, #8219	; 0x201b
    18ca:	2102      	movs	r1, #2
    18cc:	f7ff fed0 	bl	1670 <hciCmdAlloc>
    18d0:	60f8      	str	r0, [r7, #12]
    18d2:	68fb      	ldr	r3, [r7, #12]
    18d4:	2b00      	cmp	r3, #0
    18d6:	d013      	beq.n	1900 <HciLeLtkReqNegReplCmd+0x44>
  {
    p = pBuf + HCI_CMD_HDR_LEN;
    18d8:	68fb      	ldr	r3, [r7, #12]
    18da:	3303      	adds	r3, #3
    18dc:	60bb      	str	r3, [r7, #8]
    UINT16_TO_BSTREAM(p, handle);
    18de:	68bb      	ldr	r3, [r7, #8]
    18e0:	1c5a      	adds	r2, r3, #1
    18e2:	60ba      	str	r2, [r7, #8]
    18e4:	88fa      	ldrh	r2, [r7, #6]
    18e6:	b2d2      	uxtb	r2, r2
    18e8:	701a      	strb	r2, [r3, #0]
    18ea:	68bb      	ldr	r3, [r7, #8]
    18ec:	1c5a      	adds	r2, r3, #1
    18ee:	60ba      	str	r2, [r7, #8]
    18f0:	88fa      	ldrh	r2, [r7, #6]
    18f2:	0a12      	lsrs	r2, r2, #8
    18f4:	b292      	uxth	r2, r2
    18f6:	b2d2      	uxtb	r2, r2
    18f8:	701a      	strb	r2, [r3, #0]
    hciCmdSend(pBuf);
    18fa:	68f8      	ldr	r0, [r7, #12]
    18fc:	f7ff fee6 	bl	16cc <hciCmdSend>
  }
}
    1900:	3710      	adds	r7, #16
    1902:	46bd      	mov	sp, r7
    1904:	bd80      	pop	{r7, pc}
    1906:	bf00      	nop

00001908 <HciLeLtkReqReplCmd>:
 *        
 *  \return None.
 */
/*************************************************************************************************/
void HciLeLtkReqReplCmd(uint16_t handle, uint8_t *pKey)
{
    1908:	b580      	push	{r7, lr}
    190a:	b084      	sub	sp, #16
    190c:	af00      	add	r7, sp, #0
    190e:	4603      	mov	r3, r0
    1910:	6039      	str	r1, [r7, #0]
    1912:	80fb      	strh	r3, [r7, #6]
  uint8_t *pBuf;
  uint8_t *p;
  
  if ((pBuf = hciCmdAlloc(HCI_OPCODE_LE_LTK_REQ_REPL, HCI_LEN_LE_LTK_REQ_REPL)) != NULL)
    1914:	f242 001a 	movw	r0, #8218	; 0x201a
    1918:	2112      	movs	r1, #18
    191a:	f7ff fea9 	bl	1670 <hciCmdAlloc>
    191e:	60f8      	str	r0, [r7, #12]
    1920:	68fb      	ldr	r3, [r7, #12]
    1922:	2b00      	cmp	r3, #0
    1924:	d018      	beq.n	1958 <HciLeLtkReqReplCmd+0x50>
  {
    p = pBuf + HCI_CMD_HDR_LEN;
    1926:	68fb      	ldr	r3, [r7, #12]
    1928:	3303      	adds	r3, #3
    192a:	60bb      	str	r3, [r7, #8]
    UINT16_TO_BSTREAM(p, handle);
    192c:	68bb      	ldr	r3, [r7, #8]
    192e:	1c5a      	adds	r2, r3, #1
    1930:	60ba      	str	r2, [r7, #8]
    1932:	88fa      	ldrh	r2, [r7, #6]
    1934:	b2d2      	uxtb	r2, r2
    1936:	701a      	strb	r2, [r3, #0]
    1938:	68bb      	ldr	r3, [r7, #8]
    193a:	1c5a      	adds	r2, r3, #1
    193c:	60ba      	str	r2, [r7, #8]
    193e:	88fa      	ldrh	r2, [r7, #6]
    1940:	0a12      	lsrs	r2, r2, #8
    1942:	b292      	uxth	r2, r2
    1944:	b2d2      	uxtb	r2, r2
    1946:	701a      	strb	r2, [r3, #0]
    memcpy(p, pKey, HCI_KEY_LEN);
    1948:	68b8      	ldr	r0, [r7, #8]
    194a:	6839      	ldr	r1, [r7, #0]
    194c:	2210      	movs	r2, #16
    194e:	f008 f997 	bl	9c80 <memcpy>
    hciCmdSend(pBuf);
    1952:	68f8      	ldr	r0, [r7, #12]
    1954:	f7ff feba 	bl	16cc <hciCmdSend>
  }
}
    1958:	3710      	adds	r7, #16
    195a:	46bd      	mov	sp, r7
    195c:	bd80      	pop	{r7, pc}
    195e:	bf00      	nop

00001960 <HciLeRandCmd>:
 *        
 *  \return None.
 */
/*************************************************************************************************/
void HciLeRandCmd(void)
{
    1960:	b580      	push	{r7, lr}
    1962:	b082      	sub	sp, #8
    1964:	af00      	add	r7, sp, #0
  uint8_t *pBuf;
  
  if ((pBuf = hciCmdAlloc(HCI_OPCODE_LE_RAND, HCI_LEN_LE_RAND)) != NULL)
    1966:	f242 0018 	movw	r0, #8216	; 0x2018
    196a:	2100      	movs	r1, #0
    196c:	f7ff fe80 	bl	1670 <hciCmdAlloc>
    1970:	6078      	str	r0, [r7, #4]
    1972:	687b      	ldr	r3, [r7, #4]
    1974:	2b00      	cmp	r3, #0
    1976:	d002      	beq.n	197e <HciLeRandCmd+0x1e>
  {
    hciCmdSend(pBuf);
    1978:	6878      	ldr	r0, [r7, #4]
    197a:	f7ff fea7 	bl	16cc <hciCmdSend>
  }
}
    197e:	3708      	adds	r7, #8
    1980:	46bd      	mov	sp, r7
    1982:	bd80      	pop	{r7, pc}

00001984 <HciLeReadBufSizeCmd>:
 *        
 *  \return None.
 */
/*************************************************************************************************/
void HciLeReadBufSizeCmd(void)
{
    1984:	b580      	push	{r7, lr}
    1986:	b082      	sub	sp, #8
    1988:	af00      	add	r7, sp, #0
  uint8_t *pBuf;
  
  if ((pBuf = hciCmdAlloc(HCI_OPCODE_LE_READ_BUF_SIZE, HCI_LEN_LE_READ_BUF_SIZE)) != NULL)
    198a:	f242 0002 	movw	r0, #8194	; 0x2002
    198e:	2100      	movs	r1, #0
    1990:	f7ff fe6e 	bl	1670 <hciCmdAlloc>
    1994:	6078      	str	r0, [r7, #4]
    1996:	687b      	ldr	r3, [r7, #4]
    1998:	2b00      	cmp	r3, #0
    199a:	d002      	beq.n	19a2 <HciLeReadBufSizeCmd+0x1e>
  {
    hciCmdSend(pBuf);
    199c:	6878      	ldr	r0, [r7, #4]
    199e:	f7ff fe95 	bl	16cc <hciCmdSend>
  }
}
    19a2:	3708      	adds	r7, #8
    19a4:	46bd      	mov	sp, r7
    19a6:	bd80      	pop	{r7, pc}

000019a8 <HciLeReadSupStatesCmd>:
 *        
 *  \return None.
 */
/*************************************************************************************************/
void HciLeReadSupStatesCmd(void)
{
    19a8:	b580      	push	{r7, lr}
    19aa:	b082      	sub	sp, #8
    19ac:	af00      	add	r7, sp, #0
  uint8_t *pBuf;
  
  if ((pBuf = hciCmdAlloc(HCI_OPCODE_LE_READ_SUP_STATES, HCI_LEN_LE_READ_SUP_STATES)) != NULL)
    19ae:	f242 001c 	movw	r0, #8220	; 0x201c
    19b2:	2100      	movs	r1, #0
    19b4:	f7ff fe5c 	bl	1670 <hciCmdAlloc>
    19b8:	6078      	str	r0, [r7, #4]
    19ba:	687b      	ldr	r3, [r7, #4]
    19bc:	2b00      	cmp	r3, #0
    19be:	d002      	beq.n	19c6 <HciLeReadSupStatesCmd+0x1e>
  {
    hciCmdSend(pBuf);
    19c0:	6878      	ldr	r0, [r7, #4]
    19c2:	f7ff fe83 	bl	16cc <hciCmdSend>
  }
}
    19c6:	3708      	adds	r7, #8
    19c8:	46bd      	mov	sp, r7
    19ca:	bd80      	pop	{r7, pc}

000019cc <HciLeReadWhiteListSizeCmd>:
 *        
 *  \return None.
 */
/*************************************************************************************************/
void HciLeReadWhiteListSizeCmd(void)
{
    19cc:	b580      	push	{r7, lr}
    19ce:	b082      	sub	sp, #8
    19d0:	af00      	add	r7, sp, #0
  uint8_t *pBuf;
  
  if ((pBuf = hciCmdAlloc(HCI_OPCODE_LE_READ_WHITE_LIST_SIZE, HCI_LEN_LE_READ_WHITE_LIST_SIZE)) != NULL)
    19d2:	f242 000f 	movw	r0, #8207	; 0x200f
    19d6:	2100      	movs	r1, #0
    19d8:	f7ff fe4a 	bl	1670 <hciCmdAlloc>
    19dc:	6078      	str	r0, [r7, #4]
    19de:	687b      	ldr	r3, [r7, #4]
    19e0:	2b00      	cmp	r3, #0
    19e2:	d002      	beq.n	19ea <HciLeReadWhiteListSizeCmd+0x1e>
  {
    hciCmdSend(pBuf);
    19e4:	6878      	ldr	r0, [r7, #4]
    19e6:	f7ff fe71 	bl	16cc <hciCmdSend>
  }
}
    19ea:	3708      	adds	r7, #8
    19ec:	46bd      	mov	sp, r7
    19ee:	bd80      	pop	{r7, pc}

000019f0 <HciLeRemoveDevWhiteListCmd>:
 *        
 *  \return None.
 */
/*************************************************************************************************/
void HciLeRemoveDevWhiteListCmd(uint8_t addrType, uint8_t *pAddr)
{
    19f0:	b580      	push	{r7, lr}
    19f2:	b084      	sub	sp, #16
    19f4:	af00      	add	r7, sp, #0
    19f6:	4603      	mov	r3, r0
    19f8:	6039      	str	r1, [r7, #0]
    19fa:	71fb      	strb	r3, [r7, #7]
  uint8_t *pBuf;
  uint8_t *p;
  
  if ((pBuf = hciCmdAlloc(HCI_OPCODE_LE_REMOVE_DEV_WHITE_LIST, HCI_LEN_LE_REMOVE_DEV_WHITE_LIST)) != NULL)
    19fc:	f242 0012 	movw	r0, #8210	; 0x2012
    1a00:	2107      	movs	r1, #7
    1a02:	f7ff fe35 	bl	1670 <hciCmdAlloc>
    1a06:	60f8      	str	r0, [r7, #12]
    1a08:	68fb      	ldr	r3, [r7, #12]
    1a0a:	2b00      	cmp	r3, #0
    1a0c:	d011      	beq.n	1a32 <HciLeRemoveDevWhiteListCmd+0x42>
  {
    p = pBuf + HCI_CMD_HDR_LEN;
    1a0e:	68fb      	ldr	r3, [r7, #12]
    1a10:	3303      	adds	r3, #3
    1a12:	60bb      	str	r3, [r7, #8]
    UINT8_TO_BSTREAM(p, addrType);
    1a14:	68bb      	ldr	r3, [r7, #8]
    1a16:	1c5a      	adds	r2, r3, #1
    1a18:	60ba      	str	r2, [r7, #8]
    1a1a:	79fa      	ldrb	r2, [r7, #7]
    1a1c:	701a      	strb	r2, [r3, #0]
    BDA_TO_BSTREAM(p, pAddr);
    1a1e:	68b8      	ldr	r0, [r7, #8]
    1a20:	6839      	ldr	r1, [r7, #0]
    1a22:	f002 fdbf 	bl	45a4 <BdaCpy>
    1a26:	68bb      	ldr	r3, [r7, #8]
    1a28:	3306      	adds	r3, #6
    1a2a:	60bb      	str	r3, [r7, #8]
    hciCmdSend(pBuf);
    1a2c:	68f8      	ldr	r0, [r7, #12]
    1a2e:	f7ff fe4d 	bl	16cc <hciCmdSend>
  }
}
    1a32:	3710      	adds	r7, #16
    1a34:	46bd      	mov	sp, r7
    1a36:	bd80      	pop	{r7, pc}

00001a38 <HciLeSetAdvEnableCmd>:
 *        
 *  \return None.
 */
/*************************************************************************************************/
void HciLeSetAdvEnableCmd(uint8_t enable)
{
    1a38:	b580      	push	{r7, lr}
    1a3a:	b084      	sub	sp, #16
    1a3c:	af00      	add	r7, sp, #0
    1a3e:	4603      	mov	r3, r0
    1a40:	71fb      	strb	r3, [r7, #7]
  uint8_t *pBuf;
  uint8_t *p;

  if ((pBuf = hciCmdAlloc(HCI_OPCODE_LE_SET_ADV_ENABLE, HCI_LEN_LE_SET_ADV_ENABLE)) != NULL)
    1a42:	f242 000a 	movw	r0, #8202	; 0x200a
    1a46:	2101      	movs	r1, #1
    1a48:	f7ff fe12 	bl	1670 <hciCmdAlloc>
    1a4c:	60f8      	str	r0, [r7, #12]
    1a4e:	68fb      	ldr	r3, [r7, #12]
    1a50:	2b00      	cmp	r3, #0
    1a52:	d00a      	beq.n	1a6a <HciLeSetAdvEnableCmd+0x32>
  {
    p = pBuf + HCI_CMD_HDR_LEN;
    1a54:	68fb      	ldr	r3, [r7, #12]
    1a56:	3303      	adds	r3, #3
    1a58:	60bb      	str	r3, [r7, #8]
    UINT8_TO_BSTREAM(p, enable);
    1a5a:	68bb      	ldr	r3, [r7, #8]
    1a5c:	1c5a      	adds	r2, r3, #1
    1a5e:	60ba      	str	r2, [r7, #8]
    1a60:	79fa      	ldrb	r2, [r7, #7]
    1a62:	701a      	strb	r2, [r3, #0]
    hciCmdSend(pBuf);
    1a64:	68f8      	ldr	r0, [r7, #12]
    1a66:	f7ff fe31 	bl	16cc <hciCmdSend>
  }
}
    1a6a:	3710      	adds	r7, #16
    1a6c:	46bd      	mov	sp, r7
    1a6e:	bd80      	pop	{r7, pc}

00001a70 <HciLeSetAdvDataCmd>:
 *        
 *  \return None.
 */
/*************************************************************************************************/
void HciLeSetAdvDataCmd(uint8_t len, uint8_t *pData)
{
    1a70:	b580      	push	{r7, lr}
    1a72:	b084      	sub	sp, #16
    1a74:	af00      	add	r7, sp, #0
    1a76:	4603      	mov	r3, r0
    1a78:	6039      	str	r1, [r7, #0]
    1a7a:	71fb      	strb	r3, [r7, #7]
  uint8_t *pBuf;
  uint8_t *p;
  
  if ((pBuf = hciCmdAlloc(HCI_OPCODE_LE_SET_ADV_DATA, HCI_LEN_LE_SET_ADV_DATA)) != NULL)
    1a7c:	f242 0008 	movw	r0, #8200	; 0x2008
    1a80:	2120      	movs	r1, #32
    1a82:	f7ff fdf5 	bl	1670 <hciCmdAlloc>
    1a86:	60f8      	str	r0, [r7, #12]
    1a88:	68fb      	ldr	r3, [r7, #12]
    1a8a:	2b00      	cmp	r3, #0
    1a8c:	d01c      	beq.n	1ac8 <HciLeSetAdvDataCmd+0x58>
  {
    p = pBuf + HCI_CMD_HDR_LEN;
    1a8e:	68fb      	ldr	r3, [r7, #12]
    1a90:	3303      	adds	r3, #3
    1a92:	60bb      	str	r3, [r7, #8]
    UINT8_TO_BSTREAM(p, len);
    1a94:	68bb      	ldr	r3, [r7, #8]
    1a96:	1c5a      	adds	r2, r3, #1
    1a98:	60ba      	str	r2, [r7, #8]
    1a9a:	79fa      	ldrb	r2, [r7, #7]
    1a9c:	701a      	strb	r2, [r3, #0]
    memcpy(p, pData, len);
    1a9e:	79fb      	ldrb	r3, [r7, #7]
    1aa0:	68b8      	ldr	r0, [r7, #8]
    1aa2:	6839      	ldr	r1, [r7, #0]
    1aa4:	461a      	mov	r2, r3
    1aa6:	f008 f8eb 	bl	9c80 <memcpy>
    p += len;
    1aaa:	79fb      	ldrb	r3, [r7, #7]
    1aac:	68ba      	ldr	r2, [r7, #8]
    1aae:	4413      	add	r3, r2
    1ab0:	60bb      	str	r3, [r7, #8]
    memset(p, 0, (HCI_ADV_DATA_LEN - len));
    1ab2:	79fb      	ldrb	r3, [r7, #7]
    1ab4:	f1c3 031f 	rsb	r3, r3, #31
    1ab8:	68b8      	ldr	r0, [r7, #8]
    1aba:	2100      	movs	r1, #0
    1abc:	461a      	mov	r2, r3
    1abe:	f008 f9d9 	bl	9e74 <memset>
    hciCmdSend(pBuf);
    1ac2:	68f8      	ldr	r0, [r7, #12]
    1ac4:	f7ff fe02 	bl	16cc <hciCmdSend>
  }
}
    1ac8:	3710      	adds	r7, #16
    1aca:	46bd      	mov	sp, r7
    1acc:	bd80      	pop	{r7, pc}
    1ace:	bf00      	nop

00001ad0 <HciLeSetAdvParamCmd>:
 */
/*************************************************************************************************/
void HciLeSetAdvParamCmd(uint16_t advIntervalMin, uint16_t advIntervalMax, uint8_t advType,
                         uint8_t ownAddrType, uint8_t directAddrType, uint8_t *pDirectAddr,
                         uint8_t advChanMap, uint8_t advFiltPolicy)
{
    1ad0:	b580      	push	{r7, lr}
    1ad2:	b084      	sub	sp, #16
    1ad4:	af00      	add	r7, sp, #0
    1ad6:	80f8      	strh	r0, [r7, #6]
    1ad8:	80b9      	strh	r1, [r7, #4]
    1ada:	70fa      	strb	r2, [r7, #3]
    1adc:	70bb      	strb	r3, [r7, #2]
  uint8_t *pBuf;
  uint8_t *p;
  
  if ((pBuf = hciCmdAlloc(HCI_OPCODE_LE_SET_ADV_PARAM, HCI_LEN_LE_SET_ADV_PARAM)) != NULL)
    1ade:	f242 0006 	movw	r0, #8198	; 0x2006
    1ae2:	210f      	movs	r1, #15
    1ae4:	f7ff fdc4 	bl	1670 <hciCmdAlloc>
    1ae8:	60b8      	str	r0, [r7, #8]
    1aea:	68bb      	ldr	r3, [r7, #8]
    1aec:	2b00      	cmp	r3, #0
    1aee:	d04b      	beq.n	1b88 <HciLeSetAdvParamCmd+0xb8>
  {
    p = pBuf + HCI_CMD_HDR_LEN;
    1af0:	68bb      	ldr	r3, [r7, #8]
    1af2:	3303      	adds	r3, #3
    1af4:	60fb      	str	r3, [r7, #12]
    UINT16_TO_BSTREAM(p, advIntervalMin);
    1af6:	68fb      	ldr	r3, [r7, #12]
    1af8:	1c5a      	adds	r2, r3, #1
    1afa:	60fa      	str	r2, [r7, #12]
    1afc:	88fa      	ldrh	r2, [r7, #6]
    1afe:	b2d2      	uxtb	r2, r2
    1b00:	701a      	strb	r2, [r3, #0]
    1b02:	68fb      	ldr	r3, [r7, #12]
    1b04:	1c5a      	adds	r2, r3, #1
    1b06:	60fa      	str	r2, [r7, #12]
    1b08:	88fa      	ldrh	r2, [r7, #6]
    1b0a:	0a12      	lsrs	r2, r2, #8
    1b0c:	b292      	uxth	r2, r2
    1b0e:	b2d2      	uxtb	r2, r2
    1b10:	701a      	strb	r2, [r3, #0]
    UINT16_TO_BSTREAM(p, advIntervalMax);
    1b12:	68fb      	ldr	r3, [r7, #12]
    1b14:	1c5a      	adds	r2, r3, #1
    1b16:	60fa      	str	r2, [r7, #12]
    1b18:	88ba      	ldrh	r2, [r7, #4]
    1b1a:	b2d2      	uxtb	r2, r2
    1b1c:	701a      	strb	r2, [r3, #0]
    1b1e:	68fb      	ldr	r3, [r7, #12]
    1b20:	1c5a      	adds	r2, r3, #1
    1b22:	60fa      	str	r2, [r7, #12]
    1b24:	88ba      	ldrh	r2, [r7, #4]
    1b26:	0a12      	lsrs	r2, r2, #8
    1b28:	b292      	uxth	r2, r2
    1b2a:	b2d2      	uxtb	r2, r2
    1b2c:	701a      	strb	r2, [r3, #0]
    UINT8_TO_BSTREAM(p, advType);
    1b2e:	68fb      	ldr	r3, [r7, #12]
    1b30:	1c5a      	adds	r2, r3, #1
    1b32:	60fa      	str	r2, [r7, #12]
    1b34:	78fa      	ldrb	r2, [r7, #3]
    1b36:	701a      	strb	r2, [r3, #0]
    UINT8_TO_BSTREAM(p, ownAddrType);
    1b38:	68fb      	ldr	r3, [r7, #12]
    1b3a:	1c5a      	adds	r2, r3, #1
    1b3c:	60fa      	str	r2, [r7, #12]
    1b3e:	78ba      	ldrb	r2, [r7, #2]
    1b40:	701a      	strb	r2, [r3, #0]
    UINT8_TO_BSTREAM(p, directAddrType);
    1b42:	68fb      	ldr	r3, [r7, #12]
    1b44:	1c5a      	adds	r2, r3, #1
    1b46:	60fa      	str	r2, [r7, #12]
    1b48:	7e3a      	ldrb	r2, [r7, #24]
    1b4a:	701a      	strb	r2, [r3, #0]
    if (pDirectAddr != NULL)
    1b4c:	69fb      	ldr	r3, [r7, #28]
    1b4e:	2b00      	cmp	r3, #0
    1b50:	d007      	beq.n	1b62 <HciLeSetAdvParamCmd+0x92>
    {
      BDA_TO_BSTREAM(p, pDirectAddr);
    1b52:	68f8      	ldr	r0, [r7, #12]
    1b54:	69f9      	ldr	r1, [r7, #28]
    1b56:	f002 fd25 	bl	45a4 <BdaCpy>
    1b5a:	68fb      	ldr	r3, [r7, #12]
    1b5c:	3306      	adds	r3, #6
    1b5e:	60fb      	str	r3, [r7, #12]
    1b60:	e003      	b.n	1b6a <HciLeSetAdvParamCmd+0x9a>
    }
    else
    {
      p = BdaClr(p);
    1b62:	68f8      	ldr	r0, [r7, #12]
    1b64:	f002 fd40 	bl	45e8 <BdaClr>
    1b68:	60f8      	str	r0, [r7, #12]
    }
    UINT8_TO_BSTREAM(p, advChanMap);
    1b6a:	68fb      	ldr	r3, [r7, #12]
    1b6c:	1c5a      	adds	r2, r3, #1
    1b6e:	60fa      	str	r2, [r7, #12]
    1b70:	f897 2020 	ldrb.w	r2, [r7, #32]
    1b74:	701a      	strb	r2, [r3, #0]
    UINT8_TO_BSTREAM(p, advFiltPolicy);
    1b76:	68fb      	ldr	r3, [r7, #12]
    1b78:	1c5a      	adds	r2, r3, #1
    1b7a:	60fa      	str	r2, [r7, #12]
    1b7c:	f897 2024 	ldrb.w	r2, [r7, #36]	; 0x24
    1b80:	701a      	strb	r2, [r3, #0]
    hciCmdSend(pBuf);
    1b82:	68b8      	ldr	r0, [r7, #8]
    1b84:	f7ff fda2 	bl	16cc <hciCmdSend>
  }
}
    1b88:	3710      	adds	r7, #16
    1b8a:	46bd      	mov	sp, r7
    1b8c:	bd80      	pop	{r7, pc}
    1b8e:	bf00      	nop

00001b90 <HciLeSetEventMaskCmd>:
 *        
 *  \return None.
 */
/*************************************************************************************************/
void HciLeSetEventMaskCmd(uint8_t *pLeEventMask)
{
    1b90:	b580      	push	{r7, lr}
    1b92:	b084      	sub	sp, #16
    1b94:	af00      	add	r7, sp, #0
    1b96:	6078      	str	r0, [r7, #4]
  uint8_t *pBuf;
  uint8_t *p;
  
  if ((pBuf = hciCmdAlloc(HCI_OPCODE_LE_SET_EVENT_MASK, HCI_LEN_LE_SET_EVENT_MASK)) != NULL)
    1b98:	f242 0001 	movw	r0, #8193	; 0x2001
    1b9c:	2108      	movs	r1, #8
    1b9e:	f7ff fd67 	bl	1670 <hciCmdAlloc>
    1ba2:	60f8      	str	r0, [r7, #12]
    1ba4:	68fb      	ldr	r3, [r7, #12]
    1ba6:	2b00      	cmp	r3, #0
    1ba8:	d00a      	beq.n	1bc0 <HciLeSetEventMaskCmd+0x30>
  {
    p = pBuf + HCI_CMD_HDR_LEN;
    1baa:	68fb      	ldr	r3, [r7, #12]
    1bac:	3303      	adds	r3, #3
    1bae:	60bb      	str	r3, [r7, #8]
    memcpy(p, pLeEventMask, HCI_LE_EVT_MASK_LEN);
    1bb0:	68b8      	ldr	r0, [r7, #8]
    1bb2:	6879      	ldr	r1, [r7, #4]
    1bb4:	2208      	movs	r2, #8
    1bb6:	f008 f863 	bl	9c80 <memcpy>
    hciCmdSend(pBuf);
    1bba:	68f8      	ldr	r0, [r7, #12]
    1bbc:	f7ff fd86 	bl	16cc <hciCmdSend>
  }
}
    1bc0:	3710      	adds	r7, #16
    1bc2:	46bd      	mov	sp, r7
    1bc4:	bd80      	pop	{r7, pc}
    1bc6:	bf00      	nop

00001bc8 <HciLeSetRandAddrCmd>:
 *        
 *  \return None.
 */
/*************************************************************************************************/
void HciLeSetRandAddrCmd(uint8_t *pAddr)
{
    1bc8:	b580      	push	{r7, lr}
    1bca:	b084      	sub	sp, #16
    1bcc:	af00      	add	r7, sp, #0
    1bce:	6078      	str	r0, [r7, #4]
  uint8_t *pBuf;
  uint8_t *p;
  
  if ((pBuf = hciCmdAlloc(HCI_OPCODE_LE_SET_RAND_ADDR, HCI_LEN_LE_SET_RAND_ADDR)) != NULL)
    1bd0:	f242 0005 	movw	r0, #8197	; 0x2005
    1bd4:	2106      	movs	r1, #6
    1bd6:	f7ff fd4b 	bl	1670 <hciCmdAlloc>
    1bda:	60f8      	str	r0, [r7, #12]
    1bdc:	68fb      	ldr	r3, [r7, #12]
    1bde:	2b00      	cmp	r3, #0
    1be0:	d00c      	beq.n	1bfc <HciLeSetRandAddrCmd+0x34>
  {
    p = pBuf + HCI_CMD_HDR_LEN;
    1be2:	68fb      	ldr	r3, [r7, #12]
    1be4:	3303      	adds	r3, #3
    1be6:	60bb      	str	r3, [r7, #8]
    BDA_TO_BSTREAM(p, pAddr);
    1be8:	68b8      	ldr	r0, [r7, #8]
    1bea:	6879      	ldr	r1, [r7, #4]
    1bec:	f002 fcda 	bl	45a4 <BdaCpy>
    1bf0:	68bb      	ldr	r3, [r7, #8]
    1bf2:	3306      	adds	r3, #6
    1bf4:	60bb      	str	r3, [r7, #8]
    hciCmdSend(pBuf);
    1bf6:	68f8      	ldr	r0, [r7, #12]
    1bf8:	f7ff fd68 	bl	16cc <hciCmdSend>
  }
}
    1bfc:	3710      	adds	r7, #16
    1bfe:	46bd      	mov	sp, r7
    1c00:	bd80      	pop	{r7, pc}
    1c02:	bf00      	nop

00001c04 <HciLeSetScanEnableCmd>:
 *        
 *  \return None.
 */
/*************************************************************************************************/
void HciLeSetScanEnableCmd(uint8_t enable, uint8_t filterDup)
{
    1c04:	b580      	push	{r7, lr}
    1c06:	b084      	sub	sp, #16
    1c08:	af00      	add	r7, sp, #0
    1c0a:	4602      	mov	r2, r0
    1c0c:	460b      	mov	r3, r1
    1c0e:	71fa      	strb	r2, [r7, #7]
    1c10:	71bb      	strb	r3, [r7, #6]
  uint8_t *pBuf;
  uint8_t *p;
  
  if ((pBuf = hciCmdAlloc(HCI_OPCODE_LE_SET_SCAN_ENABLE, HCI_LEN_LE_SET_SCAN_ENABLE)) != NULL)
    1c12:	f242 000c 	movw	r0, #8204	; 0x200c
    1c16:	2102      	movs	r1, #2
    1c18:	f7ff fd2a 	bl	1670 <hciCmdAlloc>
    1c1c:	60f8      	str	r0, [r7, #12]
    1c1e:	68fb      	ldr	r3, [r7, #12]
    1c20:	2b00      	cmp	r3, #0
    1c22:	d00f      	beq.n	1c44 <HciLeSetScanEnableCmd+0x40>
  {
    p = pBuf + HCI_CMD_HDR_LEN;
    1c24:	68fb      	ldr	r3, [r7, #12]
    1c26:	3303      	adds	r3, #3
    1c28:	60bb      	str	r3, [r7, #8]
    UINT8_TO_BSTREAM(p, enable);
    1c2a:	68bb      	ldr	r3, [r7, #8]
    1c2c:	1c5a      	adds	r2, r3, #1
    1c2e:	60ba      	str	r2, [r7, #8]
    1c30:	79fa      	ldrb	r2, [r7, #7]
    1c32:	701a      	strb	r2, [r3, #0]
    UINT8_TO_BSTREAM(p, filterDup);
    1c34:	68bb      	ldr	r3, [r7, #8]
    1c36:	1c5a      	adds	r2, r3, #1
    1c38:	60ba      	str	r2, [r7, #8]
    1c3a:	79ba      	ldrb	r2, [r7, #6]
    1c3c:	701a      	strb	r2, [r3, #0]
    hciCmdSend(pBuf);
    1c3e:	68f8      	ldr	r0, [r7, #12]
    1c40:	f7ff fd44 	bl	16cc <hciCmdSend>
  }
}
    1c44:	3710      	adds	r7, #16
    1c46:	46bd      	mov	sp, r7
    1c48:	bd80      	pop	{r7, pc}
    1c4a:	bf00      	nop

00001c4c <HciLeSetScanParamCmd>:
 *  \return None.
 */
/*************************************************************************************************/
void HciLeSetScanParamCmd(uint8_t scanType, uint16_t scanInterval, uint16_t scanWindow,
                          uint8_t ownAddrType, uint8_t scanFiltPolicy)
{
    1c4c:	b580      	push	{r7, lr}
    1c4e:	b084      	sub	sp, #16
    1c50:	af00      	add	r7, sp, #0
    1c52:	71f8      	strb	r0, [r7, #7]
    1c54:	80b9      	strh	r1, [r7, #4]
    1c56:	807a      	strh	r2, [r7, #2]
    1c58:	71bb      	strb	r3, [r7, #6]
  uint8_t *pBuf;
  uint8_t *p;
  
  if ((pBuf = hciCmdAlloc(HCI_OPCODE_LE_SET_SCAN_PARAM, HCI_LEN_LE_SET_SCAN_PARAM)) != NULL)
    1c5a:	f242 000b 	movw	r0, #8203	; 0x200b
    1c5e:	2107      	movs	r1, #7
    1c60:	f7ff fd06 	bl	1670 <hciCmdAlloc>
    1c64:	60f8      	str	r0, [r7, #12]
    1c66:	68fb      	ldr	r3, [r7, #12]
    1c68:	2b00      	cmp	r3, #0
    1c6a:	d030      	beq.n	1cce <HciLeSetScanParamCmd+0x82>
  {
    p = pBuf + HCI_CMD_HDR_LEN;
    1c6c:	68fb      	ldr	r3, [r7, #12]
    1c6e:	3303      	adds	r3, #3
    1c70:	60bb      	str	r3, [r7, #8]
    UINT8_TO_BSTREAM(p, scanType);
    1c72:	68bb      	ldr	r3, [r7, #8]
    1c74:	1c5a      	adds	r2, r3, #1
    1c76:	60ba      	str	r2, [r7, #8]
    1c78:	79fa      	ldrb	r2, [r7, #7]
    1c7a:	701a      	strb	r2, [r3, #0]
    UINT16_TO_BSTREAM(p, scanInterval);
    1c7c:	68bb      	ldr	r3, [r7, #8]
    1c7e:	1c5a      	adds	r2, r3, #1
    1c80:	60ba      	str	r2, [r7, #8]
    1c82:	88ba      	ldrh	r2, [r7, #4]
    1c84:	b2d2      	uxtb	r2, r2
    1c86:	701a      	strb	r2, [r3, #0]
    1c88:	68bb      	ldr	r3, [r7, #8]
    1c8a:	1c5a      	adds	r2, r3, #1
    1c8c:	60ba      	str	r2, [r7, #8]
    1c8e:	88ba      	ldrh	r2, [r7, #4]
    1c90:	0a12      	lsrs	r2, r2, #8
    1c92:	b292      	uxth	r2, r2
    1c94:	b2d2      	uxtb	r2, r2
    1c96:	701a      	strb	r2, [r3, #0]
    UINT16_TO_BSTREAM(p, scanWindow);
    1c98:	68bb      	ldr	r3, [r7, #8]
    1c9a:	1c5a      	adds	r2, r3, #1
    1c9c:	60ba      	str	r2, [r7, #8]
    1c9e:	887a      	ldrh	r2, [r7, #2]
    1ca0:	b2d2      	uxtb	r2, r2
    1ca2:	701a      	strb	r2, [r3, #0]
    1ca4:	68bb      	ldr	r3, [r7, #8]
    1ca6:	1c5a      	adds	r2, r3, #1
    1ca8:	60ba      	str	r2, [r7, #8]
    1caa:	887a      	ldrh	r2, [r7, #2]
    1cac:	0a12      	lsrs	r2, r2, #8
    1cae:	b292      	uxth	r2, r2
    1cb0:	b2d2      	uxtb	r2, r2
    1cb2:	701a      	strb	r2, [r3, #0]
    UINT8_TO_BSTREAM(p, ownAddrType);
    1cb4:	68bb      	ldr	r3, [r7, #8]
    1cb6:	1c5a      	adds	r2, r3, #1
    1cb8:	60ba      	str	r2, [r7, #8]
    1cba:	79ba      	ldrb	r2, [r7, #6]
    1cbc:	701a      	strb	r2, [r3, #0]
    UINT8_TO_BSTREAM(p, scanFiltPolicy);
    1cbe:	68bb      	ldr	r3, [r7, #8]
    1cc0:	1c5a      	adds	r2, r3, #1
    1cc2:	60ba      	str	r2, [r7, #8]
    1cc4:	7e3a      	ldrb	r2, [r7, #24]
    1cc6:	701a      	strb	r2, [r3, #0]
    hciCmdSend(pBuf);
    1cc8:	68f8      	ldr	r0, [r7, #12]
    1cca:	f7ff fcff 	bl	16cc <hciCmdSend>
  }
}
    1cce:	3710      	adds	r7, #16
    1cd0:	46bd      	mov	sp, r7
    1cd2:	bd80      	pop	{r7, pc}

00001cd4 <HciLeSetScanRespDataCmd>:
 *        
 *  \return None.
 */
/*************************************************************************************************/
void HciLeSetScanRespDataCmd(uint8_t len, uint8_t *pData)
{
    1cd4:	b580      	push	{r7, lr}
    1cd6:	b084      	sub	sp, #16
    1cd8:	af00      	add	r7, sp, #0
    1cda:	4603      	mov	r3, r0
    1cdc:	6039      	str	r1, [r7, #0]
    1cde:	71fb      	strb	r3, [r7, #7]
  uint8_t *pBuf;
  uint8_t *p;
  
  if ((pBuf = hciCmdAlloc(HCI_OPCODE_LE_SET_SCAN_RESP_DATA, HCI_LEN_LE_SET_SCAN_RESP_DATA)) != NULL)
    1ce0:	f242 0009 	movw	r0, #8201	; 0x2009
    1ce4:	2120      	movs	r1, #32
    1ce6:	f7ff fcc3 	bl	1670 <hciCmdAlloc>
    1cea:	60f8      	str	r0, [r7, #12]
    1cec:	68fb      	ldr	r3, [r7, #12]
    1cee:	2b00      	cmp	r3, #0
    1cf0:	d01c      	beq.n	1d2c <HciLeSetScanRespDataCmd+0x58>
  {
    p = pBuf + HCI_CMD_HDR_LEN;
    1cf2:	68fb      	ldr	r3, [r7, #12]
    1cf4:	3303      	adds	r3, #3
    1cf6:	60bb      	str	r3, [r7, #8]
    UINT8_TO_BSTREAM(p, len);
    1cf8:	68bb      	ldr	r3, [r7, #8]
    1cfa:	1c5a      	adds	r2, r3, #1
    1cfc:	60ba      	str	r2, [r7, #8]
    1cfe:	79fa      	ldrb	r2, [r7, #7]
    1d00:	701a      	strb	r2, [r3, #0]
    memcpy(p, pData, len);
    1d02:	79fb      	ldrb	r3, [r7, #7]
    1d04:	68b8      	ldr	r0, [r7, #8]
    1d06:	6839      	ldr	r1, [r7, #0]
    1d08:	461a      	mov	r2, r3
    1d0a:	f007 ffb9 	bl	9c80 <memcpy>
    p += len;
    1d0e:	79fb      	ldrb	r3, [r7, #7]
    1d10:	68ba      	ldr	r2, [r7, #8]
    1d12:	4413      	add	r3, r2
    1d14:	60bb      	str	r3, [r7, #8]
    memset(p, 0, (HCI_SCAN_DATA_LEN - len));
    1d16:	79fb      	ldrb	r3, [r7, #7]
    1d18:	f1c3 031f 	rsb	r3, r3, #31
    1d1c:	68b8      	ldr	r0, [r7, #8]
    1d1e:	2100      	movs	r1, #0
    1d20:	461a      	mov	r2, r3
    1d22:	f008 f8a7 	bl	9e74 <memset>
    hciCmdSend(pBuf);
    1d26:	68f8      	ldr	r0, [r7, #12]
    1d28:	f7ff fcd0 	bl	16cc <hciCmdSend>
  }
}
    1d2c:	3710      	adds	r7, #16
    1d2e:	46bd      	mov	sp, r7
    1d30:	bd80      	pop	{r7, pc}
    1d32:	bf00      	nop

00001d34 <HciLeStartEncryptionCmd>:
 *        
 *  \return None.
 */
/*************************************************************************************************/
void HciLeStartEncryptionCmd(uint16_t handle, uint8_t *pRand, uint16_t diversifier, uint8_t *pKey)
{
    1d34:	b580      	push	{r7, lr}
    1d36:	b086      	sub	sp, #24
    1d38:	af00      	add	r7, sp, #0
    1d3a:	60b9      	str	r1, [r7, #8]
    1d3c:	607b      	str	r3, [r7, #4]
    1d3e:	4603      	mov	r3, r0
    1d40:	81fb      	strh	r3, [r7, #14]
    1d42:	4613      	mov	r3, r2
    1d44:	81bb      	strh	r3, [r7, #12]
  uint8_t *pBuf;
  uint8_t *p;
  
  if ((pBuf = hciCmdAlloc(HCI_OPCODE_LE_START_ENCRYPTION, HCI_LEN_LE_START_ENCRYPTION)) != NULL)
    1d46:	f242 0019 	movw	r0, #8217	; 0x2019
    1d4a:	211c      	movs	r1, #28
    1d4c:	f7ff fc90 	bl	1670 <hciCmdAlloc>
    1d50:	6178      	str	r0, [r7, #20]
    1d52:	697b      	ldr	r3, [r7, #20]
    1d54:	2b00      	cmp	r3, #0
    1d56:	d02e      	beq.n	1db6 <HciLeStartEncryptionCmd+0x82>
  {
    p = pBuf + HCI_CMD_HDR_LEN;
    1d58:	697b      	ldr	r3, [r7, #20]
    1d5a:	3303      	adds	r3, #3
    1d5c:	613b      	str	r3, [r7, #16]
    UINT16_TO_BSTREAM(p, handle);
    1d5e:	693b      	ldr	r3, [r7, #16]
    1d60:	1c5a      	adds	r2, r3, #1
    1d62:	613a      	str	r2, [r7, #16]
    1d64:	89fa      	ldrh	r2, [r7, #14]
    1d66:	b2d2      	uxtb	r2, r2
    1d68:	701a      	strb	r2, [r3, #0]
    1d6a:	693b      	ldr	r3, [r7, #16]
    1d6c:	1c5a      	adds	r2, r3, #1
    1d6e:	613a      	str	r2, [r7, #16]
    1d70:	89fa      	ldrh	r2, [r7, #14]
    1d72:	0a12      	lsrs	r2, r2, #8
    1d74:	b292      	uxth	r2, r2
    1d76:	b2d2      	uxtb	r2, r2
    1d78:	701a      	strb	r2, [r3, #0]
    memcpy(p, pRand, HCI_RAND_LEN);
    1d7a:	6938      	ldr	r0, [r7, #16]
    1d7c:	68b9      	ldr	r1, [r7, #8]
    1d7e:	2208      	movs	r2, #8
    1d80:	f007 ff7e 	bl	9c80 <memcpy>
    p += HCI_RAND_LEN;
    1d84:	693b      	ldr	r3, [r7, #16]
    1d86:	3308      	adds	r3, #8
    1d88:	613b      	str	r3, [r7, #16]
    UINT16_TO_BSTREAM(p, diversifier);
    1d8a:	693b      	ldr	r3, [r7, #16]
    1d8c:	1c5a      	adds	r2, r3, #1
    1d8e:	613a      	str	r2, [r7, #16]
    1d90:	89ba      	ldrh	r2, [r7, #12]
    1d92:	b2d2      	uxtb	r2, r2
    1d94:	701a      	strb	r2, [r3, #0]
    1d96:	693b      	ldr	r3, [r7, #16]
    1d98:	1c5a      	adds	r2, r3, #1
    1d9a:	613a      	str	r2, [r7, #16]
    1d9c:	89ba      	ldrh	r2, [r7, #12]
    1d9e:	0a12      	lsrs	r2, r2, #8
    1da0:	b292      	uxth	r2, r2
    1da2:	b2d2      	uxtb	r2, r2
    1da4:	701a      	strb	r2, [r3, #0]
    memcpy(p, pKey, HCI_KEY_LEN);
    1da6:	6938      	ldr	r0, [r7, #16]
    1da8:	6879      	ldr	r1, [r7, #4]
    1daa:	2210      	movs	r2, #16
    1dac:	f007 ff68 	bl	9c80 <memcpy>
    hciCmdSend(pBuf);
    1db0:	6978      	ldr	r0, [r7, #20]
    1db2:	f7ff fc8b 	bl	16cc <hciCmdSend>
  }
}
    1db6:	3718      	adds	r7, #24
    1db8:	46bd      	mov	sp, r7
    1dba:	bd80      	pop	{r7, pc}

00001dbc <HciReadBdAddrCmd>:
 *        
 *  \return None.
 */
/*************************************************************************************************/
void HciReadBdAddrCmd(void)
{
    1dbc:	b580      	push	{r7, lr}
    1dbe:	b082      	sub	sp, #8
    1dc0:	af00      	add	r7, sp, #0
  uint8_t *pBuf;
  
  if ((pBuf = hciCmdAlloc(HCI_OPCODE_READ_BD_ADDR, HCI_LEN_READ_BD_ADDR)) != NULL)
    1dc2:	f241 0009 	movw	r0, #4105	; 0x1009
    1dc6:	2100      	movs	r1, #0
    1dc8:	f7ff fc52 	bl	1670 <hciCmdAlloc>
    1dcc:	6078      	str	r0, [r7, #4]
    1dce:	687b      	ldr	r3, [r7, #4]
    1dd0:	2b00      	cmp	r3, #0
    1dd2:	d002      	beq.n	1dda <HciReadBdAddrCmd+0x1e>
  {
    hciCmdSend(pBuf);
    1dd4:	6878      	ldr	r0, [r7, #4]
    1dd6:	f7ff fc79 	bl	16cc <hciCmdSend>
  }
}
    1dda:	3708      	adds	r7, #8
    1ddc:	46bd      	mov	sp, r7
    1dde:	bd80      	pop	{r7, pc}

00001de0 <HciReadRssiCmd>:
 *        
 *  \return None.
 */
/*************************************************************************************************/
void HciReadRssiCmd(uint16_t handle)
{
    1de0:	b580      	push	{r7, lr}
    1de2:	b084      	sub	sp, #16
    1de4:	af00      	add	r7, sp, #0
    1de6:	4603      	mov	r3, r0
    1de8:	80fb      	strh	r3, [r7, #6]
  uint8_t *pBuf;
  uint8_t *p;
  
  if ((pBuf = hciCmdAlloc(HCI_OPCODE_READ_RSSI, HCI_LEN_READ_RSSI)) != NULL)
    1dea:	f241 4005 	movw	r0, #5125	; 0x1405
    1dee:	2102      	movs	r1, #2
    1df0:	f7ff fc3e 	bl	1670 <hciCmdAlloc>
    1df4:	60f8      	str	r0, [r7, #12]
    1df6:	68fb      	ldr	r3, [r7, #12]
    1df8:	2b00      	cmp	r3, #0
    1dfa:	d013      	beq.n	1e24 <HciReadRssiCmd+0x44>
  {
    p = pBuf + HCI_CMD_HDR_LEN;
    1dfc:	68fb      	ldr	r3, [r7, #12]
    1dfe:	3303      	adds	r3, #3
    1e00:	60bb      	str	r3, [r7, #8]
    UINT16_TO_BSTREAM(p, handle);
    1e02:	68bb      	ldr	r3, [r7, #8]
    1e04:	1c5a      	adds	r2, r3, #1
    1e06:	60ba      	str	r2, [r7, #8]
    1e08:	88fa      	ldrh	r2, [r7, #6]
    1e0a:	b2d2      	uxtb	r2, r2
    1e0c:	701a      	strb	r2, [r3, #0]
    1e0e:	68bb      	ldr	r3, [r7, #8]
    1e10:	1c5a      	adds	r2, r3, #1
    1e12:	60ba      	str	r2, [r7, #8]
    1e14:	88fa      	ldrh	r2, [r7, #6]
    1e16:	0a12      	lsrs	r2, r2, #8
    1e18:	b292      	uxth	r2, r2
    1e1a:	b2d2      	uxtb	r2, r2
    1e1c:	701a      	strb	r2, [r3, #0]
    hciCmdSend(pBuf);
    1e1e:	68f8      	ldr	r0, [r7, #12]
    1e20:	f7ff fc54 	bl	16cc <hciCmdSend>
  }
}
    1e24:	3710      	adds	r7, #16
    1e26:	46bd      	mov	sp, r7
    1e28:	bd80      	pop	{r7, pc}
    1e2a:	bf00      	nop

00001e2c <HciResetCmd>:
 *        
 *  \return None.
 */
/*************************************************************************************************/
void HciResetCmd(void)
{
    1e2c:	b580      	push	{r7, lr}
    1e2e:	b082      	sub	sp, #8
    1e30:	af00      	add	r7, sp, #0
  uint8_t *pBuf;
  
  /* initialize numCmdPkts for special case of reset command */
  hciCmdCb.numCmdPkts = 1;
    1e32:	4b09      	ldr	r3, [pc, #36]	; (1e58 <HciResetCmd+0x2c>)
    1e34:	2201      	movs	r2, #1
    1e36:	769a      	strb	r2, [r3, #26]
  
  if ((pBuf = hciCmdAlloc(HCI_OPCODE_RESET, HCI_LEN_RESET)) != NULL)
    1e38:	f640 4003 	movw	r0, #3075	; 0xc03
    1e3c:	2100      	movs	r1, #0
    1e3e:	f7ff fc17 	bl	1670 <hciCmdAlloc>
    1e42:	6078      	str	r0, [r7, #4]
    1e44:	687b      	ldr	r3, [r7, #4]
    1e46:	2b00      	cmp	r3, #0
    1e48:	d002      	beq.n	1e50 <HciResetCmd+0x24>
  {
    hciCmdSend(pBuf);
    1e4a:	6878      	ldr	r0, [r7, #4]
    1e4c:	f7ff fc3e 	bl	16cc <hciCmdSend>
  }
}
    1e50:	3708      	adds	r7, #8
    1e52:	46bd      	mov	sp, r7
    1e54:	bd80      	pop	{r7, pc}
    1e56:	bf00      	nop
    1e58:	10000d4c 	.word	0x10000d4c

00001e5c <hciCoreConnAlloc>:
 *
 *  \return None.
 */
/*************************************************************************************************/
static void hciCoreConnAlloc(uint16_t handle)
{
    1e5c:	b480      	push	{r7}
    1e5e:	b085      	sub	sp, #20
    1e60:	af00      	add	r7, sp, #0
    1e62:	4603      	mov	r3, r0
    1e64:	80fb      	strh	r3, [r7, #6]
  uint8_t         i;
  hciCoreConn_t   *pConn = hciCoreCb.conn;
    1e66:	4b13      	ldr	r3, [pc, #76]	; (1eb4 <hciCoreConnAlloc+0x58>)
    1e68:	60bb      	str	r3, [r7, #8]

  /* find available connection struct */
  for (i = DM_CONN_MAX; i > 0; i--, pConn++)
    1e6a:	2303      	movs	r3, #3
    1e6c:	73fb      	strb	r3, [r7, #15]
    1e6e:	e018      	b.n	1ea2 <hciCoreConnAlloc+0x46>
  {
    if (pConn->handle == HCI_HANDLE_NONE)
    1e70:	68bb      	ldr	r3, [r7, #8]
    1e72:	8a1a      	ldrh	r2, [r3, #16]
    1e74:	f64f 73ff 	movw	r3, #65535	; 0xffff
    1e78:	429a      	cmp	r2, r3
    1e7a:	d10c      	bne.n	1e96 <hciCoreConnAlloc+0x3a>
    {
      /* allocate and initialize */
      pConn->handle = handle;
    1e7c:	68bb      	ldr	r3, [r7, #8]
    1e7e:	88fa      	ldrh	r2, [r7, #6]
    1e80:	821a      	strh	r2, [r3, #16]
      pConn->flowDisabled = FALSE;
    1e82:	68bb      	ldr	r3, [r7, #8]
    1e84:	2200      	movs	r2, #0
    1e86:	75da      	strb	r2, [r3, #23]
      pConn->outBufs = 0;
    1e88:	68bb      	ldr	r3, [r7, #8]
    1e8a:	2200      	movs	r2, #0
    1e8c:	765a      	strb	r2, [r3, #25]
      pConn->queuedBufs = 0;
    1e8e:	68bb      	ldr	r3, [r7, #8]
    1e90:	2200      	movs	r2, #0
    1e92:	761a      	strb	r2, [r3, #24]

      return;
    1e94:	e008      	b.n	1ea8 <hciCoreConnAlloc+0x4c>
{
  uint8_t         i;
  hciCoreConn_t   *pConn = hciCoreCb.conn;

  /* find available connection struct */
  for (i = DM_CONN_MAX; i > 0; i--, pConn++)
    1e96:	7bfb      	ldrb	r3, [r7, #15]
    1e98:	3b01      	subs	r3, #1
    1e9a:	73fb      	strb	r3, [r7, #15]
    1e9c:	68bb      	ldr	r3, [r7, #8]
    1e9e:	331c      	adds	r3, #28
    1ea0:	60bb      	str	r3, [r7, #8]
    1ea2:	7bfb      	ldrb	r3, [r7, #15]
    1ea4:	2b00      	cmp	r3, #0
    1ea6:	d1e3      	bne.n	1e70 <hciCoreConnAlloc+0x14>
      return;
    }
  }

  HCI_TRACE_WARN0("HCI conn struct alloc failure");
}
    1ea8:	3714      	adds	r7, #20
    1eaa:	46bd      	mov	sp, r7
    1eac:	f85d 7b04 	ldr.w	r7, [sp], #4
    1eb0:	4770      	bx	lr
    1eb2:	bf00      	nop
    1eb4:	10000d68 	.word	0x10000d68

00001eb8 <hciCoreConnFree>:
 *
 *  \return None.
 */
/*************************************************************************************************/
static void hciCoreConnFree(uint16_t handle)
{
    1eb8:	b580      	push	{r7, lr}
    1eba:	b084      	sub	sp, #16
    1ebc:	af00      	add	r7, sp, #0
    1ebe:	4603      	mov	r3, r0
    1ec0:	80fb      	strh	r3, [r7, #6]
  uint8_t         i;
  hciCoreConn_t   *pConn = hciCoreCb.conn;
    1ec2:	4b1d      	ldr	r3, [pc, #116]	; (1f38 <hciCoreConnFree+0x80>)
    1ec4:	60bb      	str	r3, [r7, #8]

  /* find connection struct */
  for (i = DM_CONN_MAX; i > 0; i--, pConn++)
    1ec6:	2303      	movs	r3, #3
    1ec8:	73fb      	strb	r3, [r7, #15]
    1eca:	e02f      	b.n	1f2c <hciCoreConnFree+0x74>
  {
    if (pConn->handle == handle)
    1ecc:	68bb      	ldr	r3, [r7, #8]
    1ece:	8a1b      	ldrh	r3, [r3, #16]
    1ed0:	88fa      	ldrh	r2, [r7, #6]
    1ed2:	429a      	cmp	r2, r3
    1ed4:	d124      	bne.n	1f20 <hciCoreConnFree+0x68>
    {
      /* free any fragmenting ACL packet */
      if (pConn->pTxAclPkt != NULL)
    1ed6:	68bb      	ldr	r3, [r7, #8]
    1ed8:	681b      	ldr	r3, [r3, #0]
    1eda:	2b00      	cmp	r3, #0
    1edc:	d007      	beq.n	1eee <hciCoreConnFree+0x36>
      {
        WsfMsgFree(pConn->pTxAclPkt);
    1ede:	68bb      	ldr	r3, [r7, #8]
    1ee0:	681b      	ldr	r3, [r3, #0]
    1ee2:	4618      	mov	r0, r3
    1ee4:	f002 fe02 	bl	4aec <WsfMsgFree>
        pConn->pTxAclPkt = NULL;
    1ee8:	68bb      	ldr	r3, [r7, #8]
    1eea:	2200      	movs	r2, #0
    1eec:	601a      	str	r2, [r3, #0]
      }      
      pConn->fragmenting = FALSE;
    1eee:	68bb      	ldr	r3, [r7, #8]
    1ef0:	2200      	movs	r2, #0
    1ef2:	759a      	strb	r2, [r3, #22]

      if (pConn->pRxAclPkt != NULL)
    1ef4:	68bb      	ldr	r3, [r7, #8]
    1ef6:	689b      	ldr	r3, [r3, #8]
    1ef8:	2b00      	cmp	r3, #0
    1efa:	d007      	beq.n	1f0c <hciCoreConnFree+0x54>
      {
        WsfMsgFree(pConn->pRxAclPkt);
    1efc:	68bb      	ldr	r3, [r7, #8]
    1efe:	689b      	ldr	r3, [r3, #8]
    1f00:	4618      	mov	r0, r3
    1f02:	f002 fdf3 	bl	4aec <WsfMsgFree>
        pConn->pRxAclPkt = NULL;
    1f06:	68bb      	ldr	r3, [r7, #8]
    1f08:	2200      	movs	r2, #0
    1f0a:	609a      	str	r2, [r3, #8]
      }      

      /* free structure */
      pConn->handle = HCI_HANDLE_NONE;
    1f0c:	68bb      	ldr	r3, [r7, #8]
    1f0e:	f64f 72ff 	movw	r2, #65535	; 0xffff
    1f12:	821a      	strh	r2, [r3, #16]

      /* optional: iterate through tx ACL queue and free any buffers with this handle */

      /* outstanding buffers are now available; service TX data path */
      hciCoreTxReady(pConn->outBufs);
    1f14:	68bb      	ldr	r3, [r7, #8]
    1f16:	7e5b      	ldrb	r3, [r3, #25]
    1f18:	4618      	mov	r0, r3
    1f1a:	f000 f893 	bl	2044 <hciCoreTxReady>

      return;
    1f1e:	e008      	b.n	1f32 <hciCoreConnFree+0x7a>
{
  uint8_t         i;
  hciCoreConn_t   *pConn = hciCoreCb.conn;

  /* find connection struct */
  for (i = DM_CONN_MAX; i > 0; i--, pConn++)
    1f20:	7bfb      	ldrb	r3, [r7, #15]
    1f22:	3b01      	subs	r3, #1
    1f24:	73fb      	strb	r3, [r7, #15]
    1f26:	68bb      	ldr	r3, [r7, #8]
    1f28:	331c      	adds	r3, #28
    1f2a:	60bb      	str	r3, [r7, #8]
    1f2c:	7bfb      	ldrb	r3, [r7, #15]
    1f2e:	2b00      	cmp	r3, #0
    1f30:	d1cc      	bne.n	1ecc <hciCoreConnFree+0x14>
      return;
    }
  }

  HCI_TRACE_WARN1("hciCoreConnFree handle not found:%u", handle);
}
    1f32:	3710      	adds	r7, #16
    1f34:	46bd      	mov	sp, r7
    1f36:	bd80      	pop	{r7, pc}
    1f38:	10000d68 	.word	0x10000d68

00001f3c <hciCoreConnByHandle>:
 *
 *  \return Pointer to connection structure or NULL if not found.
 */
/*************************************************************************************************/
hciCoreConn_t *hciCoreConnByHandle(uint16_t handle)
{
    1f3c:	b480      	push	{r7}
    1f3e:	b085      	sub	sp, #20
    1f40:	af00      	add	r7, sp, #0
    1f42:	4603      	mov	r3, r0
    1f44:	80fb      	strh	r3, [r7, #6]
  uint8_t         i;
  hciCoreConn_t   *pConn = hciCoreCb.conn;
    1f46:	4b0e      	ldr	r3, [pc, #56]	; (1f80 <hciCoreConnByHandle+0x44>)
    1f48:	60bb      	str	r3, [r7, #8]

  /* find available connection struct */
  for (i = DM_CONN_MAX; i > 0; i--, pConn++)
    1f4a:	2303      	movs	r3, #3
    1f4c:	73fb      	strb	r3, [r7, #15]
    1f4e:	e00c      	b.n	1f6a <hciCoreConnByHandle+0x2e>
  {
    if (pConn->handle == handle)
    1f50:	68bb      	ldr	r3, [r7, #8]
    1f52:	8a1b      	ldrh	r3, [r3, #16]
    1f54:	88fa      	ldrh	r2, [r7, #6]
    1f56:	429a      	cmp	r2, r3
    1f58:	d101      	bne.n	1f5e <hciCoreConnByHandle+0x22>
    {
      return pConn;
    1f5a:	68bb      	ldr	r3, [r7, #8]
    1f5c:	e009      	b.n	1f72 <hciCoreConnByHandle+0x36>
{
  uint8_t         i;
  hciCoreConn_t   *pConn = hciCoreCb.conn;

  /* find available connection struct */
  for (i = DM_CONN_MAX; i > 0; i--, pConn++)
    1f5e:	7bfb      	ldrb	r3, [r7, #15]
    1f60:	3b01      	subs	r3, #1
    1f62:	73fb      	strb	r3, [r7, #15]
    1f64:	68bb      	ldr	r3, [r7, #8]
    1f66:	331c      	adds	r3, #28
    1f68:	60bb      	str	r3, [r7, #8]
    1f6a:	7bfb      	ldrb	r3, [r7, #15]
    1f6c:	2b00      	cmp	r3, #0
    1f6e:	d1ef      	bne.n	1f50 <hciCoreConnByHandle+0x14>
    {
      return pConn;
    }
  }

  return NULL;
    1f70:	2300      	movs	r3, #0
}
    1f72:	4618      	mov	r0, r3
    1f74:	3714      	adds	r7, #20
    1f76:	46bd      	mov	sp, r7
    1f78:	f85d 7b04 	ldr.w	r7, [sp], #4
    1f7c:	4770      	bx	lr
    1f7e:	bf00      	nop
    1f80:	10000d68 	.word	0x10000d68

00001f84 <hciCoreNextConnFragment>:
 *
 *  \return Pointer to connection structure or NULL if not found.
 */
/*************************************************************************************************/
static hciCoreConn_t *hciCoreNextConnFragment(void)
{
    1f84:	b480      	push	{r7}
    1f86:	b083      	sub	sp, #12
    1f88:	af00      	add	r7, sp, #0
  uint8_t         i;
  hciCoreConn_t   *pConn = hciCoreCb.conn;
    1f8a:	4b10      	ldr	r3, [pc, #64]	; (1fcc <hciCoreNextConnFragment+0x48>)
    1f8c:	603b      	str	r3, [r7, #0]

  /* find connection struct */
  for (i = DM_CONN_MAX; i > 0; i--, pConn++)
    1f8e:	2303      	movs	r3, #3
    1f90:	71fb      	strb	r3, [r7, #7]
    1f92:	e011      	b.n	1fb8 <hciCoreNextConnFragment+0x34>
  {
    if (pConn->handle != HCI_HANDLE_NONE && pConn->fragmenting)
    1f94:	683b      	ldr	r3, [r7, #0]
    1f96:	8a1a      	ldrh	r2, [r3, #16]
    1f98:	f64f 73ff 	movw	r3, #65535	; 0xffff
    1f9c:	429a      	cmp	r2, r3
    1f9e:	d005      	beq.n	1fac <hciCoreNextConnFragment+0x28>
    1fa0:	683b      	ldr	r3, [r7, #0]
    1fa2:	7d9b      	ldrb	r3, [r3, #22]
    1fa4:	2b00      	cmp	r3, #0
    1fa6:	d001      	beq.n	1fac <hciCoreNextConnFragment+0x28>
    {
      return pConn;
    1fa8:	683b      	ldr	r3, [r7, #0]
    1faa:	e009      	b.n	1fc0 <hciCoreNextConnFragment+0x3c>
{
  uint8_t         i;
  hciCoreConn_t   *pConn = hciCoreCb.conn;

  /* find connection struct */
  for (i = DM_CONN_MAX; i > 0; i--, pConn++)
    1fac:	79fb      	ldrb	r3, [r7, #7]
    1fae:	3b01      	subs	r3, #1
    1fb0:	71fb      	strb	r3, [r7, #7]
    1fb2:	683b      	ldr	r3, [r7, #0]
    1fb4:	331c      	adds	r3, #28
    1fb6:	603b      	str	r3, [r7, #0]
    1fb8:	79fb      	ldrb	r3, [r7, #7]
    1fba:	2b00      	cmp	r3, #0
    1fbc:	d1ea      	bne.n	1f94 <hciCoreNextConnFragment+0x10>
    {
      return pConn;
    }
  }

  return NULL;
    1fbe:	2300      	movs	r3, #0
}
    1fc0:	4618      	mov	r0, r3
    1fc2:	370c      	adds	r7, #12
    1fc4:	46bd      	mov	sp, r7
    1fc6:	f85d 7b04 	ldr.w	r7, [sp], #4
    1fca:	4770      	bx	lr
    1fcc:	10000d68 	.word	0x10000d68

00001fd0 <hciCoreConnOpen>:
 *
 *  \return None.
 */
/*************************************************************************************************/
void hciCoreConnOpen(uint16_t handle)
{
    1fd0:	b580      	push	{r7, lr}
    1fd2:	b082      	sub	sp, #8
    1fd4:	af00      	add	r7, sp, #0
    1fd6:	4603      	mov	r3, r0
    1fd8:	80fb      	strh	r3, [r7, #6]
  /* allocate connection structure */
  hciCoreConnAlloc(handle);
    1fda:	88fb      	ldrh	r3, [r7, #6]
    1fdc:	4618      	mov	r0, r3
    1fde:	f7ff ff3d 	bl	1e5c <hciCoreConnAlloc>
}
    1fe2:	3708      	adds	r7, #8
    1fe4:	46bd      	mov	sp, r7
    1fe6:	bd80      	pop	{r7, pc}

00001fe8 <hciCoreConnClose>:
 *
 *  \return None.
 */
/*************************************************************************************************/
void hciCoreConnClose(uint16_t handle)
{
    1fe8:	b580      	push	{r7, lr}
    1fea:	b082      	sub	sp, #8
    1fec:	af00      	add	r7, sp, #0
    1fee:	4603      	mov	r3, r0
    1ff0:	80fb      	strh	r3, [r7, #6]
  /* free connection structure */
  hciCoreConnFree(handle);
    1ff2:	88fb      	ldrh	r3, [r7, #6]
    1ff4:	4618      	mov	r0, r3
    1ff6:	f7ff ff5f 	bl	1eb8 <hciCoreConnFree>
}
    1ffa:	3708      	adds	r7, #8
    1ffc:	46bd      	mov	sp, r7
    1ffe:	bd80      	pop	{r7, pc}

00002000 <hciCoreSendAclData>:
 *
 *  \return None.
 */
/*************************************************************************************************/
void hciCoreSendAclData(hciCoreConn_t *pConn, uint8_t *pData)
{
    2000:	b580      	push	{r7, lr}
    2002:	b082      	sub	sp, #8
    2004:	af00      	add	r7, sp, #0
    2006:	6078      	str	r0, [r7, #4]
    2008:	6039      	str	r1, [r7, #0]
  /* increment outstanding buf count for handle */
  pConn->outBufs++;
    200a:	687b      	ldr	r3, [r7, #4]
    200c:	7e5b      	ldrb	r3, [r3, #25]
    200e:	3301      	adds	r3, #1
    2010:	b2da      	uxtb	r2, r3
    2012:	687b      	ldr	r3, [r7, #4]
    2014:	765a      	strb	r2, [r3, #25]

  /* send to transport */
  hciTrSendAclData(pConn, pData);
    2016:	6878      	ldr	r0, [r7, #4]
    2018:	6839      	ldr	r1, [r7, #0]
    201a:	f001 fc99 	bl	3950 <hciTrSendAclData>

  /* decrement available buffer count */
  if (hciCoreCb.availBufs > 0)
    201e:	4b08      	ldr	r3, [pc, #32]	; (2040 <hciCoreSendAclData+0x40>)
    2020:	f893 3076 	ldrb.w	r3, [r3, #118]	; 0x76
    2024:	2b00      	cmp	r3, #0
    2026:	d007      	beq.n	2038 <hciCoreSendAclData+0x38>
  {
    hciCoreCb.availBufs--;
    2028:	4b05      	ldr	r3, [pc, #20]	; (2040 <hciCoreSendAclData+0x40>)
    202a:	f893 3076 	ldrb.w	r3, [r3, #118]	; 0x76
    202e:	3b01      	subs	r3, #1
    2030:	b2da      	uxtb	r2, r3
    2032:	4b03      	ldr	r3, [pc, #12]	; (2040 <hciCoreSendAclData+0x40>)
    2034:	f883 2076 	strb.w	r2, [r3, #118]	; 0x76
  }
  else
  {
    HCI_TRACE_WARN0("hciCoreSendAclData availBufs=0");
  }
}
    2038:	3708      	adds	r7, #8
    203a:	46bd      	mov	sp, r7
    203c:	bd80      	pop	{r7, pc}
    203e:	bf00      	nop
    2040:	10000d68 	.word	0x10000d68

00002044 <hciCoreTxReady>:
 *
 *  \return None.
 */
/*************************************************************************************************/
void hciCoreTxReady(uint8_t bufs)
{
    2044:	b580      	push	{r7, lr}
    2046:	b086      	sub	sp, #24
    2048:	af00      	add	r7, sp, #0
    204a:	4603      	mov	r3, r0
    204c:	71fb      	strb	r3, [r7, #7]
  uint16_t        handle;
  uint16_t        len;
  hciCoreConn_t   *pConn;

  /* increment available buffers, with ceiling */
  if (bufs > 0)
    204e:	79fb      	ldrb	r3, [r7, #7]
    2050:	2b00      	cmp	r3, #0
    2052:	d017      	beq.n	2084 <hciCoreTxReady+0x40>
  {
    hciCoreCb.availBufs += bufs;
    2054:	4b2c      	ldr	r3, [pc, #176]	; (2108 <hciCoreTxReady+0xc4>)
    2056:	f893 2076 	ldrb.w	r2, [r3, #118]	; 0x76
    205a:	79fb      	ldrb	r3, [r7, #7]
    205c:	4413      	add	r3, r2
    205e:	b2da      	uxtb	r2, r3
    2060:	4b29      	ldr	r3, [pc, #164]	; (2108 <hciCoreTxReady+0xc4>)
    2062:	f883 2076 	strb.w	r2, [r3, #118]	; 0x76
    if (hciCoreCb.availBufs > hciCoreCb.numBufs)
    2066:	4b28      	ldr	r3, [pc, #160]	; (2108 <hciCoreTxReady+0xc4>)
    2068:	f893 2076 	ldrb.w	r2, [r3, #118]	; 0x76
    206c:	4b26      	ldr	r3, [pc, #152]	; (2108 <hciCoreTxReady+0xc4>)
    206e:	f893 3077 	ldrb.w	r3, [r3, #119]	; 0x77
    2072:	429a      	cmp	r2, r3
    2074:	d906      	bls.n	2084 <hciCoreTxReady+0x40>
    {
      hciCoreCb.availBufs = hciCoreCb.numBufs;
    2076:	4b24      	ldr	r3, [pc, #144]	; (2108 <hciCoreTxReady+0xc4>)
    2078:	f893 2077 	ldrb.w	r2, [r3, #119]	; 0x77
    207c:	4b22      	ldr	r3, [pc, #136]	; (2108 <hciCoreTxReady+0xc4>)
    207e:	f883 2076 	strb.w	r2, [r3, #118]	; 0x76
    }
  }
  
  /* service ACL data queue and send as many buffers as we can */
  while (hciCoreCb.availBufs > 0)
    2082:	e039      	b.n	20f8 <hciCoreTxReady+0xb4>
    2084:	e038      	b.n	20f8 <hciCoreTxReady+0xb4>
  {
    /* send continuation of any fragments first */    
    if (hciCoreTxAclContinue(NULL) == FALSE)
    2086:	2000      	movs	r0, #0
    2088:	f000 f888 	bl	219c <hciCoreTxAclContinue>
    208c:	4603      	mov	r3, r0
    208e:	2b00      	cmp	r3, #0
    2090:	d132      	bne.n	20f8 <hciCoreTxReady+0xb4>
    {
      /* if no fragments then check for any queued ACL data */
      if ((pData = WsfMsgDeq(&hciCoreCb.aclQueue, &handlerId)) != NULL)
    2092:	f107 030b 	add.w	r3, r7, #11
    2096:	481d      	ldr	r0, [pc, #116]	; (210c <hciCoreTxReady+0xc8>)
    2098:	4619      	mov	r1, r3
    209a:	f002 fd61 	bl	4b60 <WsfMsgDeq>
    209e:	6178      	str	r0, [r7, #20]
    20a0:	697b      	ldr	r3, [r7, #20]
    20a2:	2b00      	cmp	r3, #0
    20a4:	d027      	beq.n	20f6 <hciCoreTxReady+0xb2>
      {
        /* parse handle and length */
        BYTES_TO_UINT16(handle, pData);
    20a6:	697b      	ldr	r3, [r7, #20]
    20a8:	781b      	ldrb	r3, [r3, #0]
    20aa:	461a      	mov	r2, r3
    20ac:	697b      	ldr	r3, [r7, #20]
    20ae:	3301      	adds	r3, #1
    20b0:	781b      	ldrb	r3, [r3, #0]
    20b2:	021b      	lsls	r3, r3, #8
    20b4:	b29b      	uxth	r3, r3
    20b6:	4413      	add	r3, r2
    20b8:	827b      	strh	r3, [r7, #18]
        BYTES_TO_UINT16(len, &pData[2]);
    20ba:	697b      	ldr	r3, [r7, #20]
    20bc:	3302      	adds	r3, #2
    20be:	781b      	ldrb	r3, [r3, #0]
    20c0:	461a      	mov	r2, r3
    20c2:	697b      	ldr	r3, [r7, #20]
    20c4:	3303      	adds	r3, #3
    20c6:	781b      	ldrb	r3, [r3, #0]
    20c8:	021b      	lsls	r3, r3, #8
    20ca:	b29b      	uxth	r3, r3
    20cc:	4413      	add	r3, r2
    20ce:	823b      	strh	r3, [r7, #16]

        /* look up conn structure and send data */
        if ((pConn = hciCoreConnByHandle(handle)) != NULL)
    20d0:	8a7b      	ldrh	r3, [r7, #18]
    20d2:	4618      	mov	r0, r3
    20d4:	f7ff ff32 	bl	1f3c <hciCoreConnByHandle>
    20d8:	60f8      	str	r0, [r7, #12]
    20da:	68fb      	ldr	r3, [r7, #12]
    20dc:	2b00      	cmp	r3, #0
    20de:	d006      	beq.n	20ee <hciCoreTxReady+0xaa>
        {
          hciCoreTxAclStart(pConn, len, pData);
    20e0:	8a3b      	ldrh	r3, [r7, #16]
    20e2:	68f8      	ldr	r0, [r7, #12]
    20e4:	4619      	mov	r1, r3
    20e6:	697a      	ldr	r2, [r7, #20]
    20e8:	f000 f812 	bl	2110 <hciCoreTxAclStart>
    20ec:	e004      	b.n	20f8 <hciCoreTxReady+0xb4>
        }
        /* handle not found, connection must be closed */
        else
        {
          /* discard buffer */
          WsfMsgFree(pData);
    20ee:	6978      	ldr	r0, [r7, #20]
    20f0:	f002 fcfc 	bl	4aec <WsfMsgFree>
    20f4:	e000      	b.n	20f8 <hciCoreTxReady+0xb4>
        }
      }
      else
      {
        /* no fragments or queued data to send; we're done */
        break;
    20f6:	e004      	b.n	2102 <hciCoreTxReady+0xbe>
      hciCoreCb.availBufs = hciCoreCb.numBufs;
    }
  }
  
  /* service ACL data queue and send as many buffers as we can */
  while (hciCoreCb.availBufs > 0)
    20f8:	4b03      	ldr	r3, [pc, #12]	; (2108 <hciCoreTxReady+0xc4>)
    20fa:	f893 3076 	ldrb.w	r3, [r3, #118]	; 0x76
    20fe:	2b00      	cmp	r3, #0
    2100:	d1c1      	bne.n	2086 <hciCoreTxReady+0x42>
        /* no fragments or queued data to send; we're done */
        break;
      }
    }
  }
}
    2102:	3718      	adds	r7, #24
    2104:	46bd      	mov	sp, r7
    2106:	bd80      	pop	{r7, pc}
    2108:	10000d68 	.word	0x10000d68
    210c:	10000dcc 	.word	0x10000dcc

00002110 <hciCoreTxAclStart>:
 *
 *  \return None.
 */
/*************************************************************************************************/
void hciCoreTxAclStart(hciCoreConn_t *pConn, uint16_t len, uint8_t *pData)
{
    2110:	b580      	push	{r7, lr}
    2112:	b086      	sub	sp, #24
    2114:	af00      	add	r7, sp, #0
    2116:	60f8      	str	r0, [r7, #12]
    2118:	460b      	mov	r3, r1
    211a:	607a      	str	r2, [r7, #4]
    211c:	817b      	strh	r3, [r7, #10]
  uint16_t hciLen;
  
  /* make sure not already fragmenting on this connection */
  WSF_ASSERT(pConn->fragmenting == FALSE);
  
  hciLen = HciGetBufSize();
    211e:	f000 fb19 	bl	2754 <HciGetBufSize>
    2122:	4603      	mov	r3, r0
    2124:	82fb      	strh	r3, [r7, #22]

  HCI_TRACE_INFO1("hciCoreTxAclStart len=%u", len);
  
  /* if acl len > controller acl buf len */
  if (len > hciLen)
    2126:	897a      	ldrh	r2, [r7, #10]
    2128:	8afb      	ldrh	r3, [r7, #22]
    212a:	429a      	cmp	r2, r3
    212c:	d92d      	bls.n	218a <hciCoreTxAclStart+0x7a>
  {
    /* store remaining acl len = acl len  hci acl buf len */
    pConn->txAclRemLen = len - hciLen;
    212e:	897a      	ldrh	r2, [r7, #10]
    2130:	8afb      	ldrh	r3, [r7, #22]
    2132:	1ad3      	subs	r3, r2, r3
    2134:	b29a      	uxth	r2, r3
    2136:	68fb      	ldr	r3, [r7, #12]
    2138:	825a      	strh	r2, [r3, #18]

    /* store position for next fragment */
    pConn->pNextTxFrag = pData + hciLen;
    213a:	8afb      	ldrh	r3, [r7, #22]
    213c:	687a      	ldr	r2, [r7, #4]
    213e:	441a      	add	r2, r3
    2140:	68fb      	ldr	r3, [r7, #12]
    2142:	605a      	str	r2, [r3, #4]

    /* store information required for fragmentation */
    pConn->pTxAclPkt = pData;
    2144:	68fb      	ldr	r3, [r7, #12]
    2146:	687a      	ldr	r2, [r7, #4]
    2148:	601a      	str	r2, [r3, #0]
    pConn->fragmenting = TRUE;
    214a:	68fb      	ldr	r3, [r7, #12]
    214c:	2201      	movs	r2, #1
    214e:	759a      	strb	r2, [r3, #22]

    /* set acl len in packet to hci acl buf len */
    UINT16_TO_BUF(&pData[2], hciLen);
    2150:	687b      	ldr	r3, [r7, #4]
    2152:	3302      	adds	r3, #2
    2154:	8afa      	ldrh	r2, [r7, #22]
    2156:	b2d2      	uxtb	r2, r2
    2158:	701a      	strb	r2, [r3, #0]
    215a:	687b      	ldr	r3, [r7, #4]
    215c:	3303      	adds	r3, #3
    215e:	8afa      	ldrh	r2, [r7, #22]
    2160:	0a12      	lsrs	r2, r2, #8
    2162:	b292      	uxth	r2, r2
    2164:	b2d2      	uxtb	r2, r2
    2166:	701a      	strb	r2, [r3, #0]

    /* send the packet */
    hciCoreSendAclData(pConn, pData);
    2168:	68f8      	ldr	r0, [r7, #12]
    216a:	6879      	ldr	r1, [r7, #4]
    216c:	f7ff ff48 	bl	2000 <hciCoreSendAclData>
          
    /* send additional fragments while there are HCI buffers available */
    while ((hciCoreCb.availBufs > 0) && hciCoreTxAclContinue(pConn));
    2170:	bf00      	nop
    2172:	4b09      	ldr	r3, [pc, #36]	; (2198 <hciCoreTxAclStart+0x88>)
    2174:	f893 3076 	ldrb.w	r3, [r3, #118]	; 0x76
    2178:	2b00      	cmp	r3, #0
    217a:	d00a      	beq.n	2192 <hciCoreTxAclStart+0x82>
    217c:	68f8      	ldr	r0, [r7, #12]
    217e:	f000 f80d 	bl	219c <hciCoreTxAclContinue>
    2182:	4603      	mov	r3, r0
    2184:	2b00      	cmp	r3, #0
    2186:	d1f4      	bne.n	2172 <hciCoreTxAclStart+0x62>
    2188:	e003      	b.n	2192 <hciCoreTxAclStart+0x82>
  }
  else
  {
    /* no fragmentation, just send the packet */
    hciCoreSendAclData(pConn, pData);
    218a:	68f8      	ldr	r0, [r7, #12]
    218c:	6879      	ldr	r1, [r7, #4]
    218e:	f7ff ff37 	bl	2000 <hciCoreSendAclData>
  }
}
    2192:	3718      	adds	r7, #24
    2194:	46bd      	mov	sp, r7
    2196:	bd80      	pop	{r7, pc}
    2198:	10000d68 	.word	0x10000d68

0000219c <hciCoreTxAclContinue>:
 *
 *  \return TRUE if packet sent, FALSE otherwise.
 */
/*************************************************************************************************/
bool_t hciCoreTxAclContinue(hciCoreConn_t *pConn)
{
    219c:	b590      	push	{r4, r7, lr}
    219e:	b085      	sub	sp, #20
    21a0:	af00      	add	r7, sp, #0
    21a2:	6078      	str	r0, [r7, #4]
  uint16_t aclLen;
 
  if (pConn == NULL)
    21a4:	687b      	ldr	r3, [r7, #4]
    21a6:	2b00      	cmp	r3, #0
    21a8:	d102      	bne.n	21b0 <hciCoreTxAclContinue+0x14>
  {
    pConn = hciCoreNextConnFragment();
    21aa:	f7ff feeb 	bl	1f84 <hciCoreNextConnFragment>
    21ae:	6078      	str	r0, [r7, #4]
  }
  
  if (pConn != NULL)
    21b0:	687b      	ldr	r3, [r7, #4]
    21b2:	2b00      	cmp	r3, #0
    21b4:	d049      	beq.n	224a <hciCoreTxAclContinue+0xae>
  {
    /* get next fragment length */
    aclLen = (pConn->txAclRemLen < HciGetBufSize()) ? pConn->txAclRemLen : HciGetBufSize();
    21b6:	687b      	ldr	r3, [r7, #4]
    21b8:	8a5c      	ldrh	r4, [r3, #18]
    21ba:	f000 facb 	bl	2754 <HciGetBufSize>
    21be:	4603      	mov	r3, r0
    21c0:	429c      	cmp	r4, r3
    21c2:	d202      	bcs.n	21ca <hciCoreTxAclContinue+0x2e>
    21c4:	687b      	ldr	r3, [r7, #4]
    21c6:	8a5b      	ldrh	r3, [r3, #18]
    21c8:	e002      	b.n	21d0 <hciCoreTxAclContinue+0x34>
    21ca:	f000 fac3 	bl	2754 <HciGetBufSize>
    21ce:	4603      	mov	r3, r0
    21d0:	81fb      	strh	r3, [r7, #14]
    
    if (aclLen > 0)
    21d2:	89fb      	ldrh	r3, [r7, #14]
    21d4:	2b00      	cmp	r3, #0
    21d6:	d038      	beq.n	224a <hciCoreTxAclContinue+0xae>
    {
      /* decrement remaining length */
      pConn->txAclRemLen -= aclLen;
    21d8:	687b      	ldr	r3, [r7, #4]
    21da:	8a5a      	ldrh	r2, [r3, #18]
    21dc:	89fb      	ldrh	r3, [r7, #14]
    21de:	1ad3      	subs	r3, r2, r3
    21e0:	b29a      	uxth	r2, r3
    21e2:	687b      	ldr	r3, [r7, #4]
    21e4:	825a      	strh	r2, [r3, #18]
      
      /* set handle in packet with continuation bit set */
      UINT16_TO_BUF(pConn->pNextTxFrag, (pConn->handle | HCI_PB_CONTINUE));
    21e6:	687b      	ldr	r3, [r7, #4]
    21e8:	685b      	ldr	r3, [r3, #4]
    21ea:	687a      	ldr	r2, [r7, #4]
    21ec:	8a12      	ldrh	r2, [r2, #16]
    21ee:	b2d2      	uxtb	r2, r2
    21f0:	701a      	strb	r2, [r3, #0]
    21f2:	687b      	ldr	r3, [r7, #4]
    21f4:	685b      	ldr	r3, [r3, #4]
    21f6:	3301      	adds	r3, #1
    21f8:	687a      	ldr	r2, [r7, #4]
    21fa:	8a12      	ldrh	r2, [r2, #16]
    21fc:	f442 5280 	orr.w	r2, r2, #4096	; 0x1000
    2200:	b292      	uxth	r2, r2
    2202:	0a12      	lsrs	r2, r2, #8
    2204:	b292      	uxth	r2, r2
    2206:	b2d2      	uxtb	r2, r2
    2208:	701a      	strb	r2, [r3, #0]
      
      /* set acl len in packet */
      UINT16_TO_BUF(&(pConn->pNextTxFrag[2]), aclLen);
    220a:	687b      	ldr	r3, [r7, #4]
    220c:	685b      	ldr	r3, [r3, #4]
    220e:	3302      	adds	r3, #2
    2210:	89fa      	ldrh	r2, [r7, #14]
    2212:	b2d2      	uxtb	r2, r2
    2214:	701a      	strb	r2, [r3, #0]
    2216:	687b      	ldr	r3, [r7, #4]
    2218:	685b      	ldr	r3, [r3, #4]
    221a:	3303      	adds	r3, #3
    221c:	89fa      	ldrh	r2, [r7, #14]
    221e:	0a12      	lsrs	r2, r2, #8
    2220:	b292      	uxth	r2, r2
    2222:	b2d2      	uxtb	r2, r2
    2224:	701a      	strb	r2, [r3, #0]

      HCI_TRACE_INFO2("hciCoreTxAclContinue aclLen=%u remLen=%u", aclLen, pConn->txAclRemLen);
      
      /* send the packet */
      hciCoreSendAclData(pConn, pConn->pNextTxFrag);
    2226:	687b      	ldr	r3, [r7, #4]
    2228:	685b      	ldr	r3, [r3, #4]
    222a:	6878      	ldr	r0, [r7, #4]
    222c:	4619      	mov	r1, r3
    222e:	f7ff fee7 	bl	2000 <hciCoreSendAclData>

      /* set up pointer to next fragment */
      if (pConn->txAclRemLen > 0)
    2232:	687b      	ldr	r3, [r7, #4]
    2234:	8a5b      	ldrh	r3, [r3, #18]
    2236:	2b00      	cmp	r3, #0
    2238:	d005      	beq.n	2246 <hciCoreTxAclContinue+0xaa>
      {
        pConn->pNextTxFrag += aclLen;
    223a:	687b      	ldr	r3, [r7, #4]
    223c:	685a      	ldr	r2, [r3, #4]
    223e:	89fb      	ldrh	r3, [r7, #14]
    2240:	441a      	add	r2, r3
    2242:	687b      	ldr	r3, [r7, #4]
    2244:	605a      	str	r2, [r3, #4]
      }
      
      return TRUE;
    2246:	2301      	movs	r3, #1
    2248:	e000      	b.n	224c <hciCoreTxAclContinue+0xb0>
    }
  }
  
  return FALSE;
    224a:	2300      	movs	r3, #0
}
    224c:	4618      	mov	r0, r3
    224e:	3714      	adds	r7, #20
    2250:	46bd      	mov	sp, r7
    2252:	bd90      	pop	{r4, r7, pc}

00002254 <hciCoreTxAclComplete>:
 *
 *  \return None.
 */
/*************************************************************************************************/
void hciCoreTxAclComplete(hciCoreConn_t *pConn, uint8_t *pData)
{
    2254:	b580      	push	{r7, lr}
    2256:	b082      	sub	sp, #8
    2258:	af00      	add	r7, sp, #0
    225a:	6078      	str	r0, [r7, #4]
    225c:	6039      	str	r1, [r7, #0]
  /* if fragmenting */
  if (pConn->fragmenting)
    225e:	687b      	ldr	r3, [r7, #4]
    2260:	7d9b      	ldrb	r3, [r3, #22]
    2262:	2b00      	cmp	r3, #0
    2264:	d00f      	beq.n	2286 <hciCoreTxAclComplete+0x32>
  {
    /* check if all fragments sent */
    if (pConn->txAclRemLen == 0)
    2266:	687b      	ldr	r3, [r7, #4]
    2268:	8a5b      	ldrh	r3, [r3, #18]
    226a:	2b00      	cmp	r3, #0
    226c:	d10e      	bne.n	228c <hciCoreTxAclComplete+0x38>
    {
      /* free original buffer */
      WsfMsgFree(pConn->pTxAclPkt);
    226e:	687b      	ldr	r3, [r7, #4]
    2270:	681b      	ldr	r3, [r3, #0]
    2272:	4618      	mov	r0, r3
    2274:	f002 fc3a 	bl	4aec <WsfMsgFree>
      pConn->pTxAclPkt = NULL;
    2278:	687b      	ldr	r3, [r7, #4]
    227a:	2200      	movs	r2, #0
    227c:	601a      	str	r2, [r3, #0]
      pConn->fragmenting = FALSE;
    227e:	687b      	ldr	r3, [r7, #4]
    2280:	2200      	movs	r2, #0
    2282:	759a      	strb	r2, [r3, #22]
    2284:	e002      	b.n	228c <hciCoreTxAclComplete+0x38>
      HCI_TRACE_INFO0("hciCoreTxAclComplete free pTxAclPkt");    
    }
  }
  else
  {
    WsfMsgFree(pData);
    2286:	6838      	ldr	r0, [r7, #0]
    2288:	f002 fc30 	bl	4aec <WsfMsgFree>
  }  
}
    228c:	3708      	adds	r7, #8
    228e:	46bd      	mov	sp, r7
    2290:	bd80      	pop	{r7, pc}
    2292:	bf00      	nop

00002294 <hciCoreAclReassembly>:
 *
 *  \return pointer to ACL packet to send, or NULL if no packet to send.
 */
/*************************************************************************************************/
uint8_t *hciCoreAclReassembly(uint8_t *pData)
{
    2294:	b580      	push	{r7, lr}
    2296:	b088      	sub	sp, #32
    2298:	af00      	add	r7, sp, #0
    229a:	6078      	str	r0, [r7, #4]
  hciCoreConn_t *pConn;
  uint8_t       *pDataRtn = NULL;
    229c:	2300      	movs	r3, #0
    229e:	61fb      	str	r3, [r7, #28]
  uint16_t      handle;
  uint16_t      aclLen;
  uint16_t      l2cLen;
  uint16_t      pbf;
  bool_t        freeData = TRUE;
    22a0:	2301      	movs	r3, #1
    22a2:	76fb      	strb	r3, [r7, #27]
  
  BYTES_TO_UINT16(handle, pData);
    22a4:	687b      	ldr	r3, [r7, #4]
    22a6:	781b      	ldrb	r3, [r3, #0]
    22a8:	461a      	mov	r2, r3
    22aa:	687b      	ldr	r3, [r7, #4]
    22ac:	3301      	adds	r3, #1
    22ae:	781b      	ldrb	r3, [r3, #0]
    22b0:	021b      	lsls	r3, r3, #8
    22b2:	b29b      	uxth	r3, r3
    22b4:	4413      	add	r3, r2
    22b6:	833b      	strh	r3, [r7, #24]
  pbf = handle & HCI_PB_FLAG_MASK;
    22b8:	8b3b      	ldrh	r3, [r7, #24]
    22ba:	f403 5340 	and.w	r3, r3, #12288	; 0x3000
    22be:	82fb      	strh	r3, [r7, #22]
  handle &= HCI_HANDLE_MASK;
    22c0:	8b3b      	ldrh	r3, [r7, #24]
    22c2:	f3c3 030b 	ubfx	r3, r3, #0, #12
    22c6:	833b      	strh	r3, [r7, #24]
  BYTES_TO_UINT16(aclLen, &pData[2]);
    22c8:	687b      	ldr	r3, [r7, #4]
    22ca:	3302      	adds	r3, #2
    22cc:	781b      	ldrb	r3, [r3, #0]
    22ce:	461a      	mov	r2, r3
    22d0:	687b      	ldr	r3, [r7, #4]
    22d2:	3303      	adds	r3, #3
    22d4:	781b      	ldrb	r3, [r3, #0]
    22d6:	021b      	lsls	r3, r3, #8
    22d8:	b29b      	uxth	r3, r3
    22da:	4413      	add	r3, r2
    22dc:	82bb      	strh	r3, [r7, #20]
    
  /* look up connection */
  if ((pConn = hciCoreConnByHandle(handle)) != NULL)
    22de:	8b3b      	ldrh	r3, [r7, #24]
    22e0:	4618      	mov	r0, r3
    22e2:	f7ff fe2b 	bl	1f3c <hciCoreConnByHandle>
    22e6:	6138      	str	r0, [r7, #16]
    22e8:	693b      	ldr	r3, [r7, #16]
    22ea:	2b00      	cmp	r3, #0
    22ec:	f000 80af 	beq.w	244e <hciCoreAclReassembly+0x1ba>
  {
    /* if this is a start packet */
    if (pbf == HCI_PB_START_C2H)
    22f0:	8afb      	ldrh	r3, [r7, #22]
    22f2:	f5b3 5f00 	cmp.w	r3, #8192	; 0x2000
    22f6:	d17c      	bne.n	23f2 <hciCoreAclReassembly+0x15e>
    {
      /* if currently reassembled packet not complete */
      if (pConn->pRxAclPkt != NULL)
    22f8:	693b      	ldr	r3, [r7, #16]
    22fa:	689b      	ldr	r3, [r3, #8]
    22fc:	2b00      	cmp	r3, #0
    22fe:	d007      	beq.n	2310 <hciCoreAclReassembly+0x7c>
      {
        /* discard currently reassembled packet */
        WsfMsgFree(pConn->pRxAclPkt);
    2300:	693b      	ldr	r3, [r7, #16]
    2302:	689b      	ldr	r3, [r3, #8]
    2304:	4618      	mov	r0, r3
    2306:	f002 fbf1 	bl	4aec <WsfMsgFree>
        pConn->pRxAclPkt = NULL;
    230a:	693b      	ldr	r3, [r7, #16]
    230c:	2200      	movs	r2, #0
    230e:	609a      	str	r2, [r3, #8]
        HCI_TRACE_WARN1("disarded hci rx pkt handle=0x%04x", handle);    
      }      

      /* read l2cap length */
      if (aclLen >= L2C_HDR_LEN)
    2310:	8abb      	ldrh	r3, [r7, #20]
    2312:	2b03      	cmp	r3, #3
    2314:	f240 809b 	bls.w	244e <hciCoreAclReassembly+0x1ba>
      {
        BYTES_TO_UINT16(l2cLen, &pData[4]);
    2318:	687b      	ldr	r3, [r7, #4]
    231a:	3304      	adds	r3, #4
    231c:	781b      	ldrb	r3, [r3, #0]
    231e:	461a      	mov	r2, r3
    2320:	687b      	ldr	r3, [r7, #4]
    2322:	3305      	adds	r3, #5
    2324:	781b      	ldrb	r3, [r3, #0]
    2326:	021b      	lsls	r3, r3, #8
    2328:	b29b      	uxth	r3, r3
    232a:	4413      	add	r3, r2
    232c:	81fb      	strh	r3, [r7, #14]
        
        /* check length vs. configured maximum */
        if ((l2cLen + L2C_HDR_LEN) > hciCoreCb.maxRxAclLen)
    232e:	89fb      	ldrh	r3, [r7, #14]
    2330:	1d1a      	adds	r2, r3, #4
    2332:	4b4c      	ldr	r3, [pc, #304]	; (2464 <hciCoreAclReassembly+0x1d0>)
    2334:	f8b3 3070 	ldrh.w	r3, [r3, #112]	; 0x70
    2338:	429a      	cmp	r2, r3
    233a:	f300 8088 	bgt.w	244e <hciCoreAclReassembly+0x1ba>
        {
          HCI_TRACE_WARN1("l2c len=0x%04x to large for reassembly", l2cLen);
        }
        /* if reassembly required */
        else if ((l2cLen + L2C_HDR_LEN) > aclLen)
    233e:	89fb      	ldrh	r3, [r7, #14]
    2340:	1d1a      	adds	r2, r3, #4
    2342:	8abb      	ldrh	r3, [r7, #20]
    2344:	429a      	cmp	r2, r3
    2346:	dd4f      	ble.n	23e8 <hciCoreAclReassembly+0x154>
        {
          /* allocate buffer to store complete l2cap packet */
          if ((pConn->pRxAclPkt = WsfMsgAlloc(l2cLen + L2C_HDR_LEN + HCI_ACL_HDR_LEN)) != NULL)
    2348:	89fb      	ldrh	r3, [r7, #14]
    234a:	3308      	adds	r3, #8
    234c:	b29b      	uxth	r3, r3
    234e:	4618      	mov	r0, r3
    2350:	f002 fbb4 	bl	4abc <WsfMsgAlloc>
    2354:	4602      	mov	r2, r0
    2356:	693b      	ldr	r3, [r7, #16]
    2358:	609a      	str	r2, [r3, #8]
    235a:	693b      	ldr	r3, [r7, #16]
    235c:	689b      	ldr	r3, [r3, #8]
    235e:	2b00      	cmp	r3, #0
    2360:	d075      	beq.n	244e <hciCoreAclReassembly+0x1ba>
          {
            /* store buffer for reassembly */
            pConn->pNextRxFrag = pConn->pRxAclPkt;
    2362:	693b      	ldr	r3, [r7, #16]
    2364:	689a      	ldr	r2, [r3, #8]
    2366:	693b      	ldr	r3, [r7, #16]
    2368:	60da      	str	r2, [r3, #12]

            /* build acl header and copy data */
            UINT16_TO_BSTREAM(pConn->pNextRxFrag, handle);
    236a:	693b      	ldr	r3, [r7, #16]
    236c:	68db      	ldr	r3, [r3, #12]
    236e:	1c59      	adds	r1, r3, #1
    2370:	693a      	ldr	r2, [r7, #16]
    2372:	60d1      	str	r1, [r2, #12]
    2374:	8b3a      	ldrh	r2, [r7, #24]
    2376:	b2d2      	uxtb	r2, r2
    2378:	701a      	strb	r2, [r3, #0]
    237a:	693b      	ldr	r3, [r7, #16]
    237c:	68db      	ldr	r3, [r3, #12]
    237e:	1c59      	adds	r1, r3, #1
    2380:	693a      	ldr	r2, [r7, #16]
    2382:	60d1      	str	r1, [r2, #12]
    2384:	8b3a      	ldrh	r2, [r7, #24]
    2386:	0a12      	lsrs	r2, r2, #8
    2388:	b292      	uxth	r2, r2
    238a:	b2d2      	uxtb	r2, r2
    238c:	701a      	strb	r2, [r3, #0]
            UINT16_TO_BSTREAM(pConn->pNextRxFrag, l2cLen + L2C_HDR_LEN);
    238e:	693b      	ldr	r3, [r7, #16]
    2390:	68db      	ldr	r3, [r3, #12]
    2392:	1c59      	adds	r1, r3, #1
    2394:	693a      	ldr	r2, [r7, #16]
    2396:	60d1      	str	r1, [r2, #12]
    2398:	89fa      	ldrh	r2, [r7, #14]
    239a:	b2d2      	uxtb	r2, r2
    239c:	3204      	adds	r2, #4
    239e:	b2d2      	uxtb	r2, r2
    23a0:	701a      	strb	r2, [r3, #0]
    23a2:	693b      	ldr	r3, [r7, #16]
    23a4:	68db      	ldr	r3, [r3, #12]
    23a6:	1c59      	adds	r1, r3, #1
    23a8:	693a      	ldr	r2, [r7, #16]
    23aa:	60d1      	str	r1, [r2, #12]
    23ac:	89fa      	ldrh	r2, [r7, #14]
    23ae:	3204      	adds	r2, #4
    23b0:	1212      	asrs	r2, r2, #8
    23b2:	b2d2      	uxtb	r2, r2
    23b4:	701a      	strb	r2, [r3, #0]
            memcpy(pConn->pNextRxFrag, &pData[4], aclLen);
    23b6:	693b      	ldr	r3, [r7, #16]
    23b8:	68d9      	ldr	r1, [r3, #12]
    23ba:	687b      	ldr	r3, [r7, #4]
    23bc:	1d1a      	adds	r2, r3, #4
    23be:	8abb      	ldrh	r3, [r7, #20]
    23c0:	4608      	mov	r0, r1
    23c2:	4611      	mov	r1, r2
    23c4:	461a      	mov	r2, r3
    23c6:	f007 fc5b 	bl	9c80 <memcpy>
            pConn->pNextRxFrag += aclLen;
    23ca:	693b      	ldr	r3, [r7, #16]
    23cc:	68da      	ldr	r2, [r3, #12]
    23ce:	8abb      	ldrh	r3, [r7, #20]
    23d0:	441a      	add	r2, r3
    23d2:	693b      	ldr	r3, [r7, #16]
    23d4:	60da      	str	r2, [r3, #12]
            
            /* store remaining length */
            pConn->rxAclRemLen = l2cLen + L2C_HDR_LEN - aclLen;
    23d6:	89fa      	ldrh	r2, [r7, #14]
    23d8:	8abb      	ldrh	r3, [r7, #20]
    23da:	1ad3      	subs	r3, r2, r3
    23dc:	b29b      	uxth	r3, r3
    23de:	3304      	adds	r3, #4
    23e0:	b29a      	uxth	r2, r3
    23e2:	693b      	ldr	r3, [r7, #16]
    23e4:	829a      	strh	r2, [r3, #20]
    23e6:	e032      	b.n	244e <hciCoreAclReassembly+0x1ba>
          }
        }
        else
        {
          /* no reassembly required, pData is ready to go */
          pDataRtn = pData;
    23e8:	687b      	ldr	r3, [r7, #4]
    23ea:	61fb      	str	r3, [r7, #28]
          freeData = FALSE;  
    23ec:	2300      	movs	r3, #0
    23ee:	76fb      	strb	r3, [r7, #27]
    23f0:	e02d      	b.n	244e <hciCoreAclReassembly+0x1ba>
        /* invalid l2cap packet; discard */
        HCI_TRACE_WARN1("invalid l2c pkt aclLen=%u", aclLen);        
      }
    }
    /* else if this is a continuation packet */
    else if (pbf == HCI_PB_CONTINUE)
    23f2:	8afb      	ldrh	r3, [r7, #22]
    23f4:	f5b3 5f80 	cmp.w	r3, #4096	; 0x1000
    23f8:	d129      	bne.n	244e <hciCoreAclReassembly+0x1ba>
    {
      /* if expecting a continuation */
      if (pConn->pRxAclPkt != NULL)
    23fa:	693b      	ldr	r3, [r7, #16]
    23fc:	689b      	ldr	r3, [r3, #8]
    23fe:	2b00      	cmp	r3, #0
    2400:	d025      	beq.n	244e <hciCoreAclReassembly+0x1ba>
      {
        if (aclLen <= pConn->rxAclRemLen)
    2402:	693b      	ldr	r3, [r7, #16]
    2404:	8a9b      	ldrh	r3, [r3, #20]
    2406:	8aba      	ldrh	r2, [r7, #20]
    2408:	429a      	cmp	r2, r3
    240a:	d820      	bhi.n	244e <hciCoreAclReassembly+0x1ba>
        {
          /* copy data to start of next fragment */
          memcpy(pConn->pNextRxFrag, &pData[HCI_ACL_HDR_LEN], aclLen);
    240c:	693b      	ldr	r3, [r7, #16]
    240e:	68d9      	ldr	r1, [r3, #12]
    2410:	687b      	ldr	r3, [r7, #4]
    2412:	1d1a      	adds	r2, r3, #4
    2414:	8abb      	ldrh	r3, [r7, #20]
    2416:	4608      	mov	r0, r1
    2418:	4611      	mov	r1, r2
    241a:	461a      	mov	r2, r3
    241c:	f007 fc30 	bl	9c80 <memcpy>
          pConn->pNextRxFrag += aclLen;
    2420:	693b      	ldr	r3, [r7, #16]
    2422:	68da      	ldr	r2, [r3, #12]
    2424:	8abb      	ldrh	r3, [r7, #20]
    2426:	441a      	add	r2, r3
    2428:	693b      	ldr	r3, [r7, #16]
    242a:	60da      	str	r2, [r3, #12]

          /* update remaining length */
          pConn->rxAclRemLen -= aclLen;
    242c:	693b      	ldr	r3, [r7, #16]
    242e:	8a9a      	ldrh	r2, [r3, #20]
    2430:	8abb      	ldrh	r3, [r7, #20]
    2432:	1ad3      	subs	r3, r2, r3
    2434:	b29a      	uxth	r2, r3
    2436:	693b      	ldr	r3, [r7, #16]
    2438:	829a      	strh	r2, [r3, #20]
          
          /* if reassembly complete return reassembled packet */
          if (pConn->rxAclRemLen == 0)
    243a:	693b      	ldr	r3, [r7, #16]
    243c:	8a9b      	ldrh	r3, [r3, #20]
    243e:	2b00      	cmp	r3, #0
    2440:	d105      	bne.n	244e <hciCoreAclReassembly+0x1ba>
          {
            pDataRtn = pConn->pRxAclPkt;
    2442:	693b      	ldr	r3, [r7, #16]
    2444:	689b      	ldr	r3, [r3, #8]
    2446:	61fb      	str	r3, [r7, #28]
            pConn->pRxAclPkt = NULL;
    2448:	693b      	ldr	r3, [r7, #16]
    244a:	2200      	movs	r2, #0
    244c:	609a      	str	r2, [r3, #8]
  {
    /* connection not found */
    HCI_TRACE_WARN1("pkt rcvd on unknown handle=0x%04x", (handle & HCI_HANDLE_MASK));
  }

  if (freeData)
    244e:	7efb      	ldrb	r3, [r7, #27]
    2450:	2b00      	cmp	r3, #0
    2452:	d002      	beq.n	245a <hciCoreAclReassembly+0x1c6>
  {
    WsfMsgFree(pData);
    2454:	6878      	ldr	r0, [r7, #4]
    2456:	f002 fb49 	bl	4aec <WsfMsgFree>
  }
    
  return pDataRtn;
    245a:	69fb      	ldr	r3, [r7, #28]
}
    245c:	4618      	mov	r0, r3
    245e:	3720      	adds	r7, #32
    2460:	46bd      	mov	sp, r7
    2462:	bd80      	pop	{r7, pc}
    2464:	10000d68 	.word	0x10000d68

00002468 <HciCoreInit>:
 *
 *  \return None.
 */
/*************************************************************************************************/
void HciCoreInit(void)
{
    2468:	b580      	push	{r7, lr}
    246a:	b082      	sub	sp, #8
    246c:	af00      	add	r7, sp, #0
  uint8_t   i;

  WSF_QUEUE_INIT(&hciCoreCb.aclQueue);
    246e:	4b15      	ldr	r3, [pc, #84]	; (24c4 <HciCoreInit+0x5c>)
    2470:	2200      	movs	r2, #0
    2472:	665a      	str	r2, [r3, #100]	; 0x64
    2474:	4b13      	ldr	r3, [pc, #76]	; (24c4 <HciCoreInit+0x5c>)
    2476:	2200      	movs	r2, #0
    2478:	669a      	str	r2, [r3, #104]	; 0x68

  for (i = 0; i < DM_CONN_MAX; i++)
    247a:	2300      	movs	r3, #0
    247c:	71fb      	strb	r3, [r7, #7]
    247e:	e00d      	b.n	249c <HciCoreInit+0x34>
  {
    hciCoreCb.conn[i].handle = HCI_HANDLE_NONE;
    2480:	79fa      	ldrb	r2, [r7, #7]
    2482:	4910      	ldr	r1, [pc, #64]	; (24c4 <HciCoreInit+0x5c>)
    2484:	4613      	mov	r3, r2
    2486:	00db      	lsls	r3, r3, #3
    2488:	1a9b      	subs	r3, r3, r2
    248a:	009b      	lsls	r3, r3, #2
    248c:	440b      	add	r3, r1
    248e:	3310      	adds	r3, #16
    2490:	f64f 72ff 	movw	r2, #65535	; 0xffff
    2494:	801a      	strh	r2, [r3, #0]
{
  uint8_t   i;

  WSF_QUEUE_INIT(&hciCoreCb.aclQueue);

  for (i = 0; i < DM_CONN_MAX; i++)
    2496:	79fb      	ldrb	r3, [r7, #7]
    2498:	3301      	adds	r3, #1
    249a:	71fb      	strb	r3, [r7, #7]
    249c:	79fb      	ldrb	r3, [r7, #7]
    249e:	2b02      	cmp	r3, #2
    24a0:	d9ee      	bls.n	2480 <HciCoreInit+0x18>
  {
    hciCoreCb.conn[i].handle = HCI_HANDLE_NONE;
  }

  hciCoreCb.maxRxAclLen = HCI_MAX_RX_ACL_LEN;
    24a2:	4b08      	ldr	r3, [pc, #32]	; (24c4 <HciCoreInit+0x5c>)
    24a4:	221b      	movs	r2, #27
    24a6:	f8a3 2070 	strh.w	r2, [r3, #112]	; 0x70
  hciCoreCb.aclQueueHi = HCI_ACL_QUEUE_HI;
    24aa:	4b06      	ldr	r3, [pc, #24]	; (24c4 <HciCoreInit+0x5c>)
    24ac:	2205      	movs	r2, #5
    24ae:	f883 2074 	strb.w	r2, [r3, #116]	; 0x74
  hciCoreCb.aclQueueLo = HCI_ACL_QUEUE_LO;
    24b2:	4b04      	ldr	r3, [pc, #16]	; (24c4 <HciCoreInit+0x5c>)
    24b4:	2201      	movs	r2, #1
    24b6:	f883 2075 	strb.w	r2, [r3, #117]	; 0x75
  
  hciCoreInit();
    24ba:	f000 f879 	bl	25b0 <hciCoreInit>
}
    24be:	3708      	adds	r7, #8
    24c0:	46bd      	mov	sp, r7
    24c2:	bd80      	pop	{r7, pc}
    24c4:	10000d68 	.word	0x10000d68

000024c8 <HciResetSequence>:
 *
 *  \return None.
 */
/*************************************************************************************************/
void HciResetSequence(void)
{
    24c8:	b580      	push	{r7, lr}
    24ca:	af00      	add	r7, sp, #0
  /* set resetting state */
  hciCb.resetting = TRUE;
    24cc:	4b02      	ldr	r3, [pc, #8]	; (24d8 <HciResetSequence+0x10>)
    24ce:	2201      	movs	r2, #1
    24d0:	765a      	strb	r2, [r3, #25]

  /* start the reset sequence */
  hciCoreResetStart();
    24d2:	f001 fb5b 	bl	3b8c <hciCoreResetStart>
}
    24d6:	bd80      	pop	{r7, pc}
    24d8:	10000de4 	.word	0x10000de4

000024dc <HciSendAclData>:
 *
 *  \return None.
 */
/*************************************************************************************************/
void HciSendAclData(uint8_t *pData)
{
    24dc:	b5b0      	push	{r4, r5, r7, lr}
    24de:	b084      	sub	sp, #16
    24e0:	af00      	add	r7, sp, #0
    24e2:	6078      	str	r0, [r7, #4]
  uint16_t        handle;
  uint16_t        len;
  hciCoreConn_t   *pConn;

  /* parse handle and length */
  BYTES_TO_UINT16(handle, pData);
    24e4:	687b      	ldr	r3, [r7, #4]
    24e6:	781b      	ldrb	r3, [r3, #0]
    24e8:	461a      	mov	r2, r3
    24ea:	687b      	ldr	r3, [r7, #4]
    24ec:	3301      	adds	r3, #1
    24ee:	781b      	ldrb	r3, [r3, #0]
    24f0:	021b      	lsls	r3, r3, #8
    24f2:	b29b      	uxth	r3, r3
    24f4:	4413      	add	r3, r2
    24f6:	81fb      	strh	r3, [r7, #14]
  BYTES_TO_UINT16(len, &pData[2]);
    24f8:	687b      	ldr	r3, [r7, #4]
    24fa:	3302      	adds	r3, #2
    24fc:	781b      	ldrb	r3, [r3, #0]
    24fe:	461a      	mov	r2, r3
    2500:	687b      	ldr	r3, [r7, #4]
    2502:	3303      	adds	r3, #3
    2504:	781b      	ldrb	r3, [r3, #0]
    2506:	021b      	lsls	r3, r3, #8
    2508:	b29b      	uxth	r3, r3
    250a:	4413      	add	r3, r2
    250c:	81bb      	strh	r3, [r7, #12]

  /* look up connection structure */
  if ((pConn = hciCoreConnByHandle(handle)) != NULL)
    250e:	89fb      	ldrh	r3, [r7, #14]
    2510:	4618      	mov	r0, r3
    2512:	f7ff fd13 	bl	1f3c <hciCoreConnByHandle>
    2516:	60b8      	str	r0, [r7, #8]
    2518:	68bb      	ldr	r3, [r7, #8]
    251a:	2b00      	cmp	r3, #0
    251c:	d03b      	beq.n	2596 <HciSendAclData+0xba>
  {
    /* if queue empty and buffers available */
    if (WsfQueueEmpty(&hciCoreCb.aclQueue) && hciCoreCb.availBufs > 0)
    251e:	4821      	ldr	r0, [pc, #132]	; (25a4 <HciSendAclData+0xc8>)
    2520:	f002 fbfa 	bl	4d18 <WsfQueueEmpty>
    2524:	4603      	mov	r3, r0
    2526:	2b00      	cmp	r3, #0
    2528:	d00b      	beq.n	2542 <HciSendAclData+0x66>
    252a:	4b1f      	ldr	r3, [pc, #124]	; (25a8 <HciSendAclData+0xcc>)
    252c:	f893 3076 	ldrb.w	r3, [r3, #118]	; 0x76
    2530:	2b00      	cmp	r3, #0
    2532:	d006      	beq.n	2542 <HciSendAclData+0x66>
    {
      /* send data */
      hciCoreTxAclStart(pConn, len, pData);
    2534:	89bb      	ldrh	r3, [r7, #12]
    2536:	68b8      	ldr	r0, [r7, #8]
    2538:	4619      	mov	r1, r3
    253a:	687a      	ldr	r2, [r7, #4]
    253c:	f7ff fde8 	bl	2110 <hciCoreTxAclStart>
    2540:	e004      	b.n	254c <HciSendAclData+0x70>
    }
    else
    {
      /* queue data */
      WsfMsgEnq(&hciCoreCb.aclQueue, 0, pData);
    2542:	4818      	ldr	r0, [pc, #96]	; (25a4 <HciSendAclData+0xc8>)
    2544:	2100      	movs	r1, #0
    2546:	687a      	ldr	r2, [r7, #4]
    2548:	f002 faf6 	bl	4b38 <WsfMsgEnq>
    }

    /* increment buffer queue count for this connection with consideration for HCI fragmentation */
    pConn->queuedBufs += ((len - 1) / HciGetBufSize()) + 1;
    254c:	68bb      	ldr	r3, [r7, #8]
    254e:	7e1c      	ldrb	r4, [r3, #24]
    2550:	89bb      	ldrh	r3, [r7, #12]
    2552:	1e5d      	subs	r5, r3, #1
    2554:	f000 f8fe 	bl	2754 <HciGetBufSize>
    2558:	4603      	mov	r3, r0
    255a:	fb95 f3f3 	sdiv	r3, r5, r3
    255e:	b2db      	uxtb	r3, r3
    2560:	4423      	add	r3, r4
    2562:	b2db      	uxtb	r3, r3
    2564:	3301      	adds	r3, #1
    2566:	b2da      	uxtb	r2, r3
    2568:	68bb      	ldr	r3, [r7, #8]
    256a:	761a      	strb	r2, [r3, #24]

    /* manage flow control to stack */
    if (pConn->queuedBufs >= hciCoreCb.aclQueueHi && pConn->flowDisabled == FALSE)
    256c:	68bb      	ldr	r3, [r7, #8]
    256e:	7e1a      	ldrb	r2, [r3, #24]
    2570:	4b0d      	ldr	r3, [pc, #52]	; (25a8 <HciSendAclData+0xcc>)
    2572:	f893 3074 	ldrb.w	r3, [r3, #116]	; 0x74
    2576:	429a      	cmp	r2, r3
    2578:	d310      	bcc.n	259c <HciSendAclData+0xc0>
    257a:	68bb      	ldr	r3, [r7, #8]
    257c:	7ddb      	ldrb	r3, [r3, #23]
    257e:	2b00      	cmp	r3, #0
    2580:	d10c      	bne.n	259c <HciSendAclData+0xc0>
    {
      pConn->flowDisabled = TRUE;
    2582:	68bb      	ldr	r3, [r7, #8]
    2584:	2201      	movs	r2, #1
    2586:	75da      	strb	r2, [r3, #23]
      (*hciCb.flowCback)(handle, TRUE);
    2588:	4b08      	ldr	r3, [pc, #32]	; (25ac <HciSendAclData+0xd0>)
    258a:	695b      	ldr	r3, [r3, #20]
    258c:	89fa      	ldrh	r2, [r7, #14]
    258e:	4610      	mov	r0, r2
    2590:	2101      	movs	r1, #1
    2592:	4798      	blx	r3
    2594:	e002      	b.n	259c <HciSendAclData+0xc0>
  }
  /* connection not found, connection must be closed */
  else
  {
    /* discard buffer */
    WsfMsgFree(pData);
    2596:	6878      	ldr	r0, [r7, #4]
    2598:	f002 faa8 	bl	4aec <WsfMsgFree>

    HCI_TRACE_WARN1("HciSendAclData discarding buffer, handle=%u", handle);
  }
}
    259c:	3710      	adds	r7, #16
    259e:	46bd      	mov	sp, r7
    25a0:	bdb0      	pop	{r4, r5, r7, pc}
    25a2:	bf00      	nop
    25a4:	10000dcc 	.word	0x10000dcc
    25a8:	10000d68 	.word	0x10000d68
    25ac:	10000de4 	.word	0x10000de4

000025b0 <hciCoreInit>:
 *
 *  \return None.
 */
/*************************************************************************************************/
void hciCoreInit(void)
{
    25b0:	b580      	push	{r7, lr}
    25b2:	af00      	add	r7, sp, #0
  hciCmdInit();
    25b4:	f7ff f8c4 	bl	1740 <hciCmdInit>
}
    25b8:	bd80      	pop	{r7, pc}
    25ba:	bf00      	nop

000025bc <hciCoreNumCmplPkts>:
 *
 *  \return None.
 */
/*************************************************************************************************/
void hciCoreNumCmplPkts(uint8_t *pMsg)
{
    25bc:	b580      	push	{r7, lr}
    25be:	b086      	sub	sp, #24
    25c0:	af00      	add	r7, sp, #0
    25c2:	6078      	str	r0, [r7, #4]
  uint8_t         numHandles;
  uint16_t        bufs;
  uint16_t        handle;
  uint8_t         availBufs = 0;
    25c4:	2300      	movs	r3, #0
    25c6:	75bb      	strb	r3, [r7, #22]
  hciCoreConn_t   *pConn;

  /* parse number of handles */
  BSTREAM_TO_UINT8(numHandles, pMsg);
    25c8:	687b      	ldr	r3, [r7, #4]
    25ca:	1c5a      	adds	r2, r3, #1
    25cc:	607a      	str	r2, [r7, #4]
    25ce:	781b      	ldrb	r3, [r3, #0]
    25d0:	75fb      	strb	r3, [r7, #23]

  /* for each handle in event */
  while (numHandles-- > 0)
    25d2:	e04a      	b.n	266a <hciCoreNumCmplPkts+0xae>
  {
    /* parse handle and number of buffers */
    BSTREAM_TO_UINT16(handle, pMsg);
    25d4:	687b      	ldr	r3, [r7, #4]
    25d6:	781b      	ldrb	r3, [r3, #0]
    25d8:	461a      	mov	r2, r3
    25da:	687b      	ldr	r3, [r7, #4]
    25dc:	3301      	adds	r3, #1
    25de:	781b      	ldrb	r3, [r3, #0]
    25e0:	021b      	lsls	r3, r3, #8
    25e2:	b29b      	uxth	r3, r3
    25e4:	4413      	add	r3, r2
    25e6:	82bb      	strh	r3, [r7, #20]
    25e8:	687b      	ldr	r3, [r7, #4]
    25ea:	3302      	adds	r3, #2
    25ec:	607b      	str	r3, [r7, #4]
    BSTREAM_TO_UINT16(bufs, pMsg);
    25ee:	687b      	ldr	r3, [r7, #4]
    25f0:	781b      	ldrb	r3, [r3, #0]
    25f2:	461a      	mov	r2, r3
    25f4:	687b      	ldr	r3, [r7, #4]
    25f6:	3301      	adds	r3, #1
    25f8:	781b      	ldrb	r3, [r3, #0]
    25fa:	021b      	lsls	r3, r3, #8
    25fc:	b29b      	uxth	r3, r3
    25fe:	4413      	add	r3, r2
    2600:	827b      	strh	r3, [r7, #18]
    2602:	687b      	ldr	r3, [r7, #4]
    2604:	3302      	adds	r3, #2
    2606:	607b      	str	r3, [r7, #4]

    if ((pConn = hciCoreConnByHandle(handle)) != NULL)
    2608:	8abb      	ldrh	r3, [r7, #20]
    260a:	4618      	mov	r0, r3
    260c:	f7ff fc96 	bl	1f3c <hciCoreConnByHandle>
    2610:	60f8      	str	r0, [r7, #12]
    2612:	68fb      	ldr	r3, [r7, #12]
    2614:	2b00      	cmp	r3, #0
    2616:	d028      	beq.n	266a <hciCoreNumCmplPkts+0xae>
    {
      /* decrement outstanding buffer count to controller */
      pConn->outBufs -= (uint8_t) bufs;
    2618:	68fb      	ldr	r3, [r7, #12]
    261a:	7e5a      	ldrb	r2, [r3, #25]
    261c:	8a7b      	ldrh	r3, [r7, #18]
    261e:	b2db      	uxtb	r3, r3
    2620:	1ad3      	subs	r3, r2, r3
    2622:	b2da      	uxtb	r2, r3
    2624:	68fb      	ldr	r3, [r7, #12]
    2626:	765a      	strb	r2, [r3, #25]

      /* decrement queued buffer count for this connection */
      pConn->queuedBufs -= (uint8_t) bufs;
    2628:	68fb      	ldr	r3, [r7, #12]
    262a:	7e1a      	ldrb	r2, [r3, #24]
    262c:	8a7b      	ldrh	r3, [r7, #18]
    262e:	b2db      	uxtb	r3, r3
    2630:	1ad3      	subs	r3, r2, r3
    2632:	b2da      	uxtb	r2, r3
    2634:	68fb      	ldr	r3, [r7, #12]
    2636:	761a      	strb	r2, [r3, #24]

      /* increment available buffer count */
      availBufs += (uint8_t) bufs;
    2638:	8a7b      	ldrh	r3, [r7, #18]
    263a:	b2da      	uxtb	r2, r3
    263c:	7dbb      	ldrb	r3, [r7, #22]
    263e:	4413      	add	r3, r2
    2640:	75bb      	strb	r3, [r7, #22]

      /* call flow control callback */
      if (pConn->flowDisabled && pConn->queuedBufs <= hciCoreCb.aclQueueLo)
    2642:	68fb      	ldr	r3, [r7, #12]
    2644:	7ddb      	ldrb	r3, [r3, #23]
    2646:	2b00      	cmp	r3, #0
    2648:	d00f      	beq.n	266a <hciCoreNumCmplPkts+0xae>
    264a:	68fb      	ldr	r3, [r7, #12]
    264c:	7e1a      	ldrb	r2, [r3, #24]
    264e:	4b0d      	ldr	r3, [pc, #52]	; (2684 <hciCoreNumCmplPkts+0xc8>)
    2650:	f893 3075 	ldrb.w	r3, [r3, #117]	; 0x75
    2654:	429a      	cmp	r2, r3
    2656:	d808      	bhi.n	266a <hciCoreNumCmplPkts+0xae>
      {
        pConn->flowDisabled = FALSE;
    2658:	68fb      	ldr	r3, [r7, #12]
    265a:	2200      	movs	r2, #0
    265c:	75da      	strb	r2, [r3, #23]
        (*hciCb.flowCback)(handle, FALSE);
    265e:	4b0a      	ldr	r3, [pc, #40]	; (2688 <hciCoreNumCmplPkts+0xcc>)
    2660:	695b      	ldr	r3, [r3, #20]
    2662:	8aba      	ldrh	r2, [r7, #20]
    2664:	4610      	mov	r0, r2
    2666:	2100      	movs	r1, #0
    2668:	4798      	blx	r3

  /* parse number of handles */
  BSTREAM_TO_UINT8(numHandles, pMsg);

  /* for each handle in event */
  while (numHandles-- > 0)
    266a:	7dfb      	ldrb	r3, [r7, #23]
    266c:	1e5a      	subs	r2, r3, #1
    266e:	75fa      	strb	r2, [r7, #23]
    2670:	2b00      	cmp	r3, #0
    2672:	d1af      	bne.n	25d4 <hciCoreNumCmplPkts+0x18>
      }
    }
  }

  /* service TX data path */
  hciCoreTxReady(availBufs);
    2674:	7dbb      	ldrb	r3, [r7, #22]
    2676:	4618      	mov	r0, r3
    2678:	f7ff fce4 	bl	2044 <hciCoreTxReady>
}
    267c:	3718      	adds	r7, #24
    267e:	46bd      	mov	sp, r7
    2680:	bd80      	pop	{r7, pc}
    2682:	bf00      	nop
    2684:	10000d68 	.word	0x10000d68
    2688:	10000de4 	.word	0x10000de4

0000268c <hciCoreRecv>:
 *
 *  \return None.
 */
/*************************************************************************************************/
void hciCoreRecv(uint8_t msgType, uint8_t *pCoreRecvMsg)
{
    268c:	b580      	push	{r7, lr}
    268e:	b082      	sub	sp, #8
    2690:	af00      	add	r7, sp, #0
    2692:	4603      	mov	r3, r0
    2694:	6039      	str	r1, [r7, #0]
    2696:	71fb      	strb	r3, [r7, #7]
  {
    HCI_PDUMP_RX_ACL(*(pCoreRecvMsg + 2) + HCI_ACL_HDR_LEN, pCoreRecvMsg);
  }

  /* queue buffer */
  WsfMsgEnq(&hciCb.rxQueue, (wsfHandlerId_t) msgType, pCoreRecvMsg);
    2698:	79fb      	ldrb	r3, [r7, #7]
    269a:	4807      	ldr	r0, [pc, #28]	; (26b8 <hciCoreRecv+0x2c>)
    269c:	4619      	mov	r1, r3
    269e:	683a      	ldr	r2, [r7, #0]
    26a0:	f002 fa4a 	bl	4b38 <WsfMsgEnq>

  /* set event */
  WsfSetEvent(hciCb.handlerId, HCI_EVT_RX);
    26a4:	4b04      	ldr	r3, [pc, #16]	; (26b8 <hciCoreRecv+0x2c>)
    26a6:	7e1b      	ldrb	r3, [r3, #24]
    26a8:	4618      	mov	r0, r3
    26aa:	2101      	movs	r1, #1
    26ac:	f001 fffc 	bl	46a8 <WsfSetEvent>
}
    26b0:	3708      	adds	r7, #8
    26b2:	46bd      	mov	sp, r7
    26b4:	bd80      	pop	{r7, pc}
    26b6:	bf00      	nop
    26b8:	10000de4 	.word	0x10000de4

000026bc <HciCoreHandler>:
 *
 *  \return None.
 */
/*************************************************************************************************/
void HciCoreHandler(wsfEventMask_t event, wsfMsgHdr_t *pMsg)
{
    26bc:	b580      	push	{r7, lr}
    26be:	b084      	sub	sp, #16
    26c0:	af00      	add	r7, sp, #0
    26c2:	4603      	mov	r3, r0
    26c4:	6039      	str	r1, [r7, #0]
    26c6:	71fb      	strb	r3, [r7, #7]
  uint8_t         *pBuf;
  wsfHandlerId_t  handlerId;
  
  /* Handle message */
  if (pMsg != NULL)
    26c8:	683b      	ldr	r3, [r7, #0]
    26ca:	2b00      	cmp	r3, #0
    26cc:	d007      	beq.n	26de <HciCoreHandler+0x22>
  {
    /* Handle HCI command timeout */
    if (pMsg->event == HCI_MSG_CMD_TIMEOUT)
    26ce:	683b      	ldr	r3, [r7, #0]
    26d0:	789b      	ldrb	r3, [r3, #2]
    26d2:	2b01      	cmp	r3, #1
    26d4:	d12f      	bne.n	2736 <HciCoreHandler+0x7a>
    {
      hciCmdTimeout(pMsg);
    26d6:	6838      	ldr	r0, [r7, #0]
    26d8:	f7ff f84c 	bl	1774 <hciCmdTimeout>
    26dc:	e02b      	b.n	2736 <HciCoreHandler+0x7a>
    }
  }
  /* Handle events */
  else if (event & HCI_EVT_RX)
    26de:	79fb      	ldrb	r3, [r7, #7]
    26e0:	f003 0301 	and.w	r3, r3, #1
    26e4:	2b00      	cmp	r3, #0
    26e6:	d026      	beq.n	2736 <HciCoreHandler+0x7a>
  {
    /* Process rx queue */
    while ((pBuf = WsfMsgDeq(&hciCb.rxQueue, &handlerId)) != NULL)
    26e8:	e01b      	b.n	2722 <HciCoreHandler+0x66>
    {
      /* Handle incoming HCI events */
      if (handlerId == HCI_EVT_TYPE)
    26ea:	7afb      	ldrb	r3, [r7, #11]
    26ec:	2b04      	cmp	r3, #4
    26ee:	d10d      	bne.n	270c <HciCoreHandler+0x50>
      {
        /* Parse/process events */
        hciEvtProcessMsg(pBuf);
    26f0:	68f8      	ldr	r0, [r7, #12]
    26f2:	f001 f819 	bl	3728 <hciEvtProcessMsg>

        /* Handle events during reset sequence */
        if (hciCb.resetting)
    26f6:	4b11      	ldr	r3, [pc, #68]	; (273c <HciCoreHandler+0x80>)
    26f8:	7e5b      	ldrb	r3, [r3, #25]
    26fa:	2b00      	cmp	r3, #0
    26fc:	d002      	beq.n	2704 <HciCoreHandler+0x48>
        {
          hciCoreResetSequence(pBuf);
    26fe:	68f8      	ldr	r0, [r7, #12]
    2700:	f001 fa4a 	bl	3b98 <hciCoreResetSequence>
        }
        
        /* Free buffer */
        WsfMsgFree(pBuf);
    2704:	68f8      	ldr	r0, [r7, #12]
    2706:	f002 f9f1 	bl	4aec <WsfMsgFree>
    270a:	e00a      	b.n	2722 <HciCoreHandler+0x66>
      }
      /* Handle ACL data */
      else
      {
        /* Reassemble */
        if ((pBuf = hciCoreAclReassembly(pBuf)) != NULL)
    270c:	68f8      	ldr	r0, [r7, #12]
    270e:	f7ff fdc1 	bl	2294 <hciCoreAclReassembly>
    2712:	60f8      	str	r0, [r7, #12]
    2714:	68fb      	ldr	r3, [r7, #12]
    2716:	2b00      	cmp	r3, #0
    2718:	d003      	beq.n	2722 <HciCoreHandler+0x66>
        {
          /* Call ACL callback; client will free buffer */
          hciCb.aclCback(pBuf);
    271a:	4b08      	ldr	r3, [pc, #32]	; (273c <HciCoreHandler+0x80>)
    271c:	691b      	ldr	r3, [r3, #16]
    271e:	68f8      	ldr	r0, [r7, #12]
    2720:	4798      	blx	r3
  }
  /* Handle events */
  else if (event & HCI_EVT_RX)
  {
    /* Process rx queue */
    while ((pBuf = WsfMsgDeq(&hciCb.rxQueue, &handlerId)) != NULL)
    2722:	f107 030b 	add.w	r3, r7, #11
    2726:	4805      	ldr	r0, [pc, #20]	; (273c <HciCoreHandler+0x80>)
    2728:	4619      	mov	r1, r3
    272a:	f002 fa19 	bl	4b60 <WsfMsgDeq>
    272e:	60f8      	str	r0, [r7, #12]
    2730:	68fb      	ldr	r3, [r7, #12]
    2732:	2b00      	cmp	r3, #0
    2734:	d1d9      	bne.n	26ea <HciCoreHandler+0x2e>
          hciCb.aclCback(pBuf);
        }
      }
    }
  }
}
    2736:	3710      	adds	r7, #16
    2738:	46bd      	mov	sp, r7
    273a:	bd80      	pop	{r7, pc}
    273c:	10000de4 	.word	0x10000de4

00002740 <HciGetBdAddr>:
 *
 *  \return Pointer to the BD address.
 */
/*************************************************************************************************/
uint8_t *HciGetBdAddr(void)
{
    2740:	b480      	push	{r7}
    2742:	af00      	add	r7, sp, #0
  return hciCoreCb.bdAddr;
    2744:	4b02      	ldr	r3, [pc, #8]	; (2750 <HciGetBdAddr+0x10>)
}
    2746:	4618      	mov	r0, r3
    2748:	46bd      	mov	sp, r7
    274a:	f85d 7b04 	ldr.w	r7, [sp], #4
    274e:	4770      	bx	lr
    2750:	10000dc4 	.word	0x10000dc4

00002754 <HciGetBufSize>:
 *
 *  \return ACL buffer size.
 */
/*************************************************************************************************/
uint16_t HciGetBufSize(void)
{
    2754:	b480      	push	{r7}
    2756:	af00      	add	r7, sp, #0
  return hciCoreCb.bufSize;
    2758:	4b03      	ldr	r3, [pc, #12]	; (2768 <HciGetBufSize+0x14>)
    275a:	f8b3 3072 	ldrh.w	r3, [r3, #114]	; 0x72
}
    275e:	4618      	mov	r0, r3
    2760:	46bd      	mov	sp, r7
    2762:	f85d 7b04 	ldr.w	r7, [sp], #4
    2766:	4770      	bx	lr
    2768:	10000d68 	.word	0x10000d68

0000276c <HciDrvUartEnable>:
// Enable the UART for HCI.
//
//*****************************************************************************
void
HciDrvUartEnable(void)
{
    276c:	b580      	push	{r7, lr}
    276e:	af00      	add	r7, sp, #0
    //
    // If the UART is already on, don't do anything.
    //
    if (AM_REG(CLKGEN, UARTEN))
    2770:	4b18      	ldr	r3, [pc, #96]	; (27d4 <HciDrvUartEnable+0x68>)
    2772:	681b      	ldr	r3, [r3, #0]
    2774:	2b00      	cmp	r3, #0
    2776:	d000      	beq.n	277a <HciDrvUartEnable+0xe>
    {
        return;
    2778:	e02b      	b.n	27d2 <HciDrvUartEnable+0x66>
    }

    //
    // Enable the UART pins.
    //
    am_hal_gpio_pin_config(0, AM_HAL_PIN_0_UARTTX);
    277a:	4b17      	ldr	r3, [pc, #92]	; (27d8 <HciDrvUartEnable+0x6c>)
    277c:	2273      	movs	r2, #115	; 0x73
    277e:	601a      	str	r2, [r3, #0]
    2780:	4b16      	ldr	r3, [pc, #88]	; (27dc <HciDrvUartEnable+0x70>)
    2782:	4a16      	ldr	r2, [pc, #88]	; (27dc <HciDrvUartEnable+0x70>)
    2784:	6812      	ldr	r2, [r2, #0]
    2786:	f022 0207 	bic.w	r2, r2, #7
    278a:	601a      	str	r2, [r3, #0]
    278c:	4b14      	ldr	r3, [pc, #80]	; (27e0 <HciDrvUartEnable+0x74>)
    278e:	4a14      	ldr	r2, [pc, #80]	; (27e0 <HciDrvUartEnable+0x74>)
    2790:	6812      	ldr	r2, [r2, #0]
    2792:	f022 02ff 	bic.w	r2, r2, #255	; 0xff
    2796:	f042 0210 	orr.w	r2, r2, #16
    279a:	601a      	str	r2, [r3, #0]
    279c:	4b0e      	ldr	r3, [pc, #56]	; (27d8 <HciDrvUartEnable+0x6c>)
    279e:	2200      	movs	r2, #0
    27a0:	601a      	str	r2, [r3, #0]
    am_hal_gpio_pin_config(1, AM_HAL_PIN_1_UARTRX);
    27a2:	4b0d      	ldr	r3, [pc, #52]	; (27d8 <HciDrvUartEnable+0x6c>)
    27a4:	2273      	movs	r2, #115	; 0x73
    27a6:	601a      	str	r2, [r3, #0]
    27a8:	4b0c      	ldr	r3, [pc, #48]	; (27dc <HciDrvUartEnable+0x70>)
    27aa:	4a0c      	ldr	r2, [pc, #48]	; (27dc <HciDrvUartEnable+0x70>)
    27ac:	6812      	ldr	r2, [r2, #0]
    27ae:	f022 0270 	bic.w	r2, r2, #112	; 0x70
    27b2:	601a      	str	r2, [r3, #0]
    27b4:	4b0a      	ldr	r3, [pc, #40]	; (27e0 <HciDrvUartEnable+0x74>)
    27b6:	4a0a      	ldr	r2, [pc, #40]	; (27e0 <HciDrvUartEnable+0x74>)
    27b8:	6812      	ldr	r2, [r2, #0]
    27ba:	f422 427f 	bic.w	r2, r2, #65280	; 0xff00
    27be:	f442 5290 	orr.w	r2, r2, #4608	; 0x1200
    27c2:	601a      	str	r2, [r3, #0]
    27c4:	4b04      	ldr	r3, [pc, #16]	; (27d8 <HciDrvUartEnable+0x6c>)
    27c6:	2200      	movs	r2, #0
    27c8:	601a      	str	r2, [r3, #0]

    //
    // Enable the main clock to the UART module.
    //
    am_hal_uart_clock_enable();
    27ca:	f003 f951 	bl	5a70 <am_hal_uart_clock_enable>

    //
    // Enable the UART physical interface.
    //
    am_hal_uart_enable();
    27ce:	f003 f93b 	bl	5a48 <am_hal_uart_enable>
}
    27d2:	bd80      	pop	{r7, pc}
    27d4:	4000402c 	.word	0x4000402c
    27d8:	40010060 	.word	0x40010060
    27dc:	40010040 	.word	0x40010040
    27e0:	40010000 	.word	0x40010000

000027e4 <HciDrvUartDisable>:
// Disable the UART for HCI
//
//*****************************************************************************
void
HciDrvUartDisable(void)
{
    27e4:	b580      	push	{r7, lr}
    27e6:	af00      	add	r7, sp, #0
    //
    // If the UART is already off, don't do anything.
    //
    if (AM_REG(CLKGEN, UARTEN) == 0)
    27e8:	4b18      	ldr	r3, [pc, #96]	; (284c <HciDrvUartDisable+0x68>)
    27ea:	681b      	ldr	r3, [r3, #0]
    27ec:	2b00      	cmp	r3, #0
    27ee:	d100      	bne.n	27f2 <HciDrvUartDisable+0xe>
    {
        return;
    27f0:	e02b      	b.n	284a <HciDrvUartDisable+0x66>

    //
    // Disable the UART clock in the UART module, then disable it in the main
    // clock tree register.
    //
    am_hal_uart_disable();
    27f2:	f003 f933 	bl	5a5c <am_hal_uart_disable>
    am_hal_uart_clock_disable();
    27f6:	f003 f94f 	bl	5a98 <am_hal_uart_clock_disable>

    //
    // Disable the UART pins.
    //
    am_hal_gpio_pin_config(0, AM_HAL_PIN_DISABLE);
    27fa:	4b15      	ldr	r3, [pc, #84]	; (2850 <HciDrvUartDisable+0x6c>)
    27fc:	2273      	movs	r2, #115	; 0x73
    27fe:	601a      	str	r2, [r3, #0]
    2800:	4b14      	ldr	r3, [pc, #80]	; (2854 <HciDrvUartDisable+0x70>)
    2802:	4a14      	ldr	r2, [pc, #80]	; (2854 <HciDrvUartDisable+0x70>)
    2804:	6812      	ldr	r2, [r2, #0]
    2806:	f022 0207 	bic.w	r2, r2, #7
    280a:	601a      	str	r2, [r3, #0]
    280c:	4b12      	ldr	r3, [pc, #72]	; (2858 <HciDrvUartDisable+0x74>)
    280e:	4a12      	ldr	r2, [pc, #72]	; (2858 <HciDrvUartDisable+0x74>)
    2810:	6812      	ldr	r2, [r2, #0]
    2812:	f022 02ff 	bic.w	r2, r2, #255	; 0xff
    2816:	f042 0218 	orr.w	r2, r2, #24
    281a:	601a      	str	r2, [r3, #0]
    281c:	4b0c      	ldr	r3, [pc, #48]	; (2850 <HciDrvUartDisable+0x6c>)
    281e:	2200      	movs	r2, #0
    2820:	601a      	str	r2, [r3, #0]
    am_hal_gpio_pin_config(1, AM_HAL_PIN_DISABLE);
    2822:	4b0b      	ldr	r3, [pc, #44]	; (2850 <HciDrvUartDisable+0x6c>)
    2824:	2273      	movs	r2, #115	; 0x73
    2826:	601a      	str	r2, [r3, #0]
    2828:	4b0a      	ldr	r3, [pc, #40]	; (2854 <HciDrvUartDisable+0x70>)
    282a:	4a0a      	ldr	r2, [pc, #40]	; (2854 <HciDrvUartDisable+0x70>)
    282c:	6812      	ldr	r2, [r2, #0]
    282e:	f022 0270 	bic.w	r2, r2, #112	; 0x70
    2832:	601a      	str	r2, [r3, #0]
    2834:	4b08      	ldr	r3, [pc, #32]	; (2858 <HciDrvUartDisable+0x74>)
    2836:	4a08      	ldr	r2, [pc, #32]	; (2858 <HciDrvUartDisable+0x74>)
    2838:	6812      	ldr	r2, [r2, #0]
    283a:	f422 427f 	bic.w	r2, r2, #65280	; 0xff00
    283e:	f442 52c0 	orr.w	r2, r2, #6144	; 0x1800
    2842:	601a      	str	r2, [r3, #0]
    2844:	4b02      	ldr	r3, [pc, #8]	; (2850 <HciDrvUartDisable+0x6c>)
    2846:	2200      	movs	r2, #0
    2848:	601a      	str	r2, [r3, #0]
}
    284a:	bd80      	pop	{r7, pc}
    284c:	4000402c 	.word	0x4000402c
    2850:	40010060 	.word	0x40010060
    2854:	40010040 	.word	0x40010040
    2858:	40010000 	.word	0x40010000

0000285c <HciDrvUartFlowOn>:
// This function also disables the gpio "wakeup" interrupt on the RTS pin.
//
//*****************************************************************************
void
HciDrvUartFlowOn(void)
{
    285c:	b580      	push	{r7, lr}
    285e:	af00      	add	r7, sp, #0
    //
    // Clear and disable the CTS interrupt.
    //
    am_hal_gpio_int_disable(AM_HAL_GPIO_BIT(HCI_APOLLO_UART_CTS_PIN));
    2860:	f04f 0040 	mov.w	r0, #64	; 0x40
    2864:	f04f 0100 	mov.w	r1, #0
    2868:	f003 f80a 	bl	5880 <am_hal_gpio_int_disable>
    am_hal_gpio_int_clear(AM_HAL_GPIO_BIT(HCI_APOLLO_UART_CTS_PIN));
    286c:	f04f 0040 	mov.w	r0, #64	; 0x40
    2870:	f04f 0100 	mov.w	r1, #0
    2874:	f003 f816 	bl	58a4 <am_hal_gpio_int_clear>

    //
    // Assert RTS, but only if we're not currently paused.
    //
    if (g_ui8Paused == 0)
    2878:	4b04      	ldr	r3, [pc, #16]	; (288c <HciDrvUartFlowOn+0x30>)
    287a:	781b      	ldrb	r3, [r3, #0]
    287c:	b2db      	uxtb	r3, r3
    287e:	2b00      	cmp	r3, #0
    2880:	d102      	bne.n	2888 <HciDrvUartFlowOn+0x2c>
    {
        am_hal_gpio_out_bit_clear(HCI_APOLLO_UART_RTS_PIN);
    2882:	4b03      	ldr	r3, [pc, #12]	; (2890 <HciDrvUartFlowOn+0x34>)
    2884:	2220      	movs	r2, #32
    2886:	601a      	str	r2, [r3, #0]
    }
}
    2888:	bd80      	pop	{r7, pc}
    288a:	bf00      	nop
    288c:	100004ec 	.word	0x100004ec
    2890:	40010098 	.word	0x40010098

00002894 <HciDrvUartSafeShutdown>:
// should be safe to go to deep sleep.
//
//*****************************************************************************
bool
HciDrvUartSafeShutdown(void)
{
    2894:	b580      	push	{r7, lr}
    2896:	b082      	sub	sp, #8
    2898:	af00      	add	r7, sp, #0
    uint64_t ui64Status;

    WSF_CS_INIT(cs);
    WSF_CS_ENTER(cs);
    289a:	f001 fed1 	bl	4640 <WsfCsEnter>
    // because we're assuming that the UART was shut down by this function, and
    // that they should already be in the correct state.
    //
    // This means you should never shut down the UART except by calling this function.
    //
    if (AM_REG(CLKGEN, UARTEN) == 0)
    289e:	4b40      	ldr	r3, [pc, #256]	; (29a0 <HciDrvUartSafeShutdown+0x10c>)
    28a0:	681b      	ldr	r3, [r3, #0]
    28a2:	2b00      	cmp	r3, #0
    28a4:	d103      	bne.n	28ae <HciDrvUartSafeShutdown+0x1a>
    {
        WSF_CS_EXIT(cs);
    28a6:	f001 fedf 	bl	4668 <WsfCsExit>
        return true;
    28aa:	2301      	movs	r3, #1
    28ac:	e073      	b.n	2996 <HciDrvUartSafeShutdown+0x102>
    }

    //
    // If we're still using the UART, either for sending or receiving, we should leave it on.
    //
    if (AM_BFR(UART, FR, BUSY) || hciTrReceivingPacket())
    28ae:	4b3d      	ldr	r3, [pc, #244]	; (29a4 <HciDrvUartSafeShutdown+0x110>)
    28b0:	681b      	ldr	r3, [r3, #0]
    28b2:	f003 0308 	and.w	r3, r3, #8
    28b6:	08db      	lsrs	r3, r3, #3
    28b8:	2b00      	cmp	r3, #0
    28ba:	d104      	bne.n	28c6 <HciDrvUartSafeShutdown+0x32>
    28bc:	f001 f95a 	bl	3b74 <hciTrReceivingPacket>
    28c0:	4603      	mov	r3, r0
    28c2:	2b00      	cmp	r3, #0
    28c4:	d003      	beq.n	28ce <HciDrvUartSafeShutdown+0x3a>
    {
        WSF_CS_EXIT(cs);
    28c6:	f001 fecf 	bl	4668 <WsfCsExit>
        return false;
    28ca:	2300      	movs	r3, #0
    28cc:	e063      	b.n	2996 <HciDrvUartSafeShutdown+0x102>

    //
    // Clear the interrupt status on the CTS pin so we can see if Dialog
    // attempts to assert it over the next byte time or so.
    //
    am_hal_gpio_int_polarity_bit_set(HCI_APOLLO_UART_CTS_PIN, AM_HAL_GPIO_FALLING);
    28ce:	4b36      	ldr	r3, [pc, #216]	; (29a8 <HciDrvUartSafeShutdown+0x114>)
    28d0:	2273      	movs	r2, #115	; 0x73
    28d2:	601a      	str	r2, [r3, #0]
    28d4:	4b35      	ldr	r3, [pc, #212]	; (29ac <HciDrvUartSafeShutdown+0x118>)
    28d6:	4a35      	ldr	r2, [pc, #212]	; (29ac <HciDrvUartSafeShutdown+0x118>)
    28d8:	6812      	ldr	r2, [r2, #0]
    28da:	f042 6200 	orr.w	r2, r2, #134217728	; 0x8000000
    28de:	601a      	str	r2, [r3, #0]
    28e0:	4b31      	ldr	r3, [pc, #196]	; (29a8 <HciDrvUartSafeShutdown+0x114>)
    28e2:	2200      	movs	r2, #0
    28e4:	601a      	str	r2, [r3, #0]
    am_hal_gpio_int_clear(AM_HAL_GPIO_BIT(HCI_APOLLO_UART_CTS_PIN));
    28e6:	f04f 0040 	mov.w	r0, #64	; 0x40
    28ea:	f04f 0100 	mov.w	r1, #0
    28ee:	f002 ffd9 	bl	58a4 <am_hal_gpio_int_clear>
    am_hal_gpio_int_enable(AM_HAL_GPIO_BIT(HCI_APOLLO_UART_CTS_PIN));
    28f2:	f04f 0040 	mov.w	r0, #64	; 0x40
    28f6:	f04f 0100 	mov.w	r1, #0
    28fa:	f002 ffb1 	bl	5860 <am_hal_gpio_int_enable>
    // release RTS too early, we can catch a corner case where the Dialog has
    // already decided to send, but its hardware flow control prevents even the
    // first byte from coming out. This delay prevents that. Instead we'll just
    // get the byte here, and see it in our FIFO before this function ends.
    //
    am_util_delay_us(100);
    28fe:	2064      	movs	r0, #100	; 0x64
    2900:	f002 fd64 	bl	53cc <am_util_delay_us>

    //
    // Check to see if Dialog asserted CTS while we were actually waiting for a
    // byte.
    //
    ui64Status = am_hal_gpio_int_status_get(false);
    2904:	2000      	movs	r0, #0
    2906:	f002 ffdb 	bl	58c0 <am_hal_gpio_int_status_get>
    290a:	e9c7 0100 	strd	r0, r1, [r7]

    //
    // If the fifo is not empty, then we need to keep the UART on. Also, we now
    // know that we're receiving a packet.
    //
    if (!AM_BFR(UART, FR, RXFE))
    290e:	4b25      	ldr	r3, [pc, #148]	; (29a4 <HciDrvUartSafeShutdown+0x110>)
    2910:	681b      	ldr	r3, [r3, #0]
    2912:	f003 0310 	and.w	r3, r3, #16
    2916:	091b      	lsrs	r3, r3, #4
    2918:	2b00      	cmp	r3, #0
    291a:	d107      	bne.n	292c <HciDrvUartSafeShutdown+0x98>
    {
        //
        // ... then we need to keep the UART on, and we know we're receiving a packet.
        //
        HciDrvUartEnable();
    291c:	f7ff ff26 	bl	276c <HciDrvUartEnable>
        HciDrvUartFlowOn();
    2920:	f7ff ff9c 	bl	285c <HciDrvUartFlowOn>
        WSF_CS_EXIT(cs);
    2924:	f001 fea0 	bl	4668 <WsfCsExit>
        return false;
    2928:	2300      	movs	r3, #0
    292a:	e034      	b.n	2996 <HciDrvUartSafeShutdown+0x102>

    //
    // If we saw an edge on CTS, we still need to keep the UART on, because
    // Dialog might be trying to send to us.
    //
    if ((ui64Status & AM_HAL_GPIO_BIT(HCI_APOLLO_UART_CTS_PIN)) &&
    292c:	e9d7 0100 	ldrd	r0, r1, [r7]
    2930:	f04f 0240 	mov.w	r2, #64	; 0x40
    2934:	f04f 0300 	mov.w	r3, #0
    2938:	ea02 0200 	and.w	r2, r2, r0
    293c:	ea03 0301 	and.w	r3, r3, r1
    2940:	ea52 0103 	orrs.w	r1, r2, r3
    2944:	d00d      	beq.n	2962 <HciDrvUartSafeShutdown+0xce>
        !am_hal_gpio_input_bit_read(HCI_APOLLO_UART_CTS_PIN))
    2946:	4b1a      	ldr	r3, [pc, #104]	; (29b0 <HciDrvUartSafeShutdown+0x11c>)
    2948:	681b      	ldr	r3, [r3, #0]
    294a:	f003 0340 	and.w	r3, r3, #64	; 0x40

    //
    // If we saw an edge on CTS, we still need to keep the UART on, because
    // Dialog might be trying to send to us.
    //
    if ((ui64Status & AM_HAL_GPIO_BIT(HCI_APOLLO_UART_CTS_PIN)) &&
    294e:	2b00      	cmp	r3, #0
    2950:	d107      	bne.n	2962 <HciDrvUartSafeShutdown+0xce>
        !am_hal_gpio_input_bit_read(HCI_APOLLO_UART_CTS_PIN))
    {
        HciDrvUartEnable();
    2952:	f7ff ff0b 	bl	276c <HciDrvUartEnable>
        HciDrvUartFlowOn();
    2956:	f7ff ff81 	bl	285c <HciDrvUartFlowOn>
        WSF_CS_EXIT(cs);
    295a:	f001 fe85 	bl	4668 <WsfCsExit>
        return false;
    295e:	2300      	movs	r3, #0
    2960:	e019      	b.n	2996 <HciDrvUartSafeShutdown+0x102>
    }

    //
    // Raise RTS to stop Dialog from talking to us.
    //
    am_hal_gpio_out_bit_set(HCI_APOLLO_UART_RTS_PIN);
    2962:	4b14      	ldr	r3, [pc, #80]	; (29b4 <HciDrvUartSafeShutdown+0x120>)
    2964:	2220      	movs	r2, #32
    2966:	601a      	str	r2, [r3, #0]
    //
    // Note: We could definitely miss a falling edge on CTS here. That's okay,
    // because the interrupt will still go to the NVIC, and we'll handle the
    // cleanup in the GPIO interrupt handler.
    //
    am_util_delay_us(100);
    2968:	2064      	movs	r0, #100	; 0x64
    296a:	f002 fd2f 	bl	53cc <am_util_delay_us>

    //
    // Check for that byte we might have gotten.
    //
    if (!AM_BFR(UART, FR, RXFE))
    296e:	4b0d      	ldr	r3, [pc, #52]	; (29a4 <HciDrvUartSafeShutdown+0x110>)
    2970:	681b      	ldr	r3, [r3, #0]
    2972:	f003 0310 	and.w	r3, r3, #16
    2976:	091b      	lsrs	r3, r3, #4
    2978:	2b00      	cmp	r3, #0
    297a:	d107      	bne.n	298c <HciDrvUartSafeShutdown+0xf8>
    {
        //
        // If we got it, we have to leave the UART on, and declare that we have a new packet.
        //
        HciDrvUartEnable();
    297c:	f7ff fef6 	bl	276c <HciDrvUartEnable>
        HciDrvUartFlowOn();
    2980:	f7ff ff6c 	bl	285c <HciDrvUartFlowOn>
        WSF_CS_EXIT(cs);
    2984:	f001 fe70 	bl	4668 <WsfCsExit>
        return false;
    2988:	2300      	movs	r3, #0
    298a:	e004      	b.n	2996 <HciDrvUartSafeShutdown+0x102>
    }

    //
    // If we manage to get here, we're done. Shut the UART down.
    //
    HciDrvUartDisable();
    298c:	f7ff ff2a 	bl	27e4 <HciDrvUartDisable>
    WSF_CS_EXIT(cs);
    2990:	f001 fe6a 	bl	4668 <WsfCsExit>
    return true;
    2994:	2301      	movs	r3, #1
}
    2996:	4618      	mov	r0, r3
    2998:	3708      	adds	r7, #8
    299a:	46bd      	mov	sp, r7
    299c:	bd80      	pop	{r7, pc}
    299e:	bf00      	nop
    29a0:	4000402c 	.word	0x4000402c
    29a4:	4001c018 	.word	0x4001c018
    29a8:	40010060 	.word	0x40010060
    29ac:	40010040 	.word	0x40010040
    29b0:	40010080 	.word	0x40010080
    29b4:	40010090 	.word	0x40010090

000029b8 <hciDrvWrite>:
//! @return Returns the number of bytes written.
//
//*****************************************************************************
uint16_t 
hciDrvWrite(uint8_t type, uint16_t len, uint8_t *pData)
{
    29b8:	b580      	push	{r7, lr}
    29ba:	b084      	sub	sp, #16
    29bc:	af00      	add	r7, sp, #0
    29be:	460b      	mov	r3, r1
    29c0:	603a      	str	r2, [r7, #0]
    29c2:	4602      	mov	r2, r0
    29c4:	71fa      	strb	r2, [r7, #7]
    29c6:	80bb      	strh	r3, [r7, #4]
    uint16_t ui16Count = 0;
    29c8:	2300      	movs	r3, #0
    29ca:	81fb      	strh	r3, [r7, #14]
    bool bTypeSent = false;
    29cc:	2300      	movs	r3, #0
    29ce:	733b      	strb	r3, [r7, #12]
    bool bSuccess = false;
    29d0:	2300      	movs	r3, #0
    29d2:	737b      	strb	r3, [r7, #13]
    // effect on the line (because RTS will already be high). If the UART
    // was on though, this sets us up to generate a fresh falling edge on
    // RTS in case we need one. This will ensure that the Dialog device has
    // a reason to wake up.
    //
    am_hal_gpio_out_bit_set(HCI_APOLLO_UART_RTS_PIN);
    29d4:	4b2f      	ldr	r3, [pc, #188]	; (2a94 <hciDrvWrite+0xdc>)
    29d6:	2220      	movs	r2, #32
    29d8:	601a      	str	r2, [r3, #0]
    am_util_delay_us(150);
    29da:	2096      	movs	r0, #150	; 0x96
    29dc:	f002 fcf6 	bl	53cc <am_util_delay_us>

    while (1)
    {
        WSF_CS_INIT(cs);
        WSF_CS_ENTER(cs);
    29e0:	f001 fe2e 	bl	4640 <WsfCsEnter>
        // Do a quick check to see if the Dialog is already awake. If it is,
        // there's a chance it could start sending us a message immediately.
        // That means that we'll need to have our UART ready before we lower
        // RTS again.
        //
        if (!am_hal_gpio_input_bit_read(HCI_APOLLO_UART_CTS_PIN))
    29e4:	4b2c      	ldr	r3, [pc, #176]	; (2a98 <hciDrvWrite+0xe0>)
    29e6:	681b      	ldr	r3, [r3, #0]
    29e8:	f003 0340 	and.w	r3, r3, #64	; 0x40
    29ec:	2b00      	cmp	r3, #0
    29ee:	d106      	bne.n	29fe <hciDrvWrite+0x46>
        {
            //
            // Enable the UART before we lower RTS
            //
            HciDrvUartEnable();
    29f0:	f7ff febc 	bl	276c <HciDrvUartEnable>
            HciDrvUartFlowOn();
    29f4:	f7ff ff32 	bl	285c <HciDrvUartFlowOn>
            bSuccess = true;
    29f8:	2301      	movs	r3, #1
    29fa:	737b      	strb	r3, [r7, #13]
    29fc:	e01e      	b.n	2a3c <hciDrvWrite+0x84>
        {
            //
            // Briefly enable the UART and lower RTS. This will give the
            // Dialog a signal to wake up.
            //
            HciDrvUartEnable();
    29fe:	f7ff feb5 	bl	276c <HciDrvUartEnable>
            HciDrvUartFlowOn();
    2a02:	f7ff ff2b 	bl	285c <HciDrvUartFlowOn>

            //
            // Immediately start a shutdown. If this shutdown succeeds, we'll go
            // directly to deep sleep. If it fails, the Dialog should be awake.
            //
            if (HciDrvUartSafeShutdown()) 
    2a06:	f7ff ff45 	bl	2894 <HciDrvUartSafeShutdown>
    2a0a:	4603      	mov	r3, r0
    2a0c:	2b00      	cmp	r3, #0
    2a0e:	d013      	beq.n	2a38 <hciDrvWrite+0x80>
                //
                // The dialog might have woken up during the shutdown. If not,
                // we should go to sleep now, and the interrupt will wake us
                // up.
                //
                if (am_hal_gpio_input_bit_read(HCI_APOLLO_UART_CTS_PIN))
    2a10:	4b21      	ldr	r3, [pc, #132]	; (2a98 <hciDrvWrite+0xe0>)
    2a12:	681b      	ldr	r3, [r3, #0]
    2a14:	f003 0340 	and.w	r3, r3, #64	; 0x40
    2a18:	2b00      	cmp	r3, #0
    2a1a:	d006      	beq.n	2a2a <hciDrvWrite+0x72>
                    // Lowering RTS (even though our UART is off) because Dialog
                    // might miss the interrupt from the previous transition.
                    // We shouldn't have to do this. Also, it introduces a race
                    // condition.
                    //
                    am_hal_gpio_out_bit_clear(HCI_APOLLO_UART_RTS_PIN);
    2a1c:	4b1f      	ldr	r3, [pc, #124]	; (2a9c <hciDrvWrite+0xe4>)
    2a1e:	2220      	movs	r2, #32
    2a20:	601a      	str	r2, [r3, #0]

                    am_hal_sysctrl_sleep(AM_HAL_SYSCTRL_SLEEP_DEEP);
    2a22:	2001      	movs	r0, #1
    2a24:	f002 ffc0 	bl	59a8 <am_hal_sysctrl_sleep>
    2a28:	e001      	b.n	2a2e <hciDrvWrite+0x76>
                {
                    //
                    // If the dialog did wake up during the shutdown, we don't
                    // need to bother going to sleep.
                    //
                    bSuccess = true;
    2a2a:	2301      	movs	r3, #1
    2a2c:	737b      	strb	r3, [r7, #13]
                }

                //
                // The Dialog is awake. Turn the UART back on.
                //
                HciDrvUartEnable();
    2a2e:	f7ff fe9d 	bl	276c <HciDrvUartEnable>
                HciDrvUartFlowOn();
    2a32:	f7ff ff13 	bl	285c <HciDrvUartFlowOn>
    2a36:	e001      	b.n	2a3c <hciDrvWrite+0x84>
            {
                //
                // If the shutdown failed, then both our UART and the Dialog
                // UART are on. Go ahead and send the message.
                //
                bSuccess = true;
    2a38:	2301      	movs	r3, #1
    2a3a:	737b      	strb	r3, [r7, #13]
        //
        // If we succeeded, send the type packet before we exit the critical
        // section. Otherwise, just exit the critical section and continue the
        // loop.
        //
        if (bSuccess)
    2a3c:	7b7b      	ldrb	r3, [r7, #13]
    2a3e:	2b00      	cmp	r3, #0
    2a40:	d007      	beq.n	2a52 <hciDrvWrite+0x9a>
        {
            am_hal_uart_char_transmit_polled(type);
    2a42:	79fb      	ldrb	r3, [r7, #7]
    2a44:	4618      	mov	r0, r3
    2a46:	f003 f843 	bl	5ad0 <am_hal_uart_char_transmit_polled>
            WSF_CS_EXIT(cs);
    2a4a:	f001 fe0d 	bl	4668 <WsfCsExit>
            break;
    2a4e:	bf00      	nop
    }

    //
    // Start sending bytes.
    //
    while (ui16Count < len)
    2a50:	e016      	b.n	2a80 <hciDrvWrite+0xc8>
            WSF_CS_EXIT(cs);
            break;
        }
        else
        {
            WSF_CS_EXIT(cs);
    2a52:	f001 fe09 	bl	4668 <WsfCsExit>
        }
    }
    2a56:	e7c3      	b.n	29e0 <hciDrvWrite+0x28>
    while (ui16Count < len)
    {
        //
        // Check the fifo fullness.
        //
        if(AM_BFRn(UART, 0, FR, TXFF))
    2a58:	4b11      	ldr	r3, [pc, #68]	; (2aa0 <hciDrvWrite+0xe8>)
    2a5a:	681b      	ldr	r3, [r3, #0]
    2a5c:	f003 0320 	and.w	r3, r3, #32
    2a60:	095b      	lsrs	r3, r3, #5
    2a62:	2b00      	cmp	r3, #0
    2a64:	d003      	beq.n	2a6e <hciDrvWrite+0xb6>
        {
            //
            // If it was full, sleep until we can reasonably expect it to be
            // empty.
            //
            am_hal_sysctrl_sleep(AM_HAL_SYSCTRL_SLEEP_NORMAL);
    2a66:	2000      	movs	r0, #0
    2a68:	f002 ff9e 	bl	59a8 <am_hal_sysctrl_sleep>
    2a6c:	e008      	b.n	2a80 <hciDrvWrite+0xc8>
        else
        {
            //
            // If it wasn't full, we should put our data in it.
            //
            AM_REGn(UART, 0, DR) = *pData++;
    2a6e:	4a0d      	ldr	r2, [pc, #52]	; (2aa4 <hciDrvWrite+0xec>)
    2a70:	683b      	ldr	r3, [r7, #0]
    2a72:	1c59      	adds	r1, r3, #1
    2a74:	6039      	str	r1, [r7, #0]
    2a76:	781b      	ldrb	r3, [r3, #0]
    2a78:	6013      	str	r3, [r2, #0]
            ui16Count++;
    2a7a:	89fb      	ldrh	r3, [r7, #14]
    2a7c:	3301      	adds	r3, #1
    2a7e:	81fb      	strh	r3, [r7, #14]
    }

    //
    // Start sending bytes.
    //
    while (ui16Count < len)
    2a80:	89fa      	ldrh	r2, [r7, #14]
    2a82:	88bb      	ldrh	r3, [r7, #4]
    2a84:	429a      	cmp	r2, r3
    2a86:	d3e7      	bcc.n	2a58 <hciDrvWrite+0xa0>
            AM_REGn(UART, 0, DR) = *pData++;
            ui16Count++;
        }
    }

    return ui16Count;
    2a88:	89fb      	ldrh	r3, [r7, #14]
}
    2a8a:	4618      	mov	r0, r3
    2a8c:	3710      	adds	r7, #16
    2a8e:	46bd      	mov	sp, r7
    2a90:	bd80      	pop	{r7, pc}
    2a92:	bf00      	nop
    2a94:	40010090 	.word	0x40010090
    2a98:	40010080 	.word	0x40010080
    2a9c:	40010098 	.word	0x40010098
    2aa0:	4001c018 	.word	0x4001c018
    2aa4:	4001c000 	.word	0x4001c000

00002aa8 <HciDrvRadioBoot>:
// Configure the necessary pins and start the Dialog radio.
//
//*****************************************************************************
void
HciDrvRadioBoot(void)
{
    2aa8:	b580      	push	{r7, lr}
    2aaa:	b086      	sub	sp, #24
    2aac:	af00      	add	r7, sp, #0
    //
    // Enable the radio pins.
    //
    am_hal_gpio_pin_config(HCI_APOLLO_POWER_PIN, HCI_APOLLO_POWER_CFG);
    2aae:	4b89      	ldr	r3, [pc, #548]	; (2cd4 <HciDrvRadioBoot+0x22c>)
    2ab0:	2273      	movs	r2, #115	; 0x73
    2ab2:	601a      	str	r2, [r3, #0]
    2ab4:	4b88      	ldr	r3, [pc, #544]	; (2cd8 <HciDrvRadioBoot+0x230>)
    2ab6:	4a88      	ldr	r2, [pc, #544]	; (2cd8 <HciDrvRadioBoot+0x230>)
    2ab8:	6812      	ldr	r2, [r2, #0]
    2aba:	f422 42e0 	bic.w	r2, r2, #28672	; 0x7000
    2abe:	f442 5200 	orr.w	r2, r2, #8192	; 0x2000
    2ac2:	601a      	str	r2, [r3, #0]
    2ac4:	4b85      	ldr	r3, [pc, #532]	; (2cdc <HciDrvRadioBoot+0x234>)
    2ac6:	4a85      	ldr	r2, [pc, #532]	; (2cdc <HciDrvRadioBoot+0x234>)
    2ac8:	6812      	ldr	r2, [r2, #0]
    2aca:	f022 427f 	bic.w	r2, r2, #4278190080	; 0xff000000
    2ace:	f042 4218 	orr.w	r2, r2, #2550136832	; 0x98000000
    2ad2:	601a      	str	r2, [r3, #0]
    2ad4:	4b7f      	ldr	r3, [pc, #508]	; (2cd4 <HciDrvRadioBoot+0x22c>)
    2ad6:	2200      	movs	r2, #0
    2ad8:	601a      	str	r2, [r3, #0]
    am_hal_gpio_out_bit_set(HCI_APOLLO_POWER_PIN);
    2ada:	4b81      	ldr	r3, [pc, #516]	; (2ce0 <HciDrvRadioBoot+0x238>)
    2adc:	2208      	movs	r2, #8
    2ade:	601a      	str	r2, [r3, #0]

    //
    // Assert RESET to the Dialog device.
    //
    am_hal_gpio_pin_config(HCI_APOLLO_RESET_PIN, AM_HAL_GPIO_OUTPUT);
    2ae0:	4b7c      	ldr	r3, [pc, #496]	; (2cd4 <HciDrvRadioBoot+0x22c>)
    2ae2:	2273      	movs	r2, #115	; 0x73
    2ae4:	601a      	str	r2, [r3, #0]
    2ae6:	4b7f      	ldr	r3, [pc, #508]	; (2ce4 <HciDrvRadioBoot+0x23c>)
    2ae8:	4a7e      	ldr	r2, [pc, #504]	; (2ce4 <HciDrvRadioBoot+0x23c>)
    2aea:	6812      	ldr	r2, [r2, #0]
    2aec:	f022 0270 	bic.w	r2, r2, #112	; 0x70
    2af0:	f042 0220 	orr.w	r2, r2, #32
    2af4:	601a      	str	r2, [r3, #0]
    2af6:	4b7c      	ldr	r3, [pc, #496]	; (2ce8 <HciDrvRadioBoot+0x240>)
    2af8:	4a7b      	ldr	r2, [pc, #492]	; (2ce8 <HciDrvRadioBoot+0x240>)
    2afa:	6812      	ldr	r2, [r2, #0]
    2afc:	f422 427f 	bic.w	r2, r2, #65280	; 0xff00
    2b00:	f442 52c0 	orr.w	r2, r2, #6144	; 0x1800
    2b04:	601a      	str	r2, [r3, #0]
    2b06:	4b73      	ldr	r3, [pc, #460]	; (2cd4 <HciDrvRadioBoot+0x22c>)
    2b08:	2200      	movs	r2, #0
    2b0a:	601a      	str	r2, [r3, #0]
    am_hal_gpio_out_bit_set(HCI_APOLLO_RESET_PIN);
    2b0c:	4b74      	ldr	r3, [pc, #464]	; (2ce0 <HciDrvRadioBoot+0x238>)
    2b0e:	f44f 3200 	mov.w	r2, #131072	; 0x20000
    2b12:	601a      	str	r2, [r3, #0]
    //
    // CAJ: Adding a pullup to the RX pin for boot-up. This works around an
    // issue where the Apollo doesn't recognize the boot signal from the
    // Dialog, but I'm not sure why it works.
    //
    am_hal_gpio_pin_config(HCI_APOLLO_UART_TX_PIN, HCI_APOLLO_UART_TX_CFG);
    2b14:	4b6f      	ldr	r3, [pc, #444]	; (2cd4 <HciDrvRadioBoot+0x22c>)
    2b16:	2273      	movs	r2, #115	; 0x73
    2b18:	601a      	str	r2, [r3, #0]
    2b1a:	4b6f      	ldr	r3, [pc, #444]	; (2cd8 <HciDrvRadioBoot+0x230>)
    2b1c:	4a6e      	ldr	r2, [pc, #440]	; (2cd8 <HciDrvRadioBoot+0x230>)
    2b1e:	6812      	ldr	r2, [r2, #0]
    2b20:	f022 0207 	bic.w	r2, r2, #7
    2b24:	601a      	str	r2, [r3, #0]
    2b26:	4b6d      	ldr	r3, [pc, #436]	; (2cdc <HciDrvRadioBoot+0x234>)
    2b28:	4a6c      	ldr	r2, [pc, #432]	; (2cdc <HciDrvRadioBoot+0x234>)
    2b2a:	6812      	ldr	r2, [r2, #0]
    2b2c:	f022 02ff 	bic.w	r2, r2, #255	; 0xff
    2b30:	f042 0210 	orr.w	r2, r2, #16
    2b34:	601a      	str	r2, [r3, #0]
    2b36:	4b67      	ldr	r3, [pc, #412]	; (2cd4 <HciDrvRadioBoot+0x22c>)
    2b38:	2200      	movs	r2, #0
    2b3a:	601a      	str	r2, [r3, #0]
    am_hal_gpio_pin_config(HCI_APOLLO_UART_RX_PIN, HCI_APOLLO_UART_RX_CFG | AM_HAL_GPIO_PULLUP);
    2b3c:	4b65      	ldr	r3, [pc, #404]	; (2cd4 <HciDrvRadioBoot+0x22c>)
    2b3e:	2273      	movs	r2, #115	; 0x73
    2b40:	601a      	str	r2, [r3, #0]
    2b42:	4b65      	ldr	r3, [pc, #404]	; (2cd8 <HciDrvRadioBoot+0x230>)
    2b44:	4a64      	ldr	r2, [pc, #400]	; (2cd8 <HciDrvRadioBoot+0x230>)
    2b46:	6812      	ldr	r2, [r2, #0]
    2b48:	f022 0270 	bic.w	r2, r2, #112	; 0x70
    2b4c:	601a      	str	r2, [r3, #0]
    2b4e:	4b63      	ldr	r3, [pc, #396]	; (2cdc <HciDrvRadioBoot+0x234>)
    2b50:	4a62      	ldr	r2, [pc, #392]	; (2cdc <HciDrvRadioBoot+0x234>)
    2b52:	6812      	ldr	r2, [r2, #0]
    2b54:	f422 427f 	bic.w	r2, r2, #65280	; 0xff00
    2b58:	f442 5298 	orr.w	r2, r2, #4864	; 0x1300
    2b5c:	601a      	str	r2, [r3, #0]
    2b5e:	4b5d      	ldr	r3, [pc, #372]	; (2cd4 <HciDrvRadioBoot+0x22c>)
    2b60:	2200      	movs	r2, #0
    2b62:	601a      	str	r2, [r3, #0]
    am_hal_gpio_pin_config(HCI_APOLLO_UART_RTS_PIN, AM_HAL_PIN_OUTPUT);
    2b64:	4b5b      	ldr	r3, [pc, #364]	; (2cd4 <HciDrvRadioBoot+0x22c>)
    2b66:	2273      	movs	r2, #115	; 0x73
    2b68:	601a      	str	r2, [r3, #0]
    2b6a:	4b5b      	ldr	r3, [pc, #364]	; (2cd8 <HciDrvRadioBoot+0x230>)
    2b6c:	4a5a      	ldr	r2, [pc, #360]	; (2cd8 <HciDrvRadioBoot+0x230>)
    2b6e:	6812      	ldr	r2, [r2, #0]
    2b70:	f422 02e0 	bic.w	r2, r2, #7340032	; 0x700000
    2b74:	f442 1200 	orr.w	r2, r2, #2097152	; 0x200000
    2b78:	601a      	str	r2, [r3, #0]
    2b7a:	4b5c      	ldr	r3, [pc, #368]	; (2cec <HciDrvRadioBoot+0x244>)
    2b7c:	4a5b      	ldr	r2, [pc, #364]	; (2cec <HciDrvRadioBoot+0x244>)
    2b7e:	6812      	ldr	r2, [r2, #0]
    2b80:	f422 427f 	bic.w	r2, r2, #65280	; 0xff00
    2b84:	f442 52c0 	orr.w	r2, r2, #6144	; 0x1800
    2b88:	601a      	str	r2, [r3, #0]
    2b8a:	4b52      	ldr	r3, [pc, #328]	; (2cd4 <HciDrvRadioBoot+0x22c>)
    2b8c:	2200      	movs	r2, #0
    2b8e:	601a      	str	r2, [r3, #0]
    am_hal_gpio_pin_config(HCI_APOLLO_UART_CTS_PIN, AM_HAL_PIN_INPUT);
    2b90:	4b50      	ldr	r3, [pc, #320]	; (2cd4 <HciDrvRadioBoot+0x22c>)
    2b92:	2273      	movs	r2, #115	; 0x73
    2b94:	601a      	str	r2, [r3, #0]
    2b96:	4b50      	ldr	r3, [pc, #320]	; (2cd8 <HciDrvRadioBoot+0x230>)
    2b98:	4a4f      	ldr	r2, [pc, #316]	; (2cd8 <HciDrvRadioBoot+0x230>)
    2b9a:	6812      	ldr	r2, [r2, #0]
    2b9c:	f022 62e0 	bic.w	r2, r2, #117440512	; 0x7000000
    2ba0:	601a      	str	r2, [r3, #0]
    2ba2:	4b52      	ldr	r3, [pc, #328]	; (2cec <HciDrvRadioBoot+0x244>)
    2ba4:	4a51      	ldr	r2, [pc, #324]	; (2cec <HciDrvRadioBoot+0x244>)
    2ba6:	6812      	ldr	r2, [r2, #0]
    2ba8:	f422 027f 	bic.w	r2, r2, #16711680	; 0xff0000
    2bac:	f442 12d0 	orr.w	r2, r2, #1703936	; 0x1a0000
    2bb0:	601a      	str	r2, [r3, #0]
    2bb2:	4b48      	ldr	r3, [pc, #288]	; (2cd4 <HciDrvRadioBoot+0x22c>)
    2bb4:	2200      	movs	r2, #0
    2bb6:	601a      	str	r2, [r3, #0]

    am_hal_uart_config_t sUartConfig;
    sUartConfig.ui32BaudRate = 112000;
    2bb8:	4b4d      	ldr	r3, [pc, #308]	; (2cf0 <HciDrvRadioBoot+0x248>)
    2bba:	603b      	str	r3, [r7, #0]
    sUartConfig.ui32DataBits = AM_HAL_UART_DATA_BITS_8;
    2bbc:	2360      	movs	r3, #96	; 0x60
    2bbe:	607b      	str	r3, [r7, #4]
    sUartConfig.bTwoStopBits = false;
    2bc0:	2300      	movs	r3, #0
    2bc2:	723b      	strb	r3, [r7, #8]
    sUartConfig.ui32Parity = AM_HAL_UART_PARITY_NONE;
    2bc4:	2300      	movs	r3, #0
    2bc6:	60fb      	str	r3, [r7, #12]
    sUartConfig.ui32FlowCtrl = AM_HAL_UART_FLOW_CTRL_NONE;
    2bc8:	2300      	movs	r3, #0
    2bca:	613b      	str	r3, [r7, #16]

    //
    // Enable UART FIFO operation.
    //
    am_hal_uart_clock_enable();
    2bcc:	f002 ff50 	bl	5a70 <am_hal_uart_clock_enable>
    am_hal_uart_disable();
    2bd0:	f002 ff44 	bl	5a5c <am_hal_uart_disable>
    am_hal_uart_config(&sUartConfig);
    2bd4:	463b      	mov	r3, r7
    2bd6:	4618      	mov	r0, r3
    2bd8:	f002 ff00 	bl	59dc <am_hal_uart_config>
    am_hal_uart_enable();
    2bdc:	f002 ff34 	bl	5a48 <am_hal_uart_enable>

    am_hal_uart_fifo_config(AM_HAL_UART_TX_FIFO_1_2 | AM_HAL_UART_RX_FIFO_1_2);
    2be0:	2012      	movs	r0, #18
    2be2:	f002 ff69 	bl	5ab8 <am_hal_uart_fifo_config>

    //
    // Force RTS low
    //
    am_hal_gpio_pin_config(HCI_APOLLO_UART_RTS_PIN, AM_HAL_PIN_OUTPUT);
    2be6:	4b3b      	ldr	r3, [pc, #236]	; (2cd4 <HciDrvRadioBoot+0x22c>)
    2be8:	2273      	movs	r2, #115	; 0x73
    2bea:	601a      	str	r2, [r3, #0]
    2bec:	4b3a      	ldr	r3, [pc, #232]	; (2cd8 <HciDrvRadioBoot+0x230>)
    2bee:	4a3a      	ldr	r2, [pc, #232]	; (2cd8 <HciDrvRadioBoot+0x230>)
    2bf0:	6812      	ldr	r2, [r2, #0]
    2bf2:	f422 02e0 	bic.w	r2, r2, #7340032	; 0x700000
    2bf6:	f442 1200 	orr.w	r2, r2, #2097152	; 0x200000
    2bfa:	601a      	str	r2, [r3, #0]
    2bfc:	4b3b      	ldr	r3, [pc, #236]	; (2cec <HciDrvRadioBoot+0x244>)
    2bfe:	4a3b      	ldr	r2, [pc, #236]	; (2cec <HciDrvRadioBoot+0x244>)
    2c00:	6812      	ldr	r2, [r2, #0]
    2c02:	f422 427f 	bic.w	r2, r2, #65280	; 0xff00
    2c06:	f442 52c0 	orr.w	r2, r2, #6144	; 0x1800
    2c0a:	601a      	str	r2, [r3, #0]
    2c0c:	4b31      	ldr	r3, [pc, #196]	; (2cd4 <HciDrvRadioBoot+0x22c>)
    2c0e:	2200      	movs	r2, #0
    2c10:	601a      	str	r2, [r3, #0]
    am_hal_gpio_out_bit_clear(HCI_APOLLO_UART_RTS_PIN);
    2c12:	4b38      	ldr	r3, [pc, #224]	; (2cf4 <HciDrvRadioBoot+0x24c>)
    2c14:	2220      	movs	r2, #32
    2c16:	601a      	str	r2, [r3, #0]

    //
    // Delay a bit.
    //
    am_util_delay_ms(10);
    2c18:	200a      	movs	r0, #10
    2c1a:	f002 fbbf 	bl	539c <am_util_delay_ms>

    //
    // Deassert RESET to the Dialog device.
    //
    am_hal_gpio_out_bit_clear(HCI_APOLLO_RESET_PIN);
    2c1e:	4b35      	ldr	r3, [pc, #212]	; (2cf4 <HciDrvRadioBoot+0x24c>)
    2c20:	f44f 3200 	mov.w	r2, #131072	; 0x20000
    2c24:	601a      	str	r2, [r3, #0]
    am_hal_gpio_pin_config(HCI_APOLLO_RESET_PIN, AM_HAL_PIN_DISABLE);
    2c26:	4b2b      	ldr	r3, [pc, #172]	; (2cd4 <HciDrvRadioBoot+0x22c>)
    2c28:	2273      	movs	r2, #115	; 0x73
    2c2a:	601a      	str	r2, [r3, #0]
    2c2c:	4b2d      	ldr	r3, [pc, #180]	; (2ce4 <HciDrvRadioBoot+0x23c>)
    2c2e:	4a2d      	ldr	r2, [pc, #180]	; (2ce4 <HciDrvRadioBoot+0x23c>)
    2c30:	6812      	ldr	r2, [r2, #0]
    2c32:	f022 0270 	bic.w	r2, r2, #112	; 0x70
    2c36:	601a      	str	r2, [r3, #0]
    2c38:	4b2b      	ldr	r3, [pc, #172]	; (2ce8 <HciDrvRadioBoot+0x240>)
    2c3a:	4a2b      	ldr	r2, [pc, #172]	; (2ce8 <HciDrvRadioBoot+0x240>)
    2c3c:	6812      	ldr	r2, [r2, #0]
    2c3e:	f422 427f 	bic.w	r2, r2, #65280	; 0xff00
    2c42:	f442 52c0 	orr.w	r2, r2, #6144	; 0x1800
    2c46:	601a      	str	r2, [r3, #0]
    2c48:	4b22      	ldr	r3, [pc, #136]	; (2cd4 <HciDrvRadioBoot+0x22c>)
    2c4a:	2200      	movs	r2, #0
    2c4c:	601a      	str	r2, [r3, #0]

    //
    // Transmit the Dialog firmware image across the PMOD UART port.
    //
    am_devices_da14581_uart_boot(g_pui8Da14581HciImage, DA14581_HCI_IMAGE_LENGTH);
    2c4e:	482a      	ldr	r0, [pc, #168]	; (2cf8 <HciDrvRadioBoot+0x250>)
    2c50:	f644 4104 	movw	r1, #19460	; 0x4c04
    2c54:	f002 fc42 	bl	54dc <am_devices_da14581_uart_boot>

    //
    // CAJ: Removing the pullup function from the RX pin. This is part of the
    // bootup workaround mentioned during pin configuration.
    //
    am_hal_gpio_pin_config(HCI_APOLLO_UART_RX_PIN, HCI_APOLLO_UART_RX_CFG);
    2c58:	4b1e      	ldr	r3, [pc, #120]	; (2cd4 <HciDrvRadioBoot+0x22c>)
    2c5a:	2273      	movs	r2, #115	; 0x73
    2c5c:	601a      	str	r2, [r3, #0]
    2c5e:	4b1e      	ldr	r3, [pc, #120]	; (2cd8 <HciDrvRadioBoot+0x230>)
    2c60:	4a1d      	ldr	r2, [pc, #116]	; (2cd8 <HciDrvRadioBoot+0x230>)
    2c62:	6812      	ldr	r2, [r2, #0]
    2c64:	f022 0270 	bic.w	r2, r2, #112	; 0x70
    2c68:	601a      	str	r2, [r3, #0]
    2c6a:	4b1c      	ldr	r3, [pc, #112]	; (2cdc <HciDrvRadioBoot+0x234>)
    2c6c:	4a1b      	ldr	r2, [pc, #108]	; (2cdc <HciDrvRadioBoot+0x234>)
    2c6e:	6812      	ldr	r2, [r2, #0]
    2c70:	f422 427f 	bic.w	r2, r2, #65280	; 0xff00
    2c74:	f442 5290 	orr.w	r2, r2, #4608	; 0x1200
    2c78:	601a      	str	r2, [r3, #0]
    2c7a:	4b16      	ldr	r3, [pc, #88]	; (2cd4 <HciDrvRadioBoot+0x22c>)
    2c7c:	2200      	movs	r2, #0
    2c7e:	601a      	str	r2, [r3, #0]

    sUartConfig.ui32BaudRate = 250000;
    2c80:	4b1e      	ldr	r3, [pc, #120]	; (2cfc <HciDrvRadioBoot+0x254>)
    2c82:	603b      	str	r3, [r7, #0]
    sUartConfig.ui32DataBits = AM_HAL_UART_DATA_BITS_8;
    2c84:	2360      	movs	r3, #96	; 0x60
    2c86:	607b      	str	r3, [r7, #4]
    sUartConfig.bTwoStopBits = false;
    2c88:	2300      	movs	r3, #0
    2c8a:	723b      	strb	r3, [r7, #8]
    sUartConfig.ui32Parity = AM_HAL_UART_PARITY_NONE;
    2c8c:	2300      	movs	r3, #0
    2c8e:	60fb      	str	r3, [r7, #12]
    sUartConfig.ui32FlowCtrl = AM_HAL_UART_FLOW_CTRL_NONE;
    2c90:	2300      	movs	r3, #0
    2c92:	613b      	str	r3, [r7, #16]

    am_hal_uart_disable();
    2c94:	f002 fee2 	bl	5a5c <am_hal_uart_disable>
    am_hal_uart_config(&sUartConfig);
    2c98:	463b      	mov	r3, r7
    2c9a:	4618      	mov	r0, r3
    2c9c:	f002 fe9e 	bl	59dc <am_hal_uart_config>
    am_hal_uart_enable();
    2ca0:	f002 fed2 	bl	5a48 <am_hal_uart_enable>

    //
    // Clear any UART errors that may have come up in the reboot process.
    //
    uint32_t ui32Status = AM_REG(UART, IES);
    2ca4:	4b16      	ldr	r3, [pc, #88]	; (2d00 <HciDrvRadioBoot+0x258>)
    2ca6:	681b      	ldr	r3, [r3, #0]
    2ca8:	617b      	str	r3, [r7, #20]
    AM_REG(UART, IES) = ui32Status;
    2caa:	4b15      	ldr	r3, [pc, #84]	; (2d00 <HciDrvRadioBoot+0x258>)
    2cac:	697a      	ldr	r2, [r7, #20]
    2cae:	601a      	str	r2, [r3, #0]

    //
    // Enable the UART and RX timeout interrupt.
    //
    AM_REGn(UART, 0, IER) |= (AM_REG_UART_IES_RTRIS_M |
    2cb0:	4b14      	ldr	r3, [pc, #80]	; (2d04 <HciDrvRadioBoot+0x25c>)
    2cb2:	4a14      	ldr	r2, [pc, #80]	; (2d04 <HciDrvRadioBoot+0x25c>)
    2cb4:	6812      	ldr	r2, [r2, #0]
    2cb6:	f042 0270 	orr.w	r2, r2, #112	; 0x70
    2cba:	601a      	str	r2, [r3, #0]
                              AM_REG_UART_IES_TXRIS_M);

    //
    // Enable the UART and GPIO interrupt handlers.
    //
    am_hal_interrupt_enable(AM_HAL_INTERRUPT_UART);
    2cbc:	201b      	movs	r0, #27
    2cbe:	f002 fe25 	bl	590c <am_hal_interrupt_enable>
    am_hal_interrupt_enable(AM_HAL_INTERRUPT_GPIO);
    2cc2:	2019      	movs	r0, #25
    2cc4:	f002 fe22 	bl	590c <am_hal_interrupt_enable>

    //
    // Delay for 3 seconds to make sure the dialog goes to sleep.
    //
    am_util_delay_ms(20);
    2cc8:	2014      	movs	r0, #20
    2cca:	f002 fb67 	bl	539c <am_util_delay_ms>
}
    2cce:	3718      	adds	r7, #24
    2cd0:	46bd      	mov	sp, r7
    2cd2:	bd80      	pop	{r7, pc}
    2cd4:	40010060 	.word	0x40010060
    2cd8:	40010040 	.word	0x40010040
    2cdc:	40010000 	.word	0x40010000
    2ce0:	40010090 	.word	0x40010090
    2ce4:	40010048 	.word	0x40010048
    2ce8:	40010010 	.word	0x40010010
    2cec:	40010004 	.word	0x40010004
    2cf0:	0001b580 	.word	0x0001b580
    2cf4:	40010098 	.word	0x40010098
    2cf8:	00009f70 	.word	0x00009f70
    2cfc:	0003d090 	.word	0x0003d090
    2d00:	4001c03c 	.word	0x4001c03c
    2d04:	4001c038 	.word	0x4001c038

00002d08 <am_uart_isr>:
// UART interrupt handler.
//
//*****************************************************************************
void
am_uart_isr(void)
{
    2d08:	b580      	push	{r7, lr}
    2d0a:	b082      	sub	sp, #8
    2d0c:	af00      	add	r7, sp, #0
    uint32_t ui32Status;

    //
    // Read and save the interrupt status, but clear out the status register.
    //
    ui32Status = AM_REGn(UART, 0, MIS);
    2d0e:	4b11      	ldr	r3, [pc, #68]	; (2d54 <am_uart_isr+0x4c>)
    2d10:	681b      	ldr	r3, [r3, #0]
    2d12:	607b      	str	r3, [r7, #4]
    AM_REGn(UART, 0, IEC) = ui32Status;
    2d14:	4b10      	ldr	r3, [pc, #64]	; (2d58 <am_uart_isr+0x50>)
    2d16:	687a      	ldr	r2, [r7, #4]
    2d18:	601a      	str	r2, [r3, #0]

    //
    // Check to see if we have filled the Rx FIFO past the configured limit, or
    // if we have an 'old' character or two sitting in the FIFO.
    //
    if (ui32Status & (AM_REG_UART_IES_RXRIS_M | AM_REG_UART_IES_RTRIS_M))
    2d1a:	687b      	ldr	r3, [r7, #4]
    2d1c:	f003 0350 	and.w	r3, r3, #80	; 0x50
    2d20:	2b00      	cmp	r3, #0
    2d22:	d014      	beq.n	2d4e <am_uart_isr+0x46>
    {
        //
        // While there's stuff in the RX fifo....
        //
        while (!AM_BFRn(UART, 0, FR, RXFE))
    2d24:	e00c      	b.n	2d40 <am_uart_isr+0x38>
        {
            //
            // Read a byte from the FIFO.
            //
            uint32_t ui32Char = AM_REGn(UART, 0, DR);
    2d26:	4b0d      	ldr	r3, [pc, #52]	; (2d5c <am_uart_isr+0x54>)
    2d28:	681b      	ldr	r3, [r3, #0]
    2d2a:	603b      	str	r3, [r7, #0]

            //
            // If none of the error bits are set (stored in the bits just above
            // the data byte), send the byte along to the HCI layer.
            //
            if ((ui32Char & 0x700) == 0)
    2d2c:	683b      	ldr	r3, [r7, #0]
    2d2e:	f403 63e0 	and.w	r3, r3, #1792	; 0x700
    2d32:	2b00      	cmp	r3, #0
    2d34:	d104      	bne.n	2d40 <am_uart_isr+0x38>
            {
                //
                // Pass it along to the HCI driver.
                //
                hciTrSerialRxIncoming((uint8_t *)(&ui32Char), 1);
    2d36:	463b      	mov	r3, r7
    2d38:	4618      	mov	r0, r3
    2d3a:	2101      	movs	r1, #1
    2d3c:	f000 fe48 	bl	39d0 <hciTrSerialRxIncoming>
    if (ui32Status & (AM_REG_UART_IES_RXRIS_M | AM_REG_UART_IES_RTRIS_M))
    {
        //
        // While there's stuff in the RX fifo....
        //
        while (!AM_BFRn(UART, 0, FR, RXFE))
    2d40:	4b07      	ldr	r3, [pc, #28]	; (2d60 <am_uart_isr+0x58>)
    2d42:	681b      	ldr	r3, [r3, #0]
    2d44:	f003 0310 	and.w	r3, r3, #16
    2d48:	091b      	lsrs	r3, r3, #4
    2d4a:	2b00      	cmp	r3, #0
    2d4c:	d0eb      	beq.n	2d26 <am_uart_isr+0x1e>
                //
                hciTrSerialRxIncoming((uint8_t *)(&ui32Char), 1);
            }
        }
    }
}
    2d4e:	3708      	adds	r7, #8
    2d50:	46bd      	mov	sp, r7
    2d52:	bd80      	pop	{r7, pc}
    2d54:	4001c040 	.word	0x4001c040
    2d58:	4001c044 	.word	0x4001c044
    2d5c:	4001c000 	.word	0x4001c000
    2d60:	4001c018 	.word	0x4001c018

00002d64 <hciEvtParseLeConnCmpl>:
 *
 *  \return None.
 */
/*************************************************************************************************/
static void hciEvtParseLeConnCmpl(hciEvt_t *pMsg, uint8_t *p, uint8_t len)
{
    2d64:	b580      	push	{r7, lr}
    2d66:	b084      	sub	sp, #16
    2d68:	af00      	add	r7, sp, #0
    2d6a:	60f8      	str	r0, [r7, #12]
    2d6c:	60b9      	str	r1, [r7, #8]
    2d6e:	4613      	mov	r3, r2
    2d70:	71fb      	strb	r3, [r7, #7]
  BSTREAM_TO_UINT8(pMsg->leConnCmpl.status, p);
    2d72:	68bb      	ldr	r3, [r7, #8]
    2d74:	1c5a      	adds	r2, r3, #1
    2d76:	60ba      	str	r2, [r7, #8]
    2d78:	781a      	ldrb	r2, [r3, #0]
    2d7a:	68fb      	ldr	r3, [r7, #12]
    2d7c:	711a      	strb	r2, [r3, #4]
  BSTREAM_TO_UINT16(pMsg->leConnCmpl.handle, p);
    2d7e:	68bb      	ldr	r3, [r7, #8]
    2d80:	781b      	ldrb	r3, [r3, #0]
    2d82:	461a      	mov	r2, r3
    2d84:	68bb      	ldr	r3, [r7, #8]
    2d86:	3301      	adds	r3, #1
    2d88:	781b      	ldrb	r3, [r3, #0]
    2d8a:	021b      	lsls	r3, r3, #8
    2d8c:	b29b      	uxth	r3, r3
    2d8e:	4413      	add	r3, r2
    2d90:	b29a      	uxth	r2, r3
    2d92:	68fb      	ldr	r3, [r7, #12]
    2d94:	80da      	strh	r2, [r3, #6]
    2d96:	68bb      	ldr	r3, [r7, #8]
    2d98:	3302      	adds	r3, #2
    2d9a:	60bb      	str	r3, [r7, #8]
  BSTREAM_TO_UINT8(pMsg->leConnCmpl.role, p);
    2d9c:	68bb      	ldr	r3, [r7, #8]
    2d9e:	1c5a      	adds	r2, r3, #1
    2da0:	60ba      	str	r2, [r7, #8]
    2da2:	781a      	ldrb	r2, [r3, #0]
    2da4:	68fb      	ldr	r3, [r7, #12]
    2da6:	721a      	strb	r2, [r3, #8]
  BSTREAM_TO_UINT8(pMsg->leConnCmpl.addrType, p);
    2da8:	68bb      	ldr	r3, [r7, #8]
    2daa:	1c5a      	adds	r2, r3, #1
    2dac:	60ba      	str	r2, [r7, #8]
    2dae:	781a      	ldrb	r2, [r3, #0]
    2db0:	68fb      	ldr	r3, [r7, #12]
    2db2:	725a      	strb	r2, [r3, #9]
  BSTREAM_TO_BDA(pMsg->leConnCmpl.peerAddr, p);
    2db4:	68fb      	ldr	r3, [r7, #12]
    2db6:	330a      	adds	r3, #10
    2db8:	4618      	mov	r0, r3
    2dba:	68b9      	ldr	r1, [r7, #8]
    2dbc:	f001 fbf2 	bl	45a4 <BdaCpy>
    2dc0:	68bb      	ldr	r3, [r7, #8]
    2dc2:	3306      	adds	r3, #6
    2dc4:	60bb      	str	r3, [r7, #8]
  BSTREAM_TO_UINT16(pMsg->leConnCmpl.connInterval, p);
    2dc6:	68bb      	ldr	r3, [r7, #8]
    2dc8:	781b      	ldrb	r3, [r3, #0]
    2dca:	461a      	mov	r2, r3
    2dcc:	68bb      	ldr	r3, [r7, #8]
    2dce:	3301      	adds	r3, #1
    2dd0:	781b      	ldrb	r3, [r3, #0]
    2dd2:	021b      	lsls	r3, r3, #8
    2dd4:	b29b      	uxth	r3, r3
    2dd6:	4413      	add	r3, r2
    2dd8:	b29a      	uxth	r2, r3
    2dda:	68fb      	ldr	r3, [r7, #12]
    2ddc:	821a      	strh	r2, [r3, #16]
    2dde:	68bb      	ldr	r3, [r7, #8]
    2de0:	3302      	adds	r3, #2
    2de2:	60bb      	str	r3, [r7, #8]
  BSTREAM_TO_UINT16(pMsg->leConnCmpl.connLatency, p);
    2de4:	68bb      	ldr	r3, [r7, #8]
    2de6:	781b      	ldrb	r3, [r3, #0]
    2de8:	461a      	mov	r2, r3
    2dea:	68bb      	ldr	r3, [r7, #8]
    2dec:	3301      	adds	r3, #1
    2dee:	781b      	ldrb	r3, [r3, #0]
    2df0:	021b      	lsls	r3, r3, #8
    2df2:	b29b      	uxth	r3, r3
    2df4:	4413      	add	r3, r2
    2df6:	b29a      	uxth	r2, r3
    2df8:	68fb      	ldr	r3, [r7, #12]
    2dfa:	825a      	strh	r2, [r3, #18]
    2dfc:	68bb      	ldr	r3, [r7, #8]
    2dfe:	3302      	adds	r3, #2
    2e00:	60bb      	str	r3, [r7, #8]
  BSTREAM_TO_UINT16(pMsg->leConnCmpl.supTimeout, p);
    2e02:	68bb      	ldr	r3, [r7, #8]
    2e04:	781b      	ldrb	r3, [r3, #0]
    2e06:	461a      	mov	r2, r3
    2e08:	68bb      	ldr	r3, [r7, #8]
    2e0a:	3301      	adds	r3, #1
    2e0c:	781b      	ldrb	r3, [r3, #0]
    2e0e:	021b      	lsls	r3, r3, #8
    2e10:	b29b      	uxth	r3, r3
    2e12:	4413      	add	r3, r2
    2e14:	b29a      	uxth	r2, r3
    2e16:	68fb      	ldr	r3, [r7, #12]
    2e18:	829a      	strh	r2, [r3, #20]
    2e1a:	68bb      	ldr	r3, [r7, #8]
    2e1c:	3302      	adds	r3, #2
    2e1e:	60bb      	str	r3, [r7, #8]
  BSTREAM_TO_UINT8(pMsg->leConnCmpl.clockAccuracy, p);
    2e20:	68bb      	ldr	r3, [r7, #8]
    2e22:	1c5a      	adds	r2, r3, #1
    2e24:	60ba      	str	r2, [r7, #8]
    2e26:	781a      	ldrb	r2, [r3, #0]
    2e28:	68fb      	ldr	r3, [r7, #12]
    2e2a:	759a      	strb	r2, [r3, #22]

  pMsg->hdr.param = pMsg->leConnCmpl.handle;
    2e2c:	68fb      	ldr	r3, [r7, #12]
    2e2e:	88da      	ldrh	r2, [r3, #6]
    2e30:	68fb      	ldr	r3, [r7, #12]
    2e32:	801a      	strh	r2, [r3, #0]
  pMsg->hdr.status = pMsg->leConnCmpl.status;
    2e34:	68fb      	ldr	r3, [r7, #12]
    2e36:	791a      	ldrb	r2, [r3, #4]
    2e38:	68fb      	ldr	r3, [r7, #12]
    2e3a:	70da      	strb	r2, [r3, #3]
}
    2e3c:	3710      	adds	r7, #16
    2e3e:	46bd      	mov	sp, r7
    2e40:	bd80      	pop	{r7, pc}
    2e42:	bf00      	nop

00002e44 <hciEvtParseDisconnectCmpl>:
 *
 *  \return None.
 */
/*************************************************************************************************/
static void hciEvtParseDisconnectCmpl(hciEvt_t *pMsg, uint8_t *p, uint8_t len)
{
    2e44:	b480      	push	{r7}
    2e46:	b085      	sub	sp, #20
    2e48:	af00      	add	r7, sp, #0
    2e4a:	60f8      	str	r0, [r7, #12]
    2e4c:	60b9      	str	r1, [r7, #8]
    2e4e:	4613      	mov	r3, r2
    2e50:	71fb      	strb	r3, [r7, #7]
  BSTREAM_TO_UINT8(pMsg->disconnectCmpl.status, p);
    2e52:	68bb      	ldr	r3, [r7, #8]
    2e54:	1c5a      	adds	r2, r3, #1
    2e56:	60ba      	str	r2, [r7, #8]
    2e58:	781a      	ldrb	r2, [r3, #0]
    2e5a:	68fb      	ldr	r3, [r7, #12]
    2e5c:	711a      	strb	r2, [r3, #4]
  BSTREAM_TO_UINT16(pMsg->disconnectCmpl.handle, p);
    2e5e:	68bb      	ldr	r3, [r7, #8]
    2e60:	781b      	ldrb	r3, [r3, #0]
    2e62:	461a      	mov	r2, r3
    2e64:	68bb      	ldr	r3, [r7, #8]
    2e66:	3301      	adds	r3, #1
    2e68:	781b      	ldrb	r3, [r3, #0]
    2e6a:	021b      	lsls	r3, r3, #8
    2e6c:	b29b      	uxth	r3, r3
    2e6e:	4413      	add	r3, r2
    2e70:	b29a      	uxth	r2, r3
    2e72:	68fb      	ldr	r3, [r7, #12]
    2e74:	80da      	strh	r2, [r3, #6]
    2e76:	68bb      	ldr	r3, [r7, #8]
    2e78:	3302      	adds	r3, #2
    2e7a:	60bb      	str	r3, [r7, #8]
  BSTREAM_TO_UINT8(pMsg->disconnectCmpl.reason, p);
    2e7c:	68bb      	ldr	r3, [r7, #8]
    2e7e:	1c5a      	adds	r2, r3, #1
    2e80:	60ba      	str	r2, [r7, #8]
    2e82:	781a      	ldrb	r2, [r3, #0]
    2e84:	68fb      	ldr	r3, [r7, #12]
    2e86:	721a      	strb	r2, [r3, #8]

  pMsg->hdr.param = pMsg->disconnectCmpl.handle;
    2e88:	68fb      	ldr	r3, [r7, #12]
    2e8a:	88da      	ldrh	r2, [r3, #6]
    2e8c:	68fb      	ldr	r3, [r7, #12]
    2e8e:	801a      	strh	r2, [r3, #0]
  pMsg->hdr.status = pMsg->disconnectCmpl.status;
    2e90:	68fb      	ldr	r3, [r7, #12]
    2e92:	791a      	ldrb	r2, [r3, #4]
    2e94:	68fb      	ldr	r3, [r7, #12]
    2e96:	70da      	strb	r2, [r3, #3]
}
    2e98:	3714      	adds	r7, #20
    2e9a:	46bd      	mov	sp, r7
    2e9c:	f85d 7b04 	ldr.w	r7, [sp], #4
    2ea0:	4770      	bx	lr
    2ea2:	bf00      	nop

00002ea4 <hciEvtParseLeConnUpdateCmpl>:
 *
 *  \return None.
 */
/*************************************************************************************************/
static void hciEvtParseLeConnUpdateCmpl(hciEvt_t *pMsg, uint8_t *p, uint8_t len)
{
    2ea4:	b480      	push	{r7}
    2ea6:	b085      	sub	sp, #20
    2ea8:	af00      	add	r7, sp, #0
    2eaa:	60f8      	str	r0, [r7, #12]
    2eac:	60b9      	str	r1, [r7, #8]
    2eae:	4613      	mov	r3, r2
    2eb0:	71fb      	strb	r3, [r7, #7]
  BSTREAM_TO_UINT8(pMsg->leConnUpdateCmpl.status, p);
    2eb2:	68bb      	ldr	r3, [r7, #8]
    2eb4:	1c5a      	adds	r2, r3, #1
    2eb6:	60ba      	str	r2, [r7, #8]
    2eb8:	781a      	ldrb	r2, [r3, #0]
    2eba:	68fb      	ldr	r3, [r7, #12]
    2ebc:	711a      	strb	r2, [r3, #4]
  BSTREAM_TO_UINT16(pMsg->leConnUpdateCmpl.handle, p);
    2ebe:	68bb      	ldr	r3, [r7, #8]
    2ec0:	781b      	ldrb	r3, [r3, #0]
    2ec2:	461a      	mov	r2, r3
    2ec4:	68bb      	ldr	r3, [r7, #8]
    2ec6:	3301      	adds	r3, #1
    2ec8:	781b      	ldrb	r3, [r3, #0]
    2eca:	021b      	lsls	r3, r3, #8
    2ecc:	b29b      	uxth	r3, r3
    2ece:	4413      	add	r3, r2
    2ed0:	b29a      	uxth	r2, r3
    2ed2:	68fb      	ldr	r3, [r7, #12]
    2ed4:	80da      	strh	r2, [r3, #6]
    2ed6:	68bb      	ldr	r3, [r7, #8]
    2ed8:	3302      	adds	r3, #2
    2eda:	60bb      	str	r3, [r7, #8]
  BSTREAM_TO_UINT16(pMsg->leConnUpdateCmpl.connInterval, p);
    2edc:	68bb      	ldr	r3, [r7, #8]
    2ede:	781b      	ldrb	r3, [r3, #0]
    2ee0:	461a      	mov	r2, r3
    2ee2:	68bb      	ldr	r3, [r7, #8]
    2ee4:	3301      	adds	r3, #1
    2ee6:	781b      	ldrb	r3, [r3, #0]
    2ee8:	021b      	lsls	r3, r3, #8
    2eea:	b29b      	uxth	r3, r3
    2eec:	4413      	add	r3, r2
    2eee:	b29a      	uxth	r2, r3
    2ef0:	68fb      	ldr	r3, [r7, #12]
    2ef2:	811a      	strh	r2, [r3, #8]
    2ef4:	68bb      	ldr	r3, [r7, #8]
    2ef6:	3302      	adds	r3, #2
    2ef8:	60bb      	str	r3, [r7, #8]
  BSTREAM_TO_UINT16(pMsg->leConnUpdateCmpl.connLatency, p);
    2efa:	68bb      	ldr	r3, [r7, #8]
    2efc:	781b      	ldrb	r3, [r3, #0]
    2efe:	461a      	mov	r2, r3
    2f00:	68bb      	ldr	r3, [r7, #8]
    2f02:	3301      	adds	r3, #1
    2f04:	781b      	ldrb	r3, [r3, #0]
    2f06:	021b      	lsls	r3, r3, #8
    2f08:	b29b      	uxth	r3, r3
    2f0a:	4413      	add	r3, r2
    2f0c:	b29a      	uxth	r2, r3
    2f0e:	68fb      	ldr	r3, [r7, #12]
    2f10:	815a      	strh	r2, [r3, #10]
    2f12:	68bb      	ldr	r3, [r7, #8]
    2f14:	3302      	adds	r3, #2
    2f16:	60bb      	str	r3, [r7, #8]
  BSTREAM_TO_UINT16(pMsg->leConnUpdateCmpl.supTimeout, p);
    2f18:	68bb      	ldr	r3, [r7, #8]
    2f1a:	781b      	ldrb	r3, [r3, #0]
    2f1c:	461a      	mov	r2, r3
    2f1e:	68bb      	ldr	r3, [r7, #8]
    2f20:	3301      	adds	r3, #1
    2f22:	781b      	ldrb	r3, [r3, #0]
    2f24:	021b      	lsls	r3, r3, #8
    2f26:	b29b      	uxth	r3, r3
    2f28:	4413      	add	r3, r2
    2f2a:	b29a      	uxth	r2, r3
    2f2c:	68fb      	ldr	r3, [r7, #12]
    2f2e:	819a      	strh	r2, [r3, #12]
    2f30:	68bb      	ldr	r3, [r7, #8]
    2f32:	3302      	adds	r3, #2
    2f34:	60bb      	str	r3, [r7, #8]

  pMsg->hdr.param = pMsg->leConnUpdateCmpl.handle;
    2f36:	68fb      	ldr	r3, [r7, #12]
    2f38:	88da      	ldrh	r2, [r3, #6]
    2f3a:	68fb      	ldr	r3, [r7, #12]
    2f3c:	801a      	strh	r2, [r3, #0]
  pMsg->hdr.status = pMsg->leConnUpdateCmpl.status;
    2f3e:	68fb      	ldr	r3, [r7, #12]
    2f40:	791a      	ldrb	r2, [r3, #4]
    2f42:	68fb      	ldr	r3, [r7, #12]
    2f44:	70da      	strb	r2, [r3, #3]
}
    2f46:	3714      	adds	r7, #20
    2f48:	46bd      	mov	sp, r7
    2f4a:	f85d 7b04 	ldr.w	r7, [sp], #4
    2f4e:	4770      	bx	lr

00002f50 <hciEvtParseLeCreateConnCancelCmdCmpl>:
 *
 *  \return None.
 */
/*************************************************************************************************/
static void hciEvtParseLeCreateConnCancelCmdCmpl(hciEvt_t *pMsg, uint8_t *p, uint8_t len)
{
    2f50:	b480      	push	{r7}
    2f52:	b085      	sub	sp, #20
    2f54:	af00      	add	r7, sp, #0
    2f56:	60f8      	str	r0, [r7, #12]
    2f58:	60b9      	str	r1, [r7, #8]
    2f5a:	4613      	mov	r3, r2
    2f5c:	71fb      	strb	r3, [r7, #7]
  BSTREAM_TO_UINT8(pMsg->leCreateConnCancelCmdCmpl.status, p);
    2f5e:	68bb      	ldr	r3, [r7, #8]
    2f60:	1c5a      	adds	r2, r3, #1
    2f62:	60ba      	str	r2, [r7, #8]
    2f64:	781a      	ldrb	r2, [r3, #0]
    2f66:	68fb      	ldr	r3, [r7, #12]
    2f68:	711a      	strb	r2, [r3, #4]

  pMsg->hdr.status = pMsg->leCreateConnCancelCmdCmpl.status;
    2f6a:	68fb      	ldr	r3, [r7, #12]
    2f6c:	791a      	ldrb	r2, [r3, #4]
    2f6e:	68fb      	ldr	r3, [r7, #12]
    2f70:	70da      	strb	r2, [r3, #3]
}
    2f72:	3714      	adds	r7, #20
    2f74:	46bd      	mov	sp, r7
    2f76:	f85d 7b04 	ldr.w	r7, [sp], #4
    2f7a:	4770      	bx	lr

00002f7c <hciEvtParseReadRssiCmdCmpl>:
 *
 *  \return None.
 */
/*************************************************************************************************/
static void hciEvtParseReadRssiCmdCmpl(hciEvt_t *pMsg, uint8_t *p, uint8_t len)
{
    2f7c:	b480      	push	{r7}
    2f7e:	b085      	sub	sp, #20
    2f80:	af00      	add	r7, sp, #0
    2f82:	60f8      	str	r0, [r7, #12]
    2f84:	60b9      	str	r1, [r7, #8]
    2f86:	4613      	mov	r3, r2
    2f88:	71fb      	strb	r3, [r7, #7]
  BSTREAM_TO_UINT8(pMsg->readRssiCmdCmpl.status, p);
    2f8a:	68bb      	ldr	r3, [r7, #8]
    2f8c:	1c5a      	adds	r2, r3, #1
    2f8e:	60ba      	str	r2, [r7, #8]
    2f90:	781a      	ldrb	r2, [r3, #0]
    2f92:	68fb      	ldr	r3, [r7, #12]
    2f94:	711a      	strb	r2, [r3, #4]
  BSTREAM_TO_UINT16(pMsg->readRssiCmdCmpl.handle, p);
    2f96:	68bb      	ldr	r3, [r7, #8]
    2f98:	781b      	ldrb	r3, [r3, #0]
    2f9a:	461a      	mov	r2, r3
    2f9c:	68bb      	ldr	r3, [r7, #8]
    2f9e:	3301      	adds	r3, #1
    2fa0:	781b      	ldrb	r3, [r3, #0]
    2fa2:	021b      	lsls	r3, r3, #8
    2fa4:	b29b      	uxth	r3, r3
    2fa6:	4413      	add	r3, r2
    2fa8:	b29a      	uxth	r2, r3
    2faa:	68fb      	ldr	r3, [r7, #12]
    2fac:	80da      	strh	r2, [r3, #6]
    2fae:	68bb      	ldr	r3, [r7, #8]
    2fb0:	3302      	adds	r3, #2
    2fb2:	60bb      	str	r3, [r7, #8]
  BSTREAM_TO_UINT8(pMsg->readRssiCmdCmpl.rssi, p);
    2fb4:	68bb      	ldr	r3, [r7, #8]
    2fb6:	1c5a      	adds	r2, r3, #1
    2fb8:	60ba      	str	r2, [r7, #8]
    2fba:	781b      	ldrb	r3, [r3, #0]
    2fbc:	b2da      	uxtb	r2, r3
    2fbe:	68fb      	ldr	r3, [r7, #12]
    2fc0:	721a      	strb	r2, [r3, #8]

  pMsg->hdr.param = pMsg->readRssiCmdCmpl.handle;
    2fc2:	68fb      	ldr	r3, [r7, #12]
    2fc4:	88da      	ldrh	r2, [r3, #6]
    2fc6:	68fb      	ldr	r3, [r7, #12]
    2fc8:	801a      	strh	r2, [r3, #0]
  pMsg->hdr.status = pMsg->readRssiCmdCmpl.status;
    2fca:	68fb      	ldr	r3, [r7, #12]
    2fcc:	791a      	ldrb	r2, [r3, #4]
    2fce:	68fb      	ldr	r3, [r7, #12]
    2fd0:	70da      	strb	r2, [r3, #3]
}
    2fd2:	3714      	adds	r7, #20
    2fd4:	46bd      	mov	sp, r7
    2fd6:	f85d 7b04 	ldr.w	r7, [sp], #4
    2fda:	4770      	bx	lr

00002fdc <hciEvtParseReadChanMapCmdCmpl>:
 *
 *  \return None.
 */
/*************************************************************************************************/
static void hciEvtParseReadChanMapCmdCmpl(hciEvt_t *pMsg, uint8_t *p, uint8_t len)
{
    2fdc:	b580      	push	{r7, lr}
    2fde:	b084      	sub	sp, #16
    2fe0:	af00      	add	r7, sp, #0
    2fe2:	60f8      	str	r0, [r7, #12]
    2fe4:	60b9      	str	r1, [r7, #8]
    2fe6:	4613      	mov	r3, r2
    2fe8:	71fb      	strb	r3, [r7, #7]
  BSTREAM_TO_UINT8(pMsg->readChanMapCmdCmpl.status, p);
    2fea:	68bb      	ldr	r3, [r7, #8]
    2fec:	1c5a      	adds	r2, r3, #1
    2fee:	60ba      	str	r2, [r7, #8]
    2ff0:	781a      	ldrb	r2, [r3, #0]
    2ff2:	68fb      	ldr	r3, [r7, #12]
    2ff4:	711a      	strb	r2, [r3, #4]
  BSTREAM_TO_UINT16(pMsg->readChanMapCmdCmpl.handle, p);
    2ff6:	68bb      	ldr	r3, [r7, #8]
    2ff8:	781b      	ldrb	r3, [r3, #0]
    2ffa:	461a      	mov	r2, r3
    2ffc:	68bb      	ldr	r3, [r7, #8]
    2ffe:	3301      	adds	r3, #1
    3000:	781b      	ldrb	r3, [r3, #0]
    3002:	021b      	lsls	r3, r3, #8
    3004:	b29b      	uxth	r3, r3
    3006:	4413      	add	r3, r2
    3008:	b29a      	uxth	r2, r3
    300a:	68fb      	ldr	r3, [r7, #12]
    300c:	80da      	strh	r2, [r3, #6]
    300e:	68bb      	ldr	r3, [r7, #8]
    3010:	3302      	adds	r3, #2
    3012:	60bb      	str	r3, [r7, #8]

  memcpy(pMsg->readChanMapCmdCmpl.chanMap, p, HCI_CHAN_MAP_LEN);
    3014:	68fb      	ldr	r3, [r7, #12]
    3016:	3308      	adds	r3, #8
    3018:	4618      	mov	r0, r3
    301a:	68b9      	ldr	r1, [r7, #8]
    301c:	2205      	movs	r2, #5
    301e:	f006 fe2f 	bl	9c80 <memcpy>

  pMsg->hdr.param = pMsg->readChanMapCmdCmpl.handle;
    3022:	68fb      	ldr	r3, [r7, #12]
    3024:	88da      	ldrh	r2, [r3, #6]
    3026:	68fb      	ldr	r3, [r7, #12]
    3028:	801a      	strh	r2, [r3, #0]
  pMsg->hdr.status = pMsg->readChanMapCmdCmpl.status;
    302a:	68fb      	ldr	r3, [r7, #12]
    302c:	791a      	ldrb	r2, [r3, #4]
    302e:	68fb      	ldr	r3, [r7, #12]
    3030:	70da      	strb	r2, [r3, #3]
}
    3032:	3710      	adds	r7, #16
    3034:	46bd      	mov	sp, r7
    3036:	bd80      	pop	{r7, pc}

00003038 <hciEvtParseReadTxPwrLvlCmdCmpl>:
 *
 *  \return None.
 */
/*************************************************************************************************/
static void hciEvtParseReadTxPwrLvlCmdCmpl(hciEvt_t *pMsg, uint8_t *p, uint8_t len)
{
    3038:	b480      	push	{r7}
    303a:	b085      	sub	sp, #20
    303c:	af00      	add	r7, sp, #0
    303e:	60f8      	str	r0, [r7, #12]
    3040:	60b9      	str	r1, [r7, #8]
    3042:	4613      	mov	r3, r2
    3044:	71fb      	strb	r3, [r7, #7]
  BSTREAM_TO_UINT8(pMsg->readTxPwrLvlCmdCmpl.status, p);
    3046:	68bb      	ldr	r3, [r7, #8]
    3048:	1c5a      	adds	r2, r3, #1
    304a:	60ba      	str	r2, [r7, #8]
    304c:	781a      	ldrb	r2, [r3, #0]
    304e:	68fb      	ldr	r3, [r7, #12]
    3050:	711a      	strb	r2, [r3, #4]
  BSTREAM_TO_UINT16(pMsg->readTxPwrLvlCmdCmpl.handle, p);
    3052:	68bb      	ldr	r3, [r7, #8]
    3054:	781a      	ldrb	r2, [r3, #0]
    3056:	68fb      	ldr	r3, [r7, #12]
    3058:	715a      	strb	r2, [r3, #5]
    305a:	68bb      	ldr	r3, [r7, #8]
    305c:	3302      	adds	r3, #2
    305e:	60bb      	str	r3, [r7, #8]
  BSTREAM_TO_INT8(pMsg->readTxPwrLvlCmdCmpl.pwrLvl, p);
    3060:	68bb      	ldr	r3, [r7, #8]
    3062:	1c5a      	adds	r2, r3, #1
    3064:	60ba      	str	r2, [r7, #8]
    3066:	781b      	ldrb	r3, [r3, #0]
    3068:	b2da      	uxtb	r2, r3
    306a:	68fb      	ldr	r3, [r7, #12]
    306c:	719a      	strb	r2, [r3, #6]

  pMsg->hdr.param = pMsg->readTxPwrLvlCmdCmpl.handle;
    306e:	68fb      	ldr	r3, [r7, #12]
    3070:	795b      	ldrb	r3, [r3, #5]
    3072:	461a      	mov	r2, r3
    3074:	68fb      	ldr	r3, [r7, #12]
    3076:	801a      	strh	r2, [r3, #0]
  pMsg->hdr.status = pMsg->readTxPwrLvlCmdCmpl.status;
    3078:	68fb      	ldr	r3, [r7, #12]
    307a:	791a      	ldrb	r2, [r3, #4]
    307c:	68fb      	ldr	r3, [r7, #12]
    307e:	70da      	strb	r2, [r3, #3]
}
    3080:	3714      	adds	r7, #20
    3082:	46bd      	mov	sp, r7
    3084:	f85d 7b04 	ldr.w	r7, [sp], #4
    3088:	4770      	bx	lr
    308a:	bf00      	nop

0000308c <hciEvtParseReadRemoteVerInfoCmpl>:
 *
 *  \return None.
 */
/*************************************************************************************************/
static void hciEvtParseReadRemoteVerInfoCmpl(hciEvt_t *pMsg, uint8_t *p, uint8_t len)
{
    308c:	b480      	push	{r7}
    308e:	b085      	sub	sp, #20
    3090:	af00      	add	r7, sp, #0
    3092:	60f8      	str	r0, [r7, #12]
    3094:	60b9      	str	r1, [r7, #8]
    3096:	4613      	mov	r3, r2
    3098:	71fb      	strb	r3, [r7, #7]
  BSTREAM_TO_UINT8(pMsg->readRemoteVerInfoCmpl.status, p);
    309a:	68bb      	ldr	r3, [r7, #8]
    309c:	1c5a      	adds	r2, r3, #1
    309e:	60ba      	str	r2, [r7, #8]
    30a0:	781a      	ldrb	r2, [r3, #0]
    30a2:	68fb      	ldr	r3, [r7, #12]
    30a4:	711a      	strb	r2, [r3, #4]
  BSTREAM_TO_UINT16(pMsg->readRemoteVerInfoCmpl.handle, p);
    30a6:	68bb      	ldr	r3, [r7, #8]
    30a8:	781b      	ldrb	r3, [r3, #0]
    30aa:	461a      	mov	r2, r3
    30ac:	68bb      	ldr	r3, [r7, #8]
    30ae:	3301      	adds	r3, #1
    30b0:	781b      	ldrb	r3, [r3, #0]
    30b2:	021b      	lsls	r3, r3, #8
    30b4:	b29b      	uxth	r3, r3
    30b6:	4413      	add	r3, r2
    30b8:	b29a      	uxth	r2, r3
    30ba:	68fb      	ldr	r3, [r7, #12]
    30bc:	80da      	strh	r2, [r3, #6]
    30be:	68bb      	ldr	r3, [r7, #8]
    30c0:	3302      	adds	r3, #2
    30c2:	60bb      	str	r3, [r7, #8]
  BSTREAM_TO_UINT8(pMsg->readRemoteVerInfoCmpl.version, p);
    30c4:	68bb      	ldr	r3, [r7, #8]
    30c6:	1c5a      	adds	r2, r3, #1
    30c8:	60ba      	str	r2, [r7, #8]
    30ca:	781a      	ldrb	r2, [r3, #0]
    30cc:	68fb      	ldr	r3, [r7, #12]
    30ce:	721a      	strb	r2, [r3, #8]
  BSTREAM_TO_UINT16(pMsg->readRemoteVerInfoCmpl.mfrName, p);
    30d0:	68bb      	ldr	r3, [r7, #8]
    30d2:	781b      	ldrb	r3, [r3, #0]
    30d4:	461a      	mov	r2, r3
    30d6:	68bb      	ldr	r3, [r7, #8]
    30d8:	3301      	adds	r3, #1
    30da:	781b      	ldrb	r3, [r3, #0]
    30dc:	021b      	lsls	r3, r3, #8
    30de:	b29b      	uxth	r3, r3
    30e0:	4413      	add	r3, r2
    30e2:	b29a      	uxth	r2, r3
    30e4:	68fb      	ldr	r3, [r7, #12]
    30e6:	815a      	strh	r2, [r3, #10]
    30e8:	68bb      	ldr	r3, [r7, #8]
    30ea:	3302      	adds	r3, #2
    30ec:	60bb      	str	r3, [r7, #8]
  BSTREAM_TO_UINT16(pMsg->readRemoteVerInfoCmpl.subversion, p);
    30ee:	68bb      	ldr	r3, [r7, #8]
    30f0:	781b      	ldrb	r3, [r3, #0]
    30f2:	461a      	mov	r2, r3
    30f4:	68bb      	ldr	r3, [r7, #8]
    30f6:	3301      	adds	r3, #1
    30f8:	781b      	ldrb	r3, [r3, #0]
    30fa:	021b      	lsls	r3, r3, #8
    30fc:	b29b      	uxth	r3, r3
    30fe:	4413      	add	r3, r2
    3100:	b29a      	uxth	r2, r3
    3102:	68fb      	ldr	r3, [r7, #12]
    3104:	819a      	strh	r2, [r3, #12]
    3106:	68bb      	ldr	r3, [r7, #8]
    3108:	3302      	adds	r3, #2
    310a:	60bb      	str	r3, [r7, #8]

  pMsg->hdr.param = pMsg->readRemoteVerInfoCmpl.handle;
    310c:	68fb      	ldr	r3, [r7, #12]
    310e:	88da      	ldrh	r2, [r3, #6]
    3110:	68fb      	ldr	r3, [r7, #12]
    3112:	801a      	strh	r2, [r3, #0]
  pMsg->hdr.status = pMsg->readRemoteVerInfoCmpl.status;
    3114:	68fb      	ldr	r3, [r7, #12]
    3116:	791a      	ldrb	r2, [r3, #4]
    3118:	68fb      	ldr	r3, [r7, #12]
    311a:	70da      	strb	r2, [r3, #3]
}
    311c:	3714      	adds	r7, #20
    311e:	46bd      	mov	sp, r7
    3120:	f85d 7b04 	ldr.w	r7, [sp], #4
    3124:	4770      	bx	lr
    3126:	bf00      	nop

00003128 <hciEvtParseReadLeRemoteFeatCmpl>:
 *
 *  \return None.
 */
/*************************************************************************************************/
static void hciEvtParseReadLeRemoteFeatCmpl(hciEvt_t *pMsg, uint8_t *p, uint8_t len)
{
    3128:	b580      	push	{r7, lr}
    312a:	b084      	sub	sp, #16
    312c:	af00      	add	r7, sp, #0
    312e:	60f8      	str	r0, [r7, #12]
    3130:	60b9      	str	r1, [r7, #8]
    3132:	4613      	mov	r3, r2
    3134:	71fb      	strb	r3, [r7, #7]
  BSTREAM_TO_UINT8(pMsg->leReadRemoteFeatCmpl.status, p);
    3136:	68bb      	ldr	r3, [r7, #8]
    3138:	1c5a      	adds	r2, r3, #1
    313a:	60ba      	str	r2, [r7, #8]
    313c:	781a      	ldrb	r2, [r3, #0]
    313e:	68fb      	ldr	r3, [r7, #12]
    3140:	711a      	strb	r2, [r3, #4]
  BSTREAM_TO_UINT16(pMsg->leReadRemoteFeatCmpl.handle, p);
    3142:	68bb      	ldr	r3, [r7, #8]
    3144:	781b      	ldrb	r3, [r3, #0]
    3146:	461a      	mov	r2, r3
    3148:	68bb      	ldr	r3, [r7, #8]
    314a:	3301      	adds	r3, #1
    314c:	781b      	ldrb	r3, [r3, #0]
    314e:	021b      	lsls	r3, r3, #8
    3150:	b29b      	uxth	r3, r3
    3152:	4413      	add	r3, r2
    3154:	b29a      	uxth	r2, r3
    3156:	68fb      	ldr	r3, [r7, #12]
    3158:	80da      	strh	r2, [r3, #6]
    315a:	68bb      	ldr	r3, [r7, #8]
    315c:	3302      	adds	r3, #2
    315e:	60bb      	str	r3, [r7, #8]
  memcpy(&pMsg->leReadRemoteFeatCmpl.features, p, HCI_FEAT_LEN);
    3160:	68fb      	ldr	r3, [r7, #12]
    3162:	3308      	adds	r3, #8
    3164:	4618      	mov	r0, r3
    3166:	68b9      	ldr	r1, [r7, #8]
    3168:	2208      	movs	r2, #8
    316a:	f006 fd89 	bl	9c80 <memcpy>

  pMsg->hdr.param = pMsg->leReadRemoteFeatCmpl.handle;
    316e:	68fb      	ldr	r3, [r7, #12]
    3170:	88da      	ldrh	r2, [r3, #6]
    3172:	68fb      	ldr	r3, [r7, #12]
    3174:	801a      	strh	r2, [r3, #0]
  pMsg->hdr.status = pMsg->leReadRemoteFeatCmpl.status;
    3176:	68fb      	ldr	r3, [r7, #12]
    3178:	791a      	ldrb	r2, [r3, #4]
    317a:	68fb      	ldr	r3, [r7, #12]
    317c:	70da      	strb	r2, [r3, #3]
}
    317e:	3710      	adds	r7, #16
    3180:	46bd      	mov	sp, r7
    3182:	bd80      	pop	{r7, pc}

00003184 <hciEvtParseLeLtkReqReplCmdCmpl>:
 *
 *  \return None.
 */
/*************************************************************************************************/
static void hciEvtParseLeLtkReqReplCmdCmpl(hciEvt_t *pMsg, uint8_t *p, uint8_t len)
{
    3184:	b480      	push	{r7}
    3186:	b085      	sub	sp, #20
    3188:	af00      	add	r7, sp, #0
    318a:	60f8      	str	r0, [r7, #12]
    318c:	60b9      	str	r1, [r7, #8]
    318e:	4613      	mov	r3, r2
    3190:	71fb      	strb	r3, [r7, #7]
  BSTREAM_TO_UINT8(pMsg->leLtkReqReplCmdCmpl.status, p);
    3192:	68bb      	ldr	r3, [r7, #8]
    3194:	1c5a      	adds	r2, r3, #1
    3196:	60ba      	str	r2, [r7, #8]
    3198:	781a      	ldrb	r2, [r3, #0]
    319a:	68fb      	ldr	r3, [r7, #12]
    319c:	711a      	strb	r2, [r3, #4]
  BSTREAM_TO_UINT16(pMsg->leLtkReqReplCmdCmpl.handle, p);
    319e:	68bb      	ldr	r3, [r7, #8]
    31a0:	781b      	ldrb	r3, [r3, #0]
    31a2:	461a      	mov	r2, r3
    31a4:	68bb      	ldr	r3, [r7, #8]
    31a6:	3301      	adds	r3, #1
    31a8:	781b      	ldrb	r3, [r3, #0]
    31aa:	021b      	lsls	r3, r3, #8
    31ac:	b29b      	uxth	r3, r3
    31ae:	4413      	add	r3, r2
    31b0:	b29a      	uxth	r2, r3
    31b2:	68fb      	ldr	r3, [r7, #12]
    31b4:	80da      	strh	r2, [r3, #6]
    31b6:	68bb      	ldr	r3, [r7, #8]
    31b8:	3302      	adds	r3, #2
    31ba:	60bb      	str	r3, [r7, #8]

  pMsg->hdr.param = pMsg->leLtkReqReplCmdCmpl.handle;
    31bc:	68fb      	ldr	r3, [r7, #12]
    31be:	88da      	ldrh	r2, [r3, #6]
    31c0:	68fb      	ldr	r3, [r7, #12]
    31c2:	801a      	strh	r2, [r3, #0]
  pMsg->hdr.status = pMsg->leLtkReqReplCmdCmpl.status;
    31c4:	68fb      	ldr	r3, [r7, #12]
    31c6:	791a      	ldrb	r2, [r3, #4]
    31c8:	68fb      	ldr	r3, [r7, #12]
    31ca:	70da      	strb	r2, [r3, #3]
}
    31cc:	3714      	adds	r7, #20
    31ce:	46bd      	mov	sp, r7
    31d0:	f85d 7b04 	ldr.w	r7, [sp], #4
    31d4:	4770      	bx	lr
    31d6:	bf00      	nop

000031d8 <hciEvtParseLeLtkReqNegReplCmdCmpl>:
 *
 *  \return None.
 */
/*************************************************************************************************/
static void hciEvtParseLeLtkReqNegReplCmdCmpl(hciEvt_t *pMsg, uint8_t *p, uint8_t len)
{
    31d8:	b480      	push	{r7}
    31da:	b085      	sub	sp, #20
    31dc:	af00      	add	r7, sp, #0
    31de:	60f8      	str	r0, [r7, #12]
    31e0:	60b9      	str	r1, [r7, #8]
    31e2:	4613      	mov	r3, r2
    31e4:	71fb      	strb	r3, [r7, #7]
  BSTREAM_TO_UINT8(pMsg->leLtkReqNegReplCmdCmpl.status, p);
    31e6:	68bb      	ldr	r3, [r7, #8]
    31e8:	1c5a      	adds	r2, r3, #1
    31ea:	60ba      	str	r2, [r7, #8]
    31ec:	781a      	ldrb	r2, [r3, #0]
    31ee:	68fb      	ldr	r3, [r7, #12]
    31f0:	711a      	strb	r2, [r3, #4]
  BSTREAM_TO_UINT16(pMsg->leLtkReqNegReplCmdCmpl.handle, p);
    31f2:	68bb      	ldr	r3, [r7, #8]
    31f4:	781b      	ldrb	r3, [r3, #0]
    31f6:	461a      	mov	r2, r3
    31f8:	68bb      	ldr	r3, [r7, #8]
    31fa:	3301      	adds	r3, #1
    31fc:	781b      	ldrb	r3, [r3, #0]
    31fe:	021b      	lsls	r3, r3, #8
    3200:	b29b      	uxth	r3, r3
    3202:	4413      	add	r3, r2
    3204:	b29a      	uxth	r2, r3
    3206:	68fb      	ldr	r3, [r7, #12]
    3208:	80da      	strh	r2, [r3, #6]
    320a:	68bb      	ldr	r3, [r7, #8]
    320c:	3302      	adds	r3, #2
    320e:	60bb      	str	r3, [r7, #8]

  pMsg->hdr.param = pMsg->leLtkReqNegReplCmdCmpl.handle;
    3210:	68fb      	ldr	r3, [r7, #12]
    3212:	88da      	ldrh	r2, [r3, #6]
    3214:	68fb      	ldr	r3, [r7, #12]
    3216:	801a      	strh	r2, [r3, #0]
  pMsg->hdr.status = pMsg->leLtkReqNegReplCmdCmpl.status;
    3218:	68fb      	ldr	r3, [r7, #12]
    321a:	791a      	ldrb	r2, [r3, #4]
    321c:	68fb      	ldr	r3, [r7, #12]
    321e:	70da      	strb	r2, [r3, #3]
}
    3220:	3714      	adds	r7, #20
    3222:	46bd      	mov	sp, r7
    3224:	f85d 7b04 	ldr.w	r7, [sp], #4
    3228:	4770      	bx	lr
    322a:	bf00      	nop

0000322c <hciEvtParseEncKeyRefreshCmpl>:
 *
 *  \return None.
 */
/*************************************************************************************************/
static void hciEvtParseEncKeyRefreshCmpl(hciEvt_t *pMsg, uint8_t *p, uint8_t len)
{
    322c:	b480      	push	{r7}
    322e:	b085      	sub	sp, #20
    3230:	af00      	add	r7, sp, #0
    3232:	60f8      	str	r0, [r7, #12]
    3234:	60b9      	str	r1, [r7, #8]
    3236:	4613      	mov	r3, r2
    3238:	71fb      	strb	r3, [r7, #7]
  BSTREAM_TO_UINT8(pMsg->encKeyRefreshCmpl.status, p);
    323a:	68bb      	ldr	r3, [r7, #8]
    323c:	1c5a      	adds	r2, r3, #1
    323e:	60ba      	str	r2, [r7, #8]
    3240:	781a      	ldrb	r2, [r3, #0]
    3242:	68fb      	ldr	r3, [r7, #12]
    3244:	711a      	strb	r2, [r3, #4]
  BSTREAM_TO_UINT16(pMsg->encKeyRefreshCmpl.handle, p);
    3246:	68bb      	ldr	r3, [r7, #8]
    3248:	781b      	ldrb	r3, [r3, #0]
    324a:	461a      	mov	r2, r3
    324c:	68bb      	ldr	r3, [r7, #8]
    324e:	3301      	adds	r3, #1
    3250:	781b      	ldrb	r3, [r3, #0]
    3252:	021b      	lsls	r3, r3, #8
    3254:	b29b      	uxth	r3, r3
    3256:	4413      	add	r3, r2
    3258:	b29a      	uxth	r2, r3
    325a:	68fb      	ldr	r3, [r7, #12]
    325c:	80da      	strh	r2, [r3, #6]
    325e:	68bb      	ldr	r3, [r7, #8]
    3260:	3302      	adds	r3, #2
    3262:	60bb      	str	r3, [r7, #8]

  pMsg->hdr.param = pMsg->encKeyRefreshCmpl.handle;
    3264:	68fb      	ldr	r3, [r7, #12]
    3266:	88da      	ldrh	r2, [r3, #6]
    3268:	68fb      	ldr	r3, [r7, #12]
    326a:	801a      	strh	r2, [r3, #0]
  pMsg->hdr.status = pMsg->encKeyRefreshCmpl.status;
    326c:	68fb      	ldr	r3, [r7, #12]
    326e:	791a      	ldrb	r2, [r3, #4]
    3270:	68fb      	ldr	r3, [r7, #12]
    3272:	70da      	strb	r2, [r3, #3]
}
    3274:	3714      	adds	r7, #20
    3276:	46bd      	mov	sp, r7
    3278:	f85d 7b04 	ldr.w	r7, [sp], #4
    327c:	4770      	bx	lr
    327e:	bf00      	nop

00003280 <hciEvtParseEncChange>:
 *
 *  \return None.
 */
/*************************************************************************************************/
static void hciEvtParseEncChange(hciEvt_t *pMsg, uint8_t *p, uint8_t len)
{
    3280:	b480      	push	{r7}
    3282:	b085      	sub	sp, #20
    3284:	af00      	add	r7, sp, #0
    3286:	60f8      	str	r0, [r7, #12]
    3288:	60b9      	str	r1, [r7, #8]
    328a:	4613      	mov	r3, r2
    328c:	71fb      	strb	r3, [r7, #7]
  BSTREAM_TO_UINT8(pMsg->encChange.status, p);
    328e:	68bb      	ldr	r3, [r7, #8]
    3290:	1c5a      	adds	r2, r3, #1
    3292:	60ba      	str	r2, [r7, #8]
    3294:	781a      	ldrb	r2, [r3, #0]
    3296:	68fb      	ldr	r3, [r7, #12]
    3298:	711a      	strb	r2, [r3, #4]
  BSTREAM_TO_UINT16(pMsg->encChange.handle, p);
    329a:	68bb      	ldr	r3, [r7, #8]
    329c:	781b      	ldrb	r3, [r3, #0]
    329e:	461a      	mov	r2, r3
    32a0:	68bb      	ldr	r3, [r7, #8]
    32a2:	3301      	adds	r3, #1
    32a4:	781b      	ldrb	r3, [r3, #0]
    32a6:	021b      	lsls	r3, r3, #8
    32a8:	b29b      	uxth	r3, r3
    32aa:	4413      	add	r3, r2
    32ac:	b29a      	uxth	r2, r3
    32ae:	68fb      	ldr	r3, [r7, #12]
    32b0:	80da      	strh	r2, [r3, #6]
    32b2:	68bb      	ldr	r3, [r7, #8]
    32b4:	3302      	adds	r3, #2
    32b6:	60bb      	str	r3, [r7, #8]
  BSTREAM_TO_UINT8(pMsg->encChange.enabled, p);
    32b8:	68bb      	ldr	r3, [r7, #8]
    32ba:	1c5a      	adds	r2, r3, #1
    32bc:	60ba      	str	r2, [r7, #8]
    32be:	781a      	ldrb	r2, [r3, #0]
    32c0:	68fb      	ldr	r3, [r7, #12]
    32c2:	721a      	strb	r2, [r3, #8]

  pMsg->hdr.param = pMsg->encChange.handle;
    32c4:	68fb      	ldr	r3, [r7, #12]
    32c6:	88da      	ldrh	r2, [r3, #6]
    32c8:	68fb      	ldr	r3, [r7, #12]
    32ca:	801a      	strh	r2, [r3, #0]
  pMsg->hdr.status = pMsg->encChange.status;
    32cc:	68fb      	ldr	r3, [r7, #12]
    32ce:	791a      	ldrb	r2, [r3, #4]
    32d0:	68fb      	ldr	r3, [r7, #12]
    32d2:	70da      	strb	r2, [r3, #3]
}
    32d4:	3714      	adds	r7, #20
    32d6:	46bd      	mov	sp, r7
    32d8:	f85d 7b04 	ldr.w	r7, [sp], #4
    32dc:	4770      	bx	lr
    32de:	bf00      	nop

000032e0 <hciEvtParseLeLtkReq>:
 *
 *  \return None.
 */
/*************************************************************************************************/
static void hciEvtParseLeLtkReq(hciEvt_t *pMsg, uint8_t *p, uint8_t len)
{
    32e0:	b580      	push	{r7, lr}
    32e2:	b084      	sub	sp, #16
    32e4:	af00      	add	r7, sp, #0
    32e6:	60f8      	str	r0, [r7, #12]
    32e8:	60b9      	str	r1, [r7, #8]
    32ea:	4613      	mov	r3, r2
    32ec:	71fb      	strb	r3, [r7, #7]
  BSTREAM_TO_UINT16(pMsg->leLtkReq.handle, p);
    32ee:	68bb      	ldr	r3, [r7, #8]
    32f0:	781b      	ldrb	r3, [r3, #0]
    32f2:	461a      	mov	r2, r3
    32f4:	68bb      	ldr	r3, [r7, #8]
    32f6:	3301      	adds	r3, #1
    32f8:	781b      	ldrb	r3, [r3, #0]
    32fa:	021b      	lsls	r3, r3, #8
    32fc:	b29b      	uxth	r3, r3
    32fe:	4413      	add	r3, r2
    3300:	b29a      	uxth	r2, r3
    3302:	68fb      	ldr	r3, [r7, #12]
    3304:	809a      	strh	r2, [r3, #4]
    3306:	68bb      	ldr	r3, [r7, #8]
    3308:	3302      	adds	r3, #2
    330a:	60bb      	str	r3, [r7, #8]

  memcpy(pMsg->leLtkReq.randNum, p, HCI_RAND_LEN);
    330c:	68fb      	ldr	r3, [r7, #12]
    330e:	3306      	adds	r3, #6
    3310:	4618      	mov	r0, r3
    3312:	68b9      	ldr	r1, [r7, #8]
    3314:	2208      	movs	r2, #8
    3316:	f006 fcb3 	bl	9c80 <memcpy>
  p += HCI_RAND_LEN;
    331a:	68bb      	ldr	r3, [r7, #8]
    331c:	3308      	adds	r3, #8
    331e:	60bb      	str	r3, [r7, #8]

  BSTREAM_TO_UINT16(pMsg->leLtkReq.encDiversifier, p);
    3320:	68bb      	ldr	r3, [r7, #8]
    3322:	781b      	ldrb	r3, [r3, #0]
    3324:	461a      	mov	r2, r3
    3326:	68bb      	ldr	r3, [r7, #8]
    3328:	3301      	adds	r3, #1
    332a:	781b      	ldrb	r3, [r3, #0]
    332c:	021b      	lsls	r3, r3, #8
    332e:	b29b      	uxth	r3, r3
    3330:	4413      	add	r3, r2
    3332:	b29a      	uxth	r2, r3
    3334:	68fb      	ldr	r3, [r7, #12]
    3336:	81da      	strh	r2, [r3, #14]
    3338:	68bb      	ldr	r3, [r7, #8]
    333a:	3302      	adds	r3, #2
    333c:	60bb      	str	r3, [r7, #8]

  pMsg->hdr.param = pMsg->leLtkReq.handle;
    333e:	68fb      	ldr	r3, [r7, #12]
    3340:	889a      	ldrh	r2, [r3, #4]
    3342:	68fb      	ldr	r3, [r7, #12]
    3344:	801a      	strh	r2, [r3, #0]
}
    3346:	3710      	adds	r7, #16
    3348:	46bd      	mov	sp, r7
    334a:	bd80      	pop	{r7, pc}

0000334c <hciEvtParseVendorSpecCmdStatus>:
 *
 *  \return None.
 */
/*************************************************************************************************/
static void hciEvtParseVendorSpecCmdStatus(hciEvt_t *pMsg, uint8_t *p, uint8_t len)
{
    334c:	b480      	push	{r7}
    334e:	b085      	sub	sp, #20
    3350:	af00      	add	r7, sp, #0
    3352:	60f8      	str	r0, [r7, #12]
    3354:	60b9      	str	r1, [r7, #8]
    3356:	4613      	mov	r3, r2
    3358:	71fb      	strb	r3, [r7, #7]
  BSTREAM_TO_UINT16(pMsg->vendorSpecCmdStatus.opcode, p);
    335a:	68bb      	ldr	r3, [r7, #8]
    335c:	781b      	ldrb	r3, [r3, #0]
    335e:	461a      	mov	r2, r3
    3360:	68bb      	ldr	r3, [r7, #8]
    3362:	3301      	adds	r3, #1
    3364:	781b      	ldrb	r3, [r3, #0]
    3366:	021b      	lsls	r3, r3, #8
    3368:	b29b      	uxth	r3, r3
    336a:	4413      	add	r3, r2
    336c:	b29a      	uxth	r2, r3
    336e:	68fb      	ldr	r3, [r7, #12]
    3370:	809a      	strh	r2, [r3, #4]
    3372:	68bb      	ldr	r3, [r7, #8]
    3374:	3302      	adds	r3, #2
    3376:	60bb      	str	r3, [r7, #8]
}
    3378:	3714      	adds	r7, #20
    337a:	46bd      	mov	sp, r7
    337c:	f85d 7b04 	ldr.w	r7, [sp], #4
    3380:	4770      	bx	lr
    3382:	bf00      	nop

00003384 <hciEvtParseVendorSpecCmdCmpl>:
 *
 *  \return None.
 */
/*************************************************************************************************/
static void hciEvtParseVendorSpecCmdCmpl(hciEvt_t *pMsg, uint8_t *p, uint8_t len)
{
    3384:	b480      	push	{r7}
    3386:	b085      	sub	sp, #20
    3388:	af00      	add	r7, sp, #0
    338a:	60f8      	str	r0, [r7, #12]
    338c:	60b9      	str	r1, [r7, #8]
    338e:	4613      	mov	r3, r2
    3390:	71fb      	strb	r3, [r7, #7]
  /* roll pointer back to opcode */
  p -= 2;
    3392:	68bb      	ldr	r3, [r7, #8]
    3394:	3b02      	subs	r3, #2
    3396:	60bb      	str	r3, [r7, #8]
  
  BSTREAM_TO_UINT16(pMsg->vendorSpecCmdCmpl.opcode, p);
    3398:	68bb      	ldr	r3, [r7, #8]
    339a:	781b      	ldrb	r3, [r3, #0]
    339c:	461a      	mov	r2, r3
    339e:	68bb      	ldr	r3, [r7, #8]
    33a0:	3301      	adds	r3, #1
    33a2:	781b      	ldrb	r3, [r3, #0]
    33a4:	021b      	lsls	r3, r3, #8
    33a6:	b29b      	uxth	r3, r3
    33a8:	4413      	add	r3, r2
    33aa:	b29a      	uxth	r2, r3
    33ac:	68fb      	ldr	r3, [r7, #12]
    33ae:	809a      	strh	r2, [r3, #4]
    33b0:	68bb      	ldr	r3, [r7, #8]
    33b2:	3302      	adds	r3, #2
    33b4:	60bb      	str	r3, [r7, #8]
  BSTREAM_TO_UINT8(pMsg->hdr.status, p);
    33b6:	68bb      	ldr	r3, [r7, #8]
    33b8:	1c5a      	adds	r2, r3, #1
    33ba:	60ba      	str	r2, [r7, #8]
    33bc:	781a      	ldrb	r2, [r3, #0]
    33be:	68fb      	ldr	r3, [r7, #12]
    33c0:	70da      	strb	r2, [r3, #3]
  BSTREAM_TO_UINT8(pMsg->vendorSpecCmdCmpl.param[0], p);  
    33c2:	68bb      	ldr	r3, [r7, #8]
    33c4:	1c5a      	adds	r2, r3, #1
    33c6:	60ba      	str	r2, [r7, #8]
    33c8:	781a      	ldrb	r2, [r3, #0]
    33ca:	68fb      	ldr	r3, [r7, #12]
    33cc:	719a      	strb	r2, [r3, #6]
}
    33ce:	3714      	adds	r7, #20
    33d0:	46bd      	mov	sp, r7
    33d2:	f85d 7b04 	ldr.w	r7, [sp], #4
    33d6:	4770      	bx	lr

000033d8 <hciEvtParseVendorSpec>:
 *
 *  \return None.
 */
/*************************************************************************************************/
static void hciEvtParseVendorSpec(hciEvt_t *pMsg, uint8_t *p, uint8_t len)
{
    33d8:	b580      	push	{r7, lr}
    33da:	b084      	sub	sp, #16
    33dc:	af00      	add	r7, sp, #0
    33de:	60f8      	str	r0, [r7, #12]
    33e0:	60b9      	str	r1, [r7, #8]
    33e2:	4613      	mov	r3, r2
    33e4:	71fb      	strb	r3, [r7, #7]
  memcpy(pMsg->vendorSpec.param, p, len);
    33e6:	68fb      	ldr	r3, [r7, #12]
    33e8:	1d1a      	adds	r2, r3, #4
    33ea:	79fb      	ldrb	r3, [r7, #7]
    33ec:	4610      	mov	r0, r2
    33ee:	68b9      	ldr	r1, [r7, #8]
    33f0:	461a      	mov	r2, r3
    33f2:	f006 fc45 	bl	9c80 <memcpy>
}
    33f6:	3710      	adds	r7, #16
    33f8:	46bd      	mov	sp, r7
    33fa:	bd80      	pop	{r7, pc}

000033fc <hciEvtParseHwError>:
 *
 *  \return None.
 */
/*************************************************************************************************/
static void hciEvtParseHwError(hciEvt_t *pMsg, uint8_t *p, uint8_t len)
{
    33fc:	b480      	push	{r7}
    33fe:	b085      	sub	sp, #20
    3400:	af00      	add	r7, sp, #0
    3402:	60f8      	str	r0, [r7, #12]
    3404:	60b9      	str	r1, [r7, #8]
    3406:	4613      	mov	r3, r2
    3408:	71fb      	strb	r3, [r7, #7]
  BSTREAM_TO_UINT8(pMsg->hwError.code, p);
    340a:	68bb      	ldr	r3, [r7, #8]
    340c:	1c5a      	adds	r2, r3, #1
    340e:	60ba      	str	r2, [r7, #8]
    3410:	781a      	ldrb	r2, [r3, #0]
    3412:	68fb      	ldr	r3, [r7, #12]
    3414:	711a      	strb	r2, [r3, #4]
}
    3416:	3714      	adds	r7, #20
    3418:	46bd      	mov	sp, r7
    341a:	f85d 7b04 	ldr.w	r7, [sp], #4
    341e:	4770      	bx	lr

00003420 <hciEvtParseLeEncryptCmdCmpl>:
 *
 *  \return None.
 */
/*************************************************************************************************/
static void hciEvtParseLeEncryptCmdCmpl(hciEvt_t *pMsg, uint8_t *p, uint8_t len)
{
    3420:	b580      	push	{r7, lr}
    3422:	b084      	sub	sp, #16
    3424:	af00      	add	r7, sp, #0
    3426:	60f8      	str	r0, [r7, #12]
    3428:	60b9      	str	r1, [r7, #8]
    342a:	4613      	mov	r3, r2
    342c:	71fb      	strb	r3, [r7, #7]
  BSTREAM_TO_UINT8(pMsg->leEncryptCmdCmpl.status, p);
    342e:	68bb      	ldr	r3, [r7, #8]
    3430:	1c5a      	adds	r2, r3, #1
    3432:	60ba      	str	r2, [r7, #8]
    3434:	781a      	ldrb	r2, [r3, #0]
    3436:	68fb      	ldr	r3, [r7, #12]
    3438:	711a      	strb	r2, [r3, #4]
  memcpy(pMsg->leEncryptCmdCmpl.data, p, HCI_ENCRYPT_DATA_LEN);
    343a:	68fb      	ldr	r3, [r7, #12]
    343c:	3305      	adds	r3, #5
    343e:	4618      	mov	r0, r3
    3440:	68b9      	ldr	r1, [r7, #8]
    3442:	2210      	movs	r2, #16
    3444:	f006 fc1c 	bl	9c80 <memcpy>

  pMsg->hdr.status = pMsg->leEncryptCmdCmpl.status;
    3448:	68fb      	ldr	r3, [r7, #12]
    344a:	791a      	ldrb	r2, [r3, #4]
    344c:	68fb      	ldr	r3, [r7, #12]
    344e:	70da      	strb	r2, [r3, #3]
}
    3450:	3710      	adds	r7, #16
    3452:	46bd      	mov	sp, r7
    3454:	bd80      	pop	{r7, pc}
    3456:	bf00      	nop

00003458 <hciEvtParseLeRandCmdCmpl>:
 *
 *  \return None.
 */
/*************************************************************************************************/
static void hciEvtParseLeRandCmdCmpl(hciEvt_t *pMsg, uint8_t *p, uint8_t len)
{
    3458:	b580      	push	{r7, lr}
    345a:	b084      	sub	sp, #16
    345c:	af00      	add	r7, sp, #0
    345e:	60f8      	str	r0, [r7, #12]
    3460:	60b9      	str	r1, [r7, #8]
    3462:	4613      	mov	r3, r2
    3464:	71fb      	strb	r3, [r7, #7]
  BSTREAM_TO_UINT8(pMsg->leRandCmdCmpl.status, p);
    3466:	68bb      	ldr	r3, [r7, #8]
    3468:	1c5a      	adds	r2, r3, #1
    346a:	60ba      	str	r2, [r7, #8]
    346c:	781a      	ldrb	r2, [r3, #0]
    346e:	68fb      	ldr	r3, [r7, #12]
    3470:	711a      	strb	r2, [r3, #4]
  memcpy(pMsg->leRandCmdCmpl.randNum, p, HCI_RAND_LEN);
    3472:	68fb      	ldr	r3, [r7, #12]
    3474:	3305      	adds	r3, #5
    3476:	4618      	mov	r0, r3
    3478:	68b9      	ldr	r1, [r7, #8]
    347a:	2208      	movs	r2, #8
    347c:	f006 fc00 	bl	9c80 <memcpy>

  pMsg->hdr.status = pMsg->leRandCmdCmpl.status;
    3480:	68fb      	ldr	r3, [r7, #12]
    3482:	791a      	ldrb	r2, [r3, #4]
    3484:	68fb      	ldr	r3, [r7, #12]
    3486:	70da      	strb	r2, [r3, #3]
}
    3488:	3710      	adds	r7, #16
    348a:	46bd      	mov	sp, r7
    348c:	bd80      	pop	{r7, pc}
    348e:	bf00      	nop

00003490 <hciEvtProcessLeAdvReport>:
 *
 *  \return None.
 */
/*************************************************************************************************/
static void hciEvtProcessLeAdvReport(uint8_t *p, uint8_t len)
{
    3490:	b580      	push	{r7, lr}
    3492:	b084      	sub	sp, #16
    3494:	af00      	add	r7, sp, #0
    3496:	6078      	str	r0, [r7, #4]
    3498:	460b      	mov	r3, r1
    349a:	70fb      	strb	r3, [r7, #3]
  hciLeAdvReportEvt_t *pMsg;
  uint8_t             i;
  
  /* get number of reports */
  BSTREAM_TO_UINT8(i, p);
    349c:	687b      	ldr	r3, [r7, #4]
    349e:	1c5a      	adds	r2, r3, #1
    34a0:	607a      	str	r2, [r7, #4]
    34a2:	781b      	ldrb	r3, [r3, #0]
    34a4:	73fb      	strb	r3, [r7, #15]
  
  HCI_TRACE_INFO1("HCI Adv report, num reports: %d", i);
  
  /* sanity check num reports */
  if (i > HCI_MAX_REPORTS)
    34a6:	7bfb      	ldrb	r3, [r7, #15]
    34a8:	2b0f      	cmp	r3, #15
    34aa:	d900      	bls.n	34ae <hciEvtProcessLeAdvReport+0x1e>
  {
    return;
    34ac:	e056      	b.n	355c <hciEvtProcessLeAdvReport+0xcc>
  }
  
  /* allocate temp buffer that can hold max length adv/scan rsp data */
  if ((pMsg = WsfBufAlloc(sizeof(hciLeAdvReportEvt_t) + HCI_ADV_DATA_LEN)) != NULL)
    34ae:	2033      	movs	r0, #51	; 0x33
    34b0:	f001 fa90 	bl	49d4 <WsfBufAlloc>
    34b4:	60b8      	str	r0, [r7, #8]
    34b6:	68bb      	ldr	r3, [r7, #8]
    34b8:	2b00      	cmp	r3, #0
    34ba:	d04f      	beq.n	355c <hciEvtProcessLeAdvReport+0xcc>
  {
    /* parse each report and execute callback */
    while (i-- > 0)
    34bc:	e046      	b.n	354c <hciEvtProcessLeAdvReport+0xbc>
    {
      BSTREAM_TO_UINT8(pMsg->eventType, p);
    34be:	687b      	ldr	r3, [r7, #4]
    34c0:	1c5a      	adds	r2, r3, #1
    34c2:	607a      	str	r2, [r7, #4]
    34c4:	781a      	ldrb	r2, [r3, #0]
    34c6:	68bb      	ldr	r3, [r7, #8]
    34c8:	729a      	strb	r2, [r3, #10]
      BSTREAM_TO_UINT8(pMsg->addrType, p);
    34ca:	687b      	ldr	r3, [r7, #4]
    34cc:	1c5a      	adds	r2, r3, #1
    34ce:	607a      	str	r2, [r7, #4]
    34d0:	781a      	ldrb	r2, [r3, #0]
    34d2:	68bb      	ldr	r3, [r7, #8]
    34d4:	72da      	strb	r2, [r3, #11]
      BSTREAM_TO_BDA(pMsg->addr, p);
    34d6:	68bb      	ldr	r3, [r7, #8]
    34d8:	330c      	adds	r3, #12
    34da:	4618      	mov	r0, r3
    34dc:	6879      	ldr	r1, [r7, #4]
    34de:	f001 f861 	bl	45a4 <BdaCpy>
    34e2:	687b      	ldr	r3, [r7, #4]
    34e4:	3306      	adds	r3, #6
    34e6:	607b      	str	r3, [r7, #4]
      BSTREAM_TO_UINT8(pMsg->len, p);
    34e8:	687b      	ldr	r3, [r7, #4]
    34ea:	1c5a      	adds	r2, r3, #1
    34ec:	607a      	str	r2, [r7, #4]
    34ee:	781a      	ldrb	r2, [r3, #0]
    34f0:	68bb      	ldr	r3, [r7, #8]
    34f2:	721a      	strb	r2, [r3, #8]
      
      HCI_TRACE_INFO1("HCI Adv report, data len: %d", pMsg->len);
      
      /* sanity check on report length; quit if invalid */
      if (pMsg->len > HCI_ADV_DATA_LEN)
    34f4:	68bb      	ldr	r3, [r7, #8]
    34f6:	7a1b      	ldrb	r3, [r3, #8]
    34f8:	2b1f      	cmp	r3, #31
    34fa:	d900      	bls.n	34fe <hciEvtProcessLeAdvReport+0x6e>
      {
        HCI_TRACE_WARN0("Invalid adv report data len");
        break;
    34fc:	e02b      	b.n	3556 <hciEvtProcessLeAdvReport+0xc6>
      }
      
      /* Copy data to space after end of report struct */
      pMsg->pData = (uint8_t *) (pMsg + 1);
    34fe:	68bb      	ldr	r3, [r7, #8]
    3500:	f103 0214 	add.w	r2, r3, #20
    3504:	68bb      	ldr	r3, [r7, #8]
    3506:	605a      	str	r2, [r3, #4]
      memcpy(pMsg->pData, p, pMsg->len);
    3508:	68bb      	ldr	r3, [r7, #8]
    350a:	685a      	ldr	r2, [r3, #4]
    350c:	68bb      	ldr	r3, [r7, #8]
    350e:	7a1b      	ldrb	r3, [r3, #8]
    3510:	4610      	mov	r0, r2
    3512:	6879      	ldr	r1, [r7, #4]
    3514:	461a      	mov	r2, r3
    3516:	f006 fbb3 	bl	9c80 <memcpy>
	  p += pMsg->len;
    351a:	68bb      	ldr	r3, [r7, #8]
    351c:	7a1b      	ldrb	r3, [r3, #8]
    351e:	687a      	ldr	r2, [r7, #4]
    3520:	4413      	add	r3, r2
    3522:	607b      	str	r3, [r7, #4]

      BSTREAM_TO_UINT8(pMsg->rssi, p);
    3524:	687b      	ldr	r3, [r7, #4]
    3526:	1c5a      	adds	r2, r3, #1
    3528:	607a      	str	r2, [r7, #4]
    352a:	781b      	ldrb	r3, [r3, #0]
    352c:	b2da      	uxtb	r2, r3
    352e:	68bb      	ldr	r3, [r7, #8]
    3530:	725a      	strb	r2, [r3, #9]
    
      /* initialize message header */
      pMsg->hdr.param = 0;
    3532:	68bb      	ldr	r3, [r7, #8]
    3534:	2200      	movs	r2, #0
    3536:	801a      	strh	r2, [r3, #0]
      pMsg->hdr.event = HCI_LE_ADV_REPORT_CBACK_EVT;
    3538:	68bb      	ldr	r3, [r7, #8]
    353a:	2205      	movs	r2, #5
    353c:	709a      	strb	r2, [r3, #2]
      pMsg->hdr.status = 0;
    353e:	68bb      	ldr	r3, [r7, #8]
    3540:	2200      	movs	r2, #0
    3542:	70da      	strb	r2, [r3, #3]
      
      /* execute callback */
      (*hciCb.evtCback)((hciEvt_t *) pMsg);
    3544:	4b07      	ldr	r3, [pc, #28]	; (3564 <hciEvtProcessLeAdvReport+0xd4>)
    3546:	689b      	ldr	r3, [r3, #8]
    3548:	68b8      	ldr	r0, [r7, #8]
    354a:	4798      	blx	r3
  
  /* allocate temp buffer that can hold max length adv/scan rsp data */
  if ((pMsg = WsfBufAlloc(sizeof(hciLeAdvReportEvt_t) + HCI_ADV_DATA_LEN)) != NULL)
  {
    /* parse each report and execute callback */
    while (i-- > 0)
    354c:	7bfb      	ldrb	r3, [r7, #15]
    354e:	1e5a      	subs	r2, r3, #1
    3550:	73fa      	strb	r2, [r7, #15]
    3552:	2b00      	cmp	r3, #0
    3554:	d1b3      	bne.n	34be <hciEvtProcessLeAdvReport+0x2e>
      /* execute callback */
      (*hciCb.evtCback)((hciEvt_t *) pMsg);
    }

    /* free buffer */
    WsfBufFree(pMsg);
    3556:	68b8      	ldr	r0, [r7, #8]
    3558:	f001 fa76 	bl	4a48 <WsfBufFree>
  }
}
    355c:	3710      	adds	r7, #16
    355e:	46bd      	mov	sp, r7
    3560:	bd80      	pop	{r7, pc}
    3562:	bf00      	nop
    3564:	10000de4 	.word	0x10000de4

00003568 <hciEvtCmdStatusFailure>:
 *
 *  \return None.
 */
/*************************************************************************************************/
void hciEvtCmdStatusFailure(uint8_t status, uint16_t opcode)
{
    3568:	b480      	push	{r7}
    356a:	b083      	sub	sp, #12
    356c:	af00      	add	r7, sp, #0
    356e:	4602      	mov	r2, r0
    3570:	460b      	mov	r3, r1
    3572:	71fa      	strb	r2, [r7, #7]
    3574:	80bb      	strh	r3, [r7, #4]
  HCI_OPCODE_LE_CONN_UPDATE
  HCI_OPCODE_LE_READ_REMOTE_FEAT
  HCI_OPCODE_LE_START_ENCRYPTION
  HCI_OPCODE_READ_REMOTE_VER_INFO
#endif
}
    3576:	370c      	adds	r7, #12
    3578:	46bd      	mov	sp, r7
    357a:	f85d 7b04 	ldr.w	r7, [sp], #4
    357e:	4770      	bx	lr

00003580 <hciEvtProcessCmdStatus>:
 *
 *  \return None.
 */
/*************************************************************************************************/
void hciEvtProcessCmdStatus(uint8_t *p)
{
    3580:	b580      	push	{r7, lr}
    3582:	b084      	sub	sp, #16
    3584:	af00      	add	r7, sp, #0
    3586:	6078      	str	r0, [r7, #4]
  uint8_t   status;
  uint8_t   numPkts;
  uint16_t  opcode;
  
  BSTREAM_TO_UINT8(status, p);
    3588:	687b      	ldr	r3, [r7, #4]
    358a:	1c5a      	adds	r2, r3, #1
    358c:	607a      	str	r2, [r7, #4]
    358e:	781b      	ldrb	r3, [r3, #0]
    3590:	73fb      	strb	r3, [r7, #15]
  BSTREAM_TO_UINT8(numPkts, p);
    3592:	687b      	ldr	r3, [r7, #4]
    3594:	1c5a      	adds	r2, r3, #1
    3596:	607a      	str	r2, [r7, #4]
    3598:	781b      	ldrb	r3, [r3, #0]
    359a:	73bb      	strb	r3, [r7, #14]
  BSTREAM_TO_UINT16(opcode, p);
    359c:	687b      	ldr	r3, [r7, #4]
    359e:	781b      	ldrb	r3, [r3, #0]
    35a0:	461a      	mov	r2, r3
    35a2:	687b      	ldr	r3, [r7, #4]
    35a4:	3301      	adds	r3, #1
    35a6:	781b      	ldrb	r3, [r3, #0]
    35a8:	021b      	lsls	r3, r3, #8
    35aa:	b29b      	uxth	r3, r3
    35ac:	4413      	add	r3, r2
    35ae:	81bb      	strh	r3, [r7, #12]
    35b0:	687b      	ldr	r3, [r7, #4]
    35b2:	3302      	adds	r3, #2
    35b4:	607b      	str	r3, [r7, #4]
  
  if (status != HCI_SUCCESS)  /* optional: or vendor specific */
    35b6:	7bfb      	ldrb	r3, [r7, #15]
    35b8:	2b00      	cmp	r3, #0
    35ba:	d005      	beq.n	35c8 <hciEvtProcessCmdStatus+0x48>
  {
    hciEvtCmdStatusFailure(status, opcode);
    35bc:	7bfa      	ldrb	r2, [r7, #15]
    35be:	89bb      	ldrh	r3, [r7, #12]
    35c0:	4610      	mov	r0, r2
    35c2:	4619      	mov	r1, r3
    35c4:	f7ff ffd0 	bl	3568 <hciEvtCmdStatusFailure>
  }
  
  /* optional:  handle vendor-specific command status event */
  
  hciCmdRecvCmpl(numPkts);
    35c8:	7bbb      	ldrb	r3, [r7, #14]
    35ca:	4618      	mov	r0, r3
    35cc:	f7fe f8dc 	bl	1788 <hciCmdRecvCmpl>
}
    35d0:	3710      	adds	r7, #16
    35d2:	46bd      	mov	sp, r7
    35d4:	bd80      	pop	{r7, pc}
    35d6:	bf00      	nop

000035d8 <hciEvtProcessCmdCmpl>:
 *
 *  \return None.
 */
/*************************************************************************************************/
void hciEvtProcessCmdCmpl(uint8_t *p, uint8_t len)
{
    35d8:	b580      	push	{r7, lr}
    35da:	b086      	sub	sp, #24
    35dc:	af00      	add	r7, sp, #0
    35de:	6078      	str	r0, [r7, #4]
    35e0:	460b      	mov	r3, r1
    35e2:	70fb      	strb	r3, [r7, #3]
  uint8_t       numPkts;
  uint16_t      opcode;
  hciEvt_t      *pMsg;
  uint8_t       cbackEvt = 0;
    35e4:	2300      	movs	r3, #0
    35e6:	75fb      	strb	r3, [r7, #23]
  hciEvtCback_t cback = hciCb.evtCback;
    35e8:	4b4c      	ldr	r3, [pc, #304]	; (371c <hciEvtProcessCmdCmpl+0x144>)
    35ea:	689b      	ldr	r3, [r3, #8]
    35ec:	613b      	str	r3, [r7, #16]
  
  BSTREAM_TO_UINT8(numPkts, p);
    35ee:	687b      	ldr	r3, [r7, #4]
    35f0:	1c5a      	adds	r2, r3, #1
    35f2:	607a      	str	r2, [r7, #4]
    35f4:	781b      	ldrb	r3, [r3, #0]
    35f6:	73fb      	strb	r3, [r7, #15]
  BSTREAM_TO_UINT16(opcode, p);
    35f8:	687b      	ldr	r3, [r7, #4]
    35fa:	781b      	ldrb	r3, [r3, #0]
    35fc:	461a      	mov	r2, r3
    35fe:	687b      	ldr	r3, [r7, #4]
    3600:	3301      	adds	r3, #1
    3602:	781b      	ldrb	r3, [r3, #0]
    3604:	021b      	lsls	r3, r3, #8
    3606:	b29b      	uxth	r3, r3
    3608:	4413      	add	r3, r2
    360a:	81bb      	strh	r3, [r7, #12]
    360c:	687b      	ldr	r3, [r7, #4]
    360e:	3302      	adds	r3, #2
    3610:	607b      	str	r3, [r7, #4]

  /* convert opcode to internal event code and perform special handling */
  switch (opcode)
    3612:	89bb      	ldrh	r3, [r7, #12]
    3614:	f242 0215 	movw	r2, #8213	; 0x2015
    3618:	4293      	cmp	r3, r2
    361a:	d03b      	beq.n	3694 <hciEvtProcessCmdCmpl+0xbc>
    361c:	f242 0215 	movw	r2, #8213	; 0x2015
    3620:	4293      	cmp	r3, r2
    3622:	dc0c      	bgt.n	363e <hciEvtProcessCmdCmpl+0x66>
    3624:	f241 4205 	movw	r2, #5125	; 0x1405
    3628:	4293      	cmp	r3, r2
    362a:	d036      	beq.n	369a <hciEvtProcessCmdCmpl+0xc2>
    362c:	f242 020e 	movw	r2, #8206	; 0x200e
    3630:	4293      	cmp	r3, r2
    3632:	d01a      	beq.n	366a <hciEvtProcessCmdCmpl+0x92>
    3634:	f640 422d 	movw	r2, #3117	; 0xc2d
    3638:	4293      	cmp	r3, r2
    363a:	d031      	beq.n	36a0 <hciEvtProcessCmdCmpl+0xc8>
    363c:	e033      	b.n	36a6 <hciEvtProcessCmdCmpl+0xce>
    363e:	f242 0218 	movw	r2, #8216	; 0x2018
    3642:	4293      	cmp	r3, r2
    3644:	d020      	beq.n	3688 <hciEvtProcessCmdCmpl+0xb0>
    3646:	f242 0218 	movw	r2, #8216	; 0x2018
    364a:	4293      	cmp	r3, r2
    364c:	dc04      	bgt.n	3658 <hciEvtProcessCmdCmpl+0x80>
    364e:	f242 0217 	movw	r2, #8215	; 0x2017
    3652:	4293      	cmp	r3, r2
    3654:	d00c      	beq.n	3670 <hciEvtProcessCmdCmpl+0x98>
    3656:	e026      	b.n	36a6 <hciEvtProcessCmdCmpl+0xce>
    3658:	f242 021a 	movw	r2, #8218	; 0x201a
    365c:	4293      	cmp	r3, r2
    365e:	d00d      	beq.n	367c <hciEvtProcessCmdCmpl+0xa4>
    3660:	f242 021b 	movw	r2, #8219	; 0x201b
    3664:	4293      	cmp	r3, r2
    3666:	d00c      	beq.n	3682 <hciEvtProcessCmdCmpl+0xaa>
    3668:	e01d      	b.n	36a6 <hciEvtProcessCmdCmpl+0xce>
  {
  case HCI_OPCODE_LE_CREATE_CONN_CANCEL:
    cbackEvt = HCI_LE_CREATE_CONN_CANCEL_CMD_CMPL_CBACK_EVT;
    366a:	2304      	movs	r3, #4
    366c:	75fb      	strb	r3, [r7, #23]
    break;
    366e:	e02a      	b.n	36c6 <hciEvtProcessCmdCmpl+0xee>

  case HCI_OPCODE_LE_ENCRYPT:
    cbackEvt = HCI_LE_ENCRYPT_CMD_CMPL_CBACK_EVT;
    3670:	2314      	movs	r3, #20
    3672:	75fb      	strb	r3, [r7, #23]
    cback = hciCb.secCback;
    3674:	4b29      	ldr	r3, [pc, #164]	; (371c <hciEvtProcessCmdCmpl+0x144>)
    3676:	68db      	ldr	r3, [r3, #12]
    3678:	613b      	str	r3, [r7, #16]
    break;
    367a:	e024      	b.n	36c6 <hciEvtProcessCmdCmpl+0xee>

  case HCI_OPCODE_LE_LTK_REQ_REPL:
    cbackEvt = HCI_LE_LTK_REQ_REPL_CMD_CMPL_CBACK_EVT;
    367c:	230b      	movs	r3, #11
    367e:	75fb      	strb	r3, [r7, #23]
    break;
    3680:	e021      	b.n	36c6 <hciEvtProcessCmdCmpl+0xee>

  case HCI_OPCODE_LE_LTK_REQ_NEG_REPL:
    cbackEvt = HCI_LE_LTK_REQ_NEG_REPL_CMD_CMPL_CBACK_EVT;
    3682:	230c      	movs	r3, #12
    3684:	75fb      	strb	r3, [r7, #23]
    break;
    3686:	e01e      	b.n	36c6 <hciEvtProcessCmdCmpl+0xee>

  case HCI_OPCODE_LE_RAND:
    cbackEvt = HCI_LE_RAND_CMD_CMPL_CBACK_EVT;
    3688:	2315      	movs	r3, #21
    368a:	75fb      	strb	r3, [r7, #23]
    cback = hciCb.secCback;
    368c:	4b23      	ldr	r3, [pc, #140]	; (371c <hciEvtProcessCmdCmpl+0x144>)
    368e:	68db      	ldr	r3, [r3, #12]
    3690:	613b      	str	r3, [r7, #16]
    break;
    3692:	e018      	b.n	36c6 <hciEvtProcessCmdCmpl+0xee>

  case HCI_OPCODE_LE_READ_CHAN_MAP:
    cbackEvt = HCI_LE_READ_CHAN_MAP_CMD_CMPL_CBACK_EVT;
    3694:	2307      	movs	r3, #7
    3696:	75fb      	strb	r3, [r7, #23]
    break;
    3698:	e015      	b.n	36c6 <hciEvtProcessCmdCmpl+0xee>

  case HCI_OPCODE_READ_RSSI:
    cbackEvt = HCI_READ_RSSI_CMD_CMPL_CBACK_EVT;
    369a:	2306      	movs	r3, #6
    369c:	75fb      	strb	r3, [r7, #23]
    break;
    369e:	e012      	b.n	36c6 <hciEvtProcessCmdCmpl+0xee>

  case HCI_OPCODE_READ_TX_PWR_LVL:
    cbackEvt = HCI_READ_TX_PWR_LVL_CMD_CMPL_CBACK_EVT;
    36a0:	2308      	movs	r3, #8
    36a2:	75fb      	strb	r3, [r7, #23]
    break;
    36a4:	e00f      	b.n	36c6 <hciEvtProcessCmdCmpl+0xee>

  default:
    /* test for vendor specific command completion OGF. */
    if (HCI_OGF(opcode) == HCI_OGF_VENDOR_SPEC)
    36a6:	89bb      	ldrh	r3, [r7, #12]
    36a8:	0a9b      	lsrs	r3, r3, #10
    36aa:	b29b      	uxth	r3, r3
    36ac:	2b3f      	cmp	r3, #63	; 0x3f
    36ae:	d109      	bne.n	36c4 <hciEvtProcessCmdCmpl+0xec>
    {
      cbackEvt = hciCoreVsCmdCmplRcvd(opcode, p, len);
    36b0:	89ba      	ldrh	r2, [r7, #12]
    36b2:	78fb      	ldrb	r3, [r7, #3]
    36b4:	4610      	mov	r0, r2
    36b6:	6879      	ldr	r1, [r7, #4]
    36b8:	461a      	mov	r2, r3
    36ba:	f000 fb1b 	bl	3cf4 <hciCoreVsCmdCmplRcvd>
    36be:	4603      	mov	r3, r0
    36c0:	75fb      	strb	r3, [r7, #23]
    }
    break;
    36c2:	e7ff      	b.n	36c4 <hciEvtProcessCmdCmpl+0xec>
    36c4:	bf00      	nop
  }

  /* if callback is executed for this event */
  if (cbackEvt != 0)
    36c6:	7dfb      	ldrb	r3, [r7, #23]
    36c8:	2b00      	cmp	r3, #0
    36ca:	d020      	beq.n	370e <hciEvtProcessCmdCmpl+0x136>
  {
    /* allocate temp buffer */
    if ((pMsg = WsfBufAlloc(hciEvtCbackLen[cbackEvt])) != NULL)
    36cc:	7dfb      	ldrb	r3, [r7, #23]
    36ce:	4a14      	ldr	r2, [pc, #80]	; (3720 <hciEvtProcessCmdCmpl+0x148>)
    36d0:	5cd3      	ldrb	r3, [r2, r3]
    36d2:	4618      	mov	r0, r3
    36d4:	f001 f97e 	bl	49d4 <WsfBufAlloc>
    36d8:	60b8      	str	r0, [r7, #8]
    36da:	68bb      	ldr	r3, [r7, #8]
    36dc:	2b00      	cmp	r3, #0
    36de:	d016      	beq.n	370e <hciEvtProcessCmdCmpl+0x136>
    {
      /* initialize message header */
      pMsg->hdr.param = 0;
    36e0:	68bb      	ldr	r3, [r7, #8]
    36e2:	2200      	movs	r2, #0
    36e4:	801a      	strh	r2, [r3, #0]
      pMsg->hdr.event = cbackEvt;
    36e6:	68bb      	ldr	r3, [r7, #8]
    36e8:	7dfa      	ldrb	r2, [r7, #23]
    36ea:	709a      	strb	r2, [r3, #2]
      pMsg->hdr.status = 0;
    36ec:	68bb      	ldr	r3, [r7, #8]
    36ee:	2200      	movs	r2, #0
    36f0:	70da      	strb	r2, [r3, #3]
      
      /* execute parsing function for the event */
      (*hciEvtParseFcnTbl[cbackEvt])(pMsg, p, len);
    36f2:	7dfa      	ldrb	r2, [r7, #23]
    36f4:	4b0b      	ldr	r3, [pc, #44]	; (3724 <hciEvtProcessCmdCmpl+0x14c>)
    36f6:	f853 3022 	ldr.w	r3, [r3, r2, lsl #2]
    36fa:	78fa      	ldrb	r2, [r7, #3]
    36fc:	68b8      	ldr	r0, [r7, #8]
    36fe:	6879      	ldr	r1, [r7, #4]
    3700:	4798      	blx	r3

      /* execute callback */
      (*cback)(pMsg);
    3702:	693b      	ldr	r3, [r7, #16]
    3704:	68b8      	ldr	r0, [r7, #8]
    3706:	4798      	blx	r3
      
      /* free buffer */
      WsfBufFree(pMsg);
    3708:	68b8      	ldr	r0, [r7, #8]
    370a:	f001 f99d 	bl	4a48 <WsfBufFree>
    }
  }

  hciCmdRecvCmpl(numPkts);
    370e:	7bfb      	ldrb	r3, [r7, #15]
    3710:	4618      	mov	r0, r3
    3712:	f7fe f839 	bl	1788 <hciCmdRecvCmpl>
}
    3716:	3718      	adds	r7, #24
    3718:	46bd      	mov	sp, r7
    371a:	bd80      	pop	{r7, pc}
    371c:	10000de4 	.word	0x10000de4
    3720:	0000ebd4 	.word	0x0000ebd4
    3724:	0000eb7c 	.word	0x0000eb7c

00003728 <hciEvtProcessMsg>:
 *
 *  \return None.
 */
/*************************************************************************************************/
void hciEvtProcessMsg(uint8_t *pEvt)
{
    3728:	b580      	push	{r7, lr}
    372a:	b086      	sub	sp, #24
    372c:	af00      	add	r7, sp, #0
    372e:	6078      	str	r0, [r7, #4]
  uint8_t   evt;
  uint8_t   subEvt;
  uint8_t   len;
  uint8_t   cbackEvt = 0;
    3730:	2300      	movs	r3, #0
    3732:	75fb      	strb	r3, [r7, #23]
  hciEvt_t  *pMsg;
  uint16_t  handle;

  /* parse HCI event header */
  BSTREAM_TO_UINT8(evt, pEvt);
    3734:	687b      	ldr	r3, [r7, #4]
    3736:	1c5a      	adds	r2, r3, #1
    3738:	607a      	str	r2, [r7, #4]
    373a:	781b      	ldrb	r3, [r3, #0]
    373c:	75bb      	strb	r3, [r7, #22]
  BSTREAM_TO_UINT8(len, pEvt);
    373e:	687b      	ldr	r3, [r7, #4]
    3740:	1c5a      	adds	r2, r3, #1
    3742:	607a      	str	r2, [r7, #4]
    3744:	781b      	ldrb	r3, [r3, #0]
    3746:	757b      	strb	r3, [r7, #21]

  /* convert hci event code to internal event code and perform special handling */
  switch (evt)
    3748:	7dbb      	ldrb	r3, [r7, #22]
    374a:	2b10      	cmp	r3, #16
    374c:	f000 80ac 	beq.w	38a8 <hciEvtProcessMsg+0x180>
    3750:	2b10      	cmp	r3, #16
    3752:	dc0e      	bgt.n	3772 <hciEvtProcessMsg+0x4a>
    3754:	2b0c      	cmp	r3, #12
    3756:	f000 808e 	beq.w	3876 <hciEvtProcessMsg+0x14e>
    375a:	2b0c      	cmp	r3, #12
    375c:	dc04      	bgt.n	3768 <hciEvtProcessMsg+0x40>
    375e:	2b05      	cmp	r3, #5
    3760:	d077      	beq.n	3852 <hciEvtProcessMsg+0x12a>
    3762:	2b08      	cmp	r3, #8
    3764:	d07e      	beq.n	3864 <hciEvtProcessMsg+0x13c>
      hciEvtStats.numVendorSpecEvt++;
	  cbackEvt = HCI_VENDOR_SPEC_CBACK_EVT;
      break;
      
    default:
      break;
    3766:	e0b1      	b.n	38cc <hciEvtProcessMsg+0x1a4>
  /* parse HCI event header */
  BSTREAM_TO_UINT8(evt, pEvt);
  BSTREAM_TO_UINT8(len, pEvt);

  /* convert hci event code to internal event code and perform special handling */
  switch (evt)
    3768:	2b0e      	cmp	r3, #14
    376a:	d01d      	beq.n	37a8 <hciEvtProcessMsg+0x80>
    376c:	2b0f      	cmp	r3, #15
    376e:	d011      	beq.n	3794 <hciEvtProcessMsg+0x6c>
      hciEvtStats.numVendorSpecEvt++;
	  cbackEvt = HCI_VENDOR_SPEC_CBACK_EVT;
      break;
      
    default:
      break;
    3770:	e0ac      	b.n	38cc <hciEvtProcessMsg+0x1a4>
  /* parse HCI event header */
  BSTREAM_TO_UINT8(evt, pEvt);
  BSTREAM_TO_UINT8(len, pEvt);

  /* convert hci event code to internal event code and perform special handling */
  switch (evt)
    3772:	2b30      	cmp	r3, #48	; 0x30
    3774:	f000 8088 	beq.w	3888 <hciEvtProcessMsg+0x160>
    3778:	2b30      	cmp	r3, #48	; 0x30
    377a:	dc05      	bgt.n	3788 <hciEvtProcessMsg+0x60>
    377c:	2b13      	cmp	r3, #19
    377e:	d01f      	beq.n	37c0 <hciEvtProcessMsg+0x98>
    3780:	2b1a      	cmp	r3, #26
    3782:	f000 808a 	beq.w	389a <hciEvtProcessMsg+0x172>
      hciEvtStats.numVendorSpecEvt++;
	  cbackEvt = HCI_VENDOR_SPEC_CBACK_EVT;
      break;
      
    default:
      break;
    3786:	e0a1      	b.n	38cc <hciEvtProcessMsg+0x1a4>
  /* parse HCI event header */
  BSTREAM_TO_UINT8(evt, pEvt);
  BSTREAM_TO_UINT8(len, pEvt);

  /* convert hci event code to internal event code and perform special handling */
  switch (evt)
    3788:	2b3e      	cmp	r3, #62	; 0x3e
    378a:	d023      	beq.n	37d4 <hciEvtProcessMsg+0xac>
    378c:	2bff      	cmp	r3, #255	; 0xff
    378e:	f000 8094 	beq.w	38ba <hciEvtProcessMsg+0x192>
      hciEvtStats.numVendorSpecEvt++;
	  cbackEvt = HCI_VENDOR_SPEC_CBACK_EVT;
      break;
      
    default:
      break;
    3792:	e09b      	b.n	38cc <hciEvtProcessMsg+0x1a4>
  /* convert hci event code to internal event code and perform special handling */
  switch (evt)
  {
    case HCI_CMD_STATUS_EVT:
      /* special handling for command status event */
      hciEvtStats.numCmdStatusEvt++;
    3794:	4b6a      	ldr	r3, [pc, #424]	; (3940 <hciEvtProcessMsg+0x218>)
    3796:	891b      	ldrh	r3, [r3, #8]
    3798:	3301      	adds	r3, #1
    379a:	b29a      	uxth	r2, r3
    379c:	4b68      	ldr	r3, [pc, #416]	; (3940 <hciEvtProcessMsg+0x218>)
    379e:	811a      	strh	r2, [r3, #8]
      hciEvtProcessCmdStatus(pEvt);
    37a0:	6878      	ldr	r0, [r7, #4]
    37a2:	f7ff feed 	bl	3580 <hciEvtProcessCmdStatus>
      break;
    37a6:	e091      	b.n	38cc <hciEvtProcessMsg+0x1a4>
      
    case HCI_CMD_CMPL_EVT:
      /* special handling for command complete event */
      hciEvtStats.numCmdCmplEvt++;
    37a8:	4b65      	ldr	r3, [pc, #404]	; (3940 <hciEvtProcessMsg+0x218>)
    37aa:	88db      	ldrh	r3, [r3, #6]
    37ac:	3301      	adds	r3, #1
    37ae:	b29a      	uxth	r2, r3
    37b0:	4b63      	ldr	r3, [pc, #396]	; (3940 <hciEvtProcessMsg+0x218>)
    37b2:	80da      	strh	r2, [r3, #6]
      hciEvtProcessCmdCmpl(pEvt, len);
    37b4:	7d7b      	ldrb	r3, [r7, #21]
    37b6:	6878      	ldr	r0, [r7, #4]
    37b8:	4619      	mov	r1, r3
    37ba:	f7ff ff0d 	bl	35d8 <hciEvtProcessCmdCmpl>
        {
          cbackEvt = HCI_LE_CONN_CMPL_CBACK_EVT;
        }
      }
#endif
      break;
    37be:	e085      	b.n	38cc <hciEvtProcessMsg+0x1a4>

    case HCI_NUM_CMPL_PKTS_EVT:
      /* handled internally by hci */
      hciCoreNumCmplPkts(pEvt);
    37c0:	6878      	ldr	r0, [r7, #4]
    37c2:	f7fe fefb 	bl	25bc <hciCoreNumCmplPkts>
      hciEvtStats.numCmplPktsEvt++;
    37c6:	4b5e      	ldr	r3, [pc, #376]	; (3940 <hciEvtProcessMsg+0x218>)
    37c8:	899b      	ldrh	r3, [r3, #12]
    37ca:	3301      	adds	r3, #1
    37cc:	b29a      	uxth	r2, r3
    37ce:	4b5c      	ldr	r3, [pc, #368]	; (3940 <hciEvtProcessMsg+0x218>)
    37d0:	819a      	strh	r2, [r3, #12]
      break;
    37d2:	e07b      	b.n	38cc <hciEvtProcessMsg+0x1a4>

    case HCI_LE_META_EVT:
      BSTREAM_TO_UINT8(subEvt, pEvt);
    37d4:	687b      	ldr	r3, [r7, #4]
    37d6:	1c5a      	adds	r2, r3, #1
    37d8:	607a      	str	r2, [r7, #4]
    37da:	781b      	ldrb	r3, [r3, #0]
    37dc:	753b      	strb	r3, [r7, #20]
      hciEvtStats.numLeMetaEvt++;
    37de:	4b58      	ldr	r3, [pc, #352]	; (3940 <hciEvtProcessMsg+0x218>)
    37e0:	8a5b      	ldrh	r3, [r3, #18]
    37e2:	3301      	adds	r3, #1
    37e4:	b29a      	uxth	r2, r3
    37e6:	4b56      	ldr	r3, [pc, #344]	; (3940 <hciEvtProcessMsg+0x218>)
    37e8:	825a      	strh	r2, [r3, #18]
      switch (subEvt)
    37ea:	7d3b      	ldrb	r3, [r7, #20]
    37ec:	3b01      	subs	r3, #1
    37ee:	2b04      	cmp	r3, #4
    37f0:	d82d      	bhi.n	384e <hciEvtProcessMsg+0x126>
    37f2:	a201      	add	r2, pc, #4	; (adr r2, 37f8 <hciEvtProcessMsg+0xd0>)
    37f4:	f852 f023 	ldr.w	pc, [r2, r3, lsl #2]
    37f8:	0000380d 	.word	0x0000380d
    37fc:	00003831 	.word	0x00003831
    3800:	0000383d 	.word	0x0000383d
    3804:	00003843 	.word	0x00003843
    3808:	00003849 	.word	0x00003849
      {
        case HCI_LE_CONN_CMPL_EVT:
          BYTES_TO_UINT16(handle, (pEvt + 1));
    380c:	687b      	ldr	r3, [r7, #4]
    380e:	3301      	adds	r3, #1
    3810:	781b      	ldrb	r3, [r3, #0]
    3812:	461a      	mov	r2, r3
    3814:	687b      	ldr	r3, [r7, #4]
    3816:	3302      	adds	r3, #2
    3818:	781b      	ldrb	r3, [r3, #0]
    381a:	021b      	lsls	r3, r3, #8
    381c:	b29b      	uxth	r3, r3
    381e:	4413      	add	r3, r2
    3820:	827b      	strh	r3, [r7, #18]
          hciCoreConnOpen(handle);
    3822:	8a7b      	ldrh	r3, [r7, #18]
    3824:	4618      	mov	r0, r3
    3826:	f7fe fbd3 	bl	1fd0 <hciCoreConnOpen>
          cbackEvt = HCI_LE_CONN_CMPL_CBACK_EVT;
    382a:	2301      	movs	r3, #1
    382c:	75fb      	strb	r3, [r7, #23]
          break;
    382e:	e00f      	b.n	3850 <hciEvtProcessMsg+0x128>

        case HCI_LE_ADV_REPORT_EVT:
          /* special case for advertising report */
          hciEvtProcessLeAdvReport(pEvt, len);
    3830:	7d7b      	ldrb	r3, [r7, #21]
    3832:	6878      	ldr	r0, [r7, #4]
    3834:	4619      	mov	r1, r3
    3836:	f7ff fe2b 	bl	3490 <hciEvtProcessLeAdvReport>
          break;
    383a:	e009      	b.n	3850 <hciEvtProcessMsg+0x128>

        case HCI_LE_CONN_UPDATE_CMPL_EVT:
          cbackEvt = HCI_LE_CONN_UPDATE_CMPL_CBACK_EVT;
    383c:	2303      	movs	r3, #3
    383e:	75fb      	strb	r3, [r7, #23]
          break;
    3840:	e006      	b.n	3850 <hciEvtProcessMsg+0x128>

        case HCI_LE_READ_REMOTE_FEAT_CMPL_EVT:
          cbackEvt = HCI_LE_READ_REMOTE_FEAT_CMPL_CBACK_EVT;
    3842:	230a      	movs	r3, #10
    3844:	75fb      	strb	r3, [r7, #23]
          break;
    3846:	e003      	b.n	3850 <hciEvtProcessMsg+0x128>

        case HCI_LE_LTK_REQ_EVT:
          cbackEvt = HCI_LE_LTK_REQ_CBACK_EVT;
    3848:	230f      	movs	r3, #15
    384a:	75fb      	strb	r3, [r7, #23]
          break;
    384c:	e000      	b.n	3850 <hciEvtProcessMsg+0x128>
          
        default:
          break;
    384e:	bf00      	nop
      }
      break;
    3850:	e03c      	b.n	38cc <hciEvtProcessMsg+0x1a4>

    case HCI_DISCONNECT_CMPL_EVT:
      hciEvtStats.numDiscCmplEvt++;
    3852:	4b3b      	ldr	r3, [pc, #236]	; (3940 <hciEvtProcessMsg+0x218>)
    3854:	881b      	ldrh	r3, [r3, #0]
    3856:	3301      	adds	r3, #1
    3858:	b29a      	uxth	r2, r3
    385a:	4b39      	ldr	r3, [pc, #228]	; (3940 <hciEvtProcessMsg+0x218>)
    385c:	801a      	strh	r2, [r3, #0]
      cbackEvt = HCI_DISCONNECT_CMPL_CBACK_EVT;
    385e:	2302      	movs	r3, #2
    3860:	75fb      	strb	r3, [r7, #23]
      break;
    3862:	e033      	b.n	38cc <hciEvtProcessMsg+0x1a4>

    case HCI_ENC_CHANGE_EVT:
      hciEvtStats.numEncChangeEvt++;
    3864:	4b36      	ldr	r3, [pc, #216]	; (3940 <hciEvtProcessMsg+0x218>)
    3866:	885b      	ldrh	r3, [r3, #2]
    3868:	3301      	adds	r3, #1
    386a:	b29a      	uxth	r2, r3
    386c:	4b34      	ldr	r3, [pc, #208]	; (3940 <hciEvtProcessMsg+0x218>)
    386e:	805a      	strh	r2, [r3, #2]
      cbackEvt = HCI_ENC_CHANGE_CBACK_EVT;
    3870:	230e      	movs	r3, #14
    3872:	75fb      	strb	r3, [r7, #23]
      break;
    3874:	e02a      	b.n	38cc <hciEvtProcessMsg+0x1a4>

    case HCI_READ_REMOTE_VER_INFO_CMPL_EVT:
      hciEvtStats.numReadRemoteVerInfoCmpEvt++;
    3876:	4b32      	ldr	r3, [pc, #200]	; (3940 <hciEvtProcessMsg+0x218>)
    3878:	889b      	ldrh	r3, [r3, #4]
    387a:	3301      	adds	r3, #1
    387c:	b29a      	uxth	r2, r3
    387e:	4b30      	ldr	r3, [pc, #192]	; (3940 <hciEvtProcessMsg+0x218>)
    3880:	809a      	strh	r2, [r3, #4]
      cbackEvt = HCI_READ_REMOTE_VER_INFO_CMPL_CBACK_EVT;
    3882:	2309      	movs	r3, #9
    3884:	75fb      	strb	r3, [r7, #23]
      break;
    3886:	e021      	b.n	38cc <hciEvtProcessMsg+0x1a4>

    case HCI_ENC_KEY_REFRESH_CMPL_EVT:
      hciEvtStats.numEncKeyRefreshCmplEvt++;
    3888:	4b2d      	ldr	r3, [pc, #180]	; (3940 <hciEvtProcessMsg+0x218>)
    388a:	8a1b      	ldrh	r3, [r3, #16]
    388c:	3301      	adds	r3, #1
    388e:	b29a      	uxth	r2, r3
    3890:	4b2b      	ldr	r3, [pc, #172]	; (3940 <hciEvtProcessMsg+0x218>)
    3892:	821a      	strh	r2, [r3, #16]
      cbackEvt = HCI_ENC_KEY_REFRESH_CMPL_CBACK_EVT;
    3894:	230d      	movs	r3, #13
    3896:	75fb      	strb	r3, [r7, #23]
      break;
    3898:	e018      	b.n	38cc <hciEvtProcessMsg+0x1a4>

    case HCI_DATA_BUF_OVERFLOW_EVT:
      /* handled internally by hci */
      /* optional */
      hciEvtStats.numDataBufOverflowEvt++;
    389a:	4b29      	ldr	r3, [pc, #164]	; (3940 <hciEvtProcessMsg+0x218>)
    389c:	89db      	ldrh	r3, [r3, #14]
    389e:	3301      	adds	r3, #1
    38a0:	b29a      	uxth	r2, r3
    38a2:	4b27      	ldr	r3, [pc, #156]	; (3940 <hciEvtProcessMsg+0x218>)
    38a4:	81da      	strh	r2, [r3, #14]
      break;
    38a6:	e011      	b.n	38cc <hciEvtProcessMsg+0x1a4>

    case HCI_HW_ERROR_EVT:
      hciEvtStats.numHwErrorEvt++;
    38a8:	4b25      	ldr	r3, [pc, #148]	; (3940 <hciEvtProcessMsg+0x218>)
    38aa:	895b      	ldrh	r3, [r3, #10]
    38ac:	3301      	adds	r3, #1
    38ae:	b29a      	uxth	r2, r3
    38b0:	4b23      	ldr	r3, [pc, #140]	; (3940 <hciEvtProcessMsg+0x218>)
    38b2:	815a      	strh	r2, [r3, #10]
      cbackEvt = HCI_HW_ERROR_CBACK_EVT;
    38b4:	2313      	movs	r3, #19
    38b6:	75fb      	strb	r3, [r7, #23]
      break;
    38b8:	e008      	b.n	38cc <hciEvtProcessMsg+0x1a4>
      /* for nonstandard controllers that send a vendor-specific event instead
       * of a command complete event
       */
      hciCmdRecvCmpl(1);
#endif      
      hciEvtStats.numVendorSpecEvt++;
    38ba:	4b21      	ldr	r3, [pc, #132]	; (3940 <hciEvtProcessMsg+0x218>)
    38bc:	8a9b      	ldrh	r3, [r3, #20]
    38be:	3301      	adds	r3, #1
    38c0:	b29a      	uxth	r2, r3
    38c2:	4b1f      	ldr	r3, [pc, #124]	; (3940 <hciEvtProcessMsg+0x218>)
    38c4:	829a      	strh	r2, [r3, #20]
	  cbackEvt = HCI_VENDOR_SPEC_CBACK_EVT;
    38c6:	2312      	movs	r3, #18
    38c8:	75fb      	strb	r3, [r7, #23]
      break;
    38ca:	bf00      	nop
    default:
      break;
  }
  
  /* if callback is executed for this event */
  if (cbackEvt != 0)
    38cc:	7dfb      	ldrb	r3, [r7, #23]
    38ce:	2b00      	cmp	r3, #0
    38d0:	d033      	beq.n	393a <hciEvtProcessMsg+0x212>
  {
    /* allocate temp buffer */
    if ((pMsg = WsfBufAlloc(hciEvtCbackLen[cbackEvt])) != NULL)
    38d2:	7dfb      	ldrb	r3, [r7, #23]
    38d4:	4a1b      	ldr	r2, [pc, #108]	; (3944 <hciEvtProcessMsg+0x21c>)
    38d6:	5cd3      	ldrb	r3, [r2, r3]
    38d8:	4618      	mov	r0, r3
    38da:	f001 f87b 	bl	49d4 <WsfBufAlloc>
    38de:	60f8      	str	r0, [r7, #12]
    38e0:	68fb      	ldr	r3, [r7, #12]
    38e2:	2b00      	cmp	r3, #0
    38e4:	d017      	beq.n	3916 <hciEvtProcessMsg+0x1ee>
    {
      /* initialize message header */
      pMsg->hdr.param = 0;
    38e6:	68fb      	ldr	r3, [r7, #12]
    38e8:	2200      	movs	r2, #0
    38ea:	801a      	strh	r2, [r3, #0]
      pMsg->hdr.event = cbackEvt;
    38ec:	68fb      	ldr	r3, [r7, #12]
    38ee:	7dfa      	ldrb	r2, [r7, #23]
    38f0:	709a      	strb	r2, [r3, #2]
      pMsg->hdr.status = 0;
    38f2:	68fb      	ldr	r3, [r7, #12]
    38f4:	2200      	movs	r2, #0
    38f6:	70da      	strb	r2, [r3, #3]
      
      /* execute parsing function for the event */
      (*hciEvtParseFcnTbl[cbackEvt])(pMsg, pEvt, len);
    38f8:	7dfa      	ldrb	r2, [r7, #23]
    38fa:	4b13      	ldr	r3, [pc, #76]	; (3948 <hciEvtProcessMsg+0x220>)
    38fc:	f853 3022 	ldr.w	r3, [r3, r2, lsl #2]
    3900:	7d7a      	ldrb	r2, [r7, #21]
    3902:	68f8      	ldr	r0, [r7, #12]
    3904:	6879      	ldr	r1, [r7, #4]
    3906:	4798      	blx	r3

      /* execute callback */
      (*hciCb.evtCback)(pMsg);
    3908:	4b10      	ldr	r3, [pc, #64]	; (394c <hciEvtProcessMsg+0x224>)
    390a:	689b      	ldr	r3, [r3, #8]
    390c:	68f8      	ldr	r0, [r7, #12]
    390e:	4798      	blx	r3
      
      /* free buffer */
      WsfBufFree(pMsg);
    3910:	68f8      	ldr	r0, [r7, #12]
    3912:	f001 f899 	bl	4a48 <WsfBufFree>
    }
    
    /* execute core procedure for connection close close after callback */
    if (cbackEvt == HCI_DISCONNECT_CMPL_CBACK_EVT)
    3916:	7dfb      	ldrb	r3, [r7, #23]
    3918:	2b02      	cmp	r3, #2
    391a:	d10e      	bne.n	393a <hciEvtProcessMsg+0x212>
    {
      BYTES_TO_UINT16(handle, (pEvt + 1));
    391c:	687b      	ldr	r3, [r7, #4]
    391e:	3301      	adds	r3, #1
    3920:	781b      	ldrb	r3, [r3, #0]
    3922:	461a      	mov	r2, r3
    3924:	687b      	ldr	r3, [r7, #4]
    3926:	3302      	adds	r3, #2
    3928:	781b      	ldrb	r3, [r3, #0]
    392a:	021b      	lsls	r3, r3, #8
    392c:	b29b      	uxth	r3, r3
    392e:	4413      	add	r3, r2
    3930:	827b      	strh	r3, [r7, #18]
      hciCoreConnClose(handle);
    3932:	8a7b      	ldrh	r3, [r7, #18]
    3934:	4618      	mov	r0, r3
    3936:	f7fe fb57 	bl	1fe8 <hciCoreConnClose>
    }
  }
}
    393a:	3718      	adds	r7, #24
    393c:	46bd      	mov	sp, r7
    393e:	bd80      	pop	{r7, pc}
    3940:	100004f0 	.word	0x100004f0
    3944:	0000ebd4 	.word	0x0000ebd4
    3948:	0000eb7c 	.word	0x0000eb7c
    394c:	10000de4 	.word	0x10000de4

00003950 <hciTrSendAclData>:
 *
 *  \return None.
 */
/*************************************************************************************************/
void hciTrSendAclData(void *pContext, uint8_t *pData)
{
    3950:	b580      	push	{r7, lr}
    3952:	b084      	sub	sp, #16
    3954:	af00      	add	r7, sp, #0
    3956:	6078      	str	r0, [r7, #4]
    3958:	6039      	str	r1, [r7, #0]
  uint16_t   len;

  /* get 16-bit length */
  BYTES_TO_UINT16(len, &pData[2]);
    395a:	683b      	ldr	r3, [r7, #0]
    395c:	3302      	adds	r3, #2
    395e:	781b      	ldrb	r3, [r3, #0]
    3960:	461a      	mov	r2, r3
    3962:	683b      	ldr	r3, [r7, #0]
    3964:	3303      	adds	r3, #3
    3966:	781b      	ldrb	r3, [r3, #0]
    3968:	021b      	lsls	r3, r3, #8
    396a:	b29b      	uxth	r3, r3
    396c:	4413      	add	r3, r2
    396e:	81fb      	strh	r3, [r7, #14]
  len += HCI_ACL_HDR_LEN;
    3970:	89fb      	ldrh	r3, [r7, #14]
    3972:	3304      	adds	r3, #4
    3974:	81fb      	strh	r3, [r7, #14]

  /* dump event for protocol analysis */
  HCI_PDUMP_TX_ACL(len, pData);

  /* transmit ACL header and data */
  if (hciDrvWrite(HCI_ACL_TYPE, len, pData) == len)
    3976:	89fb      	ldrh	r3, [r7, #14]
    3978:	2002      	movs	r0, #2
    397a:	4619      	mov	r1, r3
    397c:	683a      	ldr	r2, [r7, #0]
    397e:	f7ff f81b 	bl	29b8 <hciDrvWrite>
    3982:	4603      	mov	r3, r0
    3984:	89fa      	ldrh	r2, [r7, #14]
    3986:	429a      	cmp	r2, r3
    3988:	d103      	bne.n	3992 <hciTrSendAclData+0x42>
  {
    /* free buffer */
    hciCoreTxAclComplete(pContext, pData);
    398a:	6878      	ldr	r0, [r7, #4]
    398c:	6839      	ldr	r1, [r7, #0]
    398e:	f7fe fc61 	bl	2254 <hciCoreTxAclComplete>
  }
}
    3992:	3710      	adds	r7, #16
    3994:	46bd      	mov	sp, r7
    3996:	bd80      	pop	{r7, pc}

00003998 <hciTrSendCmd>:
 *
 *  \return None.
 */
/*************************************************************************************************/
void hciTrSendCmd(uint8_t *pData)
{
    3998:	b580      	push	{r7, lr}
    399a:	b084      	sub	sp, #16
    399c:	af00      	add	r7, sp, #0
    399e:	6078      	str	r0, [r7, #4]
  uint8_t   len;

  /* get length */
  len = pData[2] + HCI_CMD_HDR_LEN;
    39a0:	687b      	ldr	r3, [r7, #4]
    39a2:	3302      	adds	r3, #2
    39a4:	781b      	ldrb	r3, [r3, #0]
    39a6:	3303      	adds	r3, #3
    39a8:	73fb      	strb	r3, [r7, #15]

  /* dump event for protocol analysis */
  HCI_PDUMP_CMD(len, pData);

  /* transmit ACL header and data */
  if (hciDrvWrite(HCI_CMD_TYPE, len, pData) == len)
    39aa:	7bfb      	ldrb	r3, [r7, #15]
    39ac:	b29b      	uxth	r3, r3
    39ae:	2001      	movs	r0, #1
    39b0:	4619      	mov	r1, r3
    39b2:	687a      	ldr	r2, [r7, #4]
    39b4:	f7ff f800 	bl	29b8 <hciDrvWrite>
    39b8:	4603      	mov	r3, r0
    39ba:	461a      	mov	r2, r3
    39bc:	7bfb      	ldrb	r3, [r7, #15]
    39be:	b29b      	uxth	r3, r3
    39c0:	429a      	cmp	r2, r3
    39c2:	d102      	bne.n	39ca <hciTrSendCmd+0x32>
  {
    /* free buffer */
    WsfMsgFree(pData);
    39c4:	6878      	ldr	r0, [r7, #4]
    39c6:	f001 f891 	bl	4aec <WsfMsgFree>
  }
}
    39ca:	3710      	adds	r7, #16
    39cc:	46bd      	mov	sp, r7
    39ce:	bd80      	pop	{r7, pc}

000039d0 <hciTrSerialRxIncoming>:
 *
 *  \return None.
 */
/*************************************************************************************************/
void hciTrSerialRxIncoming(uint8_t *pBuf, uint8_t len)
{
    39d0:	b580      	push	{r7, lr}
    39d2:	b084      	sub	sp, #16
    39d4:	af00      	add	r7, sp, #0
    39d6:	6078      	str	r0, [r7, #4]
    39d8:	460b      	mov	r3, r1
    39da:	70fb      	strb	r3, [r7, #3]
  static uint8_t    *pDataRx;

  uint8_t dataByte;

  /* loop until all bytes of incoming buffer are handled */
  while (len--)
    39dc:	e0b2      	b.n	3b44 <hciTrSerialRxIncoming+0x174>
  {
    /* read single byte from incoming buffer and advance to next byte */
    dataByte = *pBuf++;
    39de:	687b      	ldr	r3, [r7, #4]
    39e0:	1c5a      	adds	r2, r3, #1
    39e2:	607a      	str	r2, [r7, #4]
    39e4:	781b      	ldrb	r3, [r3, #0]
    39e6:	72bb      	strb	r3, [r7, #10]

    /* --- Idle State --- */
    if (stateRx == HCI_RX_STATE_IDLE)
    39e8:	4b5b      	ldr	r3, [pc, #364]	; (3b58 <hciTrSerialRxIncoming+0x188>)
    39ea:	781b      	ldrb	r3, [r3, #0]
    39ec:	2b00      	cmp	r3, #0
    39ee:	d10c      	bne.n	3a0a <hciTrSerialRxIncoming+0x3a>
    {
      /* save the packet type */
      pktIndRx = dataByte;
    39f0:	4b5a      	ldr	r3, [pc, #360]	; (3b5c <hciTrSerialRxIncoming+0x18c>)
    39f2:	7aba      	ldrb	r2, [r7, #10]
    39f4:	701a      	strb	r2, [r3, #0]
      iRx      = 0;
    39f6:	4b5a      	ldr	r3, [pc, #360]	; (3b60 <hciTrSerialRxIncoming+0x190>)
    39f8:	2200      	movs	r2, #0
    39fa:	801a      	strh	r2, [r3, #0]
      stateRx  = HCI_RX_STATE_HEADER;
    39fc:	4b56      	ldr	r3, [pc, #344]	; (3b58 <hciTrSerialRxIncoming+0x188>)
    39fe:	2201      	movs	r2, #1
    3a00:	701a      	strb	r2, [r3, #0]
      g_bHCIReceivingPacket = TRUE;
    3a02:	4b58      	ldr	r3, [pc, #352]	; (3b64 <hciTrSerialRxIncoming+0x194>)
    3a04:	2201      	movs	r2, #1
    3a06:	701a      	strb	r2, [r3, #0]
    3a08:	e086      	b.n	3b18 <hciTrSerialRxIncoming+0x148>
    }

    /* --- Header State --- */
    else if (stateRx == HCI_RX_STATE_HEADER)
    3a0a:	4b53      	ldr	r3, [pc, #332]	; (3b58 <hciTrSerialRxIncoming+0x188>)
    3a0c:	781b      	ldrb	r3, [r3, #0]
    3a0e:	2b01      	cmp	r3, #1
    3a10:	d16a      	bne.n	3ae8 <hciTrSerialRxIncoming+0x118>
    {
      uint8_t  hdrLen = 0;
    3a12:	2300      	movs	r3, #0
    3a14:	73fb      	strb	r3, [r7, #15]
      uint16_t dataLen = 0;
    3a16:	2300      	movs	r3, #0
    3a18:	81bb      	strh	r3, [r7, #12]

      /* copy current byte into the temp header buffer */
      hdrRx[iRx++] = dataByte;
    3a1a:	4b51      	ldr	r3, [pc, #324]	; (3b60 <hciTrSerialRxIncoming+0x190>)
    3a1c:	881b      	ldrh	r3, [r3, #0]
    3a1e:	1c5a      	adds	r2, r3, #1
    3a20:	b291      	uxth	r1, r2
    3a22:	4a4f      	ldr	r2, [pc, #316]	; (3b60 <hciTrSerialRxIncoming+0x190>)
    3a24:	8011      	strh	r1, [r2, #0]
    3a26:	4a50      	ldr	r2, [pc, #320]	; (3b68 <hciTrSerialRxIncoming+0x198>)
    3a28:	7ab9      	ldrb	r1, [r7, #10]
    3a2a:	54d1      	strb	r1, [r2, r3]

      /* determine header length based on packet type */
      if (pktIndRx == HCI_EVT_TYPE)
    3a2c:	4b4b      	ldr	r3, [pc, #300]	; (3b5c <hciTrSerialRxIncoming+0x18c>)
    3a2e:	781b      	ldrb	r3, [r3, #0]
    3a30:	2b04      	cmp	r3, #4
    3a32:	d102      	bne.n	3a3a <hciTrSerialRxIncoming+0x6a>
      {
        hdrLen = HCI_EVT_HDR_LEN;
    3a34:	2302      	movs	r3, #2
    3a36:	73fb      	strb	r3, [r7, #15]
    3a38:	e005      	b.n	3a46 <hciTrSerialRxIncoming+0x76>
      }
      else if (pktIndRx == HCI_ACL_TYPE)
    3a3a:	4b48      	ldr	r3, [pc, #288]	; (3b5c <hciTrSerialRxIncoming+0x18c>)
    3a3c:	781b      	ldrb	r3, [r3, #0]
    3a3e:	2b02      	cmp	r3, #2
    3a40:	d101      	bne.n	3a46 <hciTrSerialRxIncoming+0x76>
      {
        hdrLen = HCI_ACL_HDR_LEN;
    3a42:	2304      	movs	r3, #4
    3a44:	73fb      	strb	r3, [r7, #15]
        /* invalid packet type */
        WSF_ASSERT(0);
      }

      /* see if entire header has been read */
      if (iRx == hdrLen)
    3a46:	7bfb      	ldrb	r3, [r7, #15]
    3a48:	b29a      	uxth	r2, r3
    3a4a:	4b45      	ldr	r3, [pc, #276]	; (3b60 <hciTrSerialRxIncoming+0x190>)
    3a4c:	881b      	ldrh	r3, [r3, #0]
    3a4e:	429a      	cmp	r2, r3
    3a50:	d149      	bne.n	3ae6 <hciTrSerialRxIncoming+0x116>
      {
        /* extract data length from header */
        if (pktIndRx == HCI_EVT_TYPE)
    3a52:	4b42      	ldr	r3, [pc, #264]	; (3b5c <hciTrSerialRxIncoming+0x18c>)
    3a54:	781b      	ldrb	r3, [r3, #0]
    3a56:	2b04      	cmp	r3, #4
    3a58:	d103      	bne.n	3a62 <hciTrSerialRxIncoming+0x92>
        {
          dataLen = hdrRx[1];
    3a5a:	4b43      	ldr	r3, [pc, #268]	; (3b68 <hciTrSerialRxIncoming+0x198>)
    3a5c:	785b      	ldrb	r3, [r3, #1]
    3a5e:	81bb      	strh	r3, [r7, #12]
    3a60:	e00c      	b.n	3a7c <hciTrSerialRxIncoming+0xac>
        }
        else if (pktIndRx == HCI_ACL_TYPE)
    3a62:	4b3e      	ldr	r3, [pc, #248]	; (3b5c <hciTrSerialRxIncoming+0x18c>)
    3a64:	781b      	ldrb	r3, [r3, #0]
    3a66:	2b02      	cmp	r3, #2
    3a68:	d108      	bne.n	3a7c <hciTrSerialRxIncoming+0xac>
        {
          BYTES_TO_UINT16(dataLen, &hdrRx[2]);
    3a6a:	4b3f      	ldr	r3, [pc, #252]	; (3b68 <hciTrSerialRxIncoming+0x198>)
    3a6c:	789b      	ldrb	r3, [r3, #2]
    3a6e:	461a      	mov	r2, r3
    3a70:	4b3d      	ldr	r3, [pc, #244]	; (3b68 <hciTrSerialRxIncoming+0x198>)
    3a72:	78db      	ldrb	r3, [r3, #3]
    3a74:	021b      	lsls	r3, r3, #8
    3a76:	b29b      	uxth	r3, r3
    3a78:	4413      	add	r3, r2
    3a7a:	81bb      	strh	r3, [r7, #12]
        }

        /* allocate data buffer to hold entire packet */
        if ((pPktRx = (uint8_t*)WsfMsgAlloc(hdrLen + dataLen)) != NULL)
    3a7c:	7bfb      	ldrb	r3, [r7, #15]
    3a7e:	b29a      	uxth	r2, r3
    3a80:	89bb      	ldrh	r3, [r7, #12]
    3a82:	4413      	add	r3, r2
    3a84:	b29b      	uxth	r3, r3
    3a86:	4618      	mov	r0, r3
    3a88:	f001 f818 	bl	4abc <WsfMsgAlloc>
    3a8c:	4602      	mov	r2, r0
    3a8e:	4b37      	ldr	r3, [pc, #220]	; (3b6c <hciTrSerialRxIncoming+0x19c>)
    3a90:	601a      	str	r2, [r3, #0]
    3a92:	4b36      	ldr	r3, [pc, #216]	; (3b6c <hciTrSerialRxIncoming+0x19c>)
    3a94:	681b      	ldr	r3, [r3, #0]
    3a96:	2b00      	cmp	r3, #0
    3a98:	d025      	beq.n	3ae6 <hciTrSerialRxIncoming+0x116>
        {
          pDataRx = pPktRx;
    3a9a:	4b34      	ldr	r3, [pc, #208]	; (3b6c <hciTrSerialRxIncoming+0x19c>)
    3a9c:	681a      	ldr	r2, [r3, #0]
    3a9e:	4b34      	ldr	r3, [pc, #208]	; (3b70 <hciTrSerialRxIncoming+0x1a0>)
    3aa0:	601a      	str	r2, [r3, #0]

          /* copy header into data packet (note: memcpy is not so portable) */
          {
            uint8_t  i;
            for (i = 0; i < hdrLen; i++)
    3aa2:	2300      	movs	r3, #0
    3aa4:	72fb      	strb	r3, [r7, #11]
    3aa6:	e00b      	b.n	3ac0 <hciTrSerialRxIncoming+0xf0>
            {
              *pDataRx++ = hdrRx[i];
    3aa8:	4b31      	ldr	r3, [pc, #196]	; (3b70 <hciTrSerialRxIncoming+0x1a0>)
    3aaa:	681b      	ldr	r3, [r3, #0]
    3aac:	1c59      	adds	r1, r3, #1
    3aae:	4a30      	ldr	r2, [pc, #192]	; (3b70 <hciTrSerialRxIncoming+0x1a0>)
    3ab0:	6011      	str	r1, [r2, #0]
    3ab2:	7afa      	ldrb	r2, [r7, #11]
    3ab4:	492c      	ldr	r1, [pc, #176]	; (3b68 <hciTrSerialRxIncoming+0x198>)
    3ab6:	5c8a      	ldrb	r2, [r1, r2]
    3ab8:	701a      	strb	r2, [r3, #0]
          pDataRx = pPktRx;

          /* copy header into data packet (note: memcpy is not so portable) */
          {
            uint8_t  i;
            for (i = 0; i < hdrLen; i++)
    3aba:	7afb      	ldrb	r3, [r7, #11]
    3abc:	3301      	adds	r3, #1
    3abe:	72fb      	strb	r3, [r7, #11]
    3ac0:	7afa      	ldrb	r2, [r7, #11]
    3ac2:	7bfb      	ldrb	r3, [r7, #15]
    3ac4:	429a      	cmp	r2, r3
    3ac6:	d3ef      	bcc.n	3aa8 <hciTrSerialRxIncoming+0xd8>
              *pDataRx++ = hdrRx[i];
            }
          }

          /* save number of bytes left to read */
          iRx = dataLen;
    3ac8:	4b25      	ldr	r3, [pc, #148]	; (3b60 <hciTrSerialRxIncoming+0x190>)
    3aca:	89ba      	ldrh	r2, [r7, #12]
    3acc:	801a      	strh	r2, [r3, #0]
          if (iRx == 0)
    3ace:	4b24      	ldr	r3, [pc, #144]	; (3b60 <hciTrSerialRxIncoming+0x190>)
    3ad0:	881b      	ldrh	r3, [r3, #0]
    3ad2:	2b00      	cmp	r3, #0
    3ad4:	d103      	bne.n	3ade <hciTrSerialRxIncoming+0x10e>
          {
            stateRx = HCI_RX_STATE_COMPLETE;
    3ad6:	4b20      	ldr	r3, [pc, #128]	; (3b58 <hciTrSerialRxIncoming+0x188>)
    3ad8:	2203      	movs	r2, #3
    3ada:	701a      	strb	r2, [r3, #0]
    3adc:	e003      	b.n	3ae6 <hciTrSerialRxIncoming+0x116>
          }
          else
          {
            stateRx = HCI_RX_STATE_DATA;
    3ade:	4b1e      	ldr	r3, [pc, #120]	; (3b58 <hciTrSerialRxIncoming+0x188>)
    3ae0:	2202      	movs	r2, #2
    3ae2:	701a      	strb	r2, [r3, #0]
    3ae4:	e018      	b.n	3b18 <hciTrSerialRxIncoming+0x148>
    3ae6:	e017      	b.n	3b18 <hciTrSerialRxIncoming+0x148>

      }
    }

    /* --- Data State --- */
    else if (stateRx == HCI_RX_STATE_DATA)
    3ae8:	4b1b      	ldr	r3, [pc, #108]	; (3b58 <hciTrSerialRxIncoming+0x188>)
    3aea:	781b      	ldrb	r3, [r3, #0]
    3aec:	2b02      	cmp	r3, #2
    3aee:	d113      	bne.n	3b18 <hciTrSerialRxIncoming+0x148>
    {
      /* write incoming byte to allocated buffer */
      *pDataRx++ = dataByte;
    3af0:	4b1f      	ldr	r3, [pc, #124]	; (3b70 <hciTrSerialRxIncoming+0x1a0>)
    3af2:	681b      	ldr	r3, [r3, #0]
    3af4:	1c59      	adds	r1, r3, #1
    3af6:	4a1e      	ldr	r2, [pc, #120]	; (3b70 <hciTrSerialRxIncoming+0x1a0>)
    3af8:	6011      	str	r1, [r2, #0]
    3afa:	7aba      	ldrb	r2, [r7, #10]
    3afc:	701a      	strb	r2, [r3, #0]

      /* determine if entire packet has been read */
      iRx--;
    3afe:	4b18      	ldr	r3, [pc, #96]	; (3b60 <hciTrSerialRxIncoming+0x190>)
    3b00:	881b      	ldrh	r3, [r3, #0]
    3b02:	3b01      	subs	r3, #1
    3b04:	b29a      	uxth	r2, r3
    3b06:	4b16      	ldr	r3, [pc, #88]	; (3b60 <hciTrSerialRxIncoming+0x190>)
    3b08:	801a      	strh	r2, [r3, #0]
      if (iRx == 0)
    3b0a:	4b15      	ldr	r3, [pc, #84]	; (3b60 <hciTrSerialRxIncoming+0x190>)
    3b0c:	881b      	ldrh	r3, [r3, #0]
    3b0e:	2b00      	cmp	r3, #0
    3b10:	d102      	bne.n	3b18 <hciTrSerialRxIncoming+0x148>
      {
        stateRx = HCI_RX_STATE_COMPLETE;
    3b12:	4b11      	ldr	r3, [pc, #68]	; (3b58 <hciTrSerialRxIncoming+0x188>)
    3b14:	2203      	movs	r2, #3
    3b16:	701a      	strb	r2, [r3, #0]
      }
    }

    /* --- Complete State --- */
    /* ( Note Well!  There is no else-if construct by design. ) */
    if (stateRx == HCI_RX_STATE_COMPLETE)
    3b18:	4b0f      	ldr	r3, [pc, #60]	; (3b58 <hciTrSerialRxIncoming+0x188>)
    3b1a:	781b      	ldrb	r3, [r3, #0]
    3b1c:	2b03      	cmp	r3, #3
    3b1e:	d111      	bne.n	3b44 <hciTrSerialRxIncoming+0x174>
    {
      g_bHCIReceivingPacket = FALSE;
    3b20:	4b10      	ldr	r3, [pc, #64]	; (3b64 <hciTrSerialRxIncoming+0x194>)
    3b22:	2200      	movs	r2, #0
    3b24:	701a      	strb	r2, [r3, #0]

      /* deliver data */
      if (pPktRx != NULL)
    3b26:	4b11      	ldr	r3, [pc, #68]	; (3b6c <hciTrSerialRxIncoming+0x19c>)
    3b28:	681b      	ldr	r3, [r3, #0]
    3b2a:	2b00      	cmp	r3, #0
    3b2c:	d007      	beq.n	3b3e <hciTrSerialRxIncoming+0x16e>
      {
        hciCoreRecv(pktIndRx, pPktRx);
    3b2e:	4b0b      	ldr	r3, [pc, #44]	; (3b5c <hciTrSerialRxIncoming+0x18c>)
    3b30:	781a      	ldrb	r2, [r3, #0]
    3b32:	4b0e      	ldr	r3, [pc, #56]	; (3b6c <hciTrSerialRxIncoming+0x19c>)
    3b34:	681b      	ldr	r3, [r3, #0]
    3b36:	4610      	mov	r0, r2
    3b38:	4619      	mov	r1, r3
    3b3a:	f7fe fda7 	bl	268c <hciCoreRecv>
      }

      /* reset state machine */
      stateRx = HCI_RX_STATE_IDLE;
    3b3e:	4b06      	ldr	r3, [pc, #24]	; (3b58 <hciTrSerialRxIncoming+0x188>)
    3b40:	2200      	movs	r2, #0
    3b42:	701a      	strb	r2, [r3, #0]
  static uint8_t    *pDataRx;

  uint8_t dataByte;

  /* loop until all bytes of incoming buffer are handled */
  while (len--)
    3b44:	78fb      	ldrb	r3, [r7, #3]
    3b46:	1e5a      	subs	r2, r3, #1
    3b48:	70fa      	strb	r2, [r7, #3]
    3b4a:	2b00      	cmp	r3, #0
    3b4c:	f47f af47 	bne.w	39de <hciTrSerialRxIncoming+0xe>

      /* reset state machine */
      stateRx = HCI_RX_STATE_IDLE;
    }
  }
}
    3b50:	3710      	adds	r7, #16
    3b52:	46bd      	mov	sp, r7
    3b54:	bd80      	pop	{r7, pc}
    3b56:	bf00      	nop
    3b58:	10000509 	.word	0x10000509
    3b5c:	1000050a 	.word	0x1000050a
    3b60:	1000050c 	.word	0x1000050c
    3b64:	10000508 	.word	0x10000508
    3b68:	10000510 	.word	0x10000510
    3b6c:	10000514 	.word	0x10000514
    3b70:	10000518 	.word	0x10000518

00003b74 <hciTrReceivingPacket>:
//! @return TRUE if there is a packet in progress.
//
//*****************************************************************************
bool_t
hciTrReceivingPacket(void)
{
    3b74:	b480      	push	{r7}
    3b76:	af00      	add	r7, sp, #0
    return g_bHCIReceivingPacket;
    3b78:	4b03      	ldr	r3, [pc, #12]	; (3b88 <hciTrReceivingPacket+0x14>)
    3b7a:	781b      	ldrb	r3, [r3, #0]
    3b7c:	b2db      	uxtb	r3, r3
}
    3b7e:	4618      	mov	r0, r3
    3b80:	46bd      	mov	sp, r7
    3b82:	f85d 7b04 	ldr.w	r7, [sp], #4
    3b86:	4770      	bx	lr
    3b88:	10000508 	.word	0x10000508

00003b8c <hciCoreResetStart>:
 *
 *  \return None.
 */
/*************************************************************************************************/
void hciCoreResetStart(void)
{
    3b8c:	b580      	push	{r7, lr}
    3b8e:	af00      	add	r7, sp, #0
  /* send an HCI Reset command to start the sequence */
  HciResetCmd();
    3b90:	f7fe f94c 	bl	1e2c <HciResetCmd>
}
    3b94:	bd80      	pop	{r7, pc}
    3b96:	bf00      	nop

00003b98 <hciCoreResetSequence>:
 *
 *  \return None.
 */
/*************************************************************************************************/
void hciCoreResetSequence(uint8_t *pMsg)
{
    3b98:	b580      	push	{r7, lr}
    3b9a:	b084      	sub	sp, #16
    3b9c:	af00      	add	r7, sp, #0
    3b9e:	6078      	str	r0, [r7, #4]
  uint16_t       opcode;
  wsfMsgHdr_t    hdr;
  static uint8_t randCnt;
  
  /* if event is a command complete event */
  if (*pMsg == HCI_CMD_CMPL_EVT)
    3ba0:	687b      	ldr	r3, [r7, #4]
    3ba2:	781b      	ldrb	r3, [r3, #0]
    3ba4:	2b0e      	cmp	r3, #14
    3ba6:	f040 8098 	bne.w	3cda <hciCoreResetSequence+0x142>
  {
    /* parse parameters */
    pMsg += HCI_EVT_HDR_LEN;
    3baa:	687b      	ldr	r3, [r7, #4]
    3bac:	3302      	adds	r3, #2
    3bae:	607b      	str	r3, [r7, #4]
    pMsg++;                   /* skip num packets */
    3bb0:	687b      	ldr	r3, [r7, #4]
    3bb2:	3301      	adds	r3, #1
    3bb4:	607b      	str	r3, [r7, #4]
    BSTREAM_TO_UINT16(opcode, pMsg);
    3bb6:	687b      	ldr	r3, [r7, #4]
    3bb8:	781b      	ldrb	r3, [r3, #0]
    3bba:	461a      	mov	r2, r3
    3bbc:	687b      	ldr	r3, [r7, #4]
    3bbe:	3301      	adds	r3, #1
    3bc0:	781b      	ldrb	r3, [r3, #0]
    3bc2:	021b      	lsls	r3, r3, #8
    3bc4:	b29b      	uxth	r3, r3
    3bc6:	4413      	add	r3, r2
    3bc8:	81fb      	strh	r3, [r7, #14]
    3bca:	687b      	ldr	r3, [r7, #4]
    3bcc:	3302      	adds	r3, #2
    3bce:	607b      	str	r3, [r7, #4]
    pMsg++;                   /* skip status */
    3bd0:	687b      	ldr	r3, [r7, #4]
    3bd2:	3301      	adds	r3, #1
    3bd4:	607b      	str	r3, [r7, #4]
    
    /* decode opcode */
    switch (opcode)
    3bd6:	89fb      	ldrh	r3, [r7, #14]
    3bd8:	f242 0202 	movw	r2, #8194	; 0x2002
    3bdc:	4293      	cmp	r3, r2
    3bde:	d02e      	beq.n	3c3e <hciCoreResetSequence+0xa6>
    3be0:	f242 0202 	movw	r2, #8194	; 0x2002
    3be4:	4293      	cmp	r3, r2
    3be6:	dc0c      	bgt.n	3c02 <hciCoreResetSequence+0x6a>
    3be8:	f241 0209 	movw	r2, #4105	; 0x1009
    3bec:	4293      	cmp	r3, r2
    3bee:	d01f      	beq.n	3c30 <hciCoreResetSequence+0x98>
    3bf0:	f242 0201 	movw	r2, #8193	; 0x2001
    3bf4:	4293      	cmp	r3, r2
    3bf6:	d018      	beq.n	3c2a <hciCoreResetSequence+0x92>
    3bf8:	f640 4203 	movw	r2, #3075	; 0xc03
    3bfc:	4293      	cmp	r3, r2
    3bfe:	d00d      	beq.n	3c1c <hciCoreResetSequence+0x84>
          (*hciCb.evtCback)((hciEvt_t *) &hdr);
        }
        break;

      default:
        break;
    3c00:	e06b      	b.n	3cda <hciCoreResetSequence+0x142>
    pMsg++;                   /* skip num packets */
    BSTREAM_TO_UINT16(opcode, pMsg);
    pMsg++;                   /* skip status */
    
    /* decode opcode */
    switch (opcode)
    3c02:	f242 0218 	movw	r2, #8216	; 0x2018
    3c06:	4293      	cmp	r3, r2
    3c08:	d04c      	beq.n	3ca4 <hciCoreResetSequence+0x10c>
    3c0a:	f242 021c 	movw	r2, #8220	; 0x201c
    3c0e:	4293      	cmp	r3, r2
    3c10:	d035      	beq.n	3c7e <hciCoreResetSequence+0xe6>
    3c12:	f242 020f 	movw	r2, #8207	; 0x200f
    3c16:	4293      	cmp	r3, r2
    3c18:	d03a      	beq.n	3c90 <hciCoreResetSequence+0xf8>
          (*hciCb.evtCback)((hciEvt_t *) &hdr);
        }
        break;

      default:
        break;
    3c1a:	e05e      	b.n	3cda <hciCoreResetSequence+0x142>
    /* decode opcode */
    switch (opcode)
    {
      case HCI_OPCODE_RESET:
        /* initialize rand command count */
        randCnt = 0;
    3c1c:	4b30      	ldr	r3, [pc, #192]	; (3ce0 <hciCoreResetSequence+0x148>)
    3c1e:	2200      	movs	r2, #0
    3c20:	701a      	strb	r2, [r3, #0]
        
        /* send next command in sequence */
        HciLeSetEventMaskCmd((uint8_t *) hciLeEventMask);
    3c22:	4830      	ldr	r0, [pc, #192]	; (3ce4 <hciCoreResetSequence+0x14c>)
    3c24:	f7fd ffb4 	bl	1b90 <HciLeSetEventMaskCmd>
        break;
    3c28:	e057      	b.n	3cda <hciCoreResetSequence+0x142>

      case HCI_OPCODE_LE_SET_EVENT_MASK:
        /* send next command in sequence */
        HciReadBdAddrCmd();
    3c2a:	f7fe f8c7 	bl	1dbc <HciReadBdAddrCmd>
        break;
    3c2e:	e054      	b.n	3cda <hciCoreResetSequence+0x142>

      case HCI_OPCODE_READ_BD_ADDR:
        /* parse and store event parameters */
        BdaCpy(hciCoreCb.bdAddr, pMsg);
    3c30:	482d      	ldr	r0, [pc, #180]	; (3ce8 <hciCoreResetSequence+0x150>)
    3c32:	6879      	ldr	r1, [r7, #4]
    3c34:	f000 fcb6 	bl	45a4 <BdaCpy>

        /* send next command in sequence */
        HciLeReadBufSizeCmd();
    3c38:	f7fd fea4 	bl	1984 <HciLeReadBufSizeCmd>
        break;
    3c3c:	e04d      	b.n	3cda <hciCoreResetSequence+0x142>

      case HCI_OPCODE_LE_READ_BUF_SIZE:
        /* parse and store event parameters */
        BSTREAM_TO_UINT16(hciCoreCb.bufSize, pMsg);
    3c3e:	687b      	ldr	r3, [r7, #4]
    3c40:	781b      	ldrb	r3, [r3, #0]
    3c42:	461a      	mov	r2, r3
    3c44:	687b      	ldr	r3, [r7, #4]
    3c46:	3301      	adds	r3, #1
    3c48:	781b      	ldrb	r3, [r3, #0]
    3c4a:	021b      	lsls	r3, r3, #8
    3c4c:	b29b      	uxth	r3, r3
    3c4e:	4413      	add	r3, r2
    3c50:	b29a      	uxth	r2, r3
    3c52:	4b26      	ldr	r3, [pc, #152]	; (3cec <hciCoreResetSequence+0x154>)
    3c54:	f8a3 2072 	strh.w	r2, [r3, #114]	; 0x72
    3c58:	687b      	ldr	r3, [r7, #4]
    3c5a:	3302      	adds	r3, #2
    3c5c:	607b      	str	r3, [r7, #4]
        BSTREAM_TO_UINT8(hciCoreCb.numBufs, pMsg);
    3c5e:	687b      	ldr	r3, [r7, #4]
    3c60:	1c5a      	adds	r2, r3, #1
    3c62:	607a      	str	r2, [r7, #4]
    3c64:	781a      	ldrb	r2, [r3, #0]
    3c66:	4b21      	ldr	r3, [pc, #132]	; (3cec <hciCoreResetSequence+0x154>)
    3c68:	f883 2077 	strb.w	r2, [r3, #119]	; 0x77

        /* initialize ACL buffer accounting */
        hciCoreCb.availBufs = hciCoreCb.numBufs;
    3c6c:	4b1f      	ldr	r3, [pc, #124]	; (3cec <hciCoreResetSequence+0x154>)
    3c6e:	f893 2077 	ldrb.w	r2, [r3, #119]	; 0x77
    3c72:	4b1e      	ldr	r3, [pc, #120]	; (3cec <hciCoreResetSequence+0x154>)
    3c74:	f883 2076 	strb.w	r2, [r3, #118]	; 0x76
        
        /* send next command in sequence */
        HciLeReadSupStatesCmd();
    3c78:	f7fd fe96 	bl	19a8 <HciLeReadSupStatesCmd>
        break;
    3c7c:	e02d      	b.n	3cda <hciCoreResetSequence+0x142>

      case HCI_OPCODE_LE_READ_SUP_STATES:
        /* parse and store event parameters */
        memcpy(hciCoreCb.leStates, pMsg, HCI_LE_STATES_LEN);
    3c7e:	4b1b      	ldr	r3, [pc, #108]	; (3cec <hciCoreResetSequence+0x154>)
    3c80:	687a      	ldr	r2, [r7, #4]
    3c82:	3354      	adds	r3, #84	; 0x54
    3c84:	6810      	ldr	r0, [r2, #0]
    3c86:	6851      	ldr	r1, [r2, #4]
    3c88:	c303      	stmia	r3!, {r0, r1}

        /* send next command in sequence */
        HciLeReadWhiteListSizeCmd();
    3c8a:	f7fd fe9f 	bl	19cc <HciLeReadWhiteListSizeCmd>
        break;
    3c8e:	e024      	b.n	3cda <hciCoreResetSequence+0x142>

      case HCI_OPCODE_LE_READ_WHITE_LIST_SIZE:
        /* parse and store event parameters */
        BSTREAM_TO_UINT8(hciCoreCb.whiteListSize, pMsg);
    3c90:	687b      	ldr	r3, [r7, #4]
    3c92:	1c5a      	adds	r2, r3, #1
    3c94:	607a      	str	r2, [r7, #4]
    3c96:	781a      	ldrb	r2, [r3, #0]
    3c98:	4b14      	ldr	r3, [pc, #80]	; (3cec <hciCoreResetSequence+0x154>)
    3c9a:	f883 2078 	strb.w	r2, [r3, #120]	; 0x78

        /* send next command in sequence */
        HciLeRandCmd();
    3c9e:	f7fd fe5f 	bl	1960 <HciLeRandCmd>
        break;
    3ca2:	e01a      	b.n	3cda <hciCoreResetSequence+0x142>

      case HCI_OPCODE_LE_RAND:
        /* check if need to send second rand command */
        if (randCnt < (HCI_RESET_RAND_CNT-1))
    3ca4:	4b0e      	ldr	r3, [pc, #56]	; (3ce0 <hciCoreResetSequence+0x148>)
    3ca6:	781b      	ldrb	r3, [r3, #0]
    3ca8:	2b02      	cmp	r3, #2
    3caa:	d808      	bhi.n	3cbe <hciCoreResetSequence+0x126>
        {
          randCnt++;
    3cac:	4b0c      	ldr	r3, [pc, #48]	; (3ce0 <hciCoreResetSequence+0x148>)
    3cae:	781b      	ldrb	r3, [r3, #0]
    3cb0:	3301      	adds	r3, #1
    3cb2:	b2da      	uxtb	r2, r3
    3cb4:	4b0a      	ldr	r3, [pc, #40]	; (3ce0 <hciCoreResetSequence+0x148>)
    3cb6:	701a      	strb	r2, [r3, #0]
          HciLeRandCmd();
    3cb8:	f7fd fe52 	bl	1960 <HciLeRandCmd>
          hciCb.resetting = FALSE;
          hdr.param = 0;
          hdr.event = HCI_RESET_SEQ_CMPL_CBACK_EVT;
          (*hciCb.evtCback)((hciEvt_t *) &hdr);
        }
        break;
    3cbc:	e00c      	b.n	3cd8 <hciCoreResetSequence+0x140>
          HciLeRandCmd();
        }
        else
        {
          /* last command in sequence; set resetting state and call callback */
          hciCb.resetting = FALSE;
    3cbe:	4b0c      	ldr	r3, [pc, #48]	; (3cf0 <hciCoreResetSequence+0x158>)
    3cc0:	2200      	movs	r2, #0
    3cc2:	765a      	strb	r2, [r3, #25]
          hdr.param = 0;
    3cc4:	2300      	movs	r3, #0
    3cc6:	813b      	strh	r3, [r7, #8]
          hdr.event = HCI_RESET_SEQ_CMPL_CBACK_EVT;
    3cc8:	2300      	movs	r3, #0
    3cca:	72bb      	strb	r3, [r7, #10]
          (*hciCb.evtCback)((hciEvt_t *) &hdr);
    3ccc:	4b08      	ldr	r3, [pc, #32]	; (3cf0 <hciCoreResetSequence+0x158>)
    3cce:	689b      	ldr	r3, [r3, #8]
    3cd0:	f107 0208 	add.w	r2, r7, #8
    3cd4:	4610      	mov	r0, r2
    3cd6:	4798      	blx	r3
        }
        break;
    3cd8:	bf00      	nop

      default:
        break;
    }
  }
}
    3cda:	3710      	adds	r7, #16
    3cdc:	46bd      	mov	sp, r7
    3cde:	bd80      	pop	{r7, pc}
    3ce0:	1000051c 	.word	0x1000051c
    3ce4:	0000eb74 	.word	0x0000eb74
    3ce8:	10000dc4 	.word	0x10000dc4
    3cec:	10000d68 	.word	0x10000d68
    3cf0:	10000de4 	.word	0x10000de4

00003cf4 <hciCoreVsCmdCmplRcvd>:
 *
 *  \return HCI callback event code or zero.
 */
/*************************************************************************************************/
uint8_t hciCoreVsCmdCmplRcvd(uint16_t opcode, uint8_t *pMsg, uint8_t len)
{
    3cf4:	b480      	push	{r7}
    3cf6:	b083      	sub	sp, #12
    3cf8:	af00      	add	r7, sp, #0
    3cfa:	6039      	str	r1, [r7, #0]
    3cfc:	4613      	mov	r3, r2
    3cfe:	4602      	mov	r2, r0
    3d00:	80fa      	strh	r2, [r7, #6]
    3d02:	717b      	strb	r3, [r7, #5]
  return HCI_VENDOR_SPEC_CMD_CMPL_CBACK_EVT;
    3d04:	2311      	movs	r3, #17
}
    3d06:	4618      	mov	r0, r3
    3d08:	370c      	adds	r7, #12
    3d0a:	46bd      	mov	sp, r7
    3d0c:	f85d 7b04 	ldr.w	r7, [sp], #4
    3d10:	4770      	bx	lr
    3d12:	bf00      	nop

00003d14 <HciVsInit>:
 *
 *  \return None.
 */
/*************************************************************************************************/
void HciVsInit(uint8_t param)
{
    3d14:	b480      	push	{r7}
    3d16:	b083      	sub	sp, #12
    3d18:	af00      	add	r7, sp, #0
    3d1a:	4603      	mov	r3, r0
    3d1c:	71fb      	strb	r3, [r7, #7]

}
    3d1e:	370c      	adds	r7, #12
    3d20:	46bd      	mov	sp, r7
    3d22:	f85d 7b04 	ldr.w	r7, [sp], #4
    3d26:	4770      	bx	lr

00003d28 <basNoConnActive>:
 *
 *  \return TRUE if no connections active.
 */
/*************************************************************************************************/
static bool_t basNoConnActive(void)
{
    3d28:	b480      	push	{r7}
    3d2a:	b083      	sub	sp, #12
    3d2c:	af00      	add	r7, sp, #0
  basConn_t     *pConn = basCb.conn;
    3d2e:	4b0d      	ldr	r3, [pc, #52]	; (3d64 <basNoConnActive+0x3c>)
    3d30:	607b      	str	r3, [r7, #4]
  uint8_t       i;
  
  for (i = 0; i < DM_CONN_MAX; i++, pConn++)
    3d32:	2300      	movs	r3, #0
    3d34:	70fb      	strb	r3, [r7, #3]
    3d36:	e00b      	b.n	3d50 <basNoConnActive+0x28>
  {
    if (pConn->connId != DM_CONN_ID_NONE)
    3d38:	687b      	ldr	r3, [r7, #4]
    3d3a:	781b      	ldrb	r3, [r3, #0]
    3d3c:	2b00      	cmp	r3, #0
    3d3e:	d001      	beq.n	3d44 <basNoConnActive+0x1c>
    {      
      return FALSE;
    3d40:	2300      	movs	r3, #0
    3d42:	e009      	b.n	3d58 <basNoConnActive+0x30>
static bool_t basNoConnActive(void)
{
  basConn_t     *pConn = basCb.conn;
  uint8_t       i;
  
  for (i = 0; i < DM_CONN_MAX; i++, pConn++)
    3d44:	78fb      	ldrb	r3, [r7, #3]
    3d46:	3301      	adds	r3, #1
    3d48:	70fb      	strb	r3, [r7, #3]
    3d4a:	687b      	ldr	r3, [r7, #4]
    3d4c:	3303      	adds	r3, #3
    3d4e:	607b      	str	r3, [r7, #4]
    3d50:	78fb      	ldrb	r3, [r7, #3]
    3d52:	2b02      	cmp	r3, #2
    3d54:	d9f0      	bls.n	3d38 <basNoConnActive+0x10>
    if (pConn->connId != DM_CONN_ID_NONE)
    {      
      return FALSE;
    }
  }
  return TRUE;
    3d56:	2301      	movs	r3, #1
}
    3d58:	4618      	mov	r0, r3
    3d5a:	370c      	adds	r7, #12
    3d5c:	46bd      	mov	sp, r7
    3d5e:	f85d 7b04 	ldr.w	r7, [sp], #4
    3d62:	4770      	bx	lr
    3d64:	10000520 	.word	0x10000520

00003d68 <basSetupToSend>:
 *
 *  \return None.
 */
/*************************************************************************************************/
static void basSetupToSend(void)
{
    3d68:	b480      	push	{r7}
    3d6a:	b083      	sub	sp, #12
    3d6c:	af00      	add	r7, sp, #0
  basConn_t     *pConn = basCb.conn;
    3d6e:	4b0d      	ldr	r3, [pc, #52]	; (3da4 <basSetupToSend+0x3c>)
    3d70:	607b      	str	r3, [r7, #4]
  uint8_t       i;
  
  for (i = 0; i < DM_CONN_MAX; i++, pConn++)
    3d72:	2300      	movs	r3, #0
    3d74:	70fb      	strb	r3, [r7, #3]
    3d76:	e00c      	b.n	3d92 <basSetupToSend+0x2a>
  {
    if (pConn->connId != DM_CONN_ID_NONE)
    3d78:	687b      	ldr	r3, [r7, #4]
    3d7a:	781b      	ldrb	r3, [r3, #0]
    3d7c:	2b00      	cmp	r3, #0
    3d7e:	d002      	beq.n	3d86 <basSetupToSend+0x1e>
    {      
      pConn->battToSend = TRUE;
    3d80:	687b      	ldr	r3, [r7, #4]
    3d82:	2201      	movs	r2, #1
    3d84:	705a      	strb	r2, [r3, #1]
static void basSetupToSend(void)
{
  basConn_t     *pConn = basCb.conn;
  uint8_t       i;
  
  for (i = 0; i < DM_CONN_MAX; i++, pConn++)
    3d86:	78fb      	ldrb	r3, [r7, #3]
    3d88:	3301      	adds	r3, #1
    3d8a:	70fb      	strb	r3, [r7, #3]
    3d8c:	687b      	ldr	r3, [r7, #4]
    3d8e:	3303      	adds	r3, #3
    3d90:	607b      	str	r3, [r7, #4]
    3d92:	78fb      	ldrb	r3, [r7, #3]
    3d94:	2b02      	cmp	r3, #2
    3d96:	d9ef      	bls.n	3d78 <basSetupToSend+0x10>
    if (pConn->connId != DM_CONN_ID_NONE)
    {      
      pConn->battToSend = TRUE;
    }
  }
}
    3d98:	370c      	adds	r7, #12
    3d9a:	46bd      	mov	sp, r7
    3d9c:	f85d 7b04 	ldr.w	r7, [sp], #4
    3da0:	4770      	bx	lr
    3da2:	bf00      	nop
    3da4:	10000520 	.word	0x10000520

00003da8 <basFindNextToSend>:
 *
 *  \return Connection control block.
 */
/*************************************************************************************************/
static basConn_t *basFindNextToSend(uint8_t cccIdx)
{
    3da8:	b580      	push	{r7, lr}
    3daa:	b084      	sub	sp, #16
    3dac:	af00      	add	r7, sp, #0
    3dae:	4603      	mov	r3, r0
    3db0:	71fb      	strb	r3, [r7, #7]
  basConn_t    *pConn = basCb.conn;
    3db2:	4b17      	ldr	r3, [pc, #92]	; (3e10 <basFindNextToSend+0x68>)
    3db4:	60fb      	str	r3, [r7, #12]
  uint8_t       i;
  
  for (i = 0; i < DM_CONN_MAX; i++, pConn++)
    3db6:	2300      	movs	r3, #0
    3db8:	72fb      	strb	r3, [r7, #11]
    3dba:	e020      	b.n	3dfe <basFindNextToSend+0x56>
  {
    if (pConn->connId != DM_CONN_ID_NONE && pConn->battToSend &&
    3dbc:	68fb      	ldr	r3, [r7, #12]
    3dbe:	781b      	ldrb	r3, [r3, #0]
    3dc0:	2b00      	cmp	r3, #0
    3dc2:	d016      	beq.n	3df2 <basFindNextToSend+0x4a>
    3dc4:	68fb      	ldr	r3, [r7, #12]
    3dc6:	785b      	ldrb	r3, [r3, #1]
    3dc8:	2b00      	cmp	r3, #0
    3dca:	d012      	beq.n	3df2 <basFindNextToSend+0x4a>
        pConn->sentBattLevel != basCb.measBattLevel)
    3dcc:	68fb      	ldr	r3, [r7, #12]
    3dce:	789a      	ldrb	r2, [r3, #2]
    3dd0:	4b0f      	ldr	r3, [pc, #60]	; (3e10 <basFindNextToSend+0x68>)
    3dd2:	f893 3027 	ldrb.w	r3, [r3, #39]	; 0x27
  basConn_t    *pConn = basCb.conn;
  uint8_t       i;
  
  for (i = 0; i < DM_CONN_MAX; i++, pConn++)
  {
    if (pConn->connId != DM_CONN_ID_NONE && pConn->battToSend &&
    3dd6:	429a      	cmp	r2, r3
    3dd8:	d00b      	beq.n	3df2 <basFindNextToSend+0x4a>
        pConn->sentBattLevel != basCb.measBattLevel)
    {
      if (AttsCccEnabled(pConn->connId, cccIdx))
    3dda:	68fb      	ldr	r3, [r7, #12]
    3ddc:	781a      	ldrb	r2, [r3, #0]
    3dde:	79fb      	ldrb	r3, [r7, #7]
    3de0:	4610      	mov	r0, r2
    3de2:	4619      	mov	r1, r3
    3de4:	f002 fddc 	bl	69a0 <AttsCccEnabled>
    3de8:	4603      	mov	r3, r0
    3dea:	2b00      	cmp	r3, #0
    3dec:	d001      	beq.n	3df2 <basFindNextToSend+0x4a>
      {
        return pConn;
    3dee:	68fb      	ldr	r3, [r7, #12]
    3df0:	e009      	b.n	3e06 <basFindNextToSend+0x5e>
static basConn_t *basFindNextToSend(uint8_t cccIdx)
{
  basConn_t    *pConn = basCb.conn;
  uint8_t       i;
  
  for (i = 0; i < DM_CONN_MAX; i++, pConn++)
    3df2:	7afb      	ldrb	r3, [r7, #11]
    3df4:	3301      	adds	r3, #1
    3df6:	72fb      	strb	r3, [r7, #11]
    3df8:	68fb      	ldr	r3, [r7, #12]
    3dfa:	3303      	adds	r3, #3
    3dfc:	60fb      	str	r3, [r7, #12]
    3dfe:	7afb      	ldrb	r3, [r7, #11]
    3e00:	2b02      	cmp	r3, #2
    3e02:	d9db      	bls.n	3dbc <basFindNextToSend+0x14>
      {
        return pConn;
      }
    }
  }
  return NULL;
    3e04:	2300      	movs	r3, #0
}
    3e06:	4618      	mov	r0, r3
    3e08:	3710      	adds	r7, #16
    3e0a:	46bd      	mov	sp, r7
    3e0c:	bd80      	pop	{r7, pc}
    3e0e:	bf00      	nop
    3e10:	10000520 	.word	0x10000520

00003e14 <basSendPeriodicBattlevel>:
 *
 *  \return None.
 */
/*************************************************************************************************/
static void basSendPeriodicBattlevel(basConn_t *pConn)
{
    3e14:	b580      	push	{r7, lr}
    3e16:	b082      	sub	sp, #8
    3e18:	af00      	add	r7, sp, #0
    3e1a:	6078      	str	r0, [r7, #4]
  BasSendBattLevel(pConn->connId, basCb.measTimer.msg.status, basCb.measBattLevel);
    3e1c:	687b      	ldr	r3, [r7, #4]
    3e1e:	7819      	ldrb	r1, [r3, #0]
    3e20:	4b0c      	ldr	r3, [pc, #48]	; (3e54 <basSendPeriodicBattlevel+0x40>)
    3e22:	7e5a      	ldrb	r2, [r3, #25]
    3e24:	4b0b      	ldr	r3, [pc, #44]	; (3e54 <basSendPeriodicBattlevel+0x40>)
    3e26:	f893 3027 	ldrb.w	r3, [r3, #39]	; 0x27
    3e2a:	4608      	mov	r0, r1
    3e2c:	4611      	mov	r1, r2
    3e2e:	461a      	mov	r2, r3
    3e30:	f000 f91c 	bl	406c <BasSendBattLevel>
  pConn->sentBattLevel = basCb.measBattLevel;
    3e34:	4b07      	ldr	r3, [pc, #28]	; (3e54 <basSendPeriodicBattlevel+0x40>)
    3e36:	f893 2027 	ldrb.w	r2, [r3, #39]	; 0x27
    3e3a:	687b      	ldr	r3, [r7, #4]
    3e3c:	709a      	strb	r2, [r3, #2]
  pConn->battToSend = FALSE;
    3e3e:	687b      	ldr	r3, [r7, #4]
    3e40:	2200      	movs	r2, #0
    3e42:	705a      	strb	r2, [r3, #1]
  basCb.txReady = FALSE;
    3e44:	4b03      	ldr	r3, [pc, #12]	; (3e54 <basSendPeriodicBattlevel+0x40>)
    3e46:	2200      	movs	r2, #0
    3e48:	f883 2026 	strb.w	r2, [r3, #38]	; 0x26
}
    3e4c:	3708      	adds	r7, #8
    3e4e:	46bd      	mov	sp, r7
    3e50:	bd80      	pop	{r7, pc}
    3e52:	bf00      	nop
    3e54:	10000520 	.word	0x10000520

00003e58 <basConnOpen>:
 *
 *  \return None.
 */
/*************************************************************************************************/
static void basConnOpen(dmEvt_t *pMsg)
{
    3e58:	b480      	push	{r7}
    3e5a:	b083      	sub	sp, #12
    3e5c:	af00      	add	r7, sp, #0
    3e5e:	6078      	str	r0, [r7, #4]
  basCb.txReady = TRUE;
    3e60:	4b04      	ldr	r3, [pc, #16]	; (3e74 <basConnOpen+0x1c>)
    3e62:	2201      	movs	r2, #1
    3e64:	f883 2026 	strb.w	r2, [r3, #38]	; 0x26
}
    3e68:	370c      	adds	r7, #12
    3e6a:	46bd      	mov	sp, r7
    3e6c:	f85d 7b04 	ldr.w	r7, [sp], #4
    3e70:	4770      	bx	lr
    3e72:	bf00      	nop
    3e74:	10000520 	.word	0x10000520

00003e78 <basHandleValueCnf>:
 *
 *  \return None.
 */
/*************************************************************************************************/
static void basHandleValueCnf(attEvt_t *pMsg)
{
    3e78:	b580      	push	{r7, lr}
    3e7a:	b084      	sub	sp, #16
    3e7c:	af00      	add	r7, sp, #0
    3e7e:	6078      	str	r0, [r7, #4]
  basConn_t  *pConn;

  if (pMsg->hdr.status == ATT_SUCCESS && pMsg->handle == BATT_LVL_HDL)
    3e80:	687b      	ldr	r3, [r7, #4]
    3e82:	78db      	ldrb	r3, [r3, #3]
    3e84:	2b00      	cmp	r3, #0
    3e86:	d113      	bne.n	3eb0 <basHandleValueCnf+0x38>
    3e88:	687b      	ldr	r3, [r7, #4]
    3e8a:	895b      	ldrh	r3, [r3, #10]
    3e8c:	2b62      	cmp	r3, #98	; 0x62
    3e8e:	d10f      	bne.n	3eb0 <basHandleValueCnf+0x38>
  {
    basCb.txReady = TRUE;
    3e90:	4b09      	ldr	r3, [pc, #36]	; (3eb8 <basHandleValueCnf+0x40>)
    3e92:	2201      	movs	r2, #1
    3e94:	f883 2026 	strb.w	r2, [r3, #38]	; 0x26
  
    /* find next connection to send (note ccc idx is stored in timer status) */
    if ((pConn = basFindNextToSend(basCb.measTimer.msg.status)) != NULL)
    3e98:	4b07      	ldr	r3, [pc, #28]	; (3eb8 <basHandleValueCnf+0x40>)
    3e9a:	7e5b      	ldrb	r3, [r3, #25]
    3e9c:	4618      	mov	r0, r3
    3e9e:	f7ff ff83 	bl	3da8 <basFindNextToSend>
    3ea2:	60f8      	str	r0, [r7, #12]
    3ea4:	68fb      	ldr	r3, [r7, #12]
    3ea6:	2b00      	cmp	r3, #0
    3ea8:	d002      	beq.n	3eb0 <basHandleValueCnf+0x38>
    {
      basSendPeriodicBattlevel(pConn);
    3eaa:	68f8      	ldr	r0, [r7, #12]
    3eac:	f7ff ffb2 	bl	3e14 <basSendPeriodicBattlevel>
    }
  }
}
    3eb0:	3710      	adds	r7, #16
    3eb2:	46bd      	mov	sp, r7
    3eb4:	bd80      	pop	{r7, pc}
    3eb6:	bf00      	nop
    3eb8:	10000520 	.word	0x10000520

00003ebc <basMeasTimerExp>:
 *
 *  \return None.
 */
/*************************************************************************************************/
void basMeasTimerExp(wsfMsgHdr_t *pMsg)
{
    3ebc:	b580      	push	{r7, lr}
    3ebe:	b084      	sub	sp, #16
    3ec0:	af00      	add	r7, sp, #0
    3ec2:	6078      	str	r0, [r7, #4]
  basConn_t  *pConn;

  /* if there are active connections */
  if (basNoConnActive() == FALSE)
    3ec4:	f7ff ff30 	bl	3d28 <basNoConnActive>
    3ec8:	4603      	mov	r3, r0
    3eca:	2b00      	cmp	r3, #0
    3ecc:	d129      	bne.n	3f22 <basMeasTimerExp+0x66>
  {
    if (--basCb.currCount == 0)
    3ece:	4b16      	ldr	r3, [pc, #88]	; (3f28 <basMeasTimerExp+0x6c>)
    3ed0:	8c9b      	ldrh	r3, [r3, #36]	; 0x24
    3ed2:	3b01      	subs	r3, #1
    3ed4:	b29a      	uxth	r2, r3
    3ed6:	4b14      	ldr	r3, [pc, #80]	; (3f28 <basMeasTimerExp+0x6c>)
    3ed8:	849a      	strh	r2, [r3, #36]	; 0x24
    3eda:	4b13      	ldr	r3, [pc, #76]	; (3f28 <basMeasTimerExp+0x6c>)
    3edc:	8c9b      	ldrh	r3, [r3, #36]	; 0x24
    3ede:	2b00      	cmp	r3, #0
    3ee0:	d119      	bne.n	3f16 <basMeasTimerExp+0x5a>
    {
      /* reset count */
      basCb.currCount = basCb.cfg.count;
    3ee2:	4b11      	ldr	r3, [pc, #68]	; (3f28 <basMeasTimerExp+0x6c>)
    3ee4:	8c1a      	ldrh	r2, [r3, #32]
    3ee6:	4b10      	ldr	r3, [pc, #64]	; (3f28 <basMeasTimerExp+0x6c>)
    3ee8:	849a      	strh	r2, [r3, #36]	; 0x24
      
      /* set up battery measurement to be sent on all connections */
      basSetupToSend();
    3eea:	f7ff ff3d 	bl	3d68 <basSetupToSend>

      /* read battery measurement sensor data */
      AppHwBattRead(&basCb.measBattLevel);
    3eee:	480f      	ldr	r0, [pc, #60]	; (3f2c <basMeasTimerExp+0x70>)
    3ef0:	f7fd f8b2 	bl	1058 <AppHwBattRead>
    
      /* if ready to send measurements */
      if (basCb.txReady)
    3ef4:	4b0c      	ldr	r3, [pc, #48]	; (3f28 <basMeasTimerExp+0x6c>)
    3ef6:	f893 3026 	ldrb.w	r3, [r3, #38]	; 0x26
    3efa:	2b00      	cmp	r3, #0
    3efc:	d00b      	beq.n	3f16 <basMeasTimerExp+0x5a>
      {
        /* find next connection to send (note ccc idx is stored in timer status) */
        if ((pConn = basFindNextToSend(pMsg->status)) != NULL)
    3efe:	687b      	ldr	r3, [r7, #4]
    3f00:	78db      	ldrb	r3, [r3, #3]
    3f02:	4618      	mov	r0, r3
    3f04:	f7ff ff50 	bl	3da8 <basFindNextToSend>
    3f08:	60f8      	str	r0, [r7, #12]
    3f0a:	68fb      	ldr	r3, [r7, #12]
    3f0c:	2b00      	cmp	r3, #0
    3f0e:	d002      	beq.n	3f16 <basMeasTimerExp+0x5a>
        {
          basSendPeriodicBattlevel(pConn);
    3f10:	68f8      	ldr	r0, [r7, #12]
    3f12:	f7ff ff7f 	bl	3e14 <basSendPeriodicBattlevel>
        }
      }
    }
        
    /* restart timer */
    WsfTimerStartSec(&basCb.measTimer, basCb.cfg.period);    
    3f16:	4b04      	ldr	r3, [pc, #16]	; (3f28 <basMeasTimerExp+0x6c>)
    3f18:	69db      	ldr	r3, [r3, #28]
    3f1a:	4805      	ldr	r0, [pc, #20]	; (3f30 <basMeasTimerExp+0x74>)
    3f1c:	4619      	mov	r1, r3
    3f1e:	f001 f82d 	bl	4f7c <WsfTimerStartSec>
  }
}
    3f22:	3710      	adds	r7, #16
    3f24:	46bd      	mov	sp, r7
    3f26:	bd80      	pop	{r7, pc}
    3f28:	10000520 	.word	0x10000520
    3f2c:	10000547 	.word	0x10000547
    3f30:	1000052c 	.word	0x1000052c

00003f34 <BasInit>:
 *
 *  \return None.
 */
/*************************************************************************************************/
void BasInit(wsfHandlerId_t handlerId, basCfg_t *pCfg)
{
    3f34:	b480      	push	{r7}
    3f36:	b083      	sub	sp, #12
    3f38:	af00      	add	r7, sp, #0
    3f3a:	4603      	mov	r3, r0
    3f3c:	6039      	str	r1, [r7, #0]
    3f3e:	71fb      	strb	r3, [r7, #7]
  basCb.measTimer.handlerId = handlerId;
    3f40:	4b07      	ldr	r3, [pc, #28]	; (3f60 <BasInit+0x2c>)
    3f42:	79fa      	ldrb	r2, [r7, #7]
    3f44:	751a      	strb	r2, [r3, #20]
  basCb.cfg = *pCfg;
    3f46:	4b06      	ldr	r3, [pc, #24]	; (3f60 <BasInit+0x2c>)
    3f48:	683a      	ldr	r2, [r7, #0]
    3f4a:	331c      	adds	r3, #28
    3f4c:	e892 0003 	ldmia.w	r2, {r0, r1}
    3f50:	e883 0003 	stmia.w	r3, {r0, r1}
}
    3f54:	370c      	adds	r7, #12
    3f56:	46bd      	mov	sp, r7
    3f58:	f85d 7b04 	ldr.w	r7, [sp], #4
    3f5c:	4770      	bx	lr
    3f5e:	bf00      	nop
    3f60:	10000520 	.word	0x10000520

00003f64 <BasMeasBattStart>:
 *
 *  \return None.
 */
/*************************************************************************************************/
void BasMeasBattStart(dmConnId_t connId, uint8_t timerEvt, uint8_t battCccIdx)
{
    3f64:	b580      	push	{r7, lr}
    3f66:	b082      	sub	sp, #8
    3f68:	af00      	add	r7, sp, #0
    3f6a:	4613      	mov	r3, r2
    3f6c:	4602      	mov	r2, r0
    3f6e:	71fa      	strb	r2, [r7, #7]
    3f70:	460a      	mov	r2, r1
    3f72:	71ba      	strb	r2, [r7, #6]
    3f74:	717b      	strb	r3, [r7, #5]
  /* if this is first connection */
  if (basNoConnActive())
    3f76:	f7ff fed7 	bl	3d28 <basNoConnActive>
    3f7a:	4603      	mov	r3, r0
    3f7c:	2b00      	cmp	r3, #0
    3f7e:	d013      	beq.n	3fa8 <BasMeasBattStart+0x44>
  {   
    /* initialize control block */
    basCb.measTimer.msg.event = timerEvt;
    3f80:	4b14      	ldr	r3, [pc, #80]	; (3fd4 <BasMeasBattStart+0x70>)
    3f82:	79ba      	ldrb	r2, [r7, #6]
    3f84:	761a      	strb	r2, [r3, #24]
    basCb.measTimer.msg.status = battCccIdx;  
    3f86:	4b13      	ldr	r3, [pc, #76]	; (3fd4 <BasMeasBattStart+0x70>)
    3f88:	797a      	ldrb	r2, [r7, #5]
    3f8a:	765a      	strb	r2, [r3, #25]
    basCb.measBattLevel = BAS_BATT_LEVEL_INIT;
    3f8c:	4b11      	ldr	r3, [pc, #68]	; (3fd4 <BasMeasBattStart+0x70>)
    3f8e:	22ff      	movs	r2, #255	; 0xff
    3f90:	f883 2027 	strb.w	r2, [r3, #39]	; 0x27
    basCb.currCount = basCb.cfg.count;
    3f94:	4b0f      	ldr	r3, [pc, #60]	; (3fd4 <BasMeasBattStart+0x70>)
    3f96:	8c1a      	ldrh	r2, [r3, #32]
    3f98:	4b0e      	ldr	r3, [pc, #56]	; (3fd4 <BasMeasBattStart+0x70>)
    3f9a:	849a      	strh	r2, [r3, #36]	; 0x24
    
    /* start timer */
    WsfTimerStartSec(&basCb.measTimer, basCb.cfg.period);
    3f9c:	4b0d      	ldr	r3, [pc, #52]	; (3fd4 <BasMeasBattStart+0x70>)
    3f9e:	69db      	ldr	r3, [r3, #28]
    3fa0:	480d      	ldr	r0, [pc, #52]	; (3fd8 <BasMeasBattStart+0x74>)
    3fa2:	4619      	mov	r1, r3
    3fa4:	f000 ffea 	bl	4f7c <WsfTimerStartSec>
  }
  
  /* set conn id and last sent battery level */
  basCb.conn[connId - 1].connId = connId;  
    3fa8:	79fb      	ldrb	r3, [r7, #7]
    3faa:	1e5a      	subs	r2, r3, #1
    3fac:	4909      	ldr	r1, [pc, #36]	; (3fd4 <BasMeasBattStart+0x70>)
    3fae:	4613      	mov	r3, r2
    3fb0:	005b      	lsls	r3, r3, #1
    3fb2:	4413      	add	r3, r2
    3fb4:	440b      	add	r3, r1
    3fb6:	79fa      	ldrb	r2, [r7, #7]
    3fb8:	701a      	strb	r2, [r3, #0]
  basCb.conn[connId - 1].sentBattLevel = BAS_BATT_LEVEL_INIT;
    3fba:	79fb      	ldrb	r3, [r7, #7]
    3fbc:	1e5a      	subs	r2, r3, #1
    3fbe:	4905      	ldr	r1, [pc, #20]	; (3fd4 <BasMeasBattStart+0x70>)
    3fc0:	4613      	mov	r3, r2
    3fc2:	005b      	lsls	r3, r3, #1
    3fc4:	4413      	add	r3, r2
    3fc6:	440b      	add	r3, r1
    3fc8:	22ff      	movs	r2, #255	; 0xff
    3fca:	709a      	strb	r2, [r3, #2]
}
    3fcc:	3708      	adds	r7, #8
    3fce:	46bd      	mov	sp, r7
    3fd0:	bd80      	pop	{r7, pc}
    3fd2:	bf00      	nop
    3fd4:	10000520 	.word	0x10000520
    3fd8:	1000052c 	.word	0x1000052c

00003fdc <BasMeasBattStop>:
 *
 *  \return None.
 */
/*************************************************************************************************/
void BasMeasBattStop(dmConnId_t connId)
{
    3fdc:	b580      	push	{r7, lr}
    3fde:	b082      	sub	sp, #8
    3fe0:	af00      	add	r7, sp, #0
    3fe2:	4603      	mov	r3, r0
    3fe4:	71fb      	strb	r3, [r7, #7]
  /* clear connection */
  basCb.conn[connId - 1].connId = DM_CONN_ID_NONE;
    3fe6:	79fb      	ldrb	r3, [r7, #7]
    3fe8:	1e5a      	subs	r2, r3, #1
    3fea:	490d      	ldr	r1, [pc, #52]	; (4020 <BasMeasBattStop+0x44>)
    3fec:	4613      	mov	r3, r2
    3fee:	005b      	lsls	r3, r3, #1
    3ff0:	4413      	add	r3, r2
    3ff2:	440b      	add	r3, r1
    3ff4:	2200      	movs	r2, #0
    3ff6:	701a      	strb	r2, [r3, #0]
  basCb.conn[connId - 1].battToSend = FALSE;
    3ff8:	79fb      	ldrb	r3, [r7, #7]
    3ffa:	1e5a      	subs	r2, r3, #1
    3ffc:	4908      	ldr	r1, [pc, #32]	; (4020 <BasMeasBattStop+0x44>)
    3ffe:	4613      	mov	r3, r2
    4000:	005b      	lsls	r3, r3, #1
    4002:	4413      	add	r3, r2
    4004:	440b      	add	r3, r1
    4006:	2200      	movs	r2, #0
    4008:	705a      	strb	r2, [r3, #1]
  
  /* if no remaining connections */
  if (basNoConnActive())
    400a:	f7ff fe8d 	bl	3d28 <basNoConnActive>
    400e:	4603      	mov	r3, r0
    4010:	2b00      	cmp	r3, #0
    4012:	d002      	beq.n	401a <BasMeasBattStop+0x3e>
  {
    /* stop timer */
    WsfTimerStop(&basCb.measTimer);
    4014:	4803      	ldr	r0, [pc, #12]	; (4024 <BasMeasBattStop+0x48>)
    4016:	f000 ffd5 	bl	4fc4 <WsfTimerStop>
  }
}
    401a:	3708      	adds	r7, #8
    401c:	46bd      	mov	sp, r7
    401e:	bd80      	pop	{r7, pc}
    4020:	10000520 	.word	0x10000520
    4024:	1000052c 	.word	0x1000052c

00004028 <BasProcMsg>:
 *
 *  \return None.
 */
/*************************************************************************************************/
void BasProcMsg(wsfMsgHdr_t *pMsg)
{
    4028:	b580      	push	{r7, lr}
    402a:	b082      	sub	sp, #8
    402c:	af00      	add	r7, sp, #0
    402e:	6078      	str	r0, [r7, #4]
  if (pMsg->event == DM_CONN_OPEN_IND)
    4030:	687b      	ldr	r3, [r7, #4]
    4032:	789b      	ldrb	r3, [r3, #2]
    4034:	2b27      	cmp	r3, #39	; 0x27
    4036:	d103      	bne.n	4040 <BasProcMsg+0x18>
  {
    basConnOpen((dmEvt_t *) pMsg);
    4038:	6878      	ldr	r0, [r7, #4]
    403a:	f7ff ff0d 	bl	3e58 <basConnOpen>
    403e:	e010      	b.n	4062 <BasProcMsg+0x3a>
  }
  else if (pMsg->event == ATTS_HANDLE_VALUE_CNF)
    4040:	687b      	ldr	r3, [r7, #4]
    4042:	789b      	ldrb	r3, [r3, #2]
    4044:	2b0f      	cmp	r3, #15
    4046:	d103      	bne.n	4050 <BasProcMsg+0x28>
  {
    basHandleValueCnf((attEvt_t *) pMsg);
    4048:	6878      	ldr	r0, [r7, #4]
    404a:	f7ff ff15 	bl	3e78 <basHandleValueCnf>
    404e:	e008      	b.n	4062 <BasProcMsg+0x3a>
  }
  else if (pMsg->event == basCb.measTimer.msg.event)
    4050:	687b      	ldr	r3, [r7, #4]
    4052:	789a      	ldrb	r2, [r3, #2]
    4054:	4b04      	ldr	r3, [pc, #16]	; (4068 <BasProcMsg+0x40>)
    4056:	7e1b      	ldrb	r3, [r3, #24]
    4058:	429a      	cmp	r2, r3
    405a:	d102      	bne.n	4062 <BasProcMsg+0x3a>
  {
    basMeasTimerExp(pMsg);
    405c:	6878      	ldr	r0, [r7, #4]
    405e:	f7ff ff2d 	bl	3ebc <basMeasTimerExp>
  }
}
    4062:	3708      	adds	r7, #8
    4064:	46bd      	mov	sp, r7
    4066:	bd80      	pop	{r7, pc}
    4068:	10000520 	.word	0x10000520

0000406c <BasSendBattLevel>:
 *
 *  \return None.
 */
/*************************************************************************************************/
void BasSendBattLevel(dmConnId_t connId, uint8_t idx, uint8_t level)
{
    406c:	b580      	push	{r7, lr}
    406e:	b082      	sub	sp, #8
    4070:	af00      	add	r7, sp, #0
    4072:	4613      	mov	r3, r2
    4074:	4602      	mov	r2, r0
    4076:	71fa      	strb	r2, [r7, #7]
    4078:	460a      	mov	r2, r1
    407a:	71ba      	strb	r2, [r7, #6]
    407c:	717b      	strb	r3, [r7, #5]
  if (AttsCccEnabled(connId, idx))
    407e:	79fa      	ldrb	r2, [r7, #7]
    4080:	79bb      	ldrb	r3, [r7, #6]
    4082:	4610      	mov	r0, r2
    4084:	4619      	mov	r1, r3
    4086:	f002 fc8b 	bl	69a0 <AttsCccEnabled>
    408a:	4603      	mov	r3, r0
    408c:	2b00      	cmp	r3, #0
    408e:	d006      	beq.n	409e <BasSendBattLevel+0x32>
  {
    AttsHandleValueNtf(connId, BATT_LVL_HDL, CH_BATT_LEVEL_LEN, &level);
    4090:	79fa      	ldrb	r2, [r7, #7]
    4092:	1d7b      	adds	r3, r7, #5
    4094:	4610      	mov	r0, r2
    4096:	2162      	movs	r1, #98	; 0x62
    4098:	2201      	movs	r2, #1
    409a:	f002 fdd0 	bl	6c3e <AttsHandleValueNtf>
  }
}
    409e:	3708      	adds	r7, #8
    40a0:	46bd      	mov	sp, r7
    40a2:	bd80      	pop	{r7, pc}

000040a4 <BasReadCback>:
 *  \return ATT status.
 */
/*************************************************************************************************/
uint8_t BasReadCback(dmConnId_t connId, uint16_t handle, uint8_t operation,
                     uint16_t offset, attsAttr_t *pAttr)
{
    40a4:	b580      	push	{r7, lr}
    40a6:	b082      	sub	sp, #8
    40a8:	af00      	add	r7, sp, #0
    40aa:	71f8      	strb	r0, [r7, #7]
    40ac:	80b9      	strh	r1, [r7, #4]
    40ae:	71ba      	strb	r2, [r7, #6]
    40b0:	807b      	strh	r3, [r7, #2]
  /* read the battery level and set attribute value */
  AppHwBattRead(pAttr->pValue);
    40b2:	693b      	ldr	r3, [r7, #16]
    40b4:	685b      	ldr	r3, [r3, #4]
    40b6:	4618      	mov	r0, r3
    40b8:	f7fc ffce 	bl	1058 <AppHwBattRead>
  
  return ATT_SUCCESS;
    40bc:	2300      	movs	r3, #0
}
    40be:	4618      	mov	r0, r3
    40c0:	3708      	adds	r7, #8
    40c2:	46bd      	mov	sp, r7
    40c4:	bd80      	pop	{r7, pc}
    40c6:	bf00      	nop

000040c8 <hrpsNoConnActive>:
 *
 *  \return TRUE if no connections active.
 */
/*************************************************************************************************/
static bool_t hrpsNoConnActive(void)
{
    40c8:	b480      	push	{r7}
    40ca:	b083      	sub	sp, #12
    40cc:	af00      	add	r7, sp, #0
  hrpsConn_t    *pConn = hrpsCb.conn;
    40ce:	4b0d      	ldr	r3, [pc, #52]	; (4104 <hrpsNoConnActive+0x3c>)
    40d0:	607b      	str	r3, [r7, #4]
  uint8_t       i;
  
  for (i = 0; i < DM_CONN_MAX; i++, pConn++)
    40d2:	2300      	movs	r3, #0
    40d4:	70fb      	strb	r3, [r7, #3]
    40d6:	e00b      	b.n	40f0 <hrpsNoConnActive+0x28>
  {
    if (pConn->connId != DM_CONN_ID_NONE)
    40d8:	687b      	ldr	r3, [r7, #4]
    40da:	781b      	ldrb	r3, [r3, #0]
    40dc:	2b00      	cmp	r3, #0
    40de:	d001      	beq.n	40e4 <hrpsNoConnActive+0x1c>
    {      
      return FALSE;
    40e0:	2300      	movs	r3, #0
    40e2:	e009      	b.n	40f8 <hrpsNoConnActive+0x30>
static bool_t hrpsNoConnActive(void)
{
  hrpsConn_t    *pConn = hrpsCb.conn;
  uint8_t       i;
  
  for (i = 0; i < DM_CONN_MAX; i++, pConn++)
    40e4:	78fb      	ldrb	r3, [r7, #3]
    40e6:	3301      	adds	r3, #1
    40e8:	70fb      	strb	r3, [r7, #3]
    40ea:	687b      	ldr	r3, [r7, #4]
    40ec:	3302      	adds	r3, #2
    40ee:	607b      	str	r3, [r7, #4]
    40f0:	78fb      	ldrb	r3, [r7, #3]
    40f2:	2b02      	cmp	r3, #2
    40f4:	d9f0      	bls.n	40d8 <hrpsNoConnActive+0x10>
    if (pConn->connId != DM_CONN_ID_NONE)
    {      
      return FALSE;
    }
  }
  return TRUE;
    40f6:	2301      	movs	r3, #1
}
    40f8:	4618      	mov	r0, r3
    40fa:	370c      	adds	r7, #12
    40fc:	46bd      	mov	sp, r7
    40fe:	f85d 7b04 	ldr.w	r7, [sp], #4
    4102:	4770      	bx	lr
    4104:	10000548 	.word	0x10000548

00004108 <hrpsSetupToSend>:
 *
 *  \return None.
 */
/*************************************************************************************************/
static void hrpsSetupToSend(void)
{
    4108:	b480      	push	{r7}
    410a:	b083      	sub	sp, #12
    410c:	af00      	add	r7, sp, #0
  hrpsConn_t    *pConn = hrpsCb.conn;
    410e:	4b0d      	ldr	r3, [pc, #52]	; (4144 <hrpsSetupToSend+0x3c>)
    4110:	607b      	str	r3, [r7, #4]
  uint8_t       i;
  
  for (i = 0; i < DM_CONN_MAX; i++, pConn++)
    4112:	2300      	movs	r3, #0
    4114:	70fb      	strb	r3, [r7, #3]
    4116:	e00c      	b.n	4132 <hrpsSetupToSend+0x2a>
  {
    if (pConn->connId != DM_CONN_ID_NONE)
    4118:	687b      	ldr	r3, [r7, #4]
    411a:	781b      	ldrb	r3, [r3, #0]
    411c:	2b00      	cmp	r3, #0
    411e:	d002      	beq.n	4126 <hrpsSetupToSend+0x1e>
    {      
      pConn->hrmToSend = TRUE;
    4120:	687b      	ldr	r3, [r7, #4]
    4122:	2201      	movs	r2, #1
    4124:	705a      	strb	r2, [r3, #1]
static void hrpsSetupToSend(void)
{
  hrpsConn_t    *pConn = hrpsCb.conn;
  uint8_t       i;
  
  for (i = 0; i < DM_CONN_MAX; i++, pConn++)
    4126:	78fb      	ldrb	r3, [r7, #3]
    4128:	3301      	adds	r3, #1
    412a:	70fb      	strb	r3, [r7, #3]
    412c:	687b      	ldr	r3, [r7, #4]
    412e:	3302      	adds	r3, #2
    4130:	607b      	str	r3, [r7, #4]
    4132:	78fb      	ldrb	r3, [r7, #3]
    4134:	2b02      	cmp	r3, #2
    4136:	d9ef      	bls.n	4118 <hrpsSetupToSend+0x10>
    if (pConn->connId != DM_CONN_ID_NONE)
    {      
      pConn->hrmToSend = TRUE;
    }
  }
}
    4138:	370c      	adds	r7, #12
    413a:	46bd      	mov	sp, r7
    413c:	f85d 7b04 	ldr.w	r7, [sp], #4
    4140:	4770      	bx	lr
    4142:	bf00      	nop
    4144:	10000548 	.word	0x10000548

00004148 <hrpsFindNextToSend>:
 *
 *  \return Connection control block.
 */
/*************************************************************************************************/
static hrpsConn_t *hrpsFindNextToSend(uint8_t cccIdx)
{
    4148:	b580      	push	{r7, lr}
    414a:	b084      	sub	sp, #16
    414c:	af00      	add	r7, sp, #0
    414e:	4603      	mov	r3, r0
    4150:	71fb      	strb	r3, [r7, #7]
  hrpsConn_t    *pConn = hrpsCb.conn;
    4152:	4b13      	ldr	r3, [pc, #76]	; (41a0 <hrpsFindNextToSend+0x58>)
    4154:	60fb      	str	r3, [r7, #12]
  uint8_t       i;
  
  for (i = 0; i < DM_CONN_MAX; i++, pConn++)
    4156:	2300      	movs	r3, #0
    4158:	72fb      	strb	r3, [r7, #11]
    415a:	e019      	b.n	4190 <hrpsFindNextToSend+0x48>
  {
    if (pConn->connId != DM_CONN_ID_NONE && pConn->hrmToSend)
    415c:	68fb      	ldr	r3, [r7, #12]
    415e:	781b      	ldrb	r3, [r3, #0]
    4160:	2b00      	cmp	r3, #0
    4162:	d00f      	beq.n	4184 <hrpsFindNextToSend+0x3c>
    4164:	68fb      	ldr	r3, [r7, #12]
    4166:	785b      	ldrb	r3, [r3, #1]
    4168:	2b00      	cmp	r3, #0
    416a:	d00b      	beq.n	4184 <hrpsFindNextToSend+0x3c>
    {
      if (AttsCccEnabled(pConn->connId, cccIdx))
    416c:	68fb      	ldr	r3, [r7, #12]
    416e:	781a      	ldrb	r2, [r3, #0]
    4170:	79fb      	ldrb	r3, [r7, #7]
    4172:	4610      	mov	r0, r2
    4174:	4619      	mov	r1, r3
    4176:	f002 fc13 	bl	69a0 <AttsCccEnabled>
    417a:	4603      	mov	r3, r0
    417c:	2b00      	cmp	r3, #0
    417e:	d001      	beq.n	4184 <hrpsFindNextToSend+0x3c>
      {
        return pConn;
    4180:	68fb      	ldr	r3, [r7, #12]
    4182:	e009      	b.n	4198 <hrpsFindNextToSend+0x50>
static hrpsConn_t *hrpsFindNextToSend(uint8_t cccIdx)
{
  hrpsConn_t    *pConn = hrpsCb.conn;
  uint8_t       i;
  
  for (i = 0; i < DM_CONN_MAX; i++, pConn++)
    4184:	7afb      	ldrb	r3, [r7, #11]
    4186:	3301      	adds	r3, #1
    4188:	72fb      	strb	r3, [r7, #11]
    418a:	68fb      	ldr	r3, [r7, #12]
    418c:	3302      	adds	r3, #2
    418e:	60fb      	str	r3, [r7, #12]
    4190:	7afb      	ldrb	r3, [r7, #11]
    4192:	2b02      	cmp	r3, #2
    4194:	d9e2      	bls.n	415c <hrpsFindNextToSend+0x14>
      {
        return pConn;
      }
    }
  }
  return NULL;
    4196:	2300      	movs	r3, #0
}
    4198:	4618      	mov	r0, r3
    419a:	3710      	adds	r7, #16
    419c:	46bd      	mov	sp, r7
    419e:	bd80      	pop	{r7, pc}
    41a0:	10000548 	.word	0x10000548

000041a4 <hrpsSendHrmNtf>:
 *
 *  \return None.
 */
/*************************************************************************************************/
static void hrpsSendHrmNtf(dmConnId_t connId)
{
    41a4:	b590      	push	{r4, r7, lr}
    41a6:	b0b7      	sub	sp, #220	; 0xdc
    41a8:	af00      	add	r7, sp, #0
    41aa:	4603      	mov	r3, r0
    41ac:	71fb      	strb	r3, [r7, #7]
                       21,22,23,24,25,26,272,8,29,30,31,32,33,34,35,36,37,38,39,40,
                       41,42,43,44,45,46,47,48,49,50,51,52,53,54,55,56,57,58,59,60,
                       61,62,63,64,65,66,67,68,69,70,71,72,73,74,75,76,77,78,79,80,
                       81,82,83,84,85,86,87,88,89,90,91,92,93,94,95,96,97,98,99,100,
                       101,102,103,104,105,106,107,108,109,110,111,112,113,114,115,116,117,118,119}; */
  uint8_t len=20,i;
    41ae:	2314      	movs	r3, #20
    41b0:	f887 30d6 	strb.w	r3, [r7, #214]	; 0xd6

  /* send notification */
  AttsHandleValueNtf(connId, HRS_HRM_HDL, len, buf);
#endif

  for(i=0; i<200; i++)
    41b4:	2300      	movs	r3, #0
    41b6:	f887 30d7 	strb.w	r3, [r7, #215]	; 0xd7
    41ba:	e00f      	b.n	41dc <hrpsSendHrmNtf+0x38>
  {
      buf[i] = i+1;
    41bc:	f897 30d7 	ldrb.w	r3, [r7, #215]	; 0xd7
    41c0:	f897 20d7 	ldrb.w	r2, [r7, #215]	; 0xd7
    41c4:	3201      	adds	r2, #1
    41c6:	b2d2      	uxtb	r2, r2
    41c8:	f107 01d8 	add.w	r1, r7, #216	; 0xd8
    41cc:	440b      	add	r3, r1
    41ce:	f803 2ccc 	strb.w	r2, [r3, #-204]

  /* send notification */
  AttsHandleValueNtf(connId, HRS_HRM_HDL, len, buf);
#endif

  for(i=0; i<200; i++)
    41d2:	f897 30d7 	ldrb.w	r3, [r7, #215]	; 0xd7
    41d6:	3301      	adds	r3, #1
    41d8:	f887 30d7 	strb.w	r3, [r7, #215]	; 0xd7
    41dc:	f897 30d7 	ldrb.w	r3, [r7, #215]	; 0xd7
    41e0:	2bc7      	cmp	r3, #199	; 0xc7
    41e2:	d9eb      	bls.n	41bc <hrpsSendHrmNtf+0x18>
  {
      buf[i] = i+1;
  }

  for(i=0; i<10; i++)
    41e4:	2300      	movs	r3, #0
    41e6:	f887 30d7 	strb.w	r3, [r7, #215]	; 0xd7
    41ea:	e016      	b.n	421a <hrpsSendHrmNtf+0x76>
  {
      /* send notification */
      AttsHandleValueNtf(connId, HRS_HRM_HDL, len, &buf[i*20]);
    41ec:	f897 30d6 	ldrb.w	r3, [r7, #214]	; 0xd6
    41f0:	b29c      	uxth	r4, r3
    41f2:	f897 20d7 	ldrb.w	r2, [r7, #215]	; 0xd7
    41f6:	4613      	mov	r3, r2
    41f8:	009b      	lsls	r3, r3, #2
    41fa:	4413      	add	r3, r2
    41fc:	009b      	lsls	r3, r3, #2
    41fe:	f107 020c 	add.w	r2, r7, #12
    4202:	4413      	add	r3, r2
    4204:	79fa      	ldrb	r2, [r7, #7]
    4206:	4610      	mov	r0, r2
    4208:	2122      	movs	r1, #34	; 0x22
    420a:	4622      	mov	r2, r4
    420c:	f002 fd17 	bl	6c3e <AttsHandleValueNtf>
  for(i=0; i<200; i++)
  {
      buf[i] = i+1;
  }

  for(i=0; i<10; i++)
    4210:	f897 30d7 	ldrb.w	r3, [r7, #215]	; 0xd7
    4214:	3301      	adds	r3, #1
    4216:	f887 30d7 	strb.w	r3, [r7, #215]	; 0xd7
    421a:	f897 30d7 	ldrb.w	r3, [r7, #215]	; 0xd7
    421e:	2b09      	cmp	r3, #9
    4220:	d9e4      	bls.n	41ec <hrpsSendHrmNtf+0x48>
  {
      /* send notification */
      AttsHandleValueNtf(connId, HRS_HRM_HDL, len, &buf[i*20]);
    //AttsHandleValueNtf(connId, HRS_HRM_HDL, len, &buf[0]);
  }
}
    4222:	37dc      	adds	r7, #220	; 0xdc
    4224:	46bd      	mov	sp, r7
    4226:	bd90      	pop	{r4, r7, pc}

00004228 <hrpsConnOpen>:
 *
 *  \return None.
 */
/*************************************************************************************************/
static void hrpsConnOpen(dmEvt_t *pMsg)
{
    4228:	b480      	push	{r7}
    422a:	b083      	sub	sp, #12
    422c:	af00      	add	r7, sp, #0
    422e:	6078      	str	r0, [r7, #4]
  hrpsCb.txReady = TRUE;
    4230:	4b04      	ldr	r3, [pc, #16]	; (4244 <hrpsConnOpen+0x1c>)
    4232:	2201      	movs	r2, #1
    4234:	f883 202a 	strb.w	r2, [r3, #42]	; 0x2a
}
    4238:	370c      	adds	r7, #12
    423a:	46bd      	mov	sp, r7
    423c:	f85d 7b04 	ldr.w	r7, [sp], #4
    4240:	4770      	bx	lr
    4242:	bf00      	nop
    4244:	10000548 	.word	0x10000548

00004248 <hrpsHandleValueCnf>:
 *
 *  \return None.
 */
/*************************************************************************************************/
static void hrpsHandleValueCnf(attEvt_t *pMsg)
{
    4248:	b580      	push	{r7, lr}
    424a:	b084      	sub	sp, #16
    424c:	af00      	add	r7, sp, #0
    424e:	6078      	str	r0, [r7, #4]
  hrpsConn_t  *pConn;

  if (pMsg->hdr.status == ATT_SUCCESS && pMsg->handle == HRS_HRM_HDL)
    4250:	687b      	ldr	r3, [r7, #4]
    4252:	78db      	ldrb	r3, [r3, #3]
    4254:	2b00      	cmp	r3, #0
    4256:	d11c      	bne.n	4292 <hrpsHandleValueCnf+0x4a>
    4258:	687b      	ldr	r3, [r7, #4]
    425a:	895b      	ldrh	r3, [r3, #10]
    425c:	2b22      	cmp	r3, #34	; 0x22
    425e:	d118      	bne.n	4292 <hrpsHandleValueCnf+0x4a>
  {
    hrpsCb.txReady = TRUE;
    4260:	4b0d      	ldr	r3, [pc, #52]	; (4298 <hrpsHandleValueCnf+0x50>)
    4262:	2201      	movs	r2, #1
    4264:	f883 202a 	strb.w	r2, [r3, #42]	; 0x2a
  
    /* find next connection to send (note ccc idx is stored in timer status) */
    if ((pConn = hrpsFindNextToSend(hrpsCb.measTimer.msg.status)) != NULL)
    4268:	4b0b      	ldr	r3, [pc, #44]	; (4298 <hrpsHandleValueCnf+0x50>)
    426a:	7d5b      	ldrb	r3, [r3, #21]
    426c:	4618      	mov	r0, r3
    426e:	f7ff ff6b 	bl	4148 <hrpsFindNextToSend>
    4272:	60f8      	str	r0, [r7, #12]
    4274:	68fb      	ldr	r3, [r7, #12]
    4276:	2b00      	cmp	r3, #0
    4278:	d00b      	beq.n	4292 <hrpsHandleValueCnf+0x4a>
    {
      hrpsSendHrmNtf(pConn->connId);
    427a:	68fb      	ldr	r3, [r7, #12]
    427c:	781b      	ldrb	r3, [r3, #0]
    427e:	4618      	mov	r0, r3
    4280:	f7ff ff90 	bl	41a4 <hrpsSendHrmNtf>
      hrpsCb.txReady = FALSE;
    4284:	4b04      	ldr	r3, [pc, #16]	; (4298 <hrpsHandleValueCnf+0x50>)
    4286:	2200      	movs	r2, #0
    4288:	f883 202a 	strb.w	r2, [r3, #42]	; 0x2a
      pConn->hrmToSend = FALSE;
    428c:	68fb      	ldr	r3, [r7, #12]
    428e:	2200      	movs	r2, #0
    4290:	705a      	strb	r2, [r3, #1]
    }
  }
}
    4292:	3710      	adds	r7, #16
    4294:	46bd      	mov	sp, r7
    4296:	bd80      	pop	{r7, pc}
    4298:	10000548 	.word	0x10000548

0000429c <hrpsMeasTimerExp>:
 *
 *  \return None.
 */
/*************************************************************************************************/
void hrpsMeasTimerExp(wsfMsgHdr_t *pMsg)
{
    429c:	b580      	push	{r7, lr}
    429e:	b084      	sub	sp, #16
    42a0:	af00      	add	r7, sp, #0
    42a2:	6078      	str	r0, [r7, #4]
  hrpsConn_t  *pConn;

  /* if there are active connections */
  if (hrpsNoConnActive() == FALSE)
    42a4:	f7ff ff10 	bl	40c8 <hrpsNoConnActive>
    42a8:	4603      	mov	r3, r0
    42aa:	2b00      	cmp	r3, #0
    42ac:	d12a      	bne.n	4304 <hrpsMeasTimerExp+0x68>
  {
  
    /* set up heart rate measurement to be sent on all connections */
    hrpsSetupToSend();
    42ae:	f7ff ff2b 	bl	4108 <hrpsSetupToSend>

    /* read heart rate measurement sensor data */
    AppHwHrmRead(&hrpsCb.hrm);
    42b2:	4816      	ldr	r0, [pc, #88]	; (430c <hrpsMeasTimerExp+0x70>)
    42b4:	f7fc fee0 	bl	1078 <AppHwHrmRead>
  
    /* if ready to send measurements */
    if (hrpsCb.txReady)
    42b8:	4b15      	ldr	r3, [pc, #84]	; (4310 <hrpsMeasTimerExp+0x74>)
    42ba:	f893 302a 	ldrb.w	r3, [r3, #42]	; 0x2a
    42be:	2b00      	cmp	r3, #0
    42c0:	d014      	beq.n	42ec <hrpsMeasTimerExp+0x50>
    {
      /* find next connection to send (note ccc idx is stored in timer status) */
      if ((pConn = hrpsFindNextToSend(pMsg->status)) != NULL)
    42c2:	687b      	ldr	r3, [r7, #4]
    42c4:	78db      	ldrb	r3, [r3, #3]
    42c6:	4618      	mov	r0, r3
    42c8:	f7ff ff3e 	bl	4148 <hrpsFindNextToSend>
    42cc:	60f8      	str	r0, [r7, #12]
    42ce:	68fb      	ldr	r3, [r7, #12]
    42d0:	2b00      	cmp	r3, #0
    42d2:	d00b      	beq.n	42ec <hrpsMeasTimerExp+0x50>
      {
        hrpsSendHrmNtf(pConn->connId);
    42d4:	68fb      	ldr	r3, [r7, #12]
    42d6:	781b      	ldrb	r3, [r3, #0]
    42d8:	4618      	mov	r0, r3
    42da:	f7ff ff63 	bl	41a4 <hrpsSendHrmNtf>
        hrpsCb.txReady = FALSE;
    42de:	4b0c      	ldr	r3, [pc, #48]	; (4310 <hrpsMeasTimerExp+0x74>)
    42e0:	2200      	movs	r2, #0
    42e2:	f883 202a 	strb.w	r2, [r3, #42]	; 0x2a
        pConn->hrmToSend = FALSE;
    42e6:	68fb      	ldr	r3, [r7, #12]
    42e8:	2200      	movs	r2, #0
    42ea:	705a      	strb	r2, [r3, #1]
      }
    }
    
    /* restart timer */
    WsfTimerStartMs(&hrpsCb.measTimer, hrpsCb.cfg.period);
    42ec:	4b08      	ldr	r3, [pc, #32]	; (4310 <hrpsMeasTimerExp+0x74>)
    42ee:	6a5b      	ldr	r3, [r3, #36]	; 0x24
    42f0:	4808      	ldr	r0, [pc, #32]	; (4314 <hrpsMeasTimerExp+0x78>)
    42f2:	4619      	mov	r1, r3
    42f4:	f000 fe52 	bl	4f9c <WsfTimerStartMs>
    
    /* increment energy expended for test/demonstration purposes */
    hrpsCb.hrm.energyExp++;
    42f8:	4b05      	ldr	r3, [pc, #20]	; (4310 <hrpsMeasTimerExp+0x74>)
    42fa:	8bdb      	ldrh	r3, [r3, #30]
    42fc:	3301      	adds	r3, #1
    42fe:	b29a      	uxth	r2, r3
    4300:	4b03      	ldr	r3, [pc, #12]	; (4310 <hrpsMeasTimerExp+0x74>)
    4302:	83da      	strh	r2, [r3, #30]
  }
}
    4304:	3710      	adds	r7, #16
    4306:	46bd      	mov	sp, r7
    4308:	bd80      	pop	{r7, pc}
    430a:	bf00      	nop
    430c:	10000560 	.word	0x10000560
    4310:	10000548 	.word	0x10000548
    4314:	10000550 	.word	0x10000550

00004318 <HrpsInit>:
 *
 *  \return None.
 */
/*************************************************************************************************/
void HrpsInit(wsfHandlerId_t handlerId, hrpsCfg_t *pCfg)
{
    4318:	b480      	push	{r7}
    431a:	b083      	sub	sp, #12
    431c:	af00      	add	r7, sp, #0
    431e:	4603      	mov	r3, r0
    4320:	6039      	str	r1, [r7, #0]
    4322:	71fb      	strb	r3, [r7, #7]
  hrpsCb.measTimer.handlerId = handlerId;
    4324:	4b05      	ldr	r3, [pc, #20]	; (433c <HrpsInit+0x24>)
    4326:	79fa      	ldrb	r2, [r7, #7]
    4328:	741a      	strb	r2, [r3, #16]
  hrpsCb.cfg = *pCfg;
    432a:	4b04      	ldr	r3, [pc, #16]	; (433c <HrpsInit+0x24>)
    432c:	683a      	ldr	r2, [r7, #0]
    432e:	6812      	ldr	r2, [r2, #0]
    4330:	625a      	str	r2, [r3, #36]	; 0x24
}
    4332:	370c      	adds	r7, #12
    4334:	46bd      	mov	sp, r7
    4336:	f85d 7b04 	ldr.w	r7, [sp], #4
    433a:	4770      	bx	lr
    433c:	10000548 	.word	0x10000548

00004340 <HrpsMeasStart>:
 *
 *  \return None.
 */
/*************************************************************************************************/
void HrpsMeasStart(dmConnId_t connId, uint8_t timerEvt, uint8_t hrmCccIdx)
{
    4340:	b580      	push	{r7, lr}
    4342:	b082      	sub	sp, #8
    4344:	af00      	add	r7, sp, #0
    4346:	4613      	mov	r3, r2
    4348:	4602      	mov	r2, r0
    434a:	71fa      	strb	r2, [r7, #7]
    434c:	460a      	mov	r2, r1
    434e:	71ba      	strb	r2, [r7, #6]
    4350:	717b      	strb	r3, [r7, #5]
  /* if this is first connection */
  if (hrpsNoConnActive())
    4352:	f7ff feb9 	bl	40c8 <hrpsNoConnActive>
    4356:	4603      	mov	r3, r0
    4358:	2b00      	cmp	r3, #0
    435a:	d00b      	beq.n	4374 <HrpsMeasStart+0x34>
  {
    /* initialize control block */
    hrpsCb.measTimer.msg.event = timerEvt;
    435c:	4b0a      	ldr	r3, [pc, #40]	; (4388 <HrpsMeasStart+0x48>)
    435e:	79ba      	ldrb	r2, [r7, #6]
    4360:	751a      	strb	r2, [r3, #20]
    hrpsCb.measTimer.msg.status = hrmCccIdx;  
    4362:	4b09      	ldr	r3, [pc, #36]	; (4388 <HrpsMeasStart+0x48>)
    4364:	797a      	ldrb	r2, [r7, #5]
    4366:	755a      	strb	r2, [r3, #21]
    
    /* start timer */
    WsfTimerStartMs(&hrpsCb.measTimer, hrpsCb.cfg.period);
    4368:	4b07      	ldr	r3, [pc, #28]	; (4388 <HrpsMeasStart+0x48>)
    436a:	6a5b      	ldr	r3, [r3, #36]	; 0x24
    436c:	4807      	ldr	r0, [pc, #28]	; (438c <HrpsMeasStart+0x4c>)
    436e:	4619      	mov	r1, r3
    4370:	f000 fe14 	bl	4f9c <WsfTimerStartMs>
  }
  
  /* set conn id */
  hrpsCb.conn[connId - 1].connId = connId;
    4374:	79fb      	ldrb	r3, [r7, #7]
    4376:	1e5a      	subs	r2, r3, #1
    4378:	4b03      	ldr	r3, [pc, #12]	; (4388 <HrpsMeasStart+0x48>)
    437a:	79f9      	ldrb	r1, [r7, #7]
    437c:	f803 1012 	strb.w	r1, [r3, r2, lsl #1]
}
    4380:	3708      	adds	r7, #8
    4382:	46bd      	mov	sp, r7
    4384:	bd80      	pop	{r7, pc}
    4386:	bf00      	nop
    4388:	10000548 	.word	0x10000548
    438c:	10000550 	.word	0x10000550

00004390 <HrpsMeasStop>:
 *
 *  \return None.
 */
/*************************************************************************************************/
void HrpsMeasStop(dmConnId_t connId)
{
    4390:	b580      	push	{r7, lr}
    4392:	b082      	sub	sp, #8
    4394:	af00      	add	r7, sp, #0
    4396:	4603      	mov	r3, r0
    4398:	71fb      	strb	r3, [r7, #7]
  /* clear connection */
  hrpsCb.conn[connId - 1].connId = DM_CONN_ID_NONE;
    439a:	79fb      	ldrb	r3, [r7, #7]
    439c:	1e5a      	subs	r2, r3, #1
    439e:	4b0b      	ldr	r3, [pc, #44]	; (43cc <HrpsMeasStop+0x3c>)
    43a0:	2100      	movs	r1, #0
    43a2:	f803 1012 	strb.w	r1, [r3, r2, lsl #1]
  hrpsCb.conn[connId - 1].hrmToSend = FALSE;
    43a6:	79fb      	ldrb	r3, [r7, #7]
    43a8:	3b01      	subs	r3, #1
    43aa:	4a08      	ldr	r2, [pc, #32]	; (43cc <HrpsMeasStop+0x3c>)
    43ac:	005b      	lsls	r3, r3, #1
    43ae:	4413      	add	r3, r2
    43b0:	2200      	movs	r2, #0
    43b2:	705a      	strb	r2, [r3, #1]
  
  /* if no remaining connections */
  if (hrpsNoConnActive())
    43b4:	f7ff fe88 	bl	40c8 <hrpsNoConnActive>
    43b8:	4603      	mov	r3, r0
    43ba:	2b00      	cmp	r3, #0
    43bc:	d002      	beq.n	43c4 <HrpsMeasStop+0x34>
  {  
    /* stop timer */
    WsfTimerStop(&hrpsCb.measTimer);
    43be:	4804      	ldr	r0, [pc, #16]	; (43d0 <HrpsMeasStop+0x40>)
    43c0:	f000 fe00 	bl	4fc4 <WsfTimerStop>
  }
}
    43c4:	3708      	adds	r7, #8
    43c6:	46bd      	mov	sp, r7
    43c8:	bd80      	pop	{r7, pc}
    43ca:	bf00      	nop
    43cc:	10000548 	.word	0x10000548
    43d0:	10000550 	.word	0x10000550

000043d4 <HrpsProcMsg>:
 *
 *  \return None.
 */
/*************************************************************************************************/
void HrpsProcMsg(wsfMsgHdr_t *pMsg)
{
    43d4:	b580      	push	{r7, lr}
    43d6:	b082      	sub	sp, #8
    43d8:	af00      	add	r7, sp, #0
    43da:	6078      	str	r0, [r7, #4]
  if (pMsg->event == DM_CONN_OPEN_IND)
    43dc:	687b      	ldr	r3, [r7, #4]
    43de:	789b      	ldrb	r3, [r3, #2]
    43e0:	2b27      	cmp	r3, #39	; 0x27
    43e2:	d103      	bne.n	43ec <HrpsProcMsg+0x18>
  {
    hrpsConnOpen((dmEvt_t *) pMsg);
    43e4:	6878      	ldr	r0, [r7, #4]
    43e6:	f7ff ff1f 	bl	4228 <hrpsConnOpen>
    43ea:	e010      	b.n	440e <HrpsProcMsg+0x3a>
  }
  else if (pMsg->event == ATTS_HANDLE_VALUE_CNF)
    43ec:	687b      	ldr	r3, [r7, #4]
    43ee:	789b      	ldrb	r3, [r3, #2]
    43f0:	2b0f      	cmp	r3, #15
    43f2:	d103      	bne.n	43fc <HrpsProcMsg+0x28>
  {
    hrpsHandleValueCnf((attEvt_t *) pMsg);
    43f4:	6878      	ldr	r0, [r7, #4]
    43f6:	f7ff ff27 	bl	4248 <hrpsHandleValueCnf>
    43fa:	e008      	b.n	440e <HrpsProcMsg+0x3a>
  }
  else if (pMsg->event == hrpsCb.measTimer.msg.event)
    43fc:	687b      	ldr	r3, [r7, #4]
    43fe:	789a      	ldrb	r2, [r3, #2]
    4400:	4b04      	ldr	r3, [pc, #16]	; (4414 <HrpsProcMsg+0x40>)
    4402:	7d1b      	ldrb	r3, [r3, #20]
    4404:	429a      	cmp	r2, r3
    4406:	d102      	bne.n	440e <HrpsProcMsg+0x3a>
  {
    hrpsMeasTimerExp(pMsg);
    4408:	6878      	ldr	r0, [r7, #4]
    440a:	f7ff ff47 	bl	429c <hrpsMeasTimerExp>
  }
}
    440e:	3708      	adds	r7, #8
    4410:	46bd      	mov	sp, r7
    4412:	bd80      	pop	{r7, pc}
    4414:	10000548 	.word	0x10000548

00004418 <HrpsWriteCback>:
 *  \return ATT status.
 */
/*************************************************************************************************/
uint8_t HrpsWriteCback(dmConnId_t connId, uint16_t handle, uint8_t operation,
                       uint16_t offset, uint16_t len, uint8_t *pValue, attsAttr_t *pAttr)
{ 
    4418:	b480      	push	{r7}
    441a:	b083      	sub	sp, #12
    441c:	af00      	add	r7, sp, #0
    441e:	71f8      	strb	r0, [r7, #7]
    4420:	80b9      	strh	r1, [r7, #4]
    4422:	71ba      	strb	r2, [r7, #6]
    4424:	807b      	strh	r3, [r7, #2]
  if (*pValue == CH_HRCP_RESET_ENERGY_EXP)
    4426:	697b      	ldr	r3, [r7, #20]
    4428:	781b      	ldrb	r3, [r3, #0]
    442a:	2b01      	cmp	r3, #1
    442c:	d104      	bne.n	4438 <HrpsWriteCback+0x20>
  {
    /* reset energy expended */
    hrpsCb.hrm.energyExp = 0;
    442e:	4b06      	ldr	r3, [pc, #24]	; (4448 <HrpsWriteCback+0x30>)
    4430:	2200      	movs	r2, #0
    4432:	83da      	strh	r2, [r3, #30]
    return ATT_SUCCESS;
    4434:	2300      	movs	r3, #0
    4436:	e000      	b.n	443a <HrpsWriteCback+0x22>
  }
  else
  {
    /* else unknown control point command */
    return HRS_ERR_CP_NOT_SUP;
    4438:	2380      	movs	r3, #128	; 0x80
  }
}
    443a:	4618      	mov	r0, r3
    443c:	370c      	adds	r7, #12
    443e:	46bd      	mov	sp, r7
    4440:	f85d 7b04 	ldr.w	r7, [sp], #4
    4444:	4770      	bx	lr
    4446:	bf00      	nop
    4448:	10000548 	.word	0x10000548

0000444c <HrpsSetFlags>:
 *
 *  \return None.
 */
/*************************************************************************************************/
void HrpsSetFlags(uint8_t flags)
{
    444c:	b480      	push	{r7}
    444e:	b083      	sub	sp, #12
    4450:	af00      	add	r7, sp, #0
    4452:	4603      	mov	r3, r0
    4454:	71fb      	strb	r3, [r7, #7]
  hrpsCb.hrm.flags = flags;
    4456:	4b04      	ldr	r3, [pc, #16]	; (4468 <HrpsSetFlags+0x1c>)
    4458:	79fa      	ldrb	r2, [r7, #7]
    445a:	f883 2021 	strb.w	r2, [r3, #33]	; 0x21
}
    445e:	370c      	adds	r7, #12
    4460:	46bd      	mov	sp, r7
    4462:	f85d 7b04 	ldr.w	r7, [sp], #4
    4466:	4770      	bx	lr
    4468:	10000548 	.word	0x10000548

0000446c <SvcBattAddGroup>:
 *
 *  \return None.
 */
/*************************************************************************************************/
void SvcBattAddGroup(void)
{
    446c:	b580      	push	{r7, lr}
    446e:	af00      	add	r7, sp, #0
  AttsAddGroup(&svcBattGroup);
    4470:	4801      	ldr	r0, [pc, #4]	; (4478 <SvcBattAddGroup+0xc>)
    4472:	f002 fcbf 	bl	6df4 <AttsAddGroup>
}
    4476:	bd80      	pop	{r7, pc}
    4478:	10000208 	.word	0x10000208

0000447c <SvcBattCbackRegister>:
 *
 *  \return None.
 */
/*************************************************************************************************/
void SvcBattCbackRegister(attsReadCback_t readCback, attsWriteCback_t writeCback)
{
    447c:	b480      	push	{r7}
    447e:	b083      	sub	sp, #12
    4480:	af00      	add	r7, sp, #0
    4482:	6078      	str	r0, [r7, #4]
    4484:	6039      	str	r1, [r7, #0]
  svcBattGroup.readCback = readCback;
    4486:	4b05      	ldr	r3, [pc, #20]	; (449c <SvcBattCbackRegister+0x20>)
    4488:	687a      	ldr	r2, [r7, #4]
    448a:	609a      	str	r2, [r3, #8]
  svcBattGroup.writeCback = writeCback;
    448c:	4b03      	ldr	r3, [pc, #12]	; (449c <SvcBattCbackRegister+0x20>)
    448e:	683a      	ldr	r2, [r7, #0]
    4490:	60da      	str	r2, [r3, #12]
}
    4492:	370c      	adds	r7, #12
    4494:	46bd      	mov	sp, r7
    4496:	f85d 7b04 	ldr.w	r7, [sp], #4
    449a:	4770      	bx	lr
    449c:	10000208 	.word	0x10000208

000044a0 <SvcCoreAddGroup>:
 *
 *  \return None.
 */
/*************************************************************************************************/
void SvcCoreAddGroup(void)
{
    44a0:	b580      	push	{r7, lr}
    44a2:	af00      	add	r7, sp, #0
  AttsAddGroup(&svcGapGroup);
    44a4:	4803      	ldr	r0, [pc, #12]	; (44b4 <SvcCoreAddGroup+0x14>)
    44a6:	f002 fca5 	bl	6df4 <AttsAddGroup>
  AttsAddGroup(&svcGattGroup);
    44aa:	4803      	ldr	r0, [pc, #12]	; (44b8 <SvcCoreAddGroup+0x18>)
    44ac:	f002 fca2 	bl	6df4 <AttsAddGroup>
}
    44b0:	bd80      	pop	{r7, pc}
    44b2:	bf00      	nop
    44b4:	10000234 	.word	0x10000234
    44b8:	10000248 	.word	0x10000248

000044bc <SvcDisAddGroup>:
 *
 *  \return None.
 */
/*************************************************************************************************/
void SvcDisAddGroup(void)
{
    44bc:	b580      	push	{r7, lr}
    44be:	af00      	add	r7, sp, #0
  AttsAddGroup(&svcDisGroup);
    44c0:	4801      	ldr	r0, [pc, #4]	; (44c8 <SvcDisAddGroup+0xc>)
    44c2:	f002 fc97 	bl	6df4 <AttsAddGroup>
}
    44c6:	bd80      	pop	{r7, pc}
    44c8:	10000264 	.word	0x10000264

000044cc <SvcHrsAddGroup>:
 *
 *  \return None.
 */
/*************************************************************************************************/
void SvcHrsAddGroup(void)
{
    44cc:	b580      	push	{r7, lr}
    44ce:	af00      	add	r7, sp, #0
  AttsAddGroup(&svcHrsGroup);
    44d0:	4801      	ldr	r0, [pc, #4]	; (44d8 <SvcHrsAddGroup+0xc>)
    44d2:	f002 fc8f 	bl	6df4 <AttsAddGroup>
}
    44d6:	bd80      	pop	{r7, pc}
    44d8:	1000027c 	.word	0x1000027c

000044dc <SvcHrsCbackRegister>:
 *
 *  \return None.
 */
/*************************************************************************************************/
void SvcHrsCbackRegister(attsReadCback_t readCback, attsWriteCback_t writeCback)
{
    44dc:	b480      	push	{r7}
    44de:	b083      	sub	sp, #12
    44e0:	af00      	add	r7, sp, #0
    44e2:	6078      	str	r0, [r7, #4]
    44e4:	6039      	str	r1, [r7, #0]
  svcHrsGroup.readCback = readCback;
    44e6:	4b05      	ldr	r3, [pc, #20]	; (44fc <SvcHrsCbackRegister+0x20>)
    44e8:	687a      	ldr	r2, [r7, #4]
    44ea:	609a      	str	r2, [r3, #8]
  svcHrsGroup.writeCback = writeCback;
    44ec:	4b03      	ldr	r3, [pc, #12]	; (44fc <SvcHrsCbackRegister+0x20>)
    44ee:	683a      	ldr	r2, [r7, #0]
    44f0:	60da      	str	r2, [r3, #12]
}
    44f2:	370c      	adds	r7, #12
    44f4:	46bd      	mov	sp, r7
    44f6:	f85d 7b04 	ldr.w	r7, [sp], #4
    44fa:	4770      	bx	lr
    44fc:	1000027c 	.word	0x1000027c

00004500 <HciEvtRegister>:
 *
 *  \return None.
 */
/*************************************************************************************************/
void HciEvtRegister(hciEvtCback_t evtCback)
{
    4500:	b480      	push	{r7}
    4502:	b083      	sub	sp, #12
    4504:	af00      	add	r7, sp, #0
    4506:	6078      	str	r0, [r7, #4]
  hciCb.evtCback = evtCback;
    4508:	4b03      	ldr	r3, [pc, #12]	; (4518 <HciEvtRegister+0x18>)
    450a:	687a      	ldr	r2, [r7, #4]
    450c:	609a      	str	r2, [r3, #8]
}
    450e:	370c      	adds	r7, #12
    4510:	46bd      	mov	sp, r7
    4512:	f85d 7b04 	ldr.w	r7, [sp], #4
    4516:	4770      	bx	lr
    4518:	10000de4 	.word	0x10000de4

0000451c <HciSecRegister>:
 *
 *  \return None.
 */
/*************************************************************************************************/
void HciSecRegister(hciSecCback_t secCback)
{
    451c:	b480      	push	{r7}
    451e:	b083      	sub	sp, #12
    4520:	af00      	add	r7, sp, #0
    4522:	6078      	str	r0, [r7, #4]
  hciCb.secCback = secCback;
    4524:	4b03      	ldr	r3, [pc, #12]	; (4534 <HciSecRegister+0x18>)
    4526:	687a      	ldr	r2, [r7, #4]
    4528:	60da      	str	r2, [r3, #12]
}
    452a:	370c      	adds	r7, #12
    452c:	46bd      	mov	sp, r7
    452e:	f85d 7b04 	ldr.w	r7, [sp], #4
    4532:	4770      	bx	lr
    4534:	10000de4 	.word	0x10000de4

00004538 <HciAclRegister>:
 *
 *  \return None.
 */
/*************************************************************************************************/
void HciAclRegister(hciAclCback_t aclCback, hciFlowCback_t flowCback)
{
    4538:	b480      	push	{r7}
    453a:	b083      	sub	sp, #12
    453c:	af00      	add	r7, sp, #0
    453e:	6078      	str	r0, [r7, #4]
    4540:	6039      	str	r1, [r7, #0]
  hciCb.aclCback = aclCback;
    4542:	4b05      	ldr	r3, [pc, #20]	; (4558 <HciAclRegister+0x20>)
    4544:	687a      	ldr	r2, [r7, #4]
    4546:	611a      	str	r2, [r3, #16]
  hciCb.flowCback = flowCback;
    4548:	4b03      	ldr	r3, [pc, #12]	; (4558 <HciAclRegister+0x20>)
    454a:	683a      	ldr	r2, [r7, #0]
    454c:	615a      	str	r2, [r3, #20]
}
    454e:	370c      	adds	r7, #12
    4550:	46bd      	mov	sp, r7
    4552:	f85d 7b04 	ldr.w	r7, [sp], #4
    4556:	4770      	bx	lr
    4558:	10000de4 	.word	0x10000de4

0000455c <HciHandlerInit>:
 *
 *  \return None.
 */
/*************************************************************************************************/
void HciHandlerInit(wsfHandlerId_t handlerId)
{
    455c:	b580      	push	{r7, lr}
    455e:	b082      	sub	sp, #8
    4560:	af00      	add	r7, sp, #0
    4562:	4603      	mov	r3, r0
    4564:	71fb      	strb	r3, [r7, #7]
  /* store handler ID */
  hciCb.handlerId = handlerId;
    4566:	4b07      	ldr	r3, [pc, #28]	; (4584 <HciHandlerInit+0x28>)
    4568:	79fa      	ldrb	r2, [r7, #7]
    456a:	761a      	strb	r2, [r3, #24]

  /* init rx queue */
  WSF_QUEUE_INIT(&hciCb.rxQueue);
    456c:	4b05      	ldr	r3, [pc, #20]	; (4584 <HciHandlerInit+0x28>)
    456e:	2200      	movs	r2, #0
    4570:	601a      	str	r2, [r3, #0]
    4572:	4b04      	ldr	r3, [pc, #16]	; (4584 <HciHandlerInit+0x28>)
    4574:	2200      	movs	r2, #0
    4576:	605a      	str	r2, [r3, #4]
    
  /* perform other hci initialization */
  HciCoreInit();
    4578:	f7fd ff76 	bl	2468 <HciCoreInit>
}
    457c:	3708      	adds	r7, #8
    457e:	46bd      	mov	sp, r7
    4580:	bd80      	pop	{r7, pc}
    4582:	bf00      	nop
    4584:	10000de4 	.word	0x10000de4

00004588 <HciHandler>:
 *
 *  \return None.
 */
/*************************************************************************************************/
void HciHandler(wsfEventMask_t event, wsfMsgHdr_t *pMsg)
{
    4588:	b580      	push	{r7, lr}
    458a:	b082      	sub	sp, #8
    458c:	af00      	add	r7, sp, #0
    458e:	4603      	mov	r3, r0
    4590:	6039      	str	r1, [r7, #0]
    4592:	71fb      	strb	r3, [r7, #7]
  HciCoreHandler(event, pMsg);
    4594:	79fb      	ldrb	r3, [r7, #7]
    4596:	4618      	mov	r0, r3
    4598:	6839      	ldr	r1, [r7, #0]
    459a:	f7fe f88f 	bl	26bc <HciCoreHandler>
}
    459e:	3708      	adds	r7, #8
    45a0:	46bd      	mov	sp, r7
    45a2:	bd80      	pop	{r7, pc}

000045a4 <BdaCpy>:
 *
 *  \return None.
 */
/*************************************************************************************************/
void BdaCpy(uint8_t *pDst, const uint8_t *pSrc)
{
    45a4:	b580      	push	{r7, lr}
    45a6:	b082      	sub	sp, #8
    45a8:	af00      	add	r7, sp, #0
    45aa:	6078      	str	r0, [r7, #4]
    45ac:	6039      	str	r1, [r7, #0]
  memcpy(pDst, pSrc, BDA_ADDR_LEN);
    45ae:	6878      	ldr	r0, [r7, #4]
    45b0:	6839      	ldr	r1, [r7, #0]
    45b2:	2206      	movs	r2, #6
    45b4:	f005 fb64 	bl	9c80 <memcpy>
}
    45b8:	3708      	adds	r7, #8
    45ba:	46bd      	mov	sp, r7
    45bc:	bd80      	pop	{r7, pc}
    45be:	bf00      	nop

000045c0 <BdaCmp>:
 *
 *  \return TRUE if addresses match, FALSE otherwise.
 */
/*************************************************************************************************/
bool_t BdaCmp(const uint8_t *pAddr1, const uint8_t *pAddr2)
{
    45c0:	b580      	push	{r7, lr}
    45c2:	b082      	sub	sp, #8
    45c4:	af00      	add	r7, sp, #0
    45c6:	6078      	str	r0, [r7, #4]
    45c8:	6039      	str	r1, [r7, #0]
  return (memcmp(pAddr1, pAddr2, BDA_ADDR_LEN) == 0);
    45ca:	6878      	ldr	r0, [r7, #4]
    45cc:	6839      	ldr	r1, [r7, #0]
    45ce:	2206      	movs	r2, #6
    45d0:	f005 fb22 	bl	9c18 <memcmp>
    45d4:	4603      	mov	r3, r0
    45d6:	2b00      	cmp	r3, #0
    45d8:	bf14      	ite	ne
    45da:	2300      	movne	r3, #0
    45dc:	2301      	moveq	r3, #1
    45de:	b2db      	uxtb	r3, r3
}
    45e0:	4618      	mov	r0, r3
    45e2:	3708      	adds	r7, #8
    45e4:	46bd      	mov	sp, r7
    45e6:	bd80      	pop	{r7, pc}

000045e8 <BdaClr>:
 *
 *  \return pDst + BDA_ADDR_LEN
 */
/*************************************************************************************************/
uint8_t *BdaClr(uint8_t *pDst)
{
    45e8:	b580      	push	{r7, lr}
    45ea:	b082      	sub	sp, #8
    45ec:	af00      	add	r7, sp, #0
    45ee:	6078      	str	r0, [r7, #4]
  memset(pDst, 0, BDA_ADDR_LEN);
    45f0:	6878      	ldr	r0, [r7, #4]
    45f2:	2100      	movs	r1, #0
    45f4:	2206      	movs	r2, #6
    45f6:	f005 fc3d 	bl	9e74 <memset>

  return (pDst + BDA_ADDR_LEN);
    45fa:	687b      	ldr	r3, [r7, #4]
    45fc:	3306      	adds	r3, #6
}
    45fe:	4618      	mov	r0, r3
    4600:	3708      	adds	r7, #8
    4602:	46bd      	mov	sp, r7
    4604:	bd80      	pop	{r7, pc}
    4606:	bf00      	nop

00004608 <Calc128Cpy>:
 *
 *  \return None.
 */
/*************************************************************************************************/
void Calc128Cpy(uint8_t *pDst, uint8_t *pSrc)
{
    4608:	b580      	push	{r7, lr}
    460a:	b082      	sub	sp, #8
    460c:	af00      	add	r7, sp, #0
    460e:	6078      	str	r0, [r7, #4]
    4610:	6039      	str	r1, [r7, #0]
  memcpy(pDst, pSrc, CALC128_LEN);
    4612:	6878      	ldr	r0, [r7, #4]
    4614:	6839      	ldr	r1, [r7, #0]
    4616:	2210      	movs	r2, #16
    4618:	f005 fb32 	bl	9c80 <memcpy>
}
    461c:	3708      	adds	r7, #8
    461e:	46bd      	mov	sp, r7
    4620:	bd80      	pop	{r7, pc}
    4622:	bf00      	nop

00004624 <Calc128Cpy64>:
 *
 *  \return None.
 */
/*************************************************************************************************/
void Calc128Cpy64(uint8_t *pDst, uint8_t *pSrc)
{
    4624:	b580      	push	{r7, lr}
    4626:	b082      	sub	sp, #8
    4628:	af00      	add	r7, sp, #0
    462a:	6078      	str	r0, [r7, #4]
    462c:	6039      	str	r1, [r7, #0]
  memcpy(pDst, pSrc, CALC128_LEN/2);
    462e:	6878      	ldr	r0, [r7, #4]
    4630:	6839      	ldr	r1, [r7, #0]
    4632:	2208      	movs	r2, #8
    4634:	f005 fb24 	bl	9c80 <memcpy>
}
    4638:	3708      	adds	r7, #8
    463a:	46bd      	mov	sp, r7
    463c:	bd80      	pop	{r7, pc}
    463e:	bf00      	nop

00004640 <WsfCsEnter>:
 *
 *  \return None.
 */
/*************************************************************************************************/
void WsfCsEnter(void)
{
    4640:	b480      	push	{r7}
    4642:	af00      	add	r7, sp, #0
  if (csNesting == 0)
    4644:	4b07      	ldr	r3, [pc, #28]	; (4664 <WsfCsEnter+0x24>)
    4646:	781b      	ldrb	r3, [r3, #0]
    4648:	2b00      	cmp	r3, #0
    464a:	d100      	bne.n	464e <WsfCsEnter+0xe>
  {
#ifdef __IAR_SYSTEMS_ICC__
    __disable_interrupt();
#endif
#ifdef __GNUC__
    __asm volatile ("cpsid i");
    464c:	b672      	cpsid	i
#ifdef __CC_ARM
  __disable_irq();
#endif

  }
  csNesting++;
    464e:	4b05      	ldr	r3, [pc, #20]	; (4664 <WsfCsEnter+0x24>)
    4650:	781b      	ldrb	r3, [r3, #0]
    4652:	3301      	adds	r3, #1
    4654:	b2da      	uxtb	r2, r3
    4656:	4b03      	ldr	r3, [pc, #12]	; (4664 <WsfCsEnter+0x24>)
    4658:	701a      	strb	r2, [r3, #0]
}
    465a:	46bd      	mov	sp, r7
    465c:	f85d 7b04 	ldr.w	r7, [sp], #4
    4660:	4770      	bx	lr
    4662:	bf00      	nop
    4664:	10000588 	.word	0x10000588

00004668 <WsfCsExit>:
 *
 *  \return None.
 */
/*************************************************************************************************/
void WsfCsExit(void)
{
    4668:	b480      	push	{r7}
    466a:	af00      	add	r7, sp, #0
  WSF_ASSERT(csNesting != 0);

  csNesting--;
    466c:	4b07      	ldr	r3, [pc, #28]	; (468c <WsfCsExit+0x24>)
    466e:	781b      	ldrb	r3, [r3, #0]
    4670:	3b01      	subs	r3, #1
    4672:	b2da      	uxtb	r2, r3
    4674:	4b05      	ldr	r3, [pc, #20]	; (468c <WsfCsExit+0x24>)
    4676:	701a      	strb	r2, [r3, #0]
  if (csNesting == 0)
    4678:	4b04      	ldr	r3, [pc, #16]	; (468c <WsfCsExit+0x24>)
    467a:	781b      	ldrb	r3, [r3, #0]
    467c:	2b00      	cmp	r3, #0
    467e:	d100      	bne.n	4682 <WsfCsExit+0x1a>
  {
#ifdef __IAR_SYSTEMS_ICC__
    __enable_interrupt();
#endif
#ifdef __GNUC__
    __asm volatile ("cpsie i");
    4680:	b662      	cpsie	i
#ifdef __CC_ARM
      __enable_irq();
#endif

  }
}
    4682:	46bd      	mov	sp, r7
    4684:	f85d 7b04 	ldr.w	r7, [sp], #4
    4688:	4770      	bx	lr
    468a:	bf00      	nop
    468c:	10000588 	.word	0x10000588

00004690 <WsfTaskLock>:
 *
 *  \return None.
 */
/*************************************************************************************************/
void WsfTaskLock(void)
{
    4690:	b580      	push	{r7, lr}
    4692:	af00      	add	r7, sp, #0
  WsfCsEnter();
    4694:	f7ff ffd4 	bl	4640 <WsfCsEnter>
}
    4698:	bd80      	pop	{r7, pc}
    469a:	bf00      	nop

0000469c <WsfTaskUnlock>:
 *
 *  \return None.
 */
/*************************************************************************************************/
void WsfTaskUnlock(void)
{
    469c:	b580      	push	{r7, lr}
    469e:	af00      	add	r7, sp, #0
  WsfCsExit();
    46a0:	f7ff ffe2 	bl	4668 <WsfCsExit>
}
    46a4:	bd80      	pop	{r7, pc}
    46a6:	bf00      	nop

000046a8 <WsfSetEvent>:
 *
 *  \return None.
 */
/*************************************************************************************************/
void WsfSetEvent(wsfHandlerId_t handlerId, wsfEventMask_t event)
{
    46a8:	b580      	push	{r7, lr}
    46aa:	b082      	sub	sp, #8
    46ac:	af00      	add	r7, sp, #0
    46ae:	4602      	mov	r2, r0
    46b0:	460b      	mov	r3, r1
    46b2:	71fa      	strb	r2, [r7, #7]
    46b4:	71bb      	strb	r3, [r7, #6]

  WSF_ASSERT(WSF_HANDLER_FROM_ID(handlerId) < WSF_MAX_HANDLERS);

  WSF_TRACE_INFO2("WsfSetEvent handlerId:%u event:%u", handlerId, event);

  WSF_CS_ENTER(cs);
    46b6:	f7ff ffc3 	bl	4640 <WsfCsEnter>
  wsfOs.task.handlerEventMask[WSF_HANDLER_FROM_ID(handlerId)] |= event;
    46ba:	79fb      	ldrb	r3, [r7, #7]
    46bc:	f003 030f 	and.w	r3, r3, #15
    46c0:	79fa      	ldrb	r2, [r7, #7]
    46c2:	f002 020f 	and.w	r2, r2, #15
    46c6:	490c      	ldr	r1, [pc, #48]	; (46f8 <WsfSetEvent+0x50>)
    46c8:	440a      	add	r2, r1
    46ca:	f892 1024 	ldrb.w	r1, [r2, #36]	; 0x24
    46ce:	79ba      	ldrb	r2, [r7, #6]
    46d0:	430a      	orrs	r2, r1
    46d2:	b2d2      	uxtb	r2, r2
    46d4:	4908      	ldr	r1, [pc, #32]	; (46f8 <WsfSetEvent+0x50>)
    46d6:	440b      	add	r3, r1
    46d8:	f883 2024 	strb.w	r2, [r3, #36]	; 0x24
  wsfOs.task.taskEventMask |= WSF_HANDLER_EVENT;
    46dc:	4b06      	ldr	r3, [pc, #24]	; (46f8 <WsfSetEvent+0x50>)
    46de:	f893 3038 	ldrb.w	r3, [r3, #56]	; 0x38
    46e2:	f043 0304 	orr.w	r3, r3, #4
    46e6:	b2da      	uxtb	r2, r3
    46e8:	4b03      	ldr	r3, [pc, #12]	; (46f8 <WsfSetEvent+0x50>)
    46ea:	f883 2038 	strb.w	r2, [r3, #56]	; 0x38
  WSF_CS_EXIT(cs);
    46ee:	f7ff ffbb 	bl	4668 <WsfCsExit>
}
    46f2:	3708      	adds	r7, #8
    46f4:	46bd      	mov	sp, r7
    46f6:	bd80      	pop	{r7, pc}
    46f8:	10000e00 	.word	0x10000e00

000046fc <WsfTaskSetReady>:
 *
 *  \return None.
 */
/*************************************************************************************************/
void WsfTaskSetReady(wsfHandlerId_t handlerId, wsfTaskEvent_t event)
{
    46fc:	b580      	push	{r7, lr}
    46fe:	b082      	sub	sp, #8
    4700:	af00      	add	r7, sp, #0
    4702:	4602      	mov	r2, r0
    4704:	460b      	mov	r3, r1
    4706:	71fa      	strb	r2, [r7, #7]
    4708:	71bb      	strb	r3, [r7, #6]
  WSF_CS_INIT(cs);

  WSF_CS_ENTER(cs);
    470a:	f7ff ff99 	bl	4640 <WsfCsEnter>
  wsfOs.task.taskEventMask |= event;
    470e:	4b07      	ldr	r3, [pc, #28]	; (472c <WsfTaskSetReady+0x30>)
    4710:	f893 2038 	ldrb.w	r2, [r3, #56]	; 0x38
    4714:	79bb      	ldrb	r3, [r7, #6]
    4716:	4313      	orrs	r3, r2
    4718:	b2da      	uxtb	r2, r3
    471a:	4b04      	ldr	r3, [pc, #16]	; (472c <WsfTaskSetReady+0x30>)
    471c:	f883 2038 	strb.w	r2, [r3, #56]	; 0x38
  WSF_CS_EXIT(cs);
    4720:	f7ff ffa2 	bl	4668 <WsfCsExit>

  /* set event in OS */
}
    4724:	3708      	adds	r7, #8
    4726:	46bd      	mov	sp, r7
    4728:	bd80      	pop	{r7, pc}
    472a:	bf00      	nop
    472c:	10000e00 	.word	0x10000e00

00004730 <WsfTaskMsgQueue>:
 *
 *  \return Task message queue.
 */
/*************************************************************************************************/
wsfQueue_t *WsfTaskMsgQueue(wsfHandlerId_t handlerId)
{
    4730:	b480      	push	{r7}
    4732:	b083      	sub	sp, #12
    4734:	af00      	add	r7, sp, #0
    4736:	4603      	mov	r3, r0
    4738:	71fb      	strb	r3, [r7, #7]
  return &(wsfOs.task.msgQueue);
    473a:	4b03      	ldr	r3, [pc, #12]	; (4748 <WsfTaskMsgQueue+0x18>)
}
    473c:	4618      	mov	r0, r3
    473e:	370c      	adds	r7, #12
    4740:	46bd      	mov	sp, r7
    4742:	f85d 7b04 	ldr.w	r7, [sp], #4
    4746:	4770      	bx	lr
    4748:	10000e30 	.word	0x10000e30

0000474c <WsfOsSetNextHandler>:
 *
 *  \return WSF handler ID for this handler.
 */
/*************************************************************************************************/
wsfHandlerId_t WsfOsSetNextHandler(wsfEventHandler_t handler)
{
    474c:	b480      	push	{r7}
    474e:	b085      	sub	sp, #20
    4750:	af00      	add	r7, sp, #0
    4752:	6078      	str	r0, [r7, #4]
  wsfHandlerId_t handlerId = wsfOs.task.numHandler++;
    4754:	4b0a      	ldr	r3, [pc, #40]	; (4780 <WsfOsSetNextHandler+0x34>)
    4756:	f893 3039 	ldrb.w	r3, [r3, #57]	; 0x39
    475a:	1c5a      	adds	r2, r3, #1
    475c:	b2d1      	uxtb	r1, r2
    475e:	4a08      	ldr	r2, [pc, #32]	; (4780 <WsfOsSetNextHandler+0x34>)
    4760:	f882 1039 	strb.w	r1, [r2, #57]	; 0x39
    4764:	73fb      	strb	r3, [r7, #15]

  WSF_ASSERT(handlerId < WSF_MAX_HANDLERS);

  wsfOs.task.handler[handlerId] = handler;
    4766:	7bfa      	ldrb	r2, [r7, #15]
    4768:	4b05      	ldr	r3, [pc, #20]	; (4780 <WsfOsSetNextHandler+0x34>)
    476a:	6879      	ldr	r1, [r7, #4]
    476c:	f843 1022 	str.w	r1, [r3, r2, lsl #2]

  return handlerId;
    4770:	7bfb      	ldrb	r3, [r7, #15]
}
    4772:	4618      	mov	r0, r3
    4774:	3714      	adds	r7, #20
    4776:	46bd      	mov	sp, r7
    4778:	f85d 7b04 	ldr.w	r7, [sp], #4
    477c:	4770      	bx	lr
    477e:	bf00      	nop
    4780:	10000e00 	.word	0x10000e00

00004784 <wsfOsReadyToSleep>:
 *
 *  \return Return TRUE if there are no pending WSF task events set, FALSE otherwise.
 */
/*************************************************************************************************/
bool_t wsfOsReadyToSleep(void)
{
    4784:	b480      	push	{r7}
    4786:	af00      	add	r7, sp, #0
  return (wsfOs.task.taskEventMask == 0);
    4788:	4b06      	ldr	r3, [pc, #24]	; (47a4 <wsfOsReadyToSleep+0x20>)
    478a:	f893 3038 	ldrb.w	r3, [r3, #56]	; 0x38
    478e:	2b00      	cmp	r3, #0
    4790:	bf14      	ite	ne
    4792:	2300      	movne	r3, #0
    4794:	2301      	moveq	r3, #1
    4796:	b2db      	uxtb	r3, r3
}
    4798:	4618      	mov	r0, r3
    479a:	46bd      	mov	sp, r7
    479c:	f85d 7b04 	ldr.w	r7, [sp], #4
    47a0:	4770      	bx	lr
    47a2:	bf00      	nop
    47a4:	10000e00 	.word	0x10000e00

000047a8 <wsfOsDispatcher>:
 *
 *  \return None.
 */
/*************************************************************************************************/
void wsfOsDispatcher(void)
{
    47a8:	b580      	push	{r7, lr}
    47aa:	b086      	sub	sp, #24
    47ac:	af00      	add	r7, sp, #0
  wsfHandlerId_t    handlerId;
  uint8_t           i;

  WSF_CS_INIT(cs);

  pTask = &wsfOs.task;
    47ae:	4b3f      	ldr	r3, [pc, #252]	; (48ac <wsfOsDispatcher+0x104>)
    47b0:	613b      	str	r3, [r7, #16]

  while (pTask->taskEventMask)
    47b2:	e073      	b.n	489c <wsfOsDispatcher+0xf4>
  {
    /* get and then clear task event mask */
    WSF_CS_ENTER(cs);
    47b4:	f7ff ff44 	bl	4640 <WsfCsEnter>
    taskEventMask = pTask->taskEventMask;
    47b8:	693b      	ldr	r3, [r7, #16]
    47ba:	f893 3038 	ldrb.w	r3, [r3, #56]	; 0x38
    47be:	73fb      	strb	r3, [r7, #15]
    pTask->taskEventMask = 0;
    47c0:	693b      	ldr	r3, [r7, #16]
    47c2:	2200      	movs	r2, #0
    47c4:	f883 2038 	strb.w	r2, [r3, #56]	; 0x38
    WSF_CS_EXIT(cs);
    47c8:	f7ff ff4e 	bl	4668 <WsfCsExit>

    if (taskEventMask & WSF_MSG_QUEUE_EVENT)
    47cc:	7bfb      	ldrb	r3, [r7, #15]
    47ce:	f003 0301 	and.w	r3, r3, #1
    47d2:	2b00      	cmp	r3, #0
    47d4:	d017      	beq.n	4806 <wsfOsDispatcher+0x5e>
    {
      /* handle msg queue */
      while ((pMsg = WsfMsgDeq(&pTask->msgQueue, &handlerId)) != NULL)
    47d6:	e00a      	b.n	47ee <wsfOsDispatcher+0x46>
      {
        WSF_ASSERT(handlerId < WSF_MAX_HANDLERS);
        (*pTask->handler[handlerId])(0, pMsg);
    47d8:	78bb      	ldrb	r3, [r7, #2]
    47da:	461a      	mov	r2, r3
    47dc:	693b      	ldr	r3, [r7, #16]
    47de:	f853 3022 	ldr.w	r3, [r3, r2, lsl #2]
    47e2:	2000      	movs	r0, #0
    47e4:	68b9      	ldr	r1, [r7, #8]
    47e6:	4798      	blx	r3
        WsfMsgFree(pMsg);
    47e8:	68b8      	ldr	r0, [r7, #8]
    47ea:	f000 f97f 	bl	4aec <WsfMsgFree>
    WSF_CS_EXIT(cs);

    if (taskEventMask & WSF_MSG_QUEUE_EVENT)
    {
      /* handle msg queue */
      while ((pMsg = WsfMsgDeq(&pTask->msgQueue, &handlerId)) != NULL)
    47ee:	693b      	ldr	r3, [r7, #16]
    47f0:	f103 0230 	add.w	r2, r3, #48	; 0x30
    47f4:	1cbb      	adds	r3, r7, #2
    47f6:	4610      	mov	r0, r2
    47f8:	4619      	mov	r1, r3
    47fa:	f000 f9b1 	bl	4b60 <WsfMsgDeq>
    47fe:	60b8      	str	r0, [r7, #8]
    4800:	68bb      	ldr	r3, [r7, #8]
    4802:	2b00      	cmp	r3, #0
    4804:	d1e8      	bne.n	47d8 <wsfOsDispatcher+0x30>
        (*pTask->handler[handlerId])(0, pMsg);
        WsfMsgFree(pMsg);
      }
    }

    if (taskEventMask & WSF_TIMER_EVENT)
    4806:	7bfb      	ldrb	r3, [r7, #15]
    4808:	f003 0302 	and.w	r3, r3, #2
    480c:	2b00      	cmp	r3, #0
    480e:	d012      	beq.n	4836 <wsfOsDispatcher+0x8e>
    {
      /* service timers */
      while ((pTimer = WsfTimerServiceExpired(0)) != NULL)
    4810:	e00a      	b.n	4828 <wsfOsDispatcher+0x80>
      {
        WSF_ASSERT(pTimer->handlerId < WSF_MAX_HANDLERS);
        (*pTask->handler[pTimer->handlerId])(0, &pTimer->msg);
    4812:	687b      	ldr	r3, [r7, #4]
    4814:	7a1b      	ldrb	r3, [r3, #8]
    4816:	461a      	mov	r2, r3
    4818:	693b      	ldr	r3, [r7, #16]
    481a:	f853 3022 	ldr.w	r3, [r3, r2, lsl #2]
    481e:	687a      	ldr	r2, [r7, #4]
    4820:	320a      	adds	r2, #10
    4822:	2000      	movs	r0, #0
    4824:	4611      	mov	r1, r2
    4826:	4798      	blx	r3
    }

    if (taskEventMask & WSF_TIMER_EVENT)
    {
      /* service timers */
      while ((pTimer = WsfTimerServiceExpired(0)) != NULL)
    4828:	2000      	movs	r0, #0
    482a:	f000 fc25 	bl	5078 <WsfTimerServiceExpired>
    482e:	6078      	str	r0, [r7, #4]
    4830:	687b      	ldr	r3, [r7, #4]
    4832:	2b00      	cmp	r3, #0
    4834:	d1ed      	bne.n	4812 <wsfOsDispatcher+0x6a>
        WSF_ASSERT(pTimer->handlerId < WSF_MAX_HANDLERS);
        (*pTask->handler[pTimer->handlerId])(0, &pTimer->msg);
      }
    }

    if (taskEventMask & WSF_HANDLER_EVENT)
    4836:	7bfb      	ldrb	r3, [r7, #15]
    4838:	f003 0304 	and.w	r3, r3, #4
    483c:	2b00      	cmp	r3, #0
    483e:	d02d      	beq.n	489c <wsfOsDispatcher+0xf4>
    {
      /* service handlers */
      for (i = 0; i < WSF_MAX_HANDLERS; i++)
    4840:	2300      	movs	r3, #0
    4842:	75fb      	strb	r3, [r7, #23]
    4844:	e027      	b.n	4896 <wsfOsDispatcher+0xee>
      {
        if ((pTask->handlerEventMask[i] != 0) && (pTask->handler[i] != NULL))
    4846:	7dfb      	ldrb	r3, [r7, #23]
    4848:	693a      	ldr	r2, [r7, #16]
    484a:	4413      	add	r3, r2
    484c:	f893 3024 	ldrb.w	r3, [r3, #36]	; 0x24
    4850:	2b00      	cmp	r3, #0
    4852:	d01d      	beq.n	4890 <wsfOsDispatcher+0xe8>
    4854:	7dfa      	ldrb	r2, [r7, #23]
    4856:	693b      	ldr	r3, [r7, #16]
    4858:	f853 3022 	ldr.w	r3, [r3, r2, lsl #2]
    485c:	2b00      	cmp	r3, #0
    485e:	d017      	beq.n	4890 <wsfOsDispatcher+0xe8>
        {
          WSF_CS_ENTER(cs);
    4860:	f7ff feee 	bl	4640 <WsfCsEnter>
          eventMask = pTask->handlerEventMask[i];
    4864:	7dfb      	ldrb	r3, [r7, #23]
    4866:	693a      	ldr	r2, [r7, #16]
    4868:	4413      	add	r3, r2
    486a:	f893 3024 	ldrb.w	r3, [r3, #36]	; 0x24
    486e:	70fb      	strb	r3, [r7, #3]
          pTask->handlerEventMask[i] = 0;
    4870:	7dfb      	ldrb	r3, [r7, #23]
    4872:	693a      	ldr	r2, [r7, #16]
    4874:	4413      	add	r3, r2
    4876:	2200      	movs	r2, #0
    4878:	f883 2024 	strb.w	r2, [r3, #36]	; 0x24
          WSF_CS_EXIT(cs);
    487c:	f7ff fef4 	bl	4668 <WsfCsExit>

          (*pTask->handler[i])(eventMask, NULL);
    4880:	7dfa      	ldrb	r2, [r7, #23]
    4882:	693b      	ldr	r3, [r7, #16]
    4884:	f853 3022 	ldr.w	r3, [r3, r2, lsl #2]
    4888:	78fa      	ldrb	r2, [r7, #3]
    488a:	4610      	mov	r0, r2
    488c:	2100      	movs	r1, #0
    488e:	4798      	blx	r3
    }

    if (taskEventMask & WSF_HANDLER_EVENT)
    {
      /* service handlers */
      for (i = 0; i < WSF_MAX_HANDLERS; i++)
    4890:	7dfb      	ldrb	r3, [r7, #23]
    4892:	3301      	adds	r3, #1
    4894:	75fb      	strb	r3, [r7, #23]
    4896:	7dfb      	ldrb	r3, [r7, #23]
    4898:	2b08      	cmp	r3, #8
    489a:	d9d4      	bls.n	4846 <wsfOsDispatcher+0x9e>

  WSF_CS_INIT(cs);

  pTask = &wsfOs.task;

  while (pTask->taskEventMask)
    489c:	693b      	ldr	r3, [r7, #16]
    489e:	f893 3038 	ldrb.w	r3, [r3, #56]	; 0x38
    48a2:	2b00      	cmp	r3, #0
    48a4:	d186      	bne.n	47b4 <wsfOsDispatcher+0xc>
          (*pTask->handler[i])(eventMask, NULL);
        }
      }
    }
  }
}
    48a6:	3718      	adds	r7, #24
    48a8:	46bd      	mov	sp, r7
    48aa:	bd80      	pop	{r7, pc}
    48ac:	10000e00 	.word	0x10000e00

000048b0 <WsfBufInit>:
 *
 *  \return Amount of pBufMem used or 0 for failures.
 */
/*************************************************************************************************/
uint16_t WsfBufInit(uint16_t bufMemLen, uint8_t *pBufMem, uint8_t numPools, wsfBufPoolDesc_t *pDesc)
{
    48b0:	b480      	push	{r7}
    48b2:	b089      	sub	sp, #36	; 0x24
    48b4:	af00      	add	r7, sp, #0
    48b6:	60b9      	str	r1, [r7, #8]
    48b8:	607b      	str	r3, [r7, #4]
    48ba:	4603      	mov	r3, r0
    48bc:	81fb      	strh	r3, [r7, #14]
    48be:	4613      	mov	r3, r2
    48c0:	737b      	strb	r3, [r7, #13]
  wsfBufPool_t  *pPool;
  wsfBufMem_t   *pStart;
  uint16_t      len;
  uint8_t       i;

  wsfBufMem = (wsfBufMem_t *) pBufMem;
    48c2:	4b41      	ldr	r3, [pc, #260]	; (49c8 <WsfBufInit+0x118>)
    48c4:	68ba      	ldr	r2, [r7, #8]
    48c6:	601a      	str	r2, [r3, #0]
  pPool = (wsfBufPool_t *) wsfBufMem;
    48c8:	4b3f      	ldr	r3, [pc, #252]	; (49c8 <WsfBufInit+0x118>)
    48ca:	681b      	ldr	r3, [r3, #0]
    48cc:	61fb      	str	r3, [r7, #28]

  /* buffer storage starts after the pool structs */
  pStart = (wsfBufMem_t *) (pPool + numPools);
    48ce:	7b7a      	ldrb	r2, [r7, #13]
    48d0:	4613      	mov	r3, r2
    48d2:	005b      	lsls	r3, r3, #1
    48d4:	4413      	add	r3, r2
    48d6:	009b      	lsls	r3, r3, #2
    48d8:	69fa      	ldr	r2, [r7, #28]
    48da:	4413      	add	r3, r2
    48dc:	61bb      	str	r3, [r7, #24]

  wsfBufNumPools = numPools;
    48de:	4b3b      	ldr	r3, [pc, #236]	; (49cc <WsfBufInit+0x11c>)
    48e0:	7b7a      	ldrb	r2, [r7, #13]
    48e2:	701a      	strb	r2, [r3, #0]

  /* create each pool; see loop exit condition below */
  while (TRUE)
  {
    /* verify we didn't overrun memory; if we did, abort */
    if (pStart > &wsfBufMem[bufMemLen / sizeof(wsfBufMem_t)])
    48e4:	4b38      	ldr	r3, [pc, #224]	; (49c8 <WsfBufInit+0x118>)
    48e6:	681a      	ldr	r2, [r3, #0]
    48e8:	89fb      	ldrh	r3, [r7, #14]
    48ea:	08db      	lsrs	r3, r3, #3
    48ec:	b29b      	uxth	r3, r3
    48ee:	00db      	lsls	r3, r3, #3
    48f0:	441a      	add	r2, r3
    48f2:	69bb      	ldr	r3, [r7, #24]
    48f4:	429a      	cmp	r2, r3
    48f6:	d201      	bcs.n	48fc <WsfBufInit+0x4c>
    {
      WSF_ASSERT(FALSE);
      return 0;
    48f8:	2300      	movs	r3, #0
    48fa:	e05e      	b.n	49ba <WsfBufInit+0x10a>
    }

    /* exit loop after verification check */
    if (numPools-- == 0)
    48fc:	7b7b      	ldrb	r3, [r7, #13]
    48fe:	1e5a      	subs	r2, r3, #1
    4900:	737a      	strb	r2, [r7, #13]
    4902:	2b00      	cmp	r3, #0
    4904:	d10a      	bne.n	491c <WsfBufInit+0x6c>
    {
      break;
    4906:	bf00      	nop

    /* next pool */
    pPool++;
  }

  wsfBufMemLen = (uint8_t *) pStart - (uint8_t *) wsfBufMem;
    4908:	69ba      	ldr	r2, [r7, #24]
    490a:	4b2f      	ldr	r3, [pc, #188]	; (49c8 <WsfBufInit+0x118>)
    490c:	681b      	ldr	r3, [r3, #0]
    490e:	1ad3      	subs	r3, r2, r3
    4910:	b29a      	uxth	r2, r3
    4912:	4b2f      	ldr	r3, [pc, #188]	; (49d0 <WsfBufInit+0x120>)
    4914:	801a      	strh	r2, [r3, #0]
  WSF_TRACE_INFO1("Created buffer pools; using %u bytes", wsfBufMemLen);

  return wsfBufMemLen;
    4916:	4b2e      	ldr	r3, [pc, #184]	; (49d0 <WsfBufInit+0x120>)
    4918:	881b      	ldrh	r3, [r3, #0]
    491a:	e04e      	b.n	49ba <WsfBufInit+0x10a>
    {
      break;
    }

    /* adjust pool lengths for minimum size and alignment */
    if (pDesc->len < sizeof(wsfBufMem_t))
    491c:	687b      	ldr	r3, [r7, #4]
    491e:	881b      	ldrh	r3, [r3, #0]
    4920:	2b07      	cmp	r3, #7
    4922:	d803      	bhi.n	492c <WsfBufInit+0x7c>
    {
      pPool->desc.len = sizeof(wsfBufMem_t);
    4924:	69fb      	ldr	r3, [r7, #28]
    4926:	2208      	movs	r2, #8
    4928:	801a      	strh	r2, [r3, #0]
    492a:	e014      	b.n	4956 <WsfBufInit+0xa6>
    }
    else if ((pDesc->len % sizeof(wsfBufMem_t)) != 0)
    492c:	687b      	ldr	r3, [r7, #4]
    492e:	881b      	ldrh	r3, [r3, #0]
    4930:	f003 0307 	and.w	r3, r3, #7
    4934:	b29b      	uxth	r3, r3
    4936:	2b00      	cmp	r3, #0
    4938:	d009      	beq.n	494e <WsfBufInit+0x9e>
    {
      pPool->desc.len = pDesc->len + sizeof(wsfBufMem_t) - (pDesc->len % sizeof(wsfBufMem_t));
    493a:	687b      	ldr	r3, [r7, #4]
    493c:	881b      	ldrh	r3, [r3, #0]
    493e:	f023 0307 	bic.w	r3, r3, #7
    4942:	b29b      	uxth	r3, r3
    4944:	3308      	adds	r3, #8
    4946:	b29a      	uxth	r2, r3
    4948:	69fb      	ldr	r3, [r7, #28]
    494a:	801a      	strh	r2, [r3, #0]
    494c:	e003      	b.n	4956 <WsfBufInit+0xa6>
    }
    else
    {
      pPool->desc.len = pDesc->len;
    494e:	687b      	ldr	r3, [r7, #4]
    4950:	881a      	ldrh	r2, [r3, #0]
    4952:	69fb      	ldr	r3, [r7, #28]
    4954:	801a      	strh	r2, [r3, #0]
    }

    pPool->desc.num = pDesc->num;
    4956:	687b      	ldr	r3, [r7, #4]
    4958:	789a      	ldrb	r2, [r3, #2]
    495a:	69fb      	ldr	r3, [r7, #28]
    495c:	709a      	strb	r2, [r3, #2]
    pDesc++;
    495e:	687b      	ldr	r3, [r7, #4]
    4960:	3304      	adds	r3, #4
    4962:	607b      	str	r3, [r7, #4]

    pPool->pStart = pStart;
    4964:	69fb      	ldr	r3, [r7, #28]
    4966:	69ba      	ldr	r2, [r7, #24]
    4968:	605a      	str	r2, [r3, #4]
    pPool->pFree = pStart;
    496a:	69fb      	ldr	r3, [r7, #28]
    496c:	69ba      	ldr	r2, [r7, #24]
    496e:	609a      	str	r2, [r3, #8]

    WSF_TRACE_INFO2("Creating pool len=%u num=%u", pPool->desc.len, pPool->desc.num);
    WSF_TRACE_INFO1("              pStart=0x%x", (uint32_t)pPool->pStart);

    /* initialize free list */
    len = pPool->desc.len / sizeof(wsfBufMem_t);
    4970:	69fb      	ldr	r3, [r7, #28]
    4972:	881b      	ldrh	r3, [r3, #0]
    4974:	08db      	lsrs	r3, r3, #3
    4976:	82bb      	strh	r3, [r7, #20]
    for (i = pPool->desc.num; i > 1; i--)
    4978:	69fb      	ldr	r3, [r7, #28]
    497a:	789b      	ldrb	r3, [r3, #2]
    497c:	75fb      	strb	r3, [r7, #23]
    497e:	e00d      	b.n	499c <WsfBufInit+0xec>
    {
      /* pointer to the next free buffer is stored in the buffer itself */
      pStart->pNext = pStart + len;
    4980:	8abb      	ldrh	r3, [r7, #20]
    4982:	00db      	lsls	r3, r3, #3
    4984:	69ba      	ldr	r2, [r7, #24]
    4986:	441a      	add	r2, r3
    4988:	69bb      	ldr	r3, [r7, #24]
    498a:	601a      	str	r2, [r3, #0]
      pStart += len;
    498c:	8abb      	ldrh	r3, [r7, #20]
    498e:	00db      	lsls	r3, r3, #3
    4990:	69ba      	ldr	r2, [r7, #24]
    4992:	4413      	add	r3, r2
    4994:	61bb      	str	r3, [r7, #24]
    WSF_TRACE_INFO2("Creating pool len=%u num=%u", pPool->desc.len, pPool->desc.num);
    WSF_TRACE_INFO1("              pStart=0x%x", (uint32_t)pPool->pStart);

    /* initialize free list */
    len = pPool->desc.len / sizeof(wsfBufMem_t);
    for (i = pPool->desc.num; i > 1; i--)
    4996:	7dfb      	ldrb	r3, [r7, #23]
    4998:	3b01      	subs	r3, #1
    499a:	75fb      	strb	r3, [r7, #23]
    499c:	7dfb      	ldrb	r3, [r7, #23]
    499e:	2b01      	cmp	r3, #1
    49a0:	d8ee      	bhi.n	4980 <WsfBufInit+0xd0>
      pStart->pNext = pStart + len;
      pStart += len;
    }

    /* last one in list points to NULL */
    pStart->pNext = NULL;
    49a2:	69bb      	ldr	r3, [r7, #24]
    49a4:	2200      	movs	r2, #0
    49a6:	601a      	str	r2, [r3, #0]
    pStart += len;
    49a8:	8abb      	ldrh	r3, [r7, #20]
    49aa:	00db      	lsls	r3, r3, #3
    49ac:	69ba      	ldr	r2, [r7, #24]
    49ae:	4413      	add	r3, r2
    49b0:	61bb      	str	r3, [r7, #24]

    /* next pool */
    pPool++;
    49b2:	69fb      	ldr	r3, [r7, #28]
    49b4:	330c      	adds	r3, #12
    49b6:	61fb      	str	r3, [r7, #28]
  }
    49b8:	e794      	b.n	48e4 <WsfBufInit+0x34>

  wsfBufMemLen = (uint8_t *) pStart - (uint8_t *) wsfBufMem;
  WSF_TRACE_INFO1("Created buffer pools; using %u bytes", wsfBufMemLen);

  return wsfBufMemLen;
}
    49ba:	4618      	mov	r0, r3
    49bc:	3724      	adds	r7, #36	; 0x24
    49be:	46bd      	mov	sp, r7
    49c0:	f85d 7b04 	ldr.w	r7, [sp], #4
    49c4:	4770      	bx	lr
    49c6:	bf00      	nop
    49c8:	1000058c 	.word	0x1000058c
    49cc:	10000e3e 	.word	0x10000e3e
    49d0:	10000e3c 	.word	0x10000e3c

000049d4 <WsfBufAlloc>:
 *
 *  \return Pointer to allocated buffer or NULL if allocation fails.
 */
/*************************************************************************************************/
void *WsfBufAlloc(uint16_t len)
{
    49d4:	b580      	push	{r7, lr}
    49d6:	b086      	sub	sp, #24
    49d8:	af00      	add	r7, sp, #0
    49da:	4603      	mov	r3, r0
    49dc:	80fb      	strh	r3, [r7, #6]

  WSF_CS_INIT(cs);

  WSF_ASSERT(len > 0);

  pPool = (wsfBufPool_t *) wsfBufMem;
    49de:	4b18      	ldr	r3, [pc, #96]	; (4a40 <WsfBufAlloc+0x6c>)
    49e0:	681b      	ldr	r3, [r3, #0]
    49e2:	617b      	str	r3, [r7, #20]

  for (i = wsfBufNumPools; i > 0; i--, pPool++)
    49e4:	4b17      	ldr	r3, [pc, #92]	; (4a44 <WsfBufAlloc+0x70>)
    49e6:	781b      	ldrb	r3, [r3, #0]
    49e8:	74fb      	strb	r3, [r7, #19]
    49ea:	e020      	b.n	4a2e <WsfBufAlloc+0x5a>
  {
    /* if buffer is big enough */
    if (len <= pPool->desc.len)
    49ec:	697b      	ldr	r3, [r7, #20]
    49ee:	881b      	ldrh	r3, [r3, #0]
    49f0:	88fa      	ldrh	r2, [r7, #6]
    49f2:	429a      	cmp	r2, r3
    49f4:	d815      	bhi.n	4a22 <WsfBufAlloc+0x4e>
    {
      /* enter critical section */
      WSF_CS_ENTER(cs);
    49f6:	f7ff fe23 	bl	4640 <WsfCsEnter>

      /* if buffers available */
      if (pPool->pFree != NULL)
    49fa:	697b      	ldr	r3, [r7, #20]
    49fc:	689b      	ldr	r3, [r3, #8]
    49fe:	2b00      	cmp	r3, #0
    4a00:	d00d      	beq.n	4a1e <WsfBufAlloc+0x4a>
      {
        /* allocation succeeded */
        pBuf = pPool->pFree;
    4a02:	697b      	ldr	r3, [r7, #20]
    4a04:	689b      	ldr	r3, [r3, #8]
    4a06:	60fb      	str	r3, [r7, #12]

        /* next free buffer is stored inside current free buffer */
        pPool->pFree = pBuf->pNext;
    4a08:	68fb      	ldr	r3, [r7, #12]
    4a0a:	681a      	ldr	r2, [r3, #0]
    4a0c:	697b      	ldr	r3, [r7, #20]
    4a0e:	609a      	str	r2, [r3, #8]

#if WSF_BUF_FREE_CHECK == TRUE
        pBuf->free = 0;
    4a10:	68fb      	ldr	r3, [r7, #12]
    4a12:	2200      	movs	r2, #0
    4a14:	605a      	str	r2, [r3, #4]
      {
        pPool->maxAlloc = pPool->numAlloc;
      }
#endif
        /* exit critical section */
        WSF_CS_EXIT(cs);
    4a16:	f7ff fe27 	bl	4668 <WsfCsExit>

        WSF_TRACE_ALLOC2("WsfBufAlloc len:%u pBuf:%08x", pPool->desc.len, pBuf);

        return pBuf;
    4a1a:	68fb      	ldr	r3, [r7, #12]
    4a1c:	e00b      	b.n	4a36 <WsfBufAlloc+0x62>
      }

      /* exit critical section */
      WSF_CS_EXIT(cs);
    4a1e:	f7ff fe23 	bl	4668 <WsfCsExit>

  WSF_ASSERT(len > 0);

  pPool = (wsfBufPool_t *) wsfBufMem;

  for (i = wsfBufNumPools; i > 0; i--, pPool++)
    4a22:	7cfb      	ldrb	r3, [r7, #19]
    4a24:	3b01      	subs	r3, #1
    4a26:	74fb      	strb	r3, [r7, #19]
    4a28:	697b      	ldr	r3, [r7, #20]
    4a2a:	330c      	adds	r3, #12
    4a2c:	617b      	str	r3, [r7, #20]
    4a2e:	7cfb      	ldrb	r3, [r7, #19]
    4a30:	2b00      	cmp	r3, #0
    4a32:	d1db      	bne.n	49ec <WsfBufAlloc+0x18>
  WSF_TRACE_WARN1("WsfBufAlloc failed len:%u", len);
#if WSF_BUF_ALLOC_FAIL_ASSERT == TRUE
  WSF_ASSERT(FALSE);
#endif

  return NULL;
    4a34:	2300      	movs	r3, #0
}
    4a36:	4618      	mov	r0, r3
    4a38:	3718      	adds	r7, #24
    4a3a:	46bd      	mov	sp, r7
    4a3c:	bd80      	pop	{r7, pc}
    4a3e:	bf00      	nop
    4a40:	1000058c 	.word	0x1000058c
    4a44:	10000e3e 	.word	0x10000e3e

00004a48 <WsfBufFree>:
 *
 *  \return None.
 */
/*************************************************************************************************/
void WsfBufFree(void *pBuf)
{
    4a48:	b580      	push	{r7, lr}
    4a4a:	b084      	sub	sp, #16
    4a4c:	af00      	add	r7, sp, #0
    4a4e:	6078      	str	r0, [r7, #4]
  wsfBufPool_t  *pPool;
  wsfBufMem_t   *p = pBuf;
    4a50:	687b      	ldr	r3, [r7, #4]
    4a52:	60bb      	str	r3, [r7, #8]
  WSF_ASSERT(p >= ((wsfBufPool_t *) wsfBufMem)->pStart);
  WSF_ASSERT(p < (wsfBufMem_t *)(((uint8_t *) wsfBufMem) + wsfBufMemLen));
#endif

  /* iterate over pools starting from last pool */
  pPool = (wsfBufPool_t *) wsfBufMem + (wsfBufNumPools - 1);
    4a54:	4b16      	ldr	r3, [pc, #88]	; (4ab0 <WsfBufFree+0x68>)
    4a56:	6819      	ldr	r1, [r3, #0]
    4a58:	4b16      	ldr	r3, [pc, #88]	; (4ab4 <WsfBufFree+0x6c>)
    4a5a:	781b      	ldrb	r3, [r3, #0]
    4a5c:	461a      	mov	r2, r3
    4a5e:	4613      	mov	r3, r2
    4a60:	005b      	lsls	r3, r3, #1
    4a62:	4413      	add	r3, r2
    4a64:	009b      	lsls	r3, r3, #2
    4a66:	3b0c      	subs	r3, #12
    4a68:	440b      	add	r3, r1
    4a6a:	60fb      	str	r3, [r7, #12]
  while (pPool >= (wsfBufPool_t *) wsfBufMem)
    4a6c:	e016      	b.n	4a9c <WsfBufFree+0x54>
  {
    /* if the buffer memory is located inside this pool */
    if (p >= pPool->pStart)
    4a6e:	68fb      	ldr	r3, [r7, #12]
    4a70:	685a      	ldr	r2, [r3, #4]
    4a72:	68bb      	ldr	r3, [r7, #8]
    4a74:	429a      	cmp	r2, r3
    4a76:	d80e      	bhi.n	4a96 <WsfBufFree+0x4e>
    {
      /* enter critical section */
      WSF_CS_ENTER(cs);
    4a78:	f7ff fde2 	bl	4640 <WsfCsEnter>

#if WSF_BUF_FREE_CHECK == TRUE
      WSF_ASSERT(p->free != WSF_BUF_FREE_NUM);
      p->free = WSF_BUF_FREE_NUM;
    4a7c:	68bb      	ldr	r3, [r7, #8]
    4a7e:	4a0e      	ldr	r2, [pc, #56]	; (4ab8 <WsfBufFree+0x70>)
    4a80:	605a      	str	r2, [r3, #4]
#if WSF_BUF_STATS == TRUE
      pPool->numAlloc--;
#endif

      /* pool found; put buffer back in free list */
      p->pNext = pPool->pFree;
    4a82:	68fb      	ldr	r3, [r7, #12]
    4a84:	689a      	ldr	r2, [r3, #8]
    4a86:	68bb      	ldr	r3, [r7, #8]
    4a88:	601a      	str	r2, [r3, #0]
      pPool->pFree = p;
    4a8a:	68fb      	ldr	r3, [r7, #12]
    4a8c:	68ba      	ldr	r2, [r7, #8]
    4a8e:	609a      	str	r2, [r3, #8]

      /* exit critical section */
      WSF_CS_EXIT(cs);
    4a90:	f7ff fdea 	bl	4668 <WsfCsExit>

      WSF_TRACE_FREE2("WsfBufFree len:%u pBuf:%08x", pPool->desc.len, pBuf);

      return;
    4a94:	e008      	b.n	4aa8 <WsfBufFree+0x60>
    }

    /* next pool */
    pPool--;
    4a96:	68fb      	ldr	r3, [r7, #12]
    4a98:	3b0c      	subs	r3, #12
    4a9a:	60fb      	str	r3, [r7, #12]
  WSF_ASSERT(p < (wsfBufMem_t *)(((uint8_t *) wsfBufMem) + wsfBufMemLen));
#endif

  /* iterate over pools starting from last pool */
  pPool = (wsfBufPool_t *) wsfBufMem + (wsfBufNumPools - 1);
  while (pPool >= (wsfBufPool_t *) wsfBufMem)
    4a9c:	4b04      	ldr	r3, [pc, #16]	; (4ab0 <WsfBufFree+0x68>)
    4a9e:	681b      	ldr	r3, [r3, #0]
    4aa0:	68fa      	ldr	r2, [r7, #12]
    4aa2:	429a      	cmp	r2, r3
    4aa4:	d2e3      	bcs.n	4a6e <WsfBufFree+0x26>
  }

  /* should never get here */
  WSF_ASSERT(FALSE);

  return;
    4aa6:	bf00      	nop
}
    4aa8:	3710      	adds	r7, #16
    4aaa:	46bd      	mov	sp, r7
    4aac:	bd80      	pop	{r7, pc}
    4aae:	bf00      	nop
    4ab0:	1000058c 	.word	0x1000058c
    4ab4:	10000e3e 	.word	0x10000e3e
    4ab8:	faabd00d 	.word	0xfaabd00d

00004abc <WsfMsgAlloc>:
 *
 *  \return Pointer to message buffer or NULL if allocation failed.
 */
/*************************************************************************************************/
void *WsfMsgAlloc(uint16_t len)
{
    4abc:	b580      	push	{r7, lr}
    4abe:	b084      	sub	sp, #16
    4ac0:	af00      	add	r7, sp, #0
    4ac2:	4603      	mov	r3, r0
    4ac4:	80fb      	strh	r3, [r7, #6]
  wsfMsg_t  *pMsg;

  pMsg = WsfBufAlloc(len + sizeof(wsfMsg_t));
    4ac6:	88fb      	ldrh	r3, [r7, #6]
    4ac8:	3308      	adds	r3, #8
    4aca:	b29b      	uxth	r3, r3
    4acc:	4618      	mov	r0, r3
    4ace:	f7ff ff81 	bl	49d4 <WsfBufAlloc>
    4ad2:	60f8      	str	r0, [r7, #12]

  /* hide header */
  if (pMsg != NULL)
    4ad4:	68fb      	ldr	r3, [r7, #12]
    4ad6:	2b00      	cmp	r3, #0
    4ad8:	d002      	beq.n	4ae0 <WsfMsgAlloc+0x24>
  {
    pMsg++;
    4ada:	68fb      	ldr	r3, [r7, #12]
    4adc:	3308      	adds	r3, #8
    4ade:	60fb      	str	r3, [r7, #12]
  }

  return pMsg;
    4ae0:	68fb      	ldr	r3, [r7, #12]
}
    4ae2:	4618      	mov	r0, r3
    4ae4:	3710      	adds	r7, #16
    4ae6:	46bd      	mov	sp, r7
    4ae8:	bd80      	pop	{r7, pc}
    4aea:	bf00      	nop

00004aec <WsfMsgFree>:
 *
 *  \return None.
 */
/*************************************************************************************************/
void WsfMsgFree(void *pMsg)
{
    4aec:	b580      	push	{r7, lr}
    4aee:	b082      	sub	sp, #8
    4af0:	af00      	add	r7, sp, #0
    4af2:	6078      	str	r0, [r7, #4]
  WsfBufFree(((wsfMsg_t *) pMsg) - 1);
    4af4:	687b      	ldr	r3, [r7, #4]
    4af6:	3b08      	subs	r3, #8
    4af8:	4618      	mov	r0, r3
    4afa:	f7ff ffa5 	bl	4a48 <WsfBufFree>
}
    4afe:	3708      	adds	r7, #8
    4b00:	46bd      	mov	sp, r7
    4b02:	bd80      	pop	{r7, pc}

00004b04 <WsfMsgSend>:
 *
 *  \return None.
 */
/*************************************************************************************************/
void WsfMsgSend(wsfHandlerId_t handlerId, void *pMsg)
{
    4b04:	b580      	push	{r7, lr}
    4b06:	b082      	sub	sp, #8
    4b08:	af00      	add	r7, sp, #0
    4b0a:	4603      	mov	r3, r0
    4b0c:	6039      	str	r1, [r7, #0]
    4b0e:	71fb      	strb	r3, [r7, #7]
  WSF_TRACE_MSG1("WsfMsgSend handlerId:%u", handlerId);

  /* get queue for this handler and enqueue message */
  WsfMsgEnq(WsfTaskMsgQueue(handlerId), handlerId, pMsg);
    4b10:	79fb      	ldrb	r3, [r7, #7]
    4b12:	4618      	mov	r0, r3
    4b14:	f7ff fe0c 	bl	4730 <WsfTaskMsgQueue>
    4b18:	4602      	mov	r2, r0
    4b1a:	79fb      	ldrb	r3, [r7, #7]
    4b1c:	4610      	mov	r0, r2
    4b1e:	4619      	mov	r1, r3
    4b20:	683a      	ldr	r2, [r7, #0]
    4b22:	f000 f809 	bl	4b38 <WsfMsgEnq>

  /* set task for this handler as ready to run */
  WsfTaskSetReady(handlerId, WSF_MSG_QUEUE_EVENT);
    4b26:	79fb      	ldrb	r3, [r7, #7]
    4b28:	4618      	mov	r0, r3
    4b2a:	2101      	movs	r1, #1
    4b2c:	f7ff fde6 	bl	46fc <WsfTaskSetReady>
}
    4b30:	3708      	adds	r7, #8
    4b32:	46bd      	mov	sp, r7
    4b34:	bd80      	pop	{r7, pc}
    4b36:	bf00      	nop

00004b38 <WsfMsgEnq>:
 *
 *  \return None.
 */
/*************************************************************************************************/
void WsfMsgEnq(wsfQueue_t *pQueue, wsfHandlerId_t handlerId, void *pMsg)
{
    4b38:	b580      	push	{r7, lr}
    4b3a:	b086      	sub	sp, #24
    4b3c:	af00      	add	r7, sp, #0
    4b3e:	60f8      	str	r0, [r7, #12]
    4b40:	460b      	mov	r3, r1
    4b42:	607a      	str	r2, [r7, #4]
    4b44:	72fb      	strb	r3, [r7, #11]
  wsfMsg_t    *p;

  WSF_ASSERT(pMsg != NULL);

  /* get message header */
  p = ((wsfMsg_t *) pMsg) - 1;
    4b46:	687b      	ldr	r3, [r7, #4]
    4b48:	3b08      	subs	r3, #8
    4b4a:	617b      	str	r3, [r7, #20]

  /* set handler ID */
  p->handlerId = handlerId;
    4b4c:	697b      	ldr	r3, [r7, #20]
    4b4e:	7afa      	ldrb	r2, [r7, #11]
    4b50:	711a      	strb	r2, [r3, #4]

  WsfQueueEnq(pQueue, p);
    4b52:	68f8      	ldr	r0, [r7, #12]
    4b54:	6979      	ldr	r1, [r7, #20]
    4b56:	f000 f81b 	bl	4b90 <WsfQueueEnq>
}
    4b5a:	3718      	adds	r7, #24
    4b5c:	46bd      	mov	sp, r7
    4b5e:	bd80      	pop	{r7, pc}

00004b60 <WsfMsgDeq>:
 *
 *  \return Pointer to message that has been dequeued or NULL if queue is empty.
 */
/*************************************************************************************************/
void *WsfMsgDeq(wsfQueue_t *pQueue, wsfHandlerId_t *pHandlerId)
{
    4b60:	b580      	push	{r7, lr}
    4b62:	b084      	sub	sp, #16
    4b64:	af00      	add	r7, sp, #0
    4b66:	6078      	str	r0, [r7, #4]
    4b68:	6039      	str	r1, [r7, #0]
  wsfMsg_t *pMsg;

  if ((pMsg = WsfQueueDeq(pQueue)) != NULL)
    4b6a:	6878      	ldr	r0, [r7, #4]
    4b6c:	f000 f832 	bl	4bd4 <WsfQueueDeq>
    4b70:	60f8      	str	r0, [r7, #12]
    4b72:	68fb      	ldr	r3, [r7, #12]
    4b74:	2b00      	cmp	r3, #0
    4b76:	d006      	beq.n	4b86 <WsfMsgDeq+0x26>
  {
    *pHandlerId = pMsg->handlerId;
    4b78:	68fb      	ldr	r3, [r7, #12]
    4b7a:	791a      	ldrb	r2, [r3, #4]
    4b7c:	683b      	ldr	r3, [r7, #0]
    4b7e:	701a      	strb	r2, [r3, #0]

    /* hide header */
    pMsg++;
    4b80:	68fb      	ldr	r3, [r7, #12]
    4b82:	3308      	adds	r3, #8
    4b84:	60fb      	str	r3, [r7, #12]
  }

  return pMsg;
    4b86:	68fb      	ldr	r3, [r7, #12]
}
    4b88:	4618      	mov	r0, r3
    4b8a:	3710      	adds	r7, #16
    4b8c:	46bd      	mov	sp, r7
    4b8e:	bd80      	pop	{r7, pc}

00004b90 <WsfQueueEnq>:
 *
 *  \return None.
 */
/*************************************************************************************************/
void WsfQueueEnq(wsfQueue_t *pQueue, void *pElem)
{
    4b90:	b580      	push	{r7, lr}
    4b92:	b082      	sub	sp, #8
    4b94:	af00      	add	r7, sp, #0
    4b96:	6078      	str	r0, [r7, #4]
    4b98:	6039      	str	r1, [r7, #0]
  
  WSF_ASSERT(pQueue != NULL);
  WSF_ASSERT(pElem != NULL);
  
  /* initialize next pointer */
  WSF_QUEUE_NEXT(pElem) = NULL;
    4b9a:	683b      	ldr	r3, [r7, #0]
    4b9c:	2200      	movs	r2, #0
    4b9e:	601a      	str	r2, [r3, #0]
  
  /* enter critical section */
  WSF_CS_ENTER(cs);
    4ba0:	f7ff fd4e 	bl	4640 <WsfCsEnter>
  
  /* if queue empty */
  if (pQueue->pHead == NULL)
    4ba4:	687b      	ldr	r3, [r7, #4]
    4ba6:	681b      	ldr	r3, [r3, #0]
    4ba8:	2b00      	cmp	r3, #0
    4baa:	d106      	bne.n	4bba <WsfQueueEnq+0x2a>
  {
    pQueue->pHead = pElem;
    4bac:	687b      	ldr	r3, [r7, #4]
    4bae:	683a      	ldr	r2, [r7, #0]
    4bb0:	601a      	str	r2, [r3, #0]
    pQueue->pTail = pElem;
    4bb2:	687b      	ldr	r3, [r7, #4]
    4bb4:	683a      	ldr	r2, [r7, #0]
    4bb6:	605a      	str	r2, [r3, #4]
    4bb8:	e006      	b.n	4bc8 <WsfQueueEnq+0x38>
  }
  /* else enqueue element to the tail of queue */
  else
  {
    WSF_QUEUE_NEXT(pQueue->pTail) = pElem;
    4bba:	687b      	ldr	r3, [r7, #4]
    4bbc:	685b      	ldr	r3, [r3, #4]
    4bbe:	683a      	ldr	r2, [r7, #0]
    4bc0:	601a      	str	r2, [r3, #0]
    pQueue->pTail = pElem;
    4bc2:	687b      	ldr	r3, [r7, #4]
    4bc4:	683a      	ldr	r2, [r7, #0]
    4bc6:	605a      	str	r2, [r3, #4]
  }
  
  /* exit critical section */
  WSF_CS_EXIT(cs);
    4bc8:	f7ff fd4e 	bl	4668 <WsfCsExit>
}
    4bcc:	3708      	adds	r7, #8
    4bce:	46bd      	mov	sp, r7
    4bd0:	bd80      	pop	{r7, pc}
    4bd2:	bf00      	nop

00004bd4 <WsfQueueDeq>:
 *
 *  \return Pointer to element that has been dequeued or NULL if queue is empty.
 */
/*************************************************************************************************/
void *WsfQueueDeq(wsfQueue_t *pQueue)
{
    4bd4:	b580      	push	{r7, lr}
    4bd6:	b084      	sub	sp, #16
    4bd8:	af00      	add	r7, sp, #0
    4bda:	6078      	str	r0, [r7, #4]
  WSF_CS_INIT(cs);
  
  WSF_ASSERT(pQueue != NULL);
  
  /* enter critical section */
  WSF_CS_ENTER(cs);
    4bdc:	f7ff fd30 	bl	4640 <WsfCsEnter>
 
  pElem = pQueue->pHead;
    4be0:	687b      	ldr	r3, [r7, #4]
    4be2:	681b      	ldr	r3, [r3, #0]
    4be4:	60fb      	str	r3, [r7, #12]
  
  /* if queue is not empty */
  if (pElem != NULL)
    4be6:	68fb      	ldr	r3, [r7, #12]
    4be8:	2b00      	cmp	r3, #0
    4bea:	d00a      	beq.n	4c02 <WsfQueueDeq+0x2e>
  {
    /* set head to next element in queue */
    pQueue->pHead = WSF_QUEUE_NEXT(pElem);
    4bec:	68fb      	ldr	r3, [r7, #12]
    4bee:	681a      	ldr	r2, [r3, #0]
    4bf0:	687b      	ldr	r3, [r7, #4]
    4bf2:	601a      	str	r2, [r3, #0]
    
    /* check for empty queue */
    if (pQueue->pHead == NULL)
    4bf4:	687b      	ldr	r3, [r7, #4]
    4bf6:	681b      	ldr	r3, [r3, #0]
    4bf8:	2b00      	cmp	r3, #0
    4bfa:	d102      	bne.n	4c02 <WsfQueueDeq+0x2e>
    {
      pQueue->pTail = NULL;
    4bfc:	687b      	ldr	r3, [r7, #4]
    4bfe:	2200      	movs	r2, #0
    4c00:	605a      	str	r2, [r3, #4]
    }
  }
  
  /* exit critical section */
  WSF_CS_EXIT(cs);
    4c02:	f7ff fd31 	bl	4668 <WsfCsExit>
  
  return pElem;
    4c06:	68fb      	ldr	r3, [r7, #12]
}
    4c08:	4618      	mov	r0, r3
    4c0a:	3710      	adds	r7, #16
    4c0c:	46bd      	mov	sp, r7
    4c0e:	bd80      	pop	{r7, pc}

00004c10 <WsfQueuePush>:
 *
 *  \return None.
 */
/*************************************************************************************************/
void WsfQueuePush(wsfQueue_t *pQueue, void *pElem)
{
    4c10:	b580      	push	{r7, lr}
    4c12:	b082      	sub	sp, #8
    4c14:	af00      	add	r7, sp, #0
    4c16:	6078      	str	r0, [r7, #4]
    4c18:	6039      	str	r1, [r7, #0]

  WSF_ASSERT(pQueue != NULL);
  WSF_ASSERT(pElem != NULL);
  
  /* enter critical section */
  WSF_CS_ENTER(cs);
    4c1a:	f7ff fd11 	bl	4640 <WsfCsEnter>
  
  /* else push element to head of queue */
  WSF_QUEUE_NEXT(pElem) = pQueue->pHead;
    4c1e:	687b      	ldr	r3, [r7, #4]
    4c20:	681a      	ldr	r2, [r3, #0]
    4c22:	683b      	ldr	r3, [r7, #0]
    4c24:	601a      	str	r2, [r3, #0]
  
  /* if queue was empty set tail */
  if (pQueue->pHead == NULL)
    4c26:	687b      	ldr	r3, [r7, #4]
    4c28:	681b      	ldr	r3, [r3, #0]
    4c2a:	2b00      	cmp	r3, #0
    4c2c:	d102      	bne.n	4c34 <WsfQueuePush+0x24>
  {
    pQueue->pTail = pElem;
    4c2e:	687b      	ldr	r3, [r7, #4]
    4c30:	683a      	ldr	r2, [r7, #0]
    4c32:	605a      	str	r2, [r3, #4]
  }

  /* set head */
  pQueue->pHead = pElem;
    4c34:	687b      	ldr	r3, [r7, #4]
    4c36:	683a      	ldr	r2, [r7, #0]
    4c38:	601a      	str	r2, [r3, #0]
  
  /* exit critical section */
  WSF_CS_EXIT(cs);
    4c3a:	f7ff fd15 	bl	4668 <WsfCsExit>
}
    4c3e:	3708      	adds	r7, #8
    4c40:	46bd      	mov	sp, r7
    4c42:	bd80      	pop	{r7, pc}

00004c44 <WsfQueueInsert>:
 *                    Note:  set pPrev to NULL if pElem is first element in queue.
 *  \return None.
 */
/*************************************************************************************************/
void WsfQueueInsert(wsfQueue_t *pQueue, void *pElem, void *pPrev)
{
    4c44:	b580      	push	{r7, lr}
    4c46:	b084      	sub	sp, #16
    4c48:	af00      	add	r7, sp, #0
    4c4a:	60f8      	str	r0, [r7, #12]
    4c4c:	60b9      	str	r1, [r7, #8]
    4c4e:	607a      	str	r2, [r7, #4]

  WSF_ASSERT(pQueue != NULL);
  WSF_ASSERT(pElem != NULL);
  
  /* enter critical section */
  WSF_CS_ENTER(cs);
    4c50:	f7ff fcf6 	bl	4640 <WsfCsEnter>
  
  /* if queue empty or inserting at tail */
  if (pQueue->pHead == NULL || pPrev == pQueue->pTail)
    4c54:	68fb      	ldr	r3, [r7, #12]
    4c56:	681b      	ldr	r3, [r3, #0]
    4c58:	2b00      	cmp	r3, #0
    4c5a:	d004      	beq.n	4c66 <WsfQueueInsert+0x22>
    4c5c:	68fb      	ldr	r3, [r7, #12]
    4c5e:	685a      	ldr	r2, [r3, #4]
    4c60:	687b      	ldr	r3, [r7, #4]
    4c62:	429a      	cmp	r2, r3
    4c64:	d104      	bne.n	4c70 <WsfQueueInsert+0x2c>
  {
    /* queue as normal */
    WsfQueueEnq(pQueue, pElem);
    4c66:	68f8      	ldr	r0, [r7, #12]
    4c68:	68b9      	ldr	r1, [r7, #8]
    4c6a:	f7ff ff91 	bl	4b90 <WsfQueueEnq>
    4c6e:	e00e      	b.n	4c8e <WsfQueueInsert+0x4a>
  }
  /* else if inserting at head */
  else if (pPrev == NULL)
    4c70:	687b      	ldr	r3, [r7, #4]
    4c72:	2b00      	cmp	r3, #0
    4c74:	d104      	bne.n	4c80 <WsfQueueInsert+0x3c>
  {
    /* push to head */
    WsfQueuePush(pQueue, pElem);
    4c76:	68f8      	ldr	r0, [r7, #12]
    4c78:	68b9      	ldr	r1, [r7, #8]
    4c7a:	f7ff ffc9 	bl	4c10 <WsfQueuePush>
    4c7e:	e006      	b.n	4c8e <WsfQueueInsert+0x4a>
  }
  else 
  {
    /* insert in middle of queue */
    WSF_QUEUE_NEXT(pElem) = WSF_QUEUE_NEXT(pPrev);
    4c80:	687b      	ldr	r3, [r7, #4]
    4c82:	681a      	ldr	r2, [r3, #0]
    4c84:	68bb      	ldr	r3, [r7, #8]
    4c86:	601a      	str	r2, [r3, #0]
    WSF_QUEUE_NEXT(pPrev) = pElem;
    4c88:	687b      	ldr	r3, [r7, #4]
    4c8a:	68ba      	ldr	r2, [r7, #8]
    4c8c:	601a      	str	r2, [r3, #0]
  }

  /* exit critical section */
  WSF_CS_EXIT(cs);
    4c8e:	f7ff fceb 	bl	4668 <WsfCsExit>
}
    4c92:	3710      	adds	r7, #16
    4c94:	46bd      	mov	sp, r7
    4c96:	bd80      	pop	{r7, pc}

00004c98 <WsfQueueRemove>:
 *                    Note:  set pPrev to NULL if pElem is first element in queue.
 *  \return None.
 */
/*************************************************************************************************/
void WsfQueueRemove(wsfQueue_t *pQueue, void *pElem, void *pPrev)
{
    4c98:	b580      	push	{r7, lr}
    4c9a:	b084      	sub	sp, #16
    4c9c:	af00      	add	r7, sp, #0
    4c9e:	60f8      	str	r0, [r7, #12]
    4ca0:	60b9      	str	r1, [r7, #8]
    4ca2:	607a      	str	r2, [r7, #4]
  WSF_ASSERT(pQueue != NULL);
  WSF_ASSERT(pQueue->pHead != NULL);
  WSF_ASSERT(pElem != NULL);
  
  /* enter critical section */
  WSF_CS_ENTER(cs);
    4ca4:	f7ff fccc 	bl	4640 <WsfCsEnter>
  
  /* if first element */
  if (pElem == pQueue->pHead)
    4ca8:	68fb      	ldr	r3, [r7, #12]
    4caa:	681a      	ldr	r2, [r3, #0]
    4cac:	68bb      	ldr	r3, [r7, #8]
    4cae:	429a      	cmp	r2, r3
    4cb0:	d104      	bne.n	4cbc <WsfQueueRemove+0x24>
  {
    /* remove from head of queue */
    pQueue->pHead = WSF_QUEUE_NEXT(pElem);
    4cb2:	68bb      	ldr	r3, [r7, #8]
    4cb4:	681a      	ldr	r2, [r3, #0]
    4cb6:	68fb      	ldr	r3, [r7, #12]
    4cb8:	601a      	str	r2, [r3, #0]
    4cba:	e003      	b.n	4cc4 <WsfQueueRemove+0x2c>
  }
  else
  {
    /* remove from middle of queue */
    WSF_QUEUE_NEXT(pPrev) = WSF_QUEUE_NEXT(pElem);
    4cbc:	68bb      	ldr	r3, [r7, #8]
    4cbe:	681a      	ldr	r2, [r3, #0]
    4cc0:	687b      	ldr	r3, [r7, #4]
    4cc2:	601a      	str	r2, [r3, #0]
  }
  
  /* if last element */
  if (pElem == pQueue->pTail)
    4cc4:	68fb      	ldr	r3, [r7, #12]
    4cc6:	685a      	ldr	r2, [r3, #4]
    4cc8:	68bb      	ldr	r3, [r7, #8]
    4cca:	429a      	cmp	r2, r3
    4ccc:	d102      	bne.n	4cd4 <WsfQueueRemove+0x3c>
  {
    /* update tail */
    pQueue->pTail = pPrev;
    4cce:	68fb      	ldr	r3, [r7, #12]
    4cd0:	687a      	ldr	r2, [r7, #4]
    4cd2:	605a      	str	r2, [r3, #4]
  }
  
  /* exit critical section */
  WSF_CS_EXIT(cs);
    4cd4:	f7ff fcc8 	bl	4668 <WsfCsExit>
}
    4cd8:	3710      	adds	r7, #16
    4cda:	46bd      	mov	sp, r7
    4cdc:	bd80      	pop	{r7, pc}
    4cde:	bf00      	nop

00004ce0 <WsfQueueCount>:
 *
 *  \return Number of elements in queue.
 */
/*************************************************************************************************/
uint16_t WsfQueueCount(wsfQueue_t *pQueue)
{
    4ce0:	b580      	push	{r7, lr}
    4ce2:	b084      	sub	sp, #16
    4ce4:	af00      	add	r7, sp, #0
    4ce6:	6078      	str	r0, [r7, #4]
  wsfQueueElem_t  *pElem;
  uint16_t        count = 0;
    4ce8:	2300      	movs	r3, #0
    4cea:	817b      	strh	r3, [r7, #10]
  WSF_CS_INIT(cs);

  WSF_ASSERT(pQueue != NULL);

  /* enter critical section */
  WSF_CS_ENTER(cs);
    4cec:	f7ff fca8 	bl	4640 <WsfCsEnter>

  pElem = pQueue->pHead;
    4cf0:	687b      	ldr	r3, [r7, #4]
    4cf2:	681b      	ldr	r3, [r3, #0]
    4cf4:	60fb      	str	r3, [r7, #12]

  /* iterate over queue */
  while (pElem != NULL)
    4cf6:	e005      	b.n	4d04 <WsfQueueCount+0x24>
  {
    count++;
    4cf8:	897b      	ldrh	r3, [r7, #10]
    4cfa:	3301      	adds	r3, #1
    4cfc:	817b      	strh	r3, [r7, #10]
    pElem = pElem->pNext;
    4cfe:	68fb      	ldr	r3, [r7, #12]
    4d00:	681b      	ldr	r3, [r3, #0]
    4d02:	60fb      	str	r3, [r7, #12]
  WSF_CS_ENTER(cs);

  pElem = pQueue->pHead;

  /* iterate over queue */
  while (pElem != NULL)
    4d04:	68fb      	ldr	r3, [r7, #12]
    4d06:	2b00      	cmp	r3, #0
    4d08:	d1f6      	bne.n	4cf8 <WsfQueueCount+0x18>
    count++;
    pElem = pElem->pNext;
  }
  
  /* exit critical section */
  WSF_CS_EXIT(cs);
    4d0a:	f7ff fcad 	bl	4668 <WsfCsExit>
  
  return count;
    4d0e:	897b      	ldrh	r3, [r7, #10]
}
    4d10:	4618      	mov	r0, r3
    4d12:	3710      	adds	r7, #16
    4d14:	46bd      	mov	sp, r7
    4d16:	bd80      	pop	{r7, pc}

00004d18 <WsfQueueEmpty>:
 *
 *  \return TRUE if queue is empty, FALSE otherwise.
 */
/*************************************************************************************************/
bool_t WsfQueueEmpty(wsfQueue_t *pQueue)
{
    4d18:	b580      	push	{r7, lr}
    4d1a:	b084      	sub	sp, #16
    4d1c:	af00      	add	r7, sp, #0
    4d1e:	6078      	str	r0, [r7, #4]
  WSF_CS_INIT(cs);

  WSF_ASSERT(pQueue != NULL);

  /* enter critical section */
  WSF_CS_ENTER(cs);
    4d20:	f7ff fc8e 	bl	4640 <WsfCsEnter>

  empty = (pQueue->pHead == NULL);
    4d24:	687b      	ldr	r3, [r7, #4]
    4d26:	681b      	ldr	r3, [r3, #0]
    4d28:	2b00      	cmp	r3, #0
    4d2a:	bf14      	ite	ne
    4d2c:	2300      	movne	r3, #0
    4d2e:	2301      	moveq	r3, #1
    4d30:	b2db      	uxtb	r3, r3
    4d32:	73fb      	strb	r3, [r7, #15]

  /* exit critical section */
  WSF_CS_EXIT(cs);
    4d34:	f7ff fc98 	bl	4668 <WsfCsExit>
  
  return empty;
    4d38:	7bfb      	ldrb	r3, [r7, #15]
}
    4d3a:	4618      	mov	r0, r3
    4d3c:	3710      	adds	r7, #16
    4d3e:	46bd      	mov	sp, r7
    4d40:	bd80      	pop	{r7, pc}
    4d42:	bf00      	nop

00004d44 <wsfSecHciCback>:
 *
 *  \return None.
 */
/*************************************************************************************************/
static void wsfSecHciCback(hciEvt_t *pEvent)
{
    4d44:	b580      	push	{r7, lr}
    4d46:	b084      	sub	sp, #16
    4d48:	af00      	add	r7, sp, #0
    4d4a:	6078      	str	r0, [r7, #4]
  wsfSecQueueBuf_t  *pBuf;
  wsfHandlerId_t    handlerId;
  
  /* handle random number event */
  if (pEvent->hdr.event == HCI_LE_RAND_CMD_CMPL_CBACK_EVT)
    4d4c:	687b      	ldr	r3, [r7, #4]
    4d4e:	789b      	ldrb	r3, [r3, #2]
    4d50:	2b15      	cmp	r3, #21
    4d52:	d10c      	bne.n	4d6e <wsfSecHciCback+0x2a>
  {
    /* move up data by eight bytes */    
    memcpy(&wsfSecCb.rand[HCI_RAND_LEN], wsfSecCb.rand, HCI_RAND_LEN * (WSF_HCI_RAND_MULT-1));
    4d54:	4819      	ldr	r0, [pc, #100]	; (4dbc <wsfSecHciCback+0x78>)
    4d56:	491a      	ldr	r1, [pc, #104]	; (4dc0 <wsfSecHciCback+0x7c>)
    4d58:	2218      	movs	r2, #24
    4d5a:	f004 ff91 	bl	9c80 <memcpy>
    
    /* copy new data to random data buffer */
    memcpy(wsfSecCb.rand, pEvent->leRandCmdCmpl.randNum, HCI_RAND_LEN);
    4d5e:	687b      	ldr	r3, [r7, #4]
    4d60:	3305      	adds	r3, #5
    4d62:	4817      	ldr	r0, [pc, #92]	; (4dc0 <wsfSecHciCback+0x7c>)
    4d64:	4619      	mov	r1, r3
    4d66:	2208      	movs	r2, #8
    4d68:	f004 ff8a 	bl	9c80 <memcpy>
    4d6c:	e023      	b.n	4db6 <wsfSecHciCback+0x72>
  }
  /* handle encryption event */
  else if (pEvent->hdr.event == HCI_LE_ENCRYPT_CMD_CMPL_CBACK_EVT)
    4d6e:	687b      	ldr	r3, [r7, #4]
    4d70:	789b      	ldrb	r3, [r3, #2]
    4d72:	2b14      	cmp	r3, #20
    4d74:	d11f      	bne.n	4db6 <wsfSecHciCback+0x72>
  {
    if ((pBuf = WsfMsgDeq(&wsfSecCb.queue, &handlerId)) != NULL)
    4d76:	f107 030b 	add.w	r3, r7, #11
    4d7a:	4812      	ldr	r0, [pc, #72]	; (4dc4 <wsfSecHciCback+0x80>)
    4d7c:	4619      	mov	r1, r3
    4d7e:	f7ff feef 	bl	4b60 <WsfMsgDeq>
    4d82:	60f8      	str	r0, [r7, #12]
    4d84:	68fb      	ldr	r3, [r7, #12]
    4d86:	2b00      	cmp	r3, #0
    4d88:	d015      	beq.n	4db6 <wsfSecHciCback+0x72>
    {
      /* Process HCI callback based on type of encryption */ 
      if (wsfSecCb.hciCbackTbl[pBuf->type])
    4d8a:	68fb      	ldr	r3, [r7, #12]
    4d8c:	f893 302c 	ldrb.w	r3, [r3, #44]	; 0x2c
    4d90:	4a0b      	ldr	r2, [pc, #44]	; (4dc0 <wsfSecHciCback+0x7c>)
    4d92:	330a      	adds	r3, #10
    4d94:	009b      	lsls	r3, r3, #2
    4d96:	4413      	add	r3, r2
    4d98:	685b      	ldr	r3, [r3, #4]
    4d9a:	2b00      	cmp	r3, #0
    4d9c:	d00b      	beq.n	4db6 <wsfSecHciCback+0x72>
      {
        wsfSecCb.hciCbackTbl[pBuf->type](pBuf, pEvent, handlerId);
    4d9e:	68fb      	ldr	r3, [r7, #12]
    4da0:	f893 302c 	ldrb.w	r3, [r3, #44]	; 0x2c
    4da4:	4a06      	ldr	r2, [pc, #24]	; (4dc0 <wsfSecHciCback+0x7c>)
    4da6:	330a      	adds	r3, #10
    4da8:	009b      	lsls	r3, r3, #2
    4daa:	4413      	add	r3, r2
    4dac:	685b      	ldr	r3, [r3, #4]
    4dae:	7afa      	ldrb	r2, [r7, #11]
    4db0:	68f8      	ldr	r0, [r7, #12]
    4db2:	6879      	ldr	r1, [r7, #4]
    4db4:	4798      	blx	r3
    else
    {
      WSF_TRACE_WARN0("WSF sec queue empty!");
    }
  }
}
    4db6:	3710      	adds	r7, #16
    4db8:	46bd      	mov	sp, r7
    4dba:	bd80      	pop	{r7, pc}
    4dbc:	10000e48 	.word	0x10000e48
    4dc0:	10000e40 	.word	0x10000e40
    4dc4:	10000e60 	.word	0x10000e60

00004dc8 <WsfSecInit>:
 *
 *  \return None.
 */
/*************************************************************************************************/
void WsfSecInit(void)
{
    4dc8:	b580      	push	{r7, lr}
    4dca:	af00      	add	r7, sp, #0
  WSF_QUEUE_INIT(&wsfSecCb.queue);
    4dcc:	4b06      	ldr	r3, [pc, #24]	; (4de8 <WsfSecInit+0x20>)
    4dce:	2200      	movs	r2, #0
    4dd0:	621a      	str	r2, [r3, #32]
    4dd2:	4b05      	ldr	r3, [pc, #20]	; (4de8 <WsfSecInit+0x20>)
    4dd4:	2200      	movs	r2, #0
    4dd6:	625a      	str	r2, [r3, #36]	; 0x24
  wsfSecCb.token = 0;
    4dd8:	4b03      	ldr	r3, [pc, #12]	; (4de8 <WsfSecInit+0x20>)
    4dda:	2200      	movs	r2, #0
    4ddc:	f883 2028 	strb.w	r2, [r3, #40]	; 0x28
  
  /* Register callback with HCI */
  HciSecRegister(wsfSecHciCback);
    4de0:	4802      	ldr	r0, [pc, #8]	; (4dec <WsfSecInit+0x24>)
    4de2:	f7ff fb9b 	bl	451c <HciSecRegister>
}
    4de6:	bd80      	pop	{r7, pc}
    4de8:	10000e40 	.word	0x10000e40
    4dec:	00004d45 	.word	0x00004d45

00004df0 <WsfSecRand>:
 *
 *  \return None.
 */
/*************************************************************************************************/
void WsfSecRand(uint8_t *pRand, uint8_t randLen)
{
    4df0:	b580      	push	{r7, lr}
    4df2:	b084      	sub	sp, #16
    4df4:	af00      	add	r7, sp, #0
    4df6:	6078      	str	r0, [r7, #4]
    4df8:	460b      	mov	r3, r1
    4dfa:	70fb      	strb	r3, [r7, #3]
  int8_t count = (randLen + HCI_RAND_LEN - 1) / HCI_RAND_LEN;
    4dfc:	78fb      	ldrb	r3, [r7, #3]
    4dfe:	3307      	adds	r3, #7
    4e00:	2b00      	cmp	r3, #0
    4e02:	da00      	bge.n	4e06 <WsfSecRand+0x16>
    4e04:	3307      	adds	r3, #7
    4e06:	10db      	asrs	r3, r3, #3
    4e08:	73fb      	strb	r3, [r7, #15]

  WSF_ASSERT(randLen <= HCI_RAND_LEN * WSF_HCI_RAND_MULT);

  /* copy data */
  memcpy(pRand, wsfSecCb.rand, randLen);
    4e0a:	78fb      	ldrb	r3, [r7, #3]
    4e0c:	6878      	ldr	r0, [r7, #4]
    4e0e:	4908      	ldr	r1, [pc, #32]	; (4e30 <WsfSecRand+0x40>)
    4e10:	461a      	mov	r2, r3
    4e12:	f004 ff35 	bl	9c80 <memcpy>
  
  /* get new random numbers */
  while (count--)
    4e16:	e001      	b.n	4e1c <WsfSecRand+0x2c>
  {
    HciLeRandCmd();
    4e18:	f7fc fda2 	bl	1960 <HciLeRandCmd>

  /* copy data */
  memcpy(pRand, wsfSecCb.rand, randLen);
  
  /* get new random numbers */
  while (count--)
    4e1c:	7bfb      	ldrb	r3, [r7, #15]
    4e1e:	461a      	mov	r2, r3
    4e20:	3a01      	subs	r2, #1
    4e22:	73fa      	strb	r2, [r7, #15]
    4e24:	2b00      	cmp	r3, #0
    4e26:	d1f7      	bne.n	4e18 <WsfSecRand+0x28>
  {
    HciLeRandCmd();
  }
}
    4e28:	3710      	adds	r7, #16
    4e2a:	46bd      	mov	sp, r7
    4e2c:	bd80      	pop	{r7, pc}
    4e2e:	bf00      	nop
    4e30:	10000e40 	.word	0x10000e40

00004e34 <WsfSecAes>:
 *  \return Token value.
 */
/*************************************************************************************************/
uint8_t WsfSecAes(uint8_t *pKey, uint8_t *pPlaintext, wsfHandlerId_t handlerId,
                  uint16_t param, uint8_t event)
{
    4e34:	b580      	push	{r7, lr}
    4e36:	b086      	sub	sp, #24
    4e38:	af00      	add	r7, sp, #0
    4e3a:	60f8      	str	r0, [r7, #12]
    4e3c:	60b9      	str	r1, [r7, #8]
    4e3e:	71fa      	strb	r2, [r7, #7]
    4e40:	80bb      	strh	r3, [r7, #4]
  wsfSecQueueBuf_t  *pBuf;
  
  /* allocate a buffer */
  if ((pBuf = WsfMsgAlloc(sizeof(wsfSecQueueBuf_t))) != NULL)
    4e42:	2030      	movs	r0, #48	; 0x30
    4e44:	f7ff fe3a 	bl	4abc <WsfMsgAlloc>
    4e48:	6178      	str	r0, [r7, #20]
    4e4a:	697b      	ldr	r3, [r7, #20]
    4e4c:	2b00      	cmp	r3, #0
    4e4e:	d01e      	beq.n	4e8e <WsfSecAes+0x5a>
  {
    pBuf->msg.hdr.status = wsfSecCb.token++;
    4e50:	4b12      	ldr	r3, [pc, #72]	; (4e9c <WsfSecAes+0x68>)
    4e52:	f893 3028 	ldrb.w	r3, [r3, #40]	; 0x28
    4e56:	1c5a      	adds	r2, r3, #1
    4e58:	b2d1      	uxtb	r1, r2
    4e5a:	4a10      	ldr	r2, [pc, #64]	; (4e9c <WsfSecAes+0x68>)
    4e5c:	f882 1028 	strb.w	r1, [r2, #40]	; 0x28
    4e60:	697a      	ldr	r2, [r7, #20]
    4e62:	70d3      	strb	r3, [r2, #3]
    pBuf->msg.hdr.param = param;
    4e64:	697b      	ldr	r3, [r7, #20]
    4e66:	88ba      	ldrh	r2, [r7, #4]
    4e68:	801a      	strh	r2, [r3, #0]
    pBuf->msg.hdr.event = event;
    4e6a:	697b      	ldr	r3, [r7, #20]
    4e6c:	f897 2020 	ldrb.w	r2, [r7, #32]
    4e70:	709a      	strb	r2, [r3, #2]
   
    pBuf->type = WSF_SEC_TYPE_AES;
    4e72:	697b      	ldr	r3, [r7, #20]
    4e74:	2200      	movs	r2, #0
    4e76:	f883 202c 	strb.w	r2, [r3, #44]	; 0x2c

    /* queue buffer */
    WsfMsgEnq(&wsfSecCb.queue, handlerId, pBuf);
    4e7a:	79fb      	ldrb	r3, [r7, #7]
    4e7c:	4808      	ldr	r0, [pc, #32]	; (4ea0 <WsfSecAes+0x6c>)
    4e7e:	4619      	mov	r1, r3
    4e80:	697a      	ldr	r2, [r7, #20]
    4e82:	f7ff fe59 	bl	4b38 <WsfMsgEnq>
    
    /* call HCI encrypt function */
    HciLeEncryptCmd(pKey, pPlaintext);
    4e86:	68f8      	ldr	r0, [r7, #12]
    4e88:	68b9      	ldr	r1, [r7, #8]
    4e8a:	f7fc fcf3 	bl	1874 <HciLeEncryptCmd>
  }
  
  return pBuf->msg.hdr.status;
    4e8e:	697b      	ldr	r3, [r7, #20]
    4e90:	78db      	ldrb	r3, [r3, #3]
}
    4e92:	4618      	mov	r0, r3
    4e94:	3718      	adds	r7, #24
    4e96:	46bd      	mov	sp, r7
    4e98:	bd80      	pop	{r7, pc}
    4e9a:	bf00      	nop
    4e9c:	10000e40 	.word	0x10000e40
    4ea0:	10000e60 	.word	0x10000e60

00004ea4 <wsfTimerRemove>:
 *
 *  \return None.
 */
/*************************************************************************************************/
static void wsfTimerRemove(wsfTimer_t *pTimer)
{
    4ea4:	b580      	push	{r7, lr}
    4ea6:	b084      	sub	sp, #16
    4ea8:	af00      	add	r7, sp, #0
    4eaa:	6078      	str	r0, [r7, #4]
  wsfTimer_t  *pElem;
  wsfTimer_t  *pPrev = NULL;
    4eac:	2300      	movs	r3, #0
    4eae:	60bb      	str	r3, [r7, #8]

  pElem = (wsfTimer_t *) wsfTimerTimerQueue.pHead;
    4eb0:	4b0f      	ldr	r3, [pc, #60]	; (4ef0 <wsfTimerRemove+0x4c>)
    4eb2:	681b      	ldr	r3, [r3, #0]
    4eb4:	60fb      	str	r3, [r7, #12]

  /* find timer in queue */
  while (pElem != NULL)
    4eb6:	e009      	b.n	4ecc <wsfTimerRemove+0x28>
  {
    if (pElem == pTimer)
    4eb8:	68fa      	ldr	r2, [r7, #12]
    4eba:	687b      	ldr	r3, [r7, #4]
    4ebc:	429a      	cmp	r2, r3
    4ebe:	d100      	bne.n	4ec2 <wsfTimerRemove+0x1e>
    {
      break;
    4ec0:	e007      	b.n	4ed2 <wsfTimerRemove+0x2e>
    }
    pPrev = pElem;
    4ec2:	68fb      	ldr	r3, [r7, #12]
    4ec4:	60bb      	str	r3, [r7, #8]
    pElem = pElem->pNext;
    4ec6:	68fb      	ldr	r3, [r7, #12]
    4ec8:	681b      	ldr	r3, [r3, #0]
    4eca:	60fb      	str	r3, [r7, #12]
  wsfTimer_t  *pPrev = NULL;

  pElem = (wsfTimer_t *) wsfTimerTimerQueue.pHead;

  /* find timer in queue */
  while (pElem != NULL)
    4ecc:	68fb      	ldr	r3, [r7, #12]
    4ece:	2b00      	cmp	r3, #0
    4ed0:	d1f2      	bne.n	4eb8 <wsfTimerRemove+0x14>
    pPrev = pElem;
    pElem = pElem->pNext;
  }

  /* if timer found remove from queue */
  if (pElem != NULL)
    4ed2:	68fb      	ldr	r3, [r7, #12]
    4ed4:	2b00      	cmp	r3, #0
    4ed6:	d007      	beq.n	4ee8 <wsfTimerRemove+0x44>
  {
    WsfQueueRemove(&wsfTimerTimerQueue, pTimer, pPrev);
    4ed8:	4805      	ldr	r0, [pc, #20]	; (4ef0 <wsfTimerRemove+0x4c>)
    4eda:	6879      	ldr	r1, [r7, #4]
    4edc:	68ba      	ldr	r2, [r7, #8]
    4ede:	f7ff fedb 	bl	4c98 <WsfQueueRemove>

    pTimer->isStarted = FALSE;
    4ee2:	687b      	ldr	r3, [r7, #4]
    4ee4:	2200      	movs	r2, #0
    4ee6:	725a      	strb	r2, [r3, #9]
  }
}
    4ee8:	3710      	adds	r7, #16
    4eea:	46bd      	mov	sp, r7
    4eec:	bd80      	pop	{r7, pc}
    4eee:	bf00      	nop
    4ef0:	10000e78 	.word	0x10000e78

00004ef4 <wsfTimerInsert>:
 *
 *  \return None.
 */
/*************************************************************************************************/
static void wsfTimerInsert(wsfTimer_t *pTimer, wsfTimerTicks_t ticks)
{
    4ef4:	b580      	push	{r7, lr}
    4ef6:	b084      	sub	sp, #16
    4ef8:	af00      	add	r7, sp, #0
    4efa:	6078      	str	r0, [r7, #4]
    4efc:	6039      	str	r1, [r7, #0]
  wsfTimer_t  *pElem;
  wsfTimer_t  *pPrev = NULL;
    4efe:	2300      	movs	r3, #0
    4f00:	60bb      	str	r3, [r7, #8]

  /* task schedule lock */
  WsfTaskLock();
    4f02:	f7ff fbc5 	bl	4690 <WsfTaskLock>

  /* if timer is already running stop it first */
  if (pTimer->isStarted)
    4f06:	687b      	ldr	r3, [r7, #4]
    4f08:	7a5b      	ldrb	r3, [r3, #9]
    4f0a:	2b00      	cmp	r3, #0
    4f0c:	d002      	beq.n	4f14 <wsfTimerInsert+0x20>
  {
    wsfTimerRemove(pTimer);
    4f0e:	6878      	ldr	r0, [r7, #4]
    4f10:	f7ff ffc8 	bl	4ea4 <wsfTimerRemove>
  }

  pTimer->isStarted = TRUE;
    4f14:	687b      	ldr	r3, [r7, #4]
    4f16:	2201      	movs	r2, #1
    4f18:	725a      	strb	r2, [r3, #9]
  pTimer->ticks = ticks;
    4f1a:	687b      	ldr	r3, [r7, #4]
    4f1c:	683a      	ldr	r2, [r7, #0]
    4f1e:	605a      	str	r2, [r3, #4]

  pElem = (wsfTimer_t *) wsfTimerTimerQueue.pHead;
    4f20:	4b0e      	ldr	r3, [pc, #56]	; (4f5c <wsfTimerInsert+0x68>)
    4f22:	681b      	ldr	r3, [r3, #0]
    4f24:	60fb      	str	r3, [r7, #12]

  /* find insertion point in queue */
  while (pElem != NULL)
    4f26:	e00b      	b.n	4f40 <wsfTimerInsert+0x4c>
  {
    if (pTimer->ticks < pElem->ticks)
    4f28:	687b      	ldr	r3, [r7, #4]
    4f2a:	685a      	ldr	r2, [r3, #4]
    4f2c:	68fb      	ldr	r3, [r7, #12]
    4f2e:	685b      	ldr	r3, [r3, #4]
    4f30:	429a      	cmp	r2, r3
    4f32:	d200      	bcs.n	4f36 <wsfTimerInsert+0x42>
    {
      break;
    4f34:	e007      	b.n	4f46 <wsfTimerInsert+0x52>
    }
    pPrev = pElem;
    4f36:	68fb      	ldr	r3, [r7, #12]
    4f38:	60bb      	str	r3, [r7, #8]
    pElem = pElem->pNext;
    4f3a:	68fb      	ldr	r3, [r7, #12]
    4f3c:	681b      	ldr	r3, [r3, #0]
    4f3e:	60fb      	str	r3, [r7, #12]
  pTimer->ticks = ticks;

  pElem = (wsfTimer_t *) wsfTimerTimerQueue.pHead;

  /* find insertion point in queue */
  while (pElem != NULL)
    4f40:	68fb      	ldr	r3, [r7, #12]
    4f42:	2b00      	cmp	r3, #0
    4f44:	d1f0      	bne.n	4f28 <wsfTimerInsert+0x34>
    pPrev = pElem;
    pElem = pElem->pNext;
  }

  /* insert timer into queue */
  WsfQueueInsert(&wsfTimerTimerQueue, pTimer, pPrev);
    4f46:	4805      	ldr	r0, [pc, #20]	; (4f5c <wsfTimerInsert+0x68>)
    4f48:	6879      	ldr	r1, [r7, #4]
    4f4a:	68ba      	ldr	r2, [r7, #8]
    4f4c:	f7ff fe7a 	bl	4c44 <WsfQueueInsert>

  /* task schedule unlock */
  WsfTaskUnlock();
    4f50:	f7ff fba4 	bl	469c <WsfTaskUnlock>
}
    4f54:	3710      	adds	r7, #16
    4f56:	46bd      	mov	sp, r7
    4f58:	bd80      	pop	{r7, pc}
    4f5a:	bf00      	nop
    4f5c:	10000e78 	.word	0x10000e78

00004f60 <WsfTimerInit>:
 *
 *  \return None.
 */
/*************************************************************************************************/
void WsfTimerInit(void)
{
    4f60:	b480      	push	{r7}
    4f62:	af00      	add	r7, sp, #0
  WSF_QUEUE_INIT(&wsfTimerTimerQueue);
    4f64:	4b04      	ldr	r3, [pc, #16]	; (4f78 <WsfTimerInit+0x18>)
    4f66:	2200      	movs	r2, #0
    4f68:	601a      	str	r2, [r3, #0]
    4f6a:	4b03      	ldr	r3, [pc, #12]	; (4f78 <WsfTimerInit+0x18>)
    4f6c:	2200      	movs	r2, #0
    4f6e:	605a      	str	r2, [r3, #4]
}
    4f70:	46bd      	mov	sp, r7
    4f72:	f85d 7b04 	ldr.w	r7, [sp], #4
    4f76:	4770      	bx	lr
    4f78:	10000e78 	.word	0x10000e78

00004f7c <WsfTimerStartSec>:
 *
 *  \return None.
 */
/*************************************************************************************************/
void WsfTimerStartSec(wsfTimer_t *pTimer, wsfTimerTicks_t sec)
{
    4f7c:	b580      	push	{r7, lr}
    4f7e:	b082      	sub	sp, #8
    4f80:	af00      	add	r7, sp, #0
    4f82:	6078      	str	r0, [r7, #4]
    4f84:	6039      	str	r1, [r7, #0]
  WSF_TRACE_INFO2("WsfTimerStartSec pTimer:0x%x ticks:%u", (uint32_t)pTimer, WSF_TIMER_SEC_TO_TICKS(sec));

  /* insert timer into queue */
  wsfTimerInsert(pTimer, WSF_TIMER_SEC_TO_TICKS(sec));
    4f86:	683b      	ldr	r3, [r7, #0]
    4f88:	2264      	movs	r2, #100	; 0x64
    4f8a:	fb02 f303 	mul.w	r3, r2, r3
    4f8e:	6878      	ldr	r0, [r7, #4]
    4f90:	4619      	mov	r1, r3
    4f92:	f7ff ffaf 	bl	4ef4 <wsfTimerInsert>
}
    4f96:	3708      	adds	r7, #8
    4f98:	46bd      	mov	sp, r7
    4f9a:	bd80      	pop	{r7, pc}

00004f9c <WsfTimerStartMs>:
 *
 *  \return None.
 */
/*************************************************************************************************/
void WsfTimerStartMs(wsfTimer_t *pTimer, wsfTimerTicks_t ms)
{
    4f9c:	b580      	push	{r7, lr}
    4f9e:	b082      	sub	sp, #8
    4fa0:	af00      	add	r7, sp, #0
    4fa2:	6078      	str	r0, [r7, #4]
    4fa4:	6039      	str	r1, [r7, #0]
  WSF_TRACE_INFO2("WsfTimerStartMs pTimer:0x%x ticks:%u", (uint32_t)pTimer, WSF_TIMER_MS_TO_TICKS(ms));

  /* insert timer into queue */
  wsfTimerInsert(pTimer, WSF_TIMER_MS_TO_TICKS(ms));
    4fa6:	683a      	ldr	r2, [r7, #0]
    4fa8:	4b05      	ldr	r3, [pc, #20]	; (4fc0 <WsfTimerStartMs+0x24>)
    4faa:	fba3 1302 	umull	r1, r3, r3, r2
    4fae:	08db      	lsrs	r3, r3, #3
    4fb0:	6878      	ldr	r0, [r7, #4]
    4fb2:	4619      	mov	r1, r3
    4fb4:	f7ff ff9e 	bl	4ef4 <wsfTimerInsert>
}
    4fb8:	3708      	adds	r7, #8
    4fba:	46bd      	mov	sp, r7
    4fbc:	bd80      	pop	{r7, pc}
    4fbe:	bf00      	nop
    4fc0:	cccccccd 	.word	0xcccccccd

00004fc4 <WsfTimerStop>:
 *
 *  \return None.
 */
/*************************************************************************************************/
void WsfTimerStop(wsfTimer_t *pTimer)
{
    4fc4:	b580      	push	{r7, lr}
    4fc6:	b082      	sub	sp, #8
    4fc8:	af00      	add	r7, sp, #0
    4fca:	6078      	str	r0, [r7, #4]
  WSF_TRACE_INFO1("WsfTimerStop pTimer:0x%x", pTimer);

  /* task schedule lock */
  WsfTaskLock();
    4fcc:	f7ff fb60 	bl	4690 <WsfTaskLock>

  wsfTimerRemove(pTimer);
    4fd0:	6878      	ldr	r0, [r7, #4]
    4fd2:	f7ff ff67 	bl	4ea4 <wsfTimerRemove>

  /* task schedule unlock */
  WsfTaskUnlock();
    4fd6:	f7ff fb61 	bl	469c <WsfTaskUnlock>
}
    4fda:	3708      	adds	r7, #8
    4fdc:	46bd      	mov	sp, r7
    4fde:	bd80      	pop	{r7, pc}

00004fe0 <WsfTimerUpdate>:
 *
 *  \return None.
 */
/*************************************************************************************************/
void WsfTimerUpdate(wsfTimerTicks_t ticks)
{
    4fe0:	b580      	push	{r7, lr}
    4fe2:	b084      	sub	sp, #16
    4fe4:	af00      	add	r7, sp, #0
    4fe6:	6078      	str	r0, [r7, #4]
  wsfTimer_t  *pElem;

  /* task schedule lock */
  WsfTaskLock();
    4fe8:	f7ff fb52 	bl	4690 <WsfTaskLock>

  pElem = (wsfTimer_t *) wsfTimerTimerQueue.pHead;
    4fec:	4b11      	ldr	r3, [pc, #68]	; (5034 <WsfTimerUpdate+0x54>)
    4fee:	681b      	ldr	r3, [r3, #0]
    4ff0:	60fb      	str	r3, [r7, #12]

  /* iterate over timer queue */
  while (pElem != NULL)
    4ff2:	e017      	b.n	5024 <WsfTimerUpdate+0x44>
  {
    /* decrement ticks while preventing underflow */
    if (pElem->ticks > ticks)
    4ff4:	68fb      	ldr	r3, [r7, #12]
    4ff6:	685a      	ldr	r2, [r3, #4]
    4ff8:	687b      	ldr	r3, [r7, #4]
    4ffa:	429a      	cmp	r2, r3
    4ffc:	d906      	bls.n	500c <WsfTimerUpdate+0x2c>
    {
      pElem->ticks -= ticks;
    4ffe:	68fb      	ldr	r3, [r7, #12]
    5000:	685a      	ldr	r2, [r3, #4]
    5002:	687b      	ldr	r3, [r7, #4]
    5004:	1ad2      	subs	r2, r2, r3
    5006:	68fb      	ldr	r3, [r7, #12]
    5008:	605a      	str	r2, [r3, #4]
    500a:	e008      	b.n	501e <WsfTimerUpdate+0x3e>
    }
    else
    {
      pElem->ticks = 0;
    500c:	68fb      	ldr	r3, [r7, #12]
    500e:	2200      	movs	r2, #0
    5010:	605a      	str	r2, [r3, #4]

      /* timer expired; set task for this timer as ready */
      WsfTaskSetReady(pElem->handlerId, WSF_TIMER_EVENT);
    5012:	68fb      	ldr	r3, [r7, #12]
    5014:	7a1b      	ldrb	r3, [r3, #8]
    5016:	4618      	mov	r0, r3
    5018:	2102      	movs	r1, #2
    501a:	f7ff fb6f 	bl	46fc <WsfTaskSetReady>
    }

    pElem = pElem->pNext;
    501e:	68fb      	ldr	r3, [r7, #12]
    5020:	681b      	ldr	r3, [r3, #0]
    5022:	60fb      	str	r3, [r7, #12]
  WsfTaskLock();

  pElem = (wsfTimer_t *) wsfTimerTimerQueue.pHead;

  /* iterate over timer queue */
  while (pElem != NULL)
    5024:	68fb      	ldr	r3, [r7, #12]
    5026:	2b00      	cmp	r3, #0
    5028:	d1e4      	bne.n	4ff4 <WsfTimerUpdate+0x14>

    pElem = pElem->pNext;
  }

  /* task schedule unlock */
  WsfTaskUnlock();
    502a:	f7ff fb37 	bl	469c <WsfTaskUnlock>
}
    502e:	3710      	adds	r7, #16
    5030:	46bd      	mov	sp, r7
    5032:	bd80      	pop	{r7, pc}
    5034:	10000e78 	.word	0x10000e78

00005038 <WsfTimerNextExpiration>:
 *
 *  \return The number of ticks until the next timer expiration.
 */
/*************************************************************************************************/
wsfTimerTicks_t WsfTimerNextExpiration(bool_t *pTimerRunning)
{
    5038:	b580      	push	{r7, lr}
    503a:	b084      	sub	sp, #16
    503c:	af00      	add	r7, sp, #0
    503e:	6078      	str	r0, [r7, #4]
  wsfTimerTicks_t ticks;

  /* task schedule lock */
  WsfTaskLock();
    5040:	f7ff fb26 	bl	4690 <WsfTaskLock>

  if (wsfTimerTimerQueue.pHead == NULL)
    5044:	4b0b      	ldr	r3, [pc, #44]	; (5074 <WsfTimerNextExpiration+0x3c>)
    5046:	681b      	ldr	r3, [r3, #0]
    5048:	2b00      	cmp	r3, #0
    504a:	d105      	bne.n	5058 <WsfTimerNextExpiration+0x20>
  {
    *pTimerRunning = FALSE;
    504c:	687b      	ldr	r3, [r7, #4]
    504e:	2200      	movs	r2, #0
    5050:	701a      	strb	r2, [r3, #0]
    ticks = 0;
    5052:	2300      	movs	r3, #0
    5054:	60fb      	str	r3, [r7, #12]
    5056:	e006      	b.n	5066 <WsfTimerNextExpiration+0x2e>
  }
  else
  {
    *pTimerRunning = TRUE;
    5058:	687b      	ldr	r3, [r7, #4]
    505a:	2201      	movs	r2, #1
    505c:	701a      	strb	r2, [r3, #0]
    ticks = ((wsfTimer_t *) wsfTimerTimerQueue.pHead)->ticks;
    505e:	4b05      	ldr	r3, [pc, #20]	; (5074 <WsfTimerNextExpiration+0x3c>)
    5060:	681b      	ldr	r3, [r3, #0]
    5062:	685b      	ldr	r3, [r3, #4]
    5064:	60fb      	str	r3, [r7, #12]
  }

  /* task schedule unlock */
  WsfTaskUnlock();
    5066:	f7ff fb19 	bl	469c <WsfTaskUnlock>

  return ticks;
    506a:	68fb      	ldr	r3, [r7, #12]
}
    506c:	4618      	mov	r0, r3
    506e:	3710      	adds	r7, #16
    5070:	46bd      	mov	sp, r7
    5072:	bd80      	pop	{r7, pc}
    5074:	10000e78 	.word	0x10000e78

00005078 <WsfTimerServiceExpired>:
 *
 *  \return Pointer to timer or NULL.
 */
/*************************************************************************************************/
wsfTimer_t *WsfTimerServiceExpired(wsfTaskId_t taskId)
{
    5078:	b580      	push	{r7, lr}
    507a:	b084      	sub	sp, #16
    507c:	af00      	add	r7, sp, #0
    507e:	4603      	mov	r3, r0
    5080:	71fb      	strb	r3, [r7, #7]
  wsfTimer_t  *pElem;
  wsfTimer_t  *pPrev = NULL;
    5082:	2300      	movs	r3, #0
    5084:	60fb      	str	r3, [r7, #12]

  /* task schedule lock */
  WsfTaskLock();
    5086:	f7ff fb03 	bl	4690 <WsfTaskLock>

  pElem = (wsfTimer_t *) wsfTimerTimerQueue.pHead;
    508a:	4b0f      	ldr	r3, [pc, #60]	; (50c8 <WsfTimerServiceExpired+0x50>)
    508c:	681b      	ldr	r3, [r3, #0]
    508e:	60bb      	str	r3, [r7, #8]

  /* find expired timers in queue */
  while (pElem != NULL && pElem->ticks == 0)
    5090:	68bb      	ldr	r3, [r7, #8]
    5092:	2b00      	cmp	r3, #0
    5094:	d10c      	bne.n	50b0 <WsfTimerServiceExpired+0x38>
    5096:	e00f      	b.n	50b8 <WsfTimerServiceExpired+0x40>
  {
    /* remove timer from queue */
    WsfQueueRemove(&wsfTimerTimerQueue, pElem, pPrev);
    5098:	480b      	ldr	r0, [pc, #44]	; (50c8 <WsfTimerServiceExpired+0x50>)
    509a:	68b9      	ldr	r1, [r7, #8]
    509c:	68fa      	ldr	r2, [r7, #12]
    509e:	f7ff fdfb 	bl	4c98 <WsfQueueRemove>

    pElem->isStarted = FALSE;
    50a2:	68bb      	ldr	r3, [r7, #8]
    50a4:	2200      	movs	r2, #0
    50a6:	725a      	strb	r2, [r3, #9]

    /* task schedule unlock */
    WsfTaskUnlock();
    50a8:	f7ff faf8 	bl	469c <WsfTaskUnlock>

    WSF_TRACE_INFO1("Timer expired pTimer:0x%x", pElem);

    /* return timer */
    return pElem;
    50ac:	68bb      	ldr	r3, [r7, #8]
    50ae:	e006      	b.n	50be <WsfTimerServiceExpired+0x46>
  WsfTaskLock();

  pElem = (wsfTimer_t *) wsfTimerTimerQueue.pHead;

  /* find expired timers in queue */
  while (pElem != NULL && pElem->ticks == 0)
    50b0:	68bb      	ldr	r3, [r7, #8]
    50b2:	685b      	ldr	r3, [r3, #4]
    50b4:	2b00      	cmp	r3, #0
    50b6:	d0ef      	beq.n	5098 <WsfTimerServiceExpired+0x20>
    /* return timer */
    return pElem;
  }

  /* task schedule unlock */
  WsfTaskUnlock();
    50b8:	f7ff faf0 	bl	469c <WsfTaskUnlock>

  return NULL;
    50bc:	2300      	movs	r3, #0
}
    50be:	4618      	mov	r0, r3
    50c0:	3710      	adds	r7, #16
    50c2:	46bd      	mov	sp, r7
    50c4:	bd80      	pop	{r7, pc}
    50c6:	bf00      	nop
    50c8:	10000e78 	.word	0x10000e78

000050cc <exactle_stack_init>:
// Initialization for the ExactLE stack.
//
//*****************************************************************************
void
exactle_stack_init(void)
{
    50cc:	b580      	push	{r7, lr}
    50ce:	b082      	sub	sp, #8
    50d0:	af00      	add	r7, sp, #0
    wsfHandlerId_t handlerId;

    //
    // Set up timers for the WSF scheduler.
    //
    scheduler_timer_init();
    50d2:	f000 f873 	bl	51bc <scheduler_timer_init>
    WsfTimerInit();
    50d6:	f7ff ff43 	bl	4f60 <WsfTimerInit>

    //
    // Initialize a buffer pool for WSF dynamic memory needs.
    //
    WsfBufInit(sizeof(g_pui32BufMem), (uint8_t*)g_pui32BufMem, WSF_BUF_POOLS, g_psPoolDescriptors);
    50da:	f44f 6080 	mov.w	r0, #1024	; 0x400
    50de:	492e      	ldr	r1, [pc, #184]	; (5198 <exactle_stack_init+0xcc>)
    50e0:	2204      	movs	r2, #4
    50e2:	4b2e      	ldr	r3, [pc, #184]	; (519c <exactle_stack_init+0xd0>)
    50e4:	f7ff fbe4 	bl	48b0 <WsfBufInit>

    //
    // Initialize the WSF security service.
    //
    WsfSecInit();
    50e8:	f7ff fe6e 	bl	4dc8 <WsfSecInit>

    //
    // Set up callback functions for the various layers of the ExactLE stack.
    //
    handlerId = WsfOsSetNextHandler(HciHandler);
    50ec:	482c      	ldr	r0, [pc, #176]	; (51a0 <exactle_stack_init+0xd4>)
    50ee:	f7ff fb2d 	bl	474c <WsfOsSetNextHandler>
    50f2:	4603      	mov	r3, r0
    50f4:	71fb      	strb	r3, [r7, #7]
    HciHandlerInit(handlerId);
    50f6:	79fb      	ldrb	r3, [r7, #7]
    50f8:	4618      	mov	r0, r3
    50fa:	f7ff fa2f 	bl	455c <HciHandlerInit>

    handlerId = WsfOsSetNextHandler(DmHandler);
    50fe:	4829      	ldr	r0, [pc, #164]	; (51a4 <exactle_stack_init+0xd8>)
    5100:	f7ff fb24 	bl	474c <WsfOsSetNextHandler>
    5104:	4603      	mov	r3, r0
    5106:	71fb      	strb	r3, [r7, #7]
    DmAdvInit();
    5108:	f002 fe8c 	bl	7e24 <DmAdvInit>
    DmConnInit();
    510c:	f003 f902 	bl	8314 <DmConnInit>
    DmConnSlaveInit();
    5110:	f003 fa64 	bl	85dc <DmConnSlaveInit>
    DmSecInit();
    5114:	f003 fd02 	bl	8b1c <DmSecInit>
    DmHandlerInit(handlerId);
    5118:	79fb      	ldrb	r3, [r7, #7]
    511a:	4618      	mov	r0, r3
    511c:	f003 fafd 	bl	871a <DmHandlerInit>

    handlerId = WsfOsSetNextHandler(L2cSlaveHandler);
    5120:	4821      	ldr	r0, [pc, #132]	; (51a8 <exactle_stack_init+0xdc>)
    5122:	f7ff fb13 	bl	474c <WsfOsSetNextHandler>
    5126:	4603      	mov	r3, r0
    5128:	71fb      	strb	r3, [r7, #7]
    L2cSlaveHandlerInit(handlerId);
    512a:	79fb      	ldrb	r3, [r7, #7]
    512c:	4618      	mov	r0, r3
    512e:	f003 fec1 	bl	8eb4 <L2cSlaveHandlerInit>
    L2cInit();
    5132:	f003 fdeb 	bl	8d0c <L2cInit>
    L2cSlaveInit();
    5136:	f003 fe73 	bl	8e20 <L2cSlaveInit>

    handlerId = WsfOsSetNextHandler(AttHandler);
    513a:	481c      	ldr	r0, [pc, #112]	; (51ac <exactle_stack_init+0xe0>)
    513c:	f7ff fb06 	bl	474c <WsfOsSetNextHandler>
    5140:	4603      	mov	r3, r0
    5142:	71fb      	strb	r3, [r7, #7]
    AttHandlerInit(handlerId);
    5144:	79fb      	ldrb	r3, [r7, #7]
    5146:	4618      	mov	r0, r3
    5148:	f000 fd6e 	bl	5c28 <AttHandlerInit>
    AttsInit();
    514c:	f001 fe36 	bl	6dbc <AttsInit>
    AttsIndInit();
    5150:	f001 fd4c 	bl	6bec <AttsIndInit>
    AttcInit();
    5154:	f000 ffb8 	bl	60c8 <AttcInit>

    handlerId = WsfOsSetNextHandler(SmpHandler);
    5158:	4815      	ldr	r0, [pc, #84]	; (51b0 <exactle_stack_init+0xe4>)
    515a:	f7ff faf7 	bl	474c <WsfOsSetNextHandler>
    515e:	4603      	mov	r3, r0
    5160:	71fb      	strb	r3, [r7, #7]
    SmpHandlerInit(handlerId);
    5162:	79fb      	ldrb	r3, [r7, #7]
    5164:	4618      	mov	r0, r3
    5166:	f004 f8bd 	bl	92e4 <SmpHandlerInit>
    SmprInit();
    516a:	f004 f907 	bl	937c <SmprInit>

    handlerId = WsfOsSetNextHandler(AppHandler);
    516e:	4811      	ldr	r0, [pc, #68]	; (51b4 <exactle_stack_init+0xe8>)
    5170:	f7ff faec 	bl	474c <WsfOsSetNextHandler>
    5174:	4603      	mov	r3, r0
    5176:	71fb      	strb	r3, [r7, #7]
    AppHandlerInit(handlerId);
    5178:	79fb      	ldrb	r3, [r7, #7]
    517a:	4618      	mov	r0, r3
    517c:	f7fa ffe2 	bl	144 <AppHandlerInit>

    handlerId = WsfOsSetNextHandler(FitHandler);
    5180:	480d      	ldr	r0, [pc, #52]	; (51b8 <exactle_stack_init+0xec>)
    5182:	f7ff fae3 	bl	474c <WsfOsSetNextHandler>
    5186:	4603      	mov	r3, r0
    5188:	71fb      	strb	r3, [r7, #7]
    FitHandlerInit(handlerId);
    518a:	79fb      	ldrb	r3, [r7, #7]
    518c:	4618      	mov	r0, r3
    518e:	f7fc f9db 	bl	1548 <FitHandlerInit>
}
    5192:	3708      	adds	r7, #8
    5194:	46bd      	mov	sp, r7
    5196:	bd80      	pop	{r7, pc}
    5198:	10000590 	.word	0x10000590
    519c:	10000298 	.word	0x10000298
    51a0:	00004589 	.word	0x00004589
    51a4:	00008741 	.word	0x00008741
    51a8:	00008ec5 	.word	0x00008ec5
    51ac:	00005c61 	.word	0x00005c61
    51b0:	0000932d 	.word	0x0000932d
    51b4:	00000165 	.word	0x00000165
    51b8:	000015c1 	.word	0x000015c1

000051bc <scheduler_timer_init>:
// Set up a pair of timers to handle the WSF scheduler.
//
//*****************************************************************************
void
scheduler_timer_init(void)
{
    51bc:	b580      	push	{r7, lr}
    51be:	af00      	add	r7, sp, #0
    //
    // One of the timers will run in one-shot mode and provide interrupts for
    // scheduled events.
    //
    am_hal_ctimer_clear(0, AM_HAL_CTIMER_TIMERA);
    51c0:	2000      	movs	r0, #0
    51c2:	f64f 71ff 	movw	r1, #65535	; 0xffff
    51c6:	f000 fa8f 	bl	56e8 <am_hal_ctimer_clear>
    am_hal_ctimer_config_single(0, AM_HAL_CTIMER_TIMERA,
    51ca:	2000      	movs	r0, #0
    51cc:	f64f 71ff 	movw	r1, #65535	; 0xffff
    51d0:	f44f 7205 	mov.w	r2, #532	; 0x214
    51d4:	f000 fa4e 	bl	5674 <am_hal_ctimer_config_single>
                                 AM_HAL_CTIMER_FN_ONCE));

    //
    // The other timer will run continuously and provide a constant time-base.
    //
    am_hal_ctimer_clear(0, AM_HAL_CTIMER_TIMERB);
    51d8:	2000      	movs	r0, #0
    51da:	490a      	ldr	r1, [pc, #40]	; (5204 <scheduler_timer_init+0x48>)
    51dc:	f000 fa84 	bl	56e8 <am_hal_ctimer_clear>
    am_hal_ctimer_config_single(0, AM_HAL_CTIMER_TIMERB,
    51e0:	2000      	movs	r0, #0
    51e2:	4908      	ldr	r1, [pc, #32]	; (5204 <scheduler_timer_init+0x48>)
    51e4:	f44f 728a 	mov.w	r2, #276	; 0x114
    51e8:	f000 fa44 	bl	5674 <am_hal_ctimer_config_single>
                                 AM_HAL_CTIMER_FN_CONTINUOUS));

    //
    // Start the continuous timer.
    //
    am_hal_ctimer_start(0, AM_HAL_CTIMER_TIMERB);
    51ec:	2000      	movs	r0, #0
    51ee:	4905      	ldr	r1, [pc, #20]	; (5204 <scheduler_timer_init+0x48>)
    51f0:	f000 fa5c 	bl	56ac <am_hal_ctimer_start>

    //
    // Enable the timer interrupt.
    //
    am_hal_ctimer_int_enable(AM_HAL_CTIMER_INT_TIMERA0);
    51f4:	2001      	movs	r0, #1
    51f6:	f000 fb15 	bl	5824 <am_hal_ctimer_int_enable>
    am_hal_interrupt_enable(AM_HAL_INTERRUPT_CTIMER);
    51fa:	201a      	movs	r0, #26
    51fc:	f000 fb86 	bl	590c <am_hal_interrupt_enable>
}
    5200:	bd80      	pop	{r7, pc}
    5202:	bf00      	nop
    5204:	ffff0000 	.word	0xffff0000

00005208 <update_scheduler_timers>:
// Calculate the elapsed time, and update the WSF software timers.
//
//*****************************************************************************
void
update_scheduler_timers(void)
{
    5208:	b580      	push	{r7, lr}
    520a:	b082      	sub	sp, #8
    520c:	af00      	add	r7, sp, #0
    uint32_t ui32CurrentTime, ui32ElapsedTime;

    //
    // Read the continuous timer.
    //
    ui32CurrentTime = am_hal_ctimer_read(0, AM_HAL_CTIMER_TIMERB);
    520e:	2000      	movs	r0, #0
    5210:	4914      	ldr	r1, [pc, #80]	; (5264 <update_scheduler_timers+0x5c>)
    5212:	f000 fa73 	bl	56fc <am_hal_ctimer_read>
    5216:	6078      	str	r0, [r7, #4]
    //
    // Figure out how long it has been since the last time we've read the
    // continuous timer. We should be reading often enough that we'll never
    // have more than one overflow.
    //
    ui32ElapsedTime = (ui32CurrentTime >= g_ui32LastTime ?
    5218:	4b13      	ldr	r3, [pc, #76]	; (5268 <update_scheduler_timers+0x60>)
    521a:	681b      	ldr	r3, [r3, #0]
                       (ui32CurrentTime - g_ui32LastTime) :
    521c:	687a      	ldr	r2, [r7, #4]
    521e:	429a      	cmp	r2, r3
    5220:	d304      	bcc.n	522c <update_scheduler_timers+0x24>
    5222:	4b11      	ldr	r3, [pc, #68]	; (5268 <update_scheduler_timers+0x60>)
    5224:	681b      	ldr	r3, [r3, #0]
    5226:	687a      	ldr	r2, [r7, #4]
    5228:	1ad3      	subs	r3, r2, r3
    522a:	e005      	b.n	5238 <update_scheduler_timers+0x30>
                       (0x10000 + ui32CurrentTime - g_ui32LastTime));
    522c:	4b0e      	ldr	r3, [pc, #56]	; (5268 <update_scheduler_timers+0x60>)
    522e:	681b      	ldr	r3, [r3, #0]
    5230:	687a      	ldr	r2, [r7, #4]
    5232:	1ad3      	subs	r3, r2, r3
    // Figure out how long it has been since the last time we've read the
    // continuous timer. We should be reading often enough that we'll never
    // have more than one overflow.
    //
    ui32ElapsedTime = (ui32CurrentTime >= g_ui32LastTime ?
                       (ui32CurrentTime - g_ui32LastTime) :
    5234:	f503 3380 	add.w	r3, r3, #65536	; 0x10000
    //
    // Figure out how long it has been since the last time we've read the
    // continuous timer. We should be reading often enough that we'll never
    // have more than one overflow.
    //
    ui32ElapsedTime = (ui32CurrentTime >= g_ui32LastTime ?
    5238:	603b      	str	r3, [r7, #0]
                       (0x10000 + ui32CurrentTime - g_ui32LastTime));

    //
    // Check to see if any WSF ticks need to happen.
    //
    if ((ui32ElapsedTime / CLK_TICKS_PER_WSF_TICKS) > 0)
    523a:	683b      	ldr	r3, [r7, #0]
    523c:	2b04      	cmp	r3, #4
    523e:	d90a      	bls.n	5256 <update_scheduler_timers+0x4e>
    {
        //
        // Update the WSF timers and save the current time as our "last
        // update".
        //
        WsfTimerUpdate(ui32ElapsedTime / CLK_TICKS_PER_WSF_TICKS);
    5240:	683a      	ldr	r2, [r7, #0]
    5242:	4b0a      	ldr	r3, [pc, #40]	; (526c <update_scheduler_timers+0x64>)
    5244:	fba3 1302 	umull	r1, r3, r3, r2
    5248:	089b      	lsrs	r3, r3, #2
    524a:	4618      	mov	r0, r3
    524c:	f7ff fec8 	bl	4fe0 <WsfTimerUpdate>

        g_ui32LastTime = ui32CurrentTime;
    5250:	4b05      	ldr	r3, [pc, #20]	; (5268 <update_scheduler_timers+0x60>)
    5252:	687a      	ldr	r2, [r7, #4]
    5254:	601a      	str	r2, [r3, #0]
    }

    am_hal_gpio_out_bit_clear(43);
    5256:	4b06      	ldr	r3, [pc, #24]	; (5270 <update_scheduler_timers+0x68>)
    5258:	f44f 6200 	mov.w	r2, #2048	; 0x800
    525c:	601a      	str	r2, [r3, #0]
}
    525e:	3708      	adds	r7, #8
    5260:	46bd      	mov	sp, r7
    5262:	bd80      	pop	{r7, pc}
    5264:	ffff0000 	.word	0xffff0000
    5268:	10000990 	.word	0x10000990
    526c:	cccccccd 	.word	0xcccccccd
    5270:	4001009c 	.word	0x4001009c

00005274 <set_next_wakeup>:
// Set a timer interrupt for the next upcoming scheduler event.
//
//*****************************************************************************
void
set_next_wakeup(void)
{
    5274:	b580      	push	{r7, lr}
    5276:	b082      	sub	sp, #8
    5278:	af00      	add	r7, sp, #0
    bool_t bTimerRunning;
    wsfTimerTicks_t xNextExpiration;

    am_hal_gpio_out_bit_set(43);
    527a:	4b19      	ldr	r3, [pc, #100]	; (52e0 <set_next_wakeup+0x6c>)
    527c:	f44f 6200 	mov.w	r2, #2048	; 0x800
    5280:	601a      	str	r2, [r3, #0]

    //
    // Stop and clear the scheduling timer.
    //
    am_hal_ctimer_stop(0, AM_HAL_CTIMER_TIMERA);
    5282:	2000      	movs	r0, #0
    5284:	f64f 71ff 	movw	r1, #65535	; 0xffff
    5288:	f000 fa22 	bl	56d0 <am_hal_ctimer_stop>
    am_hal_ctimer_clear(0, AM_HAL_CTIMER_TIMERA);
    528c:	2000      	movs	r0, #0
    528e:	f64f 71ff 	movw	r1, #65535	; 0xffff
    5292:	f000 fa29 	bl	56e8 <am_hal_ctimer_clear>

    //
    // Check to see when the next timer expiration should happen.
    //
    xNextExpiration = WsfTimerNextExpiration(&bTimerRunning);
    5296:	1cfb      	adds	r3, r7, #3
    5298:	4618      	mov	r0, r3
    529a:	f7ff fecd 	bl	5038 <WsfTimerNextExpiration>
    529e:	6078      	str	r0, [r7, #4]
    //
    // If there's a pending WSF timer event, set an interrupt to wake us up in
    // time to service it. Otherwise, set an interrupt to wake us up in time to
    // prevent a double-overflow of our continuous timer.
    //
    if (xNextExpiration)
    52a0:	687b      	ldr	r3, [r7, #4]
    52a2:	2b00      	cmp	r3, #0
    52a4:	d00b      	beq.n	52be <set_next_wakeup+0x4a>
    {
        am_hal_ctimer_period_set(0, AM_HAL_CTIMER_TIMERA,
    52a6:	687a      	ldr	r2, [r7, #4]
    52a8:	4613      	mov	r3, r2
    52aa:	009b      	lsls	r3, r3, #2
    52ac:	4413      	add	r3, r2
    52ae:	2000      	movs	r0, #0
    52b0:	f64f 71ff 	movw	r1, #65535	; 0xffff
    52b4:	461a      	mov	r2, r3
    52b6:	2300      	movs	r3, #0
    52b8:	f000 fa74 	bl	57a4 <am_hal_ctimer_period_set>
    52bc:	e007      	b.n	52ce <set_next_wakeup+0x5a>
                                 xNextExpiration * CLK_TICKS_PER_WSF_TICKS, 0);
    }
    else
    {
        am_hal_ctimer_period_set(0, AM_HAL_CTIMER_TIMERA, 0x8000, 0);
    52be:	2000      	movs	r0, #0
    52c0:	f64f 71ff 	movw	r1, #65535	; 0xffff
    52c4:	f44f 4200 	mov.w	r2, #32768	; 0x8000
    52c8:	2300      	movs	r3, #0
    52ca:	f000 fa6b 	bl	57a4 <am_hal_ctimer_period_set>
    }

    //
    // Start the scheduling timer.
    //
    am_hal_ctimer_start(0, AM_HAL_CTIMER_TIMERA);
    52ce:	2000      	movs	r0, #0
    52d0:	f64f 71ff 	movw	r1, #65535	; 0xffff
    52d4:	f000 f9ea 	bl	56ac <am_hal_ctimer_start>
}
    52d8:	3708      	adds	r7, #8
    52da:	46bd      	mov	sp, r7
    52dc:	bd80      	pop	{r7, pc}
    52de:	bf00      	nop
    52e0:	40010094 	.word	0x40010094

000052e4 <am_ctimer_isr>:
// Interrupt handler for the CTIMERs
//
//*****************************************************************************
void
am_ctimer_isr(void)
{
    52e4:	b580      	push	{r7, lr}
    52e6:	b082      	sub	sp, #8
    52e8:	af00      	add	r7, sp, #0
    uint32_t ui32Status;

    //
    // Check and clear any active CTIMER interrupts.
    //
    ui32Status = am_hal_ctimer_int_status_get(true);
    52ea:	2001      	movs	r0, #1
    52ec:	f000 faa8 	bl	5840 <am_hal_ctimer_int_status_get>
    52f0:	6078      	str	r0, [r7, #4]
    am_hal_ctimer_int_clear(ui32Status);
    52f2:	6878      	ldr	r0, [r7, #4]
    52f4:	f000 fa9e 	bl	5834 <am_hal_ctimer_int_clear>
}
    52f8:	3708      	adds	r7, #8
    52fa:	46bd      	mov	sp, r7
    52fc:	bd80      	pop	{r7, pc}
    52fe:	bf00      	nop

00005300 <am_gpio_isr>:
// Interrupt handler for the GPIO module
//
//*****************************************************************************
void
am_gpio_isr(void)
{
    5300:	b580      	push	{r7, lr}
    5302:	b082      	sub	sp, #8
    5304:	af00      	add	r7, sp, #0
    uint64_t ui64Status;

    //
    // Check and clear the GPIO interrupt status
    //
    ui64Status = am_hal_gpio_int_status_get(true);
    5306:	2001      	movs	r0, #1
    5308:	f000 fada 	bl	58c0 <am_hal_gpio_int_status_get>
    530c:	e9c7 0100 	strd	r0, r1, [r7]
    am_hal_gpio_int_clear(ui64Status);
    5310:	e9d7 0100 	ldrd	r0, r1, [r7]
    5314:	f000 fac6 	bl	58a4 <am_hal_gpio_int_clear>

    //
    // Check to see if this was a UART wakeup event from the dialog radio.
    //
    if (ui64Status & AM_HAL_GPIO_BIT(AM_BSP_GPIO_UART_CTS))
    5318:	e9d7 0100 	ldrd	r0, r1, [r7]
    531c:	f04f 0240 	mov.w	r2, #64	; 0x40
    5320:	f04f 0300 	mov.w	r3, #0
    5324:	ea02 0200 	and.w	r2, r2, r0
    5328:	ea03 0301 	and.w	r3, r3, r1
    532c:	ea52 0103 	orrs.w	r1, r2, r3
    5330:	d003      	beq.n	533a <am_gpio_isr+0x3a>
    {
        //
        // If the radio is trying to wake up our UART, we should go ahead and
        // turn it on now.
        //
        HciDrvUartEnable();
    5332:	f7fd fa1b 	bl	276c <HciDrvUartEnable>
        HciDrvUartFlowOn();
    5336:	f7fd fa91 	bl	285c <HciDrvUartFlowOn>
    }
}
    533a:	3708      	adds	r7, #8
    533c:	46bd      	mov	sp, r7
    533e:	bd80      	pop	{r7, pc}

00005340 <main>:
// Main function.
//
//*****************************************************************************
int
main(void)
{
    5340:	b580      	push	{r7, lr}
    5342:	af00      	add	r7, sp, #0
    //
    // Configure the system clock to run at 24 MHz
    //
    am_hal_clkgen_sysclk_select(AM_HAL_CLKGEN_SYSCLK_24MHZ);
    5344:	2000      	movs	r0, #0
    5346:	f000 f967 	bl	5618 <am_hal_clkgen_sysclk_select>

    //
    // Configure the MCU for low power operation, but leave the LFRC on.
    //
    am_hal_mcuctrl_bucks_enable();
    534a:	f000 fb17 	bl	597c <am_hal_mcuctrl_bucks_enable>
    am_hal_vcomp_disable();
    534e:	f000 fbd7 	bl	5b00 <am_hal_vcomp_disable>
    am_hal_mcuctrl_bandgap_disable();
    5352:	f000 fb0b 	bl	596c <am_hal_mcuctrl_bandgap_disable>

    //
    // Boot the radio.
    //
    HciDrvRadioBoot();
    5356:	f7fd fba7 	bl	2aa8 <HciDrvRadioBoot>

    //
    // Initialize the main ExactLE stack.
    //
    exactle_stack_init();
    535a:	f7ff feb7 	bl	50cc <exactle_stack_init>

    //
    // Start the "Fit" profile.
    //
    FitStart();
    535e:	f7fc f94d 	bl	15fc <FitStart>
    {
        //
        // Calculate the elapsed time from our free-running timer, and update
        // the software timers in the WSF scheduler.
        //
        update_scheduler_timers();
    5362:	f7ff ff51 	bl	5208 <update_scheduler_timers>
        wsfOsDispatcher();
    5366:	f7ff fa1f 	bl	47a8 <wsfOsDispatcher>

        //
        // Enable an interrupt to wake us up next time we have a scheduled event.
        //
        set_next_wakeup();
    536a:	f7ff ff83 	bl	5274 <set_next_wakeup>

        am_hal_interrupt_master_disable();
    536e:	f000 faf9 	bl	5964 <am_hal_interrupt_master_disable>

        //
        // Check to see if the WSF routines are ready to go to sleep.
        //
        if (wsfOsReadyToSleep())
    5372:	f7ff fa07 	bl	4784 <wsfOsReadyToSleep>
    5376:	4603      	mov	r3, r0
    5378:	2b00      	cmp	r3, #0
    537a:	d007      	beq.n	538c <main+0x4c>
            //
            // Attempt to shut down the UART. If we can shut it down
            // successfully, we can go to deep sleep. Otherwise, we'll need to
            // stay awake to finish processing the current packet.
            //
            if (HciDrvUartSafeShutdown())
    537c:	f7fd fa8a 	bl	2894 <HciDrvUartSafeShutdown>
    5380:	4603      	mov	r3, r0
    5382:	2b00      	cmp	r3, #0
    5384:	d002      	beq.n	538c <main+0x4c>
            {
                //
                // Go to deep sleep.
                //
                am_hal_sysctrl_sleep(AM_HAL_SYSCTRL_SLEEP_DEEP);
    5386:	2001      	movs	r0, #1
    5388:	f000 fb0e 	bl	59a8 <am_hal_sysctrl_sleep>
            }
        }

        am_hal_interrupt_master_enable();
    538c:	f000 fae6 	bl	595c <am_hal_interrupt_master_enable>
    }
    5390:	e7e7      	b.n	5362 <main+0x22>
    5392:	bf00      	nop

00005394 <am_util_delay_cycles>:
//*****************************************************************************
#ifdef gcc
void __attribute__((naked))
am_util_delay_cycles(uint32_t ui32Cycles)
{
    __asm("    subs    r0, #1\n"
    5394:	3801      	subs	r0, #1
    5396:	f47f affd 	bne.w	5394 <am_util_delay_cycles>
    539a:	4770      	bx	lr

0000539c <am_util_delay_ms>:
//! @returns None
//
//*****************************************************************************
void
am_util_delay_ms(uint32_t ui32MilliSeconds)
{
    539c:	b580      	push	{r7, lr}
    539e:	b084      	sub	sp, #16
    53a0:	af00      	add	r7, sp, #0
    53a2:	6078      	str	r0, [r7, #4]
    uint32_t ui32Cycles = ui32MilliSeconds * (am_hal_clkgen_sysclk_get() / 3000);
    53a4:	f000 f948 	bl	5638 <am_hal_clkgen_sysclk_get>
    53a8:	4602      	mov	r2, r0
    53aa:	4b07      	ldr	r3, [pc, #28]	; (53c8 <am_util_delay_ms+0x2c>)
    53ac:	fba3 1302 	umull	r1, r3, r3, r2
    53b0:	099b      	lsrs	r3, r3, #6
    53b2:	687a      	ldr	r2, [r7, #4]
    53b4:	fb02 f303 	mul.w	r3, r2, r3
    53b8:	60fb      	str	r3, [r7, #12]

    //
    // Call the cycle delay
    //
    am_util_delay_cycles(ui32Cycles);
    53ba:	68f8      	ldr	r0, [r7, #12]
    53bc:	f7ff ffea 	bl	5394 <am_util_delay_cycles>
}
    53c0:	3710      	adds	r7, #16
    53c2:	46bd      	mov	sp, r7
    53c4:	bd80      	pop	{r7, pc}
    53c6:	bf00      	nop
    53c8:	057619f1 	.word	0x057619f1

000053cc <am_util_delay_us>:
//! @returns None
//
//*****************************************************************************
void
am_util_delay_us(uint32_t ui32MicroSeconds)
{
    53cc:	b580      	push	{r7, lr}
    53ce:	b084      	sub	sp, #16
    53d0:	af00      	add	r7, sp, #0
    53d2:	6078      	str	r0, [r7, #4]
    uint32_t ui32Cycles = ui32MicroSeconds * (am_hal_clkgen_sysclk_get() / 3000000);
    53d4:	f000 f930 	bl	5638 <am_hal_clkgen_sysclk_get>
    53d8:	4602      	mov	r2, r0
    53da:	4b07      	ldr	r3, [pc, #28]	; (53f8 <am_util_delay_us+0x2c>)
    53dc:	fba3 1302 	umull	r1, r3, r3, r2
    53e0:	0c9b      	lsrs	r3, r3, #18
    53e2:	687a      	ldr	r2, [r7, #4]
    53e4:	fb02 f303 	mul.w	r3, r2, r3
    53e8:	60fb      	str	r3, [r7, #12]

    //
    // Call the cycle delay
    //
    am_util_delay_cycles(ui32Cycles);
    53ea:	68f8      	ldr	r0, [r7, #12]
    53ec:	f7ff ffd2 	bl	5394 <am_util_delay_cycles>
}
    53f0:	3710      	adds	r7, #16
    53f2:	46bd      	mov	sp, r7
    53f4:	bd80      	pop	{r7, pc}
    53f6:	bf00      	nop
    53f8:	165e9f81 	.word	0x165e9f81

000053fc <am_fault_isr>:
//*****************************************************************************
#if defined(gcc)
uint32_t __attribute__((naked))
am_fault_isr(void)
{
    __asm("    push    {r7,lr}");
    53fc:	b580      	push	{r7, lr}
    __asm("    mov     r0, sp");
    53fe:	4668      	mov	r0, sp
    __asm("    adds    r0, #(2*4)");
    5400:	3008      	adds	r0, #8
    __asm("    bl      am_util_faultisr_collect_data");
    5402:	f000 f809 	bl	5418 <am_util_faultisr_collect_data>
    __asm("    pop     {r0,pc}");
    5406:	bd01      	pop	{r0, pc}
}
    5408:	4618      	mov	r0, r3
    540a:	bf00      	nop

0000540c <getStackedReg>:

uint32_t __attribute__((naked))
getStackedReg(uint32_t regnum, uint32_t u32SP)
{
    __asm("    lsls    r0, r0, #2");
    540c:	0080      	lsls	r0, r0, #2
    __asm("    adds    r0, r1");
    540e:	1840      	adds	r0, r0, r1
    __asm("    ldr     r0, [r0]");
    5410:	6800      	ldr	r0, [r0, #0]
    __asm("    bx      lr");
    5412:	4770      	bx	lr
}
    5414:	4618      	mov	r0, r3
    5416:	bf00      	nop

00005418 <am_util_faultisr_collect_data>:
// am_fault_isr() was called.
//
//*****************************************************************************
void
am_util_faultisr_collect_data(uint32_t u32IsrSP)
{
    5418:	b580      	push	{r7, lr}
    541a:	b090      	sub	sp, #64	; 0x40
    541c:	af00      	add	r7, sp, #0
    541e:	6078      	str	r0, [r7, #4]
    volatile am_fault_t sFaultData;
    uint32_t u32Mask = 0;
    5420:	2300      	movs	r3, #0
    5422:	63fb      	str	r3, [r7, #60]	; 0x3c
    // u32Mask is used for 2 things: 1) in the print loop, 2) as a spot to set
    // a breakpoint at the end of the routine.  If the printing is not used,
    // we'll get a compiler warning; so to avoid that warning, we'll use it
    // in a dummy assignment here.
    //
    sFaultData.u32CFSR = u32Mask;       // Avoid compiler warning
    5424:	6bfb      	ldr	r3, [r7, #60]	; 0x3c
    5426:	637b      	str	r3, [r7, #52]	; 0x34
    sFaultData.u32CFSR = AM_REGVAL(AM_REG_SYSCTRL_CFSR_O);
    5428:	4b2a      	ldr	r3, [pc, #168]	; (54d4 <am_util_faultisr_collect_data+0xbc>)
    542a:	681b      	ldr	r3, [r3, #0]
    542c:	637b      	str	r3, [r7, #52]	; 0x34
    sFaultData.u8MMSR  = (sFaultData.u32CFSR >> 0)  & 0xff;
    542e:	6b7b      	ldr	r3, [r7, #52]	; 0x34
    5430:	b2db      	uxtb	r3, r3
    5432:	f887 3038 	strb.w	r3, [r7, #56]	; 0x38
    sFaultData.u8BFSR  = (sFaultData.u32CFSR >> 8)  & 0xff;
    5436:	6b7b      	ldr	r3, [r7, #52]	; 0x34
    5438:	0a1b      	lsrs	r3, r3, #8
    543a:	b2db      	uxtb	r3, r3
    543c:	f887 3039 	strb.w	r3, [r7, #57]	; 0x39
    sFaultData.u16UFSR = (sFaultData.u32CFSR >> 16) & 0xffff;
    5440:	6b7b      	ldr	r3, [r7, #52]	; 0x34
    5442:	0c1b      	lsrs	r3, r3, #16
    5444:	b29b      	uxth	r3, r3
    5446:	877b      	strh	r3, [r7, #58]	; 0x3a

    //
    // The address of the location that caused the fault.  e.g. if accessing an
    // invalid data location caused the fault, that address will appear here.
    //
    sFaultData.u32BFAR = AM_REGVAL(AM_REG_SYSCTRL_BFAR_O);
    5448:	4b23      	ldr	r3, [pc, #140]	; (54d8 <am_util_faultisr_collect_data+0xc0>)
    544a:	681b      	ldr	r3, [r3, #0]
    544c:	633b      	str	r3, [r7, #48]	; 0x30

    //
    // The address of the instruction that caused the fault is the stacked PC
    // if BFSR bit1 is set.
    //
    sFaultData.u32FaultAddr = (sFaultData.u8BFSR & 0x02) ? getStackedReg(6, u32IsrSP) : 0xffffffff;
    544e:	f897 3039 	ldrb.w	r3, [r7, #57]	; 0x39
    5452:	b2db      	uxtb	r3, r3
    5454:	f003 0302 	and.w	r3, r3, #2
    5458:	2b00      	cmp	r3, #0
    545a:	d005      	beq.n	5468 <am_util_faultisr_collect_data+0x50>
    545c:	2006      	movs	r0, #6
    545e:	6879      	ldr	r1, [r7, #4]
    5460:	f7ff ffd4 	bl	540c <getStackedReg>
    5464:	4603      	mov	r3, r0
    5466:	e001      	b.n	546c <am_util_faultisr_collect_data+0x54>
    5468:	f04f 33ff 	mov.w	r3, #4294967295
    546c:	62fb      	str	r3, [r7, #44]	; 0x2c

    //
    // Get the stacked registers.
    // Note - the address of the instruction that caused the fault is u32PC.
    //
    sFaultData.u32R0  = getStackedReg(0, u32IsrSP);
    546e:	2000      	movs	r0, #0
    5470:	6879      	ldr	r1, [r7, #4]
    5472:	f7ff ffcb 	bl	540c <getStackedReg>
    5476:	4603      	mov	r3, r0
    5478:	60fb      	str	r3, [r7, #12]
    sFaultData.u32R1  = getStackedReg(1, u32IsrSP);
    547a:	2001      	movs	r0, #1
    547c:	6879      	ldr	r1, [r7, #4]
    547e:	f7ff ffc5 	bl	540c <getStackedReg>
    5482:	4603      	mov	r3, r0
    5484:	613b      	str	r3, [r7, #16]
    sFaultData.u32R2  = getStackedReg(2, u32IsrSP);
    5486:	2002      	movs	r0, #2
    5488:	6879      	ldr	r1, [r7, #4]
    548a:	f7ff ffbf 	bl	540c <getStackedReg>
    548e:	4603      	mov	r3, r0
    5490:	617b      	str	r3, [r7, #20]
    sFaultData.u32R3  = getStackedReg(3, u32IsrSP);
    5492:	2003      	movs	r0, #3
    5494:	6879      	ldr	r1, [r7, #4]
    5496:	f7ff ffb9 	bl	540c <getStackedReg>
    549a:	4603      	mov	r3, r0
    549c:	61bb      	str	r3, [r7, #24]
    sFaultData.u32R12 = getStackedReg(4, u32IsrSP);
    549e:	2004      	movs	r0, #4
    54a0:	6879      	ldr	r1, [r7, #4]
    54a2:	f7ff ffb3 	bl	540c <getStackedReg>
    54a6:	4603      	mov	r3, r0
    54a8:	61fb      	str	r3, [r7, #28]
    sFaultData.u32LR  = getStackedReg(5, u32IsrSP);
    54aa:	2005      	movs	r0, #5
    54ac:	6879      	ldr	r1, [r7, #4]
    54ae:	f7ff ffad 	bl	540c <getStackedReg>
    54b2:	4603      	mov	r3, r0
    54b4:	623b      	str	r3, [r7, #32]
    sFaultData.u32PC  = getStackedReg(6, u32IsrSP);
    54b6:	2006      	movs	r0, #6
    54b8:	6879      	ldr	r1, [r7, #4]
    54ba:	f7ff ffa7 	bl	540c <getStackedReg>
    54be:	4603      	mov	r3, r0
    54c0:	627b      	str	r3, [r7, #36]	; 0x24
    sFaultData.u32PSR = getStackedReg(7, u32IsrSP);
    54c2:	2007      	movs	r0, #7
    54c4:	6879      	ldr	r1, [r7, #4]
    54c6:	f7ff ffa1 	bl	540c <getStackedReg>
    54ca:	4603      	mov	r3, r0
    54cc:	62bb      	str	r3, [r7, #40]	; 0x28
        }
        u32Mask >>= 1;
    }
#endif

    u32Mask = 0;
    54ce:	2300      	movs	r3, #0
    54d0:	63fb      	str	r3, [r7, #60]	; 0x3c
    // We need to spin here inside the function so that we have access to
    // local data, i.e. sFaultData.
    //
    while(1)
    {
    }
    54d2:	e7fe      	b.n	54d2 <am_util_faultisr_collect_data+0xba>
    54d4:	e000ed28 	.word	0xe000ed28
    54d8:	e000ed38 	.word	0xe000ed38

000054dc <am_devices_da14581_uart_boot>:
//! @return true if successful.
//
//*****************************************************************************
bool
am_devices_da14581_uart_boot(const uint8_t *pui8BinData, uint32_t ui32NumBytes)
{
    54dc:	b580      	push	{r7, lr}
    54de:	b084      	sub	sp, #16
    54e0:	af00      	add	r7, sp, #0
    54e2:	6078      	str	r0, [r7, #4]
    54e4:	6039      	str	r1, [r7, #0]
    // Poll the RX lines until we get some indication that the dialog radio is
    // present and ready to receive data.
    //
    do
    {
        am_hal_uart_char_receive_polled(&ui8RxChar);
    54e6:	f107 030a 	add.w	r3, r7, #10
    54ea:	4618      	mov	r0, r3
    54ec:	f000 fafc 	bl	5ae8 <am_hal_uart_char_receive_polled>
    }
    while (ui8RxChar != DIALOG_BOOT_STX);
    54f0:	7abb      	ldrb	r3, [r7, #10]
    54f2:	2b02      	cmp	r3, #2
    54f4:	d1f7      	bne.n	54e6 <am_devices_da14581_uart_boot+0xa>

    //
    // Send the Start-of-Header signal and the length of the data download.
    //
    am_hal_uart_char_transmit_polled(DIALOG_BOOT_SOH);
    54f6:	2001      	movs	r0, #1
    54f8:	f000 faea 	bl	5ad0 <am_hal_uart_char_transmit_polled>
    am_hal_uart_char_transmit_polled(ui32NumBytes & 0xFF);
    54fc:	683b      	ldr	r3, [r7, #0]
    54fe:	b2db      	uxtb	r3, r3
    5500:	4618      	mov	r0, r3
    5502:	f000 fae5 	bl	5ad0 <am_hal_uart_char_transmit_polled>
    am_hal_uart_char_transmit_polled((ui32NumBytes & 0xFF00) >> 8);
    5506:	683b      	ldr	r3, [r7, #0]
    5508:	f403 437f 	and.w	r3, r3, #65280	; 0xff00
    550c:	0a1b      	lsrs	r3, r3, #8
    550e:	b2db      	uxtb	r3, r3
    5510:	4618      	mov	r0, r3
    5512:	f000 fadd 	bl	5ad0 <am_hal_uart_char_transmit_polled>
    // Poll for the 'ACK' from the dialog device that signifies that the header
    // was recieved correctly.
    //
    do
    {
        am_hal_uart_char_receive_polled(&ui8RxChar);
    5516:	f107 030a 	add.w	r3, r7, #10
    551a:	4618      	mov	r0, r3
    551c:	f000 fae4 	bl	5ae8 <am_hal_uart_char_receive_polled>
    }
    while (ui8RxChar != DIALOG_BOOT_ACK);
    5520:	7abb      	ldrb	r3, [r7, #10]
    5522:	2b06      	cmp	r3, #6
    5524:	d1f7      	bne.n	5516 <am_devices_da14581_uart_boot+0x3a>

    //
    // Initialize the CRC value to zero.
    //
    ui8CRCValue = 0;
    5526:	2300      	movs	r3, #0
    5528:	72fb      	strb	r3, [r7, #11]

    //
    // Send the binary image over to the dialog device one byte at a time,
    // keeping track of the CRC as we go.
    //
    for (ui32Index = 0; ui32Index < ui32NumBytes; ui32Index++)
    552a:	2300      	movs	r3, #0
    552c:	60fb      	str	r3, [r7, #12]
    552e:	e010      	b.n	5552 <am_devices_da14581_uart_boot+0x76>
    {
        ui8CRCValue ^= pui8BinData[ui32Index];
    5530:	687a      	ldr	r2, [r7, #4]
    5532:	68fb      	ldr	r3, [r7, #12]
    5534:	4413      	add	r3, r2
    5536:	781a      	ldrb	r2, [r3, #0]
    5538:	7afb      	ldrb	r3, [r7, #11]
    553a:	4053      	eors	r3, r2
    553c:	72fb      	strb	r3, [r7, #11]

        am_hal_uart_char_transmit_polled(pui8BinData[ui32Index]);
    553e:	687a      	ldr	r2, [r7, #4]
    5540:	68fb      	ldr	r3, [r7, #12]
    5542:	4413      	add	r3, r2
    5544:	781b      	ldrb	r3, [r3, #0]
    5546:	4618      	mov	r0, r3
    5548:	f000 fac2 	bl	5ad0 <am_hal_uart_char_transmit_polled>

    //
    // Send the binary image over to the dialog device one byte at a time,
    // keeping track of the CRC as we go.
    //
    for (ui32Index = 0; ui32Index < ui32NumBytes; ui32Index++)
    554c:	68fb      	ldr	r3, [r7, #12]
    554e:	3301      	adds	r3, #1
    5550:	60fb      	str	r3, [r7, #12]
    5552:	68fa      	ldr	r2, [r7, #12]
    5554:	683b      	ldr	r3, [r7, #0]
    5556:	429a      	cmp	r2, r3
    5558:	d3ea      	bcc.n	5530 <am_devices_da14581_uart_boot+0x54>
    //
    // The Dialog device should respond back with a CRC value at the end of the
    // programming cycle. We should check here to make sure that they got the
    // same CRC result that we did. If it doesn't match, return with an error.
    //
    am_hal_uart_char_receive_polled(&ui8RxChar);
    555a:	f107 030a 	add.w	r3, r7, #10
    555e:	4618      	mov	r0, r3
    5560:	f000 fac2 	bl	5ae8 <am_hal_uart_char_receive_polled>

    if (ui8RxChar != ui8CRCValue)
    5564:	7abb      	ldrb	r3, [r7, #10]
    5566:	7afa      	ldrb	r2, [r7, #11]
    5568:	429a      	cmp	r2, r3
    556a:	d001      	beq.n	5570 <am_devices_da14581_uart_boot+0x94>
    {
        return 1;
    556c:	2301      	movs	r3, #1
    556e:	e012      	b.n	5596 <am_devices_da14581_uart_boot+0xba>
    //
    // If all is well, send the final 'ACK' to tell the dialog device that its
    // new image is correct. After this point, the dialog device should start
    // running the downloaded firmware.
    //
    am_hal_uart_char_transmit_polled(DIALOG_BOOT_ACK);
    5570:	2006      	movs	r0, #6
    5572:	f000 faad 	bl	5ad0 <am_hal_uart_char_transmit_polled>

    //
    // Wait until the FIFO is actually empty and the UART is no-longer busy.
    //
    while (!AM_BFR(UART, FR, TXFE) || AM_BFR(UART, FR, BUSY));
    5576:	bf00      	nop
    5578:	4b09      	ldr	r3, [pc, #36]	; (55a0 <am_devices_da14581_uart_boot+0xc4>)
    557a:	681b      	ldr	r3, [r3, #0]
    557c:	f003 0380 	and.w	r3, r3, #128	; 0x80
    5580:	09db      	lsrs	r3, r3, #7
    5582:	2b00      	cmp	r3, #0
    5584:	d0f8      	beq.n	5578 <am_devices_da14581_uart_boot+0x9c>
    5586:	4b06      	ldr	r3, [pc, #24]	; (55a0 <am_devices_da14581_uart_boot+0xc4>)
    5588:	681b      	ldr	r3, [r3, #0]
    558a:	f003 0308 	and.w	r3, r3, #8
    558e:	08db      	lsrs	r3, r3, #3
    5590:	2b00      	cmp	r3, #0
    5592:	d1f1      	bne.n	5578 <am_devices_da14581_uart_boot+0x9c>

    return 0;
    5594:	2300      	movs	r3, #0
}
    5596:	4618      	mov	r0, r3
    5598:	3710      	adds	r7, #16
    559a:	46bd      	mov	sp, r7
    559c:	bd80      	pop	{r7, pc}
    559e:	bf00      	nop
    55a0:	4001c018 	.word	0x4001c018

000055a4 <am_reset_isr>:
am_reset_isr(void)
{
    //
    // Set the vector table pointer.
    //
    __asm("    ldr    r0, =0xE000ED08\n"
    55a4:	4811      	ldr	r0, [pc, #68]	; (55ec <zero_loop+0x12>)
    55a6:	4912      	ldr	r1, [pc, #72]	; (55f0 <zero_loop+0x16>)
    55a8:	6001      	str	r1, [r0, #0]
          "    str    r1, [r0]");

    //
    // Set the stack pointer.
    //
    __asm("    ldr    sp, [r1]");
    55aa:	f8d1 d000 	ldr.w	sp, [r1]
    
    //
    // Enable the FPU.
    //
    __asm("movw r0,#0xED88\n"
    55ae:	f64e 5088 	movw	r0, #60808	; 0xed88
    55b2:	f2ce 0000 	movt	r0, #57344	; 0xe000
    55b6:	6801      	ldr	r1, [r0, #0]
    55b8:	f441 0170 	orr.w	r1, r1, #15728640	; 0xf00000
    55bc:	6001      	str	r1, [r0, #0]
          "str  r1,[r0]\n");

    //
    // Copy the data segment initializers from flash to SRAM.
    //
    __asm("    ldr     r0, =_etext\n"
    55be:	480d      	ldr	r0, [pc, #52]	; (55f4 <zero_loop+0x1a>)
    55c0:	490d      	ldr	r1, [pc, #52]	; (55f8 <zero_loop+0x1e>)
    55c2:	4a0e      	ldr	r2, [pc, #56]	; (55fc <zero_loop+0x22>)

000055c4 <copy_loop>:
    55c4:	f850 3b04 	ldr.w	r3, [r0], #4
    55c8:	f841 3b04 	str.w	r3, [r1], #4
    55cc:	4291      	cmp	r1, r2
    55ce:	f77f aff9 	ble.w	55c4 <copy_loop>
          "        cmp     r1, r2\n"
          "        ble     copy_loop\n");
    //
    // Zero fill the bss segment.
    //
    __asm("    ldr     r0, =_bss\n"
    55d2:	480b      	ldr	r0, [pc, #44]	; (5600 <zero_loop+0x26>)
    55d4:	490b      	ldr	r1, [pc, #44]	; (5604 <zero_loop+0x2a>)
    55d6:	f04f 0200 	mov.w	r2, #0

000055da <zero_loop>:
    55da:	4288      	cmp	r0, r1
    55dc:	bfb8      	it	lt
    55de:	f840 2b04 	strlt.w	r2, [r0], #4
    55e2:	f6ff affa 	blt.w	55da <zero_loop>
          "        blt     zero_loop");

    //
    // Call the application's entry point.
    //
    main();
    55e6:	f7ff feab 	bl	5340 <main>

    //
    // If main returns then execute a break point instruction
    //
    __asm("    bkpt     ");
    55ea:	be00      	bkpt	0x0000
    55ec:	e000ed08 	.word	0xe000ed08
    55f0:	00000000 	.word	0x00000000
    55f4:	0000f4d0 	.word	0x0000f4d0
    55f8:	10000200 	.word	0x10000200
    55fc:	10000320 	.word	0x10000320
    5600:	10000320 	.word	0x10000320
    5604:	10000e80 	.word	0x10000e80

00005608 <am_nmi_isr>:
// by a debugger.
//
//*****************************************************************************
void
am_nmi_isr(void)
{
    5608:	b480      	push	{r7}
    560a:	af00      	add	r7, sp, #0
    //
    // Go into an infinite loop.
    //
    while(1)
    {
    }
    560c:	e7fe      	b.n	560c <am_nmi_isr+0x4>
    560e:	bf00      	nop

00005610 <am_adc_isr>:
// for examination by a debugger.
//
//*****************************************************************************
void
am_default_isr(void)
{
    5610:	b480      	push	{r7}
    5612:	af00      	add	r7, sp, #0
    //
    // Go into an infinite loop.
    //
    while(1)
    {
    }
    5614:	e7fe      	b.n	5614 <am_adc_isr+0x4>
    5616:	bf00      	nop

00005618 <am_hal_clkgen_sysclk_select>:
    5618:	4b05      	ldr	r3, [pc, #20]	; (5630 <am_hal_clkgen_sysclk_select+0x18>)
    561a:	4a06      	ldr	r2, [pc, #24]	; (5634 <am_hal_clkgen_sysclk_select+0x1c>)
    561c:	b410      	push	{r4}
    561e:	2100      	movs	r1, #0
    5620:	2447      	movs	r4, #71	; 0x47
    5622:	601c      	str	r4, [r3, #0]
    5624:	6010      	str	r0, [r2, #0]
    5626:	f85d 4b04 	ldr.w	r4, [sp], #4
    562a:	6019      	str	r1, [r3, #0]
    562c:	4770      	bx	lr
    562e:	bf00      	nop
    5630:	40004014 	.word	0x40004014
    5634:	40004018 	.word	0x40004018

00005638 <am_hal_clkgen_sysclk_get>:
    5638:	4a03      	ldr	r2, [pc, #12]	; (5648 <am_hal_clkgen_sysclk_get+0x10>)
    563a:	4b04      	ldr	r3, [pc, #16]	; (564c <am_hal_clkgen_sysclk_get+0x14>)
    563c:	6812      	ldr	r2, [r2, #0]
    563e:	f002 0207 	and.w	r2, r2, #7
    5642:	f853 0022 	ldr.w	r0, [r3, r2, lsl #2]
    5646:	4770      	bx	lr
    5648:	40004018 	.word	0x40004018
    564c:	0000f030 	.word	0x0000f030

00005650 <back2back_reads>:
    5650:	b410      	push	{r4}
    5652:	b402      	push	{r1}
    5654:	4602      	mov	r2, r0
    5656:	f3ef 8410 	mrs	r4, PRIMASK
    565a:	b672      	cpsid	i
    565c:	bf00      	nop
    565e:	6810      	ldr	r0, [r2, #0]
    5660:	6811      	ldr	r1, [r2, #0]
    5662:	6813      	ldr	r3, [r2, #0]
    5664:	f384 8810 	msr	PRIMASK, r4
    5668:	bc04      	pop	{r2}
    566a:	6010      	str	r0, [r2, #0]
    566c:	6051      	str	r1, [r2, #4]
    566e:	6093      	str	r3, [r2, #8]
    5670:	bc10      	pop	{r4}
    5672:	4770      	bx	lr

00005674 <am_hal_ctimer_config_single>:
    5674:	0100      	lsls	r0, r0, #4
    5676:	4b0c      	ldr	r3, [pc, #48]	; (56a8 <am_hal_ctimer_config_single+0x34>)
    5678:	f511 3f80 	cmn.w	r1, #65536	; 0x10000
    567c:	b410      	push	{r4}
    567e:	58c4      	ldr	r4, [r0, r3]
    5680:	d00a      	beq.n	5698 <am_hal_ctimer_config_single+0x24>
    5682:	ea24 0401 	bic.w	r4, r4, r1
    5686:	4322      	orrs	r2, r4
    5688:	3101      	adds	r1, #1
    568a:	bf08      	it	eq
    568c:	f042 4200 	orreq.w	r2, r2, #2147483648	; 0x80000000
    5690:	50c2      	str	r2, [r0, r3]
    5692:	f85d 4b04 	ldr.w	r4, [sp], #4
    5696:	4770      	bx	lr
    5698:	b2a4      	uxth	r4, r4
    569a:	ea44 4202 	orr.w	r2, r4, r2, lsl #16
    569e:	50c2      	str	r2, [r0, r3]
    56a0:	f85d 4b04 	ldr.w	r4, [sp], #4
    56a4:	4770      	bx	lr
    56a6:	bf00      	nop
    56a8:	4000800c 	.word	0x4000800c

000056ac <am_hal_ctimer_start>:
    56ac:	0100      	lsls	r0, r0, #4
    56ae:	4b07      	ldr	r3, [pc, #28]	; (56cc <am_hal_ctimer_start+0x20>)
    56b0:	58c2      	ldr	r2, [r0, r3]
    56b2:	b410      	push	{r4}
    56b4:	f001 2408 	and.w	r4, r1, #134219776	; 0x8000800
    56b8:	ea22 0204 	bic.w	r2, r2, r4
    56bc:	f001 1101 	and.w	r1, r1, #65537	; 0x10001
    56c0:	4311      	orrs	r1, r2
    56c2:	50c1      	str	r1, [r0, r3]
    56c4:	f85d 4b04 	ldr.w	r4, [sp], #4
    56c8:	4770      	bx	lr
    56ca:	bf00      	nop
    56cc:	4000800c 	.word	0x4000800c

000056d0 <am_hal_ctimer_stop>:
    56d0:	0100      	lsls	r0, r0, #4
    56d2:	4b04      	ldr	r3, [pc, #16]	; (56e4 <am_hal_ctimer_stop+0x14>)
    56d4:	58c2      	ldr	r2, [r0, r3]
    56d6:	f001 1101 	and.w	r1, r1, #65537	; 0x10001
    56da:	ea22 0201 	bic.w	r2, r2, r1
    56de:	50c2      	str	r2, [r0, r3]
    56e0:	4770      	bx	lr
    56e2:	bf00      	nop
    56e4:	4000800c 	.word	0x4000800c

000056e8 <am_hal_ctimer_clear>:
    56e8:	0100      	lsls	r0, r0, #4
    56ea:	4b03      	ldr	r3, [pc, #12]	; (56f8 <am_hal_ctimer_clear+0x10>)
    56ec:	58c2      	ldr	r2, [r0, r3]
    56ee:	f001 2108 	and.w	r1, r1, #134219776	; 0x8000800
    56f2:	430a      	orrs	r2, r1
    56f4:	50c2      	str	r2, [r0, r3]
    56f6:	4770      	bx	lr
    56f8:	4000800c 	.word	0x4000800c

000056fc <am_hal_ctimer_read>:
    56fc:	b570      	push	{r4, r5, r6, lr}
    56fe:	4b26      	ldr	r3, [pc, #152]	; (5798 <am_hal_ctimer_read+0x9c>)
    5700:	4605      	mov	r5, r0
    5702:	460c      	mov	r4, r1
    5704:	cb0f      	ldmia	r3, {r0, r1, r2, r3}
    5706:	b088      	sub	sp, #32
    5708:	ae08      	add	r6, sp, #32
    570a:	e906 000f 	stmdb	r6, {r0, r1, r2, r3}
    570e:	eb06 0585 	add.w	r5, r6, r5, lsl #2
    5712:	2300      	movs	r3, #0
    5714:	f855 0c10 	ldr.w	r0, [r5, #-16]
    5718:	9300      	str	r3, [sp, #0]
    571a:	a901      	add	r1, sp, #4
    571c:	f7ff ff98 	bl	5650 <back2back_reads>
    5720:	f514 3f80 	cmn.w	r4, #65536	; 0x10000
    5724:	d023      	beq.n	576e <am_hal_ctimer_read+0x72>
    5726:	f64f 73ff 	movw	r3, #65535	; 0xffff
    572a:	429c      	cmp	r4, r3
    572c:	d029      	beq.n	5782 <am_hal_ctimer_read+0x86>
    572e:	9901      	ldr	r1, [sp, #4]
    5730:	9b03      	ldr	r3, [sp, #12]
    5732:	1e58      	subs	r0, r3, #1
    5734:	4288      	cmp	r0, r1
    5736:	d016      	beq.n	5766 <am_hal_ctimer_read+0x6a>
    5738:	9a02      	ldr	r2, [sp, #8]
    573a:	429a      	cmp	r2, r3
    573c:	d013      	beq.n	5766 <am_hal_ctimer_read+0x6a>
    573e:	4290      	cmp	r0, r2
    5740:	d011      	beq.n	5766 <am_hal_ctimer_read+0x6a>
    5742:	428a      	cmp	r2, r1
    5744:	d00b      	beq.n	575e <am_hal_ctimer_read+0x62>
    5746:	1e53      	subs	r3, r2, #1
    5748:	428b      	cmp	r3, r1
    574a:	d008      	beq.n	575e <am_hal_ctimer_read+0x62>
    574c:	4813      	ldr	r0, [pc, #76]	; (579c <am_hal_ctimer_read+0xa0>)
    574e:	4a14      	ldr	r2, [pc, #80]	; (57a0 <am_hal_ctimer_read+0xa4>)
    5750:	f240 2117 	movw	r1, #535	; 0x217
    5754:	f000 f882 	bl	585c <am_hal_debug_error>
    5758:	9800      	ldr	r0, [sp, #0]
    575a:	b008      	add	sp, #32
    575c:	bd70      	pop	{r4, r5, r6, pc}
    575e:	9200      	str	r2, [sp, #0]
    5760:	9800      	ldr	r0, [sp, #0]
    5762:	b008      	add	sp, #32
    5764:	bd70      	pop	{r4, r5, r6, pc}
    5766:	9300      	str	r3, [sp, #0]
    5768:	9800      	ldr	r0, [sp, #0]
    576a:	b008      	add	sp, #32
    576c:	bd70      	pop	{r4, r5, r6, pc}
    576e:	f8bd 1006 	ldrh.w	r1, [sp, #6]
    5772:	f8bd 200a 	ldrh.w	r2, [sp, #10]
    5776:	f8bd 300e 	ldrh.w	r3, [sp, #14]
    577a:	9101      	str	r1, [sp, #4]
    577c:	9202      	str	r2, [sp, #8]
    577e:	9303      	str	r3, [sp, #12]
    5780:	e7d7      	b.n	5732 <am_hal_ctimer_read+0x36>
    5782:	f8bd 1004 	ldrh.w	r1, [sp, #4]
    5786:	f8bd 2008 	ldrh.w	r2, [sp, #8]
    578a:	f8bd 300c 	ldrh.w	r3, [sp, #12]
    578e:	9101      	str	r1, [sp, #4]
    5790:	9202      	str	r2, [sp, #8]
    5792:	9303      	str	r3, [sp, #12]
    5794:	e7cd      	b.n	5732 <am_hal_ctimer_read+0x36>
    5796:	bf00      	nop
    5798:	0000f050 	.word	0x0000f050
    579c:	0000f060 	.word	0x0000f060
    57a0:	0000f078 	.word	0x0000f078

000057a4 <am_hal_ctimer_period_set>:
    57a4:	b4f0      	push	{r4, r5, r6, r7}
    57a6:	0100      	lsls	r0, r0, #4
    57a8:	4c1b      	ldr	r4, [pc, #108]	; (5818 <am_hal_ctimer_period_set+0x74>)
    57aa:	5904      	ldr	r4, [r0, r4]
    57ac:	f511 3f80 	cmn.w	r1, #65536	; 0x10000
    57b0:	bf08      	it	eq
    57b2:	0c24      	lsreq	r4, r4, #16
    57b4:	f404 74c0 	and.w	r4, r4, #384	; 0x180
    57b8:	2c80      	cmp	r4, #128	; 0x80
    57ba:	d016      	beq.n	57ea <am_hal_ctimer_period_set+0x46>
    57bc:	f64f 75ff 	movw	r5, #65535	; 0xffff
    57c0:	2400      	movs	r4, #0
    57c2:	42a9      	cmp	r1, r5
    57c4:	4626      	mov	r6, r4
    57c6:	4f15      	ldr	r7, [pc, #84]	; (581c <am_hal_ctimer_period_set+0x78>)
    57c8:	f8df c054 	ldr.w	ip, [pc, #84]	; 5820 <am_hal_ctimer_period_set+0x7c>
    57cc:	d019      	beq.n	5802 <am_hal_ctimer_period_set+0x5e>
    57ce:	f511 3f80 	cmn.w	r1, #65536	; 0x10000
    57d2:	d01b      	beq.n	580c <am_hal_ctimer_period_set+0x68>
    57d4:	0c33      	lsrs	r3, r6, #16
    57d6:	b291      	uxth	r1, r2
    57d8:	041b      	lsls	r3, r3, #16
    57da:	430c      	orrs	r4, r1
    57dc:	ea43 4212 	orr.w	r2, r3, r2, lsr #16
    57e0:	51c4      	str	r4, [r0, r7]
    57e2:	f840 200c 	str.w	r2, [r0, ip]
    57e6:	bcf0      	pop	{r4, r5, r6, r7}
    57e8:	4770      	bx	lr
    57ea:	f64f 75ff 	movw	r5, #65535	; 0xffff
    57ee:	42a9      	cmp	r1, r5
    57f0:	ea4f 4402 	mov.w	r4, r2, lsl #16
    57f4:	4616      	mov	r6, r2
    57f6:	4f09      	ldr	r7, [pc, #36]	; (581c <am_hal_ctimer_period_set+0x78>)
    57f8:	f8df c024 	ldr.w	ip, [pc, #36]	; 5820 <am_hal_ctimer_period_set+0x7c>
    57fc:	ebc3 0202 	rsb	r2, r3, r2
    5800:	d1e5      	bne.n	57ce <am_hal_ctimer_period_set+0x2a>
    5802:	b292      	uxth	r2, r2
    5804:	4314      	orrs	r4, r2
    5806:	51c4      	str	r4, [r0, r7]
    5808:	bcf0      	pop	{r4, r5, r6, r7}
    580a:	4770      	bx	lr
    580c:	b292      	uxth	r2, r2
    580e:	4314      	orrs	r4, r2
    5810:	f840 400c 	str.w	r4, [r0, ip]
    5814:	bcf0      	pop	{r4, r5, r6, r7}
    5816:	4770      	bx	lr
    5818:	4000800c 	.word	0x4000800c
    581c:	40008004 	.word	0x40008004
    5820:	40008008 	.word	0x40008008

00005824 <am_hal_ctimer_int_enable>:
    5824:	4b02      	ldr	r3, [pc, #8]	; (5830 <am_hal_ctimer_int_enable+0xc>)
    5826:	681a      	ldr	r2, [r3, #0]
    5828:	4310      	orrs	r0, r2
    582a:	6018      	str	r0, [r3, #0]
    582c:	4770      	bx	lr
    582e:	bf00      	nop
    5830:	40008200 	.word	0x40008200

00005834 <am_hal_ctimer_int_clear>:
    5834:	4b01      	ldr	r3, [pc, #4]	; (583c <am_hal_ctimer_int_clear+0x8>)
    5836:	6018      	str	r0, [r3, #0]
    5838:	4770      	bx	lr
    583a:	bf00      	nop
    583c:	40008208 	.word	0x40008208

00005840 <am_hal_ctimer_int_status_get>:
    5840:	4b04      	ldr	r3, [pc, #16]	; (5854 <am_hal_ctimer_int_status_get+0x14>)
    5842:	b908      	cbnz	r0, 5848 <am_hal_ctimer_int_status_get+0x8>
    5844:	6818      	ldr	r0, [r3, #0]
    5846:	4770      	bx	lr
    5848:	4a03      	ldr	r2, [pc, #12]	; (5858 <am_hal_ctimer_int_status_get+0x18>)
    584a:	681b      	ldr	r3, [r3, #0]
    584c:	6810      	ldr	r0, [r2, #0]
    584e:	4018      	ands	r0, r3
    5850:	4770      	bx	lr
    5852:	bf00      	nop
    5854:	40008204 	.word	0x40008204
    5858:	40008200 	.word	0x40008200

0000585c <am_hal_debug_error>:
    585c:	e7fe      	b.n	585c <am_hal_debug_error>
    585e:	bf00      	nop

00005860 <am_hal_gpio_int_enable>:
    5860:	b470      	push	{r4, r5, r6}
    5862:	4d05      	ldr	r5, [pc, #20]	; (5878 <am_hal_gpio_int_enable+0x18>)
    5864:	4c05      	ldr	r4, [pc, #20]	; (587c <am_hal_gpio_int_enable+0x1c>)
    5866:	682e      	ldr	r6, [r5, #0]
    5868:	ea46 0201 	orr.w	r2, r6, r1
    586c:	602a      	str	r2, [r5, #0]
    586e:	6823      	ldr	r3, [r4, #0]
    5870:	4318      	orrs	r0, r3
    5872:	6020      	str	r0, [r4, #0]
    5874:	bc70      	pop	{r4, r5, r6}
    5876:	4770      	bx	lr
    5878:	40010210 	.word	0x40010210
    587c:	40010200 	.word	0x40010200

00005880 <am_hal_gpio_int_disable>:
    5880:	b470      	push	{r4, r5, r6}
    5882:	4d06      	ldr	r5, [pc, #24]	; (589c <am_hal_gpio_int_disable+0x1c>)
    5884:	4c06      	ldr	r4, [pc, #24]	; (58a0 <am_hal_gpio_int_disable+0x20>)
    5886:	682e      	ldr	r6, [r5, #0]
    5888:	ea26 0201 	bic.w	r2, r6, r1
    588c:	602a      	str	r2, [r5, #0]
    588e:	6823      	ldr	r3, [r4, #0]
    5890:	ea23 0000 	bic.w	r0, r3, r0
    5894:	6020      	str	r0, [r4, #0]
    5896:	bc70      	pop	{r4, r5, r6}
    5898:	4770      	bx	lr
    589a:	bf00      	nop
    589c:	40010210 	.word	0x40010210
    58a0:	40010200 	.word	0x40010200

000058a4 <am_hal_gpio_int_clear>:
    58a4:	b410      	push	{r4}
    58a6:	460a      	mov	r2, r1
    58a8:	4c03      	ldr	r4, [pc, #12]	; (58b8 <am_hal_gpio_int_clear+0x14>)
    58aa:	4904      	ldr	r1, [pc, #16]	; (58bc <am_hal_gpio_int_clear+0x18>)
    58ac:	6022      	str	r2, [r4, #0]
    58ae:	6008      	str	r0, [r1, #0]
    58b0:	f85d 4b04 	ldr.w	r4, [sp], #4
    58b4:	4770      	bx	lr
    58b6:	bf00      	nop
    58b8:	40010218 	.word	0x40010218
    58bc:	40010208 	.word	0x40010208

000058c0 <am_hal_gpio_int_status_get>:
    58c0:	b470      	push	{r4, r5, r6}
    58c2:	b930      	cbnz	r0, 58d2 <am_hal_gpio_int_status_get+0x12>
    58c4:	4a0d      	ldr	r2, [pc, #52]	; (58fc <am_hal_gpio_int_status_get+0x3c>)
    58c6:	4b0e      	ldr	r3, [pc, #56]	; (5900 <am_hal_gpio_int_status_get+0x40>)
    58c8:	6811      	ldr	r1, [r2, #0]
    58ca:	681c      	ldr	r4, [r3, #0]
    58cc:	4320      	orrs	r0, r4
    58ce:	bc70      	pop	{r4, r5, r6}
    58d0:	4770      	bx	lr
    58d2:	4b0c      	ldr	r3, [pc, #48]	; (5904 <am_hal_gpio_int_status_get+0x44>)
    58d4:	4a09      	ldr	r2, [pc, #36]	; (58fc <am_hal_gpio_int_status_get+0x3c>)
    58d6:	490c      	ldr	r1, [pc, #48]	; (5908 <am_hal_gpio_int_status_get+0x48>)
    58d8:	681c      	ldr	r4, [r3, #0]
    58da:	6809      	ldr	r1, [r1, #0]
    58dc:	6810      	ldr	r0, [r2, #0]
    58de:	f853 6c0c 	ldr.w	r6, [r3, #-12]
    58e2:	2200      	movs	r2, #0
    58e4:	4623      	mov	r3, r4
    58e6:	4614      	mov	r4, r2
    58e8:	4605      	mov	r5, r0
    58ea:	430a      	orrs	r2, r1
    58ec:	ea44 0006 	orr.w	r0, r4, r6
    58f0:	ea05 0103 	and.w	r1, r5, r3
    58f4:	4010      	ands	r0, r2
    58f6:	bc70      	pop	{r4, r5, r6}
    58f8:	4770      	bx	lr
    58fa:	bf00      	nop
    58fc:	40010214 	.word	0x40010214
    5900:	40010204 	.word	0x40010204
    5904:	40010210 	.word	0x40010210
    5908:	40010200 	.word	0x40010200

0000590c <am_hal_interrupt_enable>:
    590c:	280f      	cmp	r0, #15
    590e:	d80b      	bhi.n	5928 <am_hal_interrupt_enable+0x1c>
    5910:	2805      	cmp	r0, #5
    5912:	d012      	beq.n	593a <am_hal_interrupt_enable+0x2e>
    5914:	2806      	cmp	r0, #6
    5916:	d016      	beq.n	5946 <am_hal_interrupt_enable+0x3a>
    5918:	2804      	cmp	r0, #4
    591a:	d104      	bne.n	5926 <am_hal_interrupt_enable+0x1a>
    591c:	4b0d      	ldr	r3, [pc, #52]	; (5954 <am_hal_interrupt_enable+0x48>)
    591e:	681a      	ldr	r2, [r3, #0]
    5920:	f442 3280 	orr.w	r2, r2, #65536	; 0x10000
    5924:	601a      	str	r2, [r3, #0]
    5926:	4770      	bx	lr
    5928:	3810      	subs	r0, #16
    592a:	f000 001f 	and.w	r0, r0, #31
    592e:	2201      	movs	r2, #1
    5930:	4b09      	ldr	r3, [pc, #36]	; (5958 <am_hal_interrupt_enable+0x4c>)
    5932:	fa02 f000 	lsl.w	r0, r2, r0
    5936:	6018      	str	r0, [r3, #0]
    5938:	4770      	bx	lr
    593a:	4b06      	ldr	r3, [pc, #24]	; (5954 <am_hal_interrupt_enable+0x48>)
    593c:	681a      	ldr	r2, [r3, #0]
    593e:	f442 3200 	orr.w	r2, r2, #131072	; 0x20000
    5942:	601a      	str	r2, [r3, #0]
    5944:	4770      	bx	lr
    5946:	4b03      	ldr	r3, [pc, #12]	; (5954 <am_hal_interrupt_enable+0x48>)
    5948:	681a      	ldr	r2, [r3, #0]
    594a:	f442 2280 	orr.w	r2, r2, #262144	; 0x40000
    594e:	601a      	str	r2, [r3, #0]
    5950:	4770      	bx	lr
    5952:	bf00      	nop
    5954:	e000ed24 	.word	0xe000ed24
    5958:	e000e100 	.word	0xe000e100

0000595c <am_hal_interrupt_master_enable>:
    595c:	f3ef 8010 	mrs	r0, PRIMASK
    5960:	b662      	cpsie	i
    5962:	4770      	bx	lr

00005964 <am_hal_interrupt_master_disable>:
    5964:	f3ef 8010 	mrs	r0, PRIMASK
    5968:	b672      	cpsid	i
    596a:	4770      	bx	lr

0000596c <am_hal_mcuctrl_bandgap_disable>:
    596c:	4b02      	ldr	r3, [pc, #8]	; (5978 <am_hal_mcuctrl_bandgap_disable+0xc>)
    596e:	f06f 0201 	mvn.w	r2, #1
    5972:	601a      	str	r2, [r3, #0]
    5974:	4770      	bx	lr
    5976:	bf00      	nop
    5978:	400200fc 	.word	0x400200fc

0000597c <am_hal_mcuctrl_bucks_enable>:
    597c:	4b08      	ldr	r3, [pc, #32]	; (59a0 <am_hal_mcuctrl_bucks_enable+0x24>)
    597e:	4a09      	ldr	r2, [pc, #36]	; (59a4 <am_hal_mcuctrl_bucks_enable+0x28>)
    5980:	6819      	ldr	r1, [r3, #0]
    5982:	f041 0102 	orr.w	r1, r1, #2
    5986:	6019      	str	r1, [r3, #0]
    5988:	6819      	ldr	r1, [r3, #0]
    598a:	f041 0101 	orr.w	r1, r1, #1
    598e:	6019      	str	r1, [r3, #0]
    5990:	6813      	ldr	r3, [r2, #0]
    5992:	0799      	lsls	r1, r3, #30
    5994:	d5fc      	bpl.n	5990 <am_hal_mcuctrl_bucks_enable+0x14>
    5996:	4a03      	ldr	r2, [pc, #12]	; (59a4 <am_hal_mcuctrl_bucks_enable+0x28>)
    5998:	6813      	ldr	r3, [r2, #0]
    599a:	07db      	lsls	r3, r3, #31
    599c:	d5fc      	bpl.n	5998 <am_hal_mcuctrl_bucks_enable+0x1c>
    599e:	4770      	bx	lr
    59a0:	40020010 	.word	0x40020010
    59a4:	40020014 	.word	0x40020014

000059a8 <am_hal_sysctrl_sleep>:
    59a8:	b158      	cbz	r0, 59c2 <am_hal_sysctrl_sleep+0x1a>
    59aa:	4b0a      	ldr	r3, [pc, #40]	; (59d4 <am_hal_sysctrl_sleep+0x2c>)
    59ac:	681b      	ldr	r3, [r3, #0]
    59ae:	f033 0201 	bics.w	r2, r3, #1
    59b2:	4b09      	ldr	r3, [pc, #36]	; (59d8 <am_hal_sysctrl_sleep+0x30>)
    59b4:	681a      	ldr	r2, [r3, #0]
    59b6:	d007      	beq.n	59c8 <am_hal_sysctrl_sleep+0x20>
    59b8:	f022 0204 	bic.w	r2, r2, #4
    59bc:	601a      	str	r2, [r3, #0]
    59be:	bf30      	wfi
    59c0:	4770      	bx	lr
    59c2:	4b05      	ldr	r3, [pc, #20]	; (59d8 <am_hal_sysctrl_sleep+0x30>)
    59c4:	681a      	ldr	r2, [r3, #0]
    59c6:	e7f7      	b.n	59b8 <am_hal_sysctrl_sleep+0x10>
    59c8:	f042 0204 	orr.w	r2, r2, #4
    59cc:	601a      	str	r2, [r3, #0]
    59ce:	bf30      	wfi
    59d0:	4770      	bx	lr
    59d2:	bf00      	nop
    59d4:	40020250 	.word	0x40020250
    59d8:	e000ed10 	.word	0xe000ed10

000059dc <am_hal_uart_config>:
    59dc:	b570      	push	{r4, r5, r6, lr}
    59de:	6805      	ldr	r5, [r0, #0]
    59e0:	4604      	mov	r4, r0
    59e2:	f7ff fe29 	bl	5638 <am_hal_clkgen_sysclk_get>
    59e6:	012b      	lsls	r3, r5, #4
    59e8:	fbb0 f1f3 	udiv	r1, r0, r3
    59ec:	b319      	cbz	r1, 5a36 <am_hal_uart_config+0x5a>
    59ee:	0180      	lsls	r0, r0, #6
    59f0:	fbb0 f3f3 	udiv	r3, r0, r3
    59f4:	018a      	lsls	r2, r1, #6
    59f6:	4810      	ldr	r0, [pc, #64]	; (5a38 <am_hal_uart_config+0x5c>)
    59f8:	4d10      	ldr	r5, [pc, #64]	; (5a3c <am_hal_uart_config+0x60>)
    59fa:	6001      	str	r1, [r0, #0]
    59fc:	1a9a      	subs	r2, r3, r2
    59fe:	eb63 0303 	sbc.w	r3, r3, r3
    5a02:	6001      	str	r1, [r0, #0]
    5a04:	602a      	str	r2, [r5, #0]
    5a06:	490e      	ldr	r1, [pc, #56]	; (5a40 <am_hal_uart_config+0x64>)
    5a08:	68e2      	ldr	r2, [r4, #12]
    5a0a:	6860      	ldr	r0, [r4, #4]
    5a0c:	7a26      	ldrb	r6, [r4, #8]
    5a0e:	680d      	ldr	r5, [r1, #0]
    5a10:	4b0c      	ldr	r3, [pc, #48]	; (5a44 <am_hal_uart_config+0x68>)
    5a12:	4310      	orrs	r0, r2
    5a14:	2e00      	cmp	r6, #0
    5a16:	ea40 0005 	orr.w	r0, r0, r5
    5a1a:	bf0c      	ite	eq
    5a1c:	2200      	moveq	r2, #0
    5a1e:	2208      	movne	r2, #8
    5a20:	4302      	orrs	r2, r0
    5a22:	600a      	str	r2, [r1, #0]
    5a24:	6819      	ldr	r1, [r3, #0]
    5a26:	6922      	ldr	r2, [r4, #16]
    5a28:	430a      	orrs	r2, r1
    5a2a:	601a      	str	r2, [r3, #0]
    5a2c:	681a      	ldr	r2, [r3, #0]
    5a2e:	f042 0210 	orr.w	r2, r2, #16
    5a32:	601a      	str	r2, [r3, #0]
    5a34:	bd70      	pop	{r4, r5, r6, pc}
    5a36:	e7fe      	b.n	5a36 <am_hal_uart_config+0x5a>
    5a38:	4001c024 	.word	0x4001c024
    5a3c:	4001c028 	.word	0x4001c028
    5a40:	4001c02c 	.word	0x4001c02c
    5a44:	4001c030 	.word	0x4001c030

00005a48 <am_hal_uart_enable>:
    5a48:	4a03      	ldr	r2, [pc, #12]	; (5a58 <am_hal_uart_enable+0x10>)
    5a4a:	6813      	ldr	r3, [r2, #0]
    5a4c:	f443 7340 	orr.w	r3, r3, #768	; 0x300
    5a50:	f043 0301 	orr.w	r3, r3, #1
    5a54:	6013      	str	r3, [r2, #0]
    5a56:	4770      	bx	lr
    5a58:	4001c030 	.word	0x4001c030

00005a5c <am_hal_uart_disable>:
    5a5c:	4a03      	ldr	r2, [pc, #12]	; (5a6c <am_hal_uart_disable+0x10>)
    5a5e:	6813      	ldr	r3, [r2, #0]
    5a60:	f423 7340 	bic.w	r3, r3, #768	; 0x300
    5a64:	f023 0301 	bic.w	r3, r3, #1
    5a68:	6013      	str	r3, [r2, #0]
    5a6a:	4770      	bx	lr
    5a6c:	4001c030 	.word	0x4001c030

00005a70 <am_hal_uart_clock_enable>:
    5a70:	4a07      	ldr	r2, [pc, #28]	; (5a90 <am_hal_uart_clock_enable+0x20>)
    5a72:	4b08      	ldr	r3, [pc, #32]	; (5a94 <am_hal_uart_clock_enable+0x24>)
    5a74:	6811      	ldr	r1, [r2, #0]
    5a76:	f041 0101 	orr.w	r1, r1, #1
    5a7a:	6011      	str	r1, [r2, #0]
    5a7c:	681a      	ldr	r2, [r3, #0]
    5a7e:	f042 0208 	orr.w	r2, r2, #8
    5a82:	601a      	str	r2, [r3, #0]
    5a84:	681a      	ldr	r2, [r3, #0]
    5a86:	f042 0210 	orr.w	r2, r2, #16
    5a8a:	601a      	str	r2, [r3, #0]
    5a8c:	4770      	bx	lr
    5a8e:	bf00      	nop
    5a90:	4000402c 	.word	0x4000402c
    5a94:	4001c030 	.word	0x4001c030

00005a98 <am_hal_uart_clock_disable>:
    5a98:	4a05      	ldr	r2, [pc, #20]	; (5ab0 <am_hal_uart_clock_disable+0x18>)
    5a9a:	4b06      	ldr	r3, [pc, #24]	; (5ab4 <am_hal_uart_clock_disable+0x1c>)
    5a9c:	6811      	ldr	r1, [r2, #0]
    5a9e:	f021 0108 	bic.w	r1, r1, #8
    5aa2:	6011      	str	r1, [r2, #0]
    5aa4:	681a      	ldr	r2, [r3, #0]
    5aa6:	f022 0201 	bic.w	r2, r2, #1
    5aaa:	601a      	str	r2, [r3, #0]
    5aac:	4770      	bx	lr
    5aae:	bf00      	nop
    5ab0:	4001c030 	.word	0x4001c030
    5ab4:	4000402c 	.word	0x4000402c

00005ab8 <am_hal_uart_fifo_config>:
    5ab8:	4b03      	ldr	r3, [pc, #12]	; (5ac8 <am_hal_uart_fifo_config+0x10>)
    5aba:	4a04      	ldr	r2, [pc, #16]	; (5acc <am_hal_uart_fifo_config+0x14>)
    5abc:	6819      	ldr	r1, [r3, #0]
    5abe:	f041 0110 	orr.w	r1, r1, #16
    5ac2:	6019      	str	r1, [r3, #0]
    5ac4:	6010      	str	r0, [r2, #0]
    5ac6:	4770      	bx	lr
    5ac8:	4001c02c 	.word	0x4001c02c
    5acc:	4001c034 	.word	0x4001c034

00005ad0 <am_hal_uart_char_transmit_polled>:
    5ad0:	4a03      	ldr	r2, [pc, #12]	; (5ae0 <am_hal_uart_char_transmit_polled+0x10>)
    5ad2:	6813      	ldr	r3, [r2, #0]
    5ad4:	069b      	lsls	r3, r3, #26
    5ad6:	d4fc      	bmi.n	5ad2 <am_hal_uart_char_transmit_polled+0x2>
    5ad8:	4b02      	ldr	r3, [pc, #8]	; (5ae4 <am_hal_uart_char_transmit_polled+0x14>)
    5ada:	6018      	str	r0, [r3, #0]
    5adc:	4770      	bx	lr
    5ade:	bf00      	nop
    5ae0:	4001c018 	.word	0x4001c018
    5ae4:	4001c000 	.word	0x4001c000

00005ae8 <am_hal_uart_char_receive_polled>:
    5ae8:	4a03      	ldr	r2, [pc, #12]	; (5af8 <am_hal_uart_char_receive_polled+0x10>)
    5aea:	6813      	ldr	r3, [r2, #0]
    5aec:	06db      	lsls	r3, r3, #27
    5aee:	d4fc      	bmi.n	5aea <am_hal_uart_char_receive_polled+0x2>
    5af0:	4b02      	ldr	r3, [pc, #8]	; (5afc <am_hal_uart_char_receive_polled+0x14>)
    5af2:	681b      	ldr	r3, [r3, #0]
    5af4:	7003      	strb	r3, [r0, #0]
    5af6:	4770      	bx	lr
    5af8:	4001c018 	.word	0x4001c018
    5afc:	4001c000 	.word	0x4001c000

00005b00 <am_hal_vcomp_disable>:
    5b00:	4b01      	ldr	r3, [pc, #4]	; (5b08 <am_hal_vcomp_disable+0x8>)
    5b02:	2237      	movs	r2, #55	; 0x37
    5b04:	601a      	str	r2, [r3, #0]
    5b06:	4770      	bx	lr
    5b08:	4000c008 	.word	0x4000c008

00005b0c <attDmConnCback>:
    5b0c:	e92d 41f0 	stmdb	sp!, {r4, r5, r6, r7, r8, lr}
    5b10:	7804      	ldrb	r4, [r0, #0]
    5b12:	7883      	ldrb	r3, [r0, #2]
    5b14:	4e19      	ldr	r6, [pc, #100]	; (5b7c <attDmConnCback+0x70>)
    5b16:	3c01      	subs	r4, #1
    5b18:	2b27      	cmp	r3, #39	; 0x27
    5b1a:	4605      	mov	r5, r0
    5b1c:	ea4f 1444 	mov.w	r4, r4, lsl #5
    5b20:	d10d      	bne.n	5b3e <attDmConnCback+0x32>
    5b22:	1932      	adds	r2, r6, r4
    5b24:	88c1      	ldrh	r1, [r0, #6]
    5b26:	8311      	strh	r1, [r2, #24]
    5b28:	f102 0318 	add.w	r3, r2, #24
    5b2c:	4a14      	ldr	r2, [pc, #80]	; (5b80 <attDmConnCback+0x74>)
    5b2e:	6812      	ldr	r2, [r2, #0]
    5b30:	8892      	ldrh	r2, [r2, #4]
    5b32:	805a      	strh	r2, [r3, #2]
    5b34:	8802      	ldrh	r2, [r0, #0]
    5b36:	711a      	strb	r2, [r3, #4]
    5b38:	2200      	movs	r2, #0
    5b3a:	715a      	strb	r2, [r3, #5]
    5b3c:	719a      	strb	r2, [r3, #6]
    5b3e:	4434      	add	r4, r6
    5b40:	f8df 8038 	ldr.w	r8, [pc, #56]	; 5b7c <attDmConnCback+0x70>
    5b44:	7f23      	ldrb	r3, [r4, #28]
    5b46:	b183      	cbz	r3, 5b6a <attDmConnCback+0x5e>
    5b48:	f8d8 3064 	ldr.w	r3, [r8, #100]	; 0x64
    5b4c:	4620      	mov	r0, r4
    5b4e:	68db      	ldr	r3, [r3, #12]
    5b50:	4629      	mov	r1, r5
    5b52:	4798      	blx	r3
    5b54:	f8d8 3060 	ldr.w	r3, [r8, #96]	; 0x60
    5b58:	4620      	mov	r0, r4
    5b5a:	68db      	ldr	r3, [r3, #12]
    5b5c:	4629      	mov	r1, r5
    5b5e:	4798      	blx	r3
    5b60:	78ab      	ldrb	r3, [r5, #2]
    5b62:	2b28      	cmp	r3, #40	; 0x28
    5b64:	bf04      	itt	eq
    5b66:	2300      	moveq	r3, #0
    5b68:	7723      	strbeq	r3, [r4, #28]
    5b6a:	6ef3      	ldr	r3, [r6, #108]	; 0x6c
    5b6c:	b11b      	cbz	r3, 5b76 <attDmConnCback+0x6a>
    5b6e:	4628      	mov	r0, r5
    5b70:	e8bd 41f0 	ldmia.w	sp!, {r4, r5, r6, r7, r8, lr}
    5b74:	4718      	bx	r3
    5b76:	e8bd 81f0 	ldmia.w	sp!, {r4, r5, r6, r7, r8, pc}
    5b7a:	bf00      	nop
    5b7c:	10000994 	.word	0x10000994
    5b80:	10000290 	.word	0x10000290

00005b84 <attEmptyHandler>:
    5b84:	4770      	bx	lr

00005b86 <attEmptyConnCback>:
    5b86:	4770      	bx	lr

00005b88 <attEmptyDataCback>:
    5b88:	4770      	bx	lr

00005b8a <attL2cDataCback>:
    5b8a:	7a13      	ldrb	r3, [r2, #8]
    5b8c:	f013 0f01 	tst.w	r3, #1
    5b90:	4b02      	ldr	r3, [pc, #8]	; (5b9c <attL2cDataCback+0x12>)
    5b92:	bf14      	ite	ne
    5b94:	6e1b      	ldrne	r3, [r3, #96]	; 0x60
    5b96:	6e5b      	ldreq	r3, [r3, #100]	; 0x64
    5b98:	681b      	ldr	r3, [r3, #0]
    5b9a:	4718      	bx	r3
    5b9c:	10000994 	.word	0x10000994

00005ba0 <attL2cCtrlCback>:
    5ba0:	b570      	push	{r4, r5, r6, lr}
    5ba2:	7804      	ldrb	r4, [r0, #0]
    5ba4:	4d0d      	ldr	r5, [pc, #52]	; (5bdc <attL2cCtrlCback+0x3c>)
    5ba6:	3c01      	subs	r4, #1
    5ba8:	0164      	lsls	r4, r4, #5
    5baa:	192a      	adds	r2, r5, r4
    5bac:	4606      	mov	r6, r0
    5bae:	7f13      	ldrb	r3, [r2, #28]
    5bb0:	3218      	adds	r2, #24
    5bb2:	b193      	cbz	r3, 5bda <attL2cCtrlCback+0x3a>
    5bb4:	7883      	ldrb	r3, [r0, #2]
    5bb6:	1e59      	subs	r1, r3, #1
    5bb8:	424b      	negs	r3, r1
    5bba:	414b      	adcs	r3, r1
    5bbc:	7193      	strb	r3, [r2, #6]
    5bbe:	b913      	cbnz	r3, 5bc6 <attL2cCtrlCback+0x26>
    5bc0:	6e6b      	ldr	r3, [r5, #100]	; 0x64
    5bc2:	685b      	ldr	r3, [r3, #4]
    5bc4:	4798      	blx	r3
    5bc6:	442c      	add	r4, r5
    5bc8:	7fa3      	ldrb	r3, [r4, #30]
    5bca:	b933      	cbnz	r3, 5bda <attL2cCtrlCback+0x3a>
    5bcc:	4b03      	ldr	r3, [pc, #12]	; (5bdc <attL2cCtrlCback+0x3c>)
    5bce:	6e1b      	ldr	r3, [r3, #96]	; 0x60
    5bd0:	4630      	mov	r0, r6
    5bd2:	685b      	ldr	r3, [r3, #4]
    5bd4:	e8bd 4070 	ldmia.w	sp!, {r4, r5, r6, lr}
    5bd8:	4718      	bx	r3
    5bda:	bd70      	pop	{r4, r5, r6, pc}
    5bdc:	10000994 	.word	0x10000994

00005be0 <attCcbByHandle>:
    5be0:	b508      	push	{r3, lr}
    5be2:	f002 fc27 	bl	8434 <DmConnIdByHandle>
    5be6:	b118      	cbz	r0, 5bf0 <attCcbByHandle+0x10>
    5be8:	4b02      	ldr	r3, [pc, #8]	; (5bf4 <attCcbByHandle+0x14>)
    5bea:	3801      	subs	r0, #1
    5bec:	eb03 1040 	add.w	r0, r3, r0, lsl #5
    5bf0:	bd08      	pop	{r3, pc}
    5bf2:	bf00      	nop
    5bf4:	10000994 	.word	0x10000994

00005bf8 <attCcbByConnId>:
    5bf8:	4b02      	ldr	r3, [pc, #8]	; (5c04 <attCcbByConnId+0xc>)
    5bfa:	3801      	subs	r0, #1
    5bfc:	eb03 1040 	add.w	r0, r3, r0, lsl #5
    5c00:	4770      	bx	lr
    5c02:	bf00      	nop
    5c04:	10000994 	.word	0x10000994

00005c08 <attUuidCmp16to128>:
    5c08:	b508      	push	{r3, lr}
    5c0a:	4b06      	ldr	r3, [pc, #24]	; (5c24 <attUuidCmp16to128+0x1c>)
    5c0c:	7802      	ldrb	r2, [r0, #0]
    5c0e:	731a      	strb	r2, [r3, #12]
    5c10:	7842      	ldrb	r2, [r0, #1]
    5c12:	735a      	strb	r2, [r3, #13]
    5c14:	4618      	mov	r0, r3
    5c16:	2210      	movs	r2, #16
    5c18:	f003 fffe 	bl	9c18 <memcmp>
    5c1c:	fab0 f080 	clz	r0, r0
    5c20:	0940      	lsrs	r0, r0, #5
    5c22:	bd08      	pop	{r3, pc}
    5c24:	100002a8 	.word	0x100002a8

00005c28 <AttHandlerInit>:
    5c28:	b508      	push	{r3, lr}
    5c2a:	4b08      	ldr	r3, [pc, #32]	; (5c4c <AttHandlerInit+0x24>)
    5c2c:	4a08      	ldr	r2, [pc, #32]	; (5c50 <AttHandlerInit+0x28>)
    5c2e:	f883 0070 	strb.w	r0, [r3, #112]	; 0x70
    5c32:	661a      	str	r2, [r3, #96]	; 0x60
    5c34:	665a      	str	r2, [r3, #100]	; 0x64
    5c36:	2004      	movs	r0, #4
    5c38:	4906      	ldr	r1, [pc, #24]	; (5c54 <AttHandlerInit+0x2c>)
    5c3a:	4a07      	ldr	r2, [pc, #28]	; (5c58 <AttHandlerInit+0x30>)
    5c3c:	f003 f888 	bl	8d50 <L2cRegister>
    5c40:	2000      	movs	r0, #0
    5c42:	4906      	ldr	r1, [pc, #24]	; (5c5c <AttHandlerInit+0x34>)
    5c44:	e8bd 4008 	ldmia.w	sp!, {r3, lr}
    5c48:	f002 bb76 	b.w	8338 <DmConnRegister>
    5c4c:	10000994 	.word	0x10000994
    5c50:	0000f08c 	.word	0x0000f08c
    5c54:	00005b8b 	.word	0x00005b8b
    5c58:	00005ba1 	.word	0x00005ba1
    5c5c:	00005b0d 	.word	0x00005b0d

00005c60 <AttHandler>:
    5c60:	4608      	mov	r0, r1
    5c62:	b139      	cbz	r1, 5c74 <AttHandler+0x14>
    5c64:	788b      	ldrb	r3, [r1, #2]
    5c66:	2b1f      	cmp	r3, #31
    5c68:	4b03      	ldr	r3, [pc, #12]	; (5c78 <AttHandler+0x18>)
    5c6a:	bf8c      	ite	hi
    5c6c:	6e5b      	ldrhi	r3, [r3, #100]	; 0x64
    5c6e:	6e1b      	ldrls	r3, [r3, #96]	; 0x60
    5c70:	689b      	ldr	r3, [r3, #8]
    5c72:	4718      	bx	r3
    5c74:	4770      	bx	lr
    5c76:	bf00      	nop
    5c78:	10000994 	.word	0x10000994

00005c7c <AttRegister>:
    5c7c:	4b01      	ldr	r3, [pc, #4]	; (5c84 <AttRegister+0x8>)
    5c7e:	6698      	str	r0, [r3, #104]	; 0x68
    5c80:	4770      	bx	lr
    5c82:	bf00      	nop
    5c84:	10000994 	.word	0x10000994

00005c88 <AttConnRegister>:
    5c88:	4b01      	ldr	r3, [pc, #4]	; (5c90 <AttConnRegister+0x8>)
    5c8a:	66d8      	str	r0, [r3, #108]	; 0x6c
    5c8c:	4770      	bx	lr
    5c8e:	bf00      	nop
    5c90:	10000994 	.word	0x10000994

00005c94 <AttGetMtu>:
    5c94:	4b02      	ldr	r3, [pc, #8]	; (5ca0 <AttGetMtu+0xc>)
    5c96:	eb03 1040 	add.w	r0, r3, r0, lsl #5
    5c9a:	f830 0c06 	ldrh.w	r0, [r0, #-6]
    5c9e:	4770      	bx	lr
    5ca0:	10000994 	.word	0x10000994

00005ca4 <attcSendSimpleReq>:
    5ca4:	b570      	push	{r4, r5, r6, lr}
    5ca6:	2300      	movs	r3, #0
    5ca8:	6945      	ldr	r5, [r0, #20]
    5caa:	6143      	str	r3, [r0, #20]
    5cac:	7c83      	ldrb	r3, [r0, #18]
    5cae:	2b0a      	cmp	r3, #10
    5cb0:	4604      	mov	r4, r0
    5cb2:	d008      	beq.n	5cc6 <attcSendSimpleReq+0x22>
    5cb4:	2311      	movs	r3, #17
    5cb6:	f880 3030 	strb.w	r3, [r0, #48]	; 0x30
    5cba:	4b07      	ldr	r3, [pc, #28]	; (5cd8 <attcSendSimpleReq+0x34>)
    5cbc:	681b      	ldr	r3, [r3, #0]
    5cbe:	3024      	adds	r0, #36	; 0x24
    5cc0:	7999      	ldrb	r1, [r3, #6]
    5cc2:	f7ff f95b 	bl	4f7c <WsfTimerStartSec>
    5cc6:	6823      	ldr	r3, [r4, #0]
    5cc8:	882a      	ldrh	r2, [r5, #0]
    5cca:	8b19      	ldrh	r1, [r3, #24]
    5ccc:	2004      	movs	r0, #4
    5cce:	462b      	mov	r3, r5
    5cd0:	e8bd 4070 	ldmia.w	sp!, {r4, r5, r6, lr}
    5cd4:	f003 b846 	b.w	8d64 <L2cDataReq>
    5cd8:	10000290 	.word	0x10000290

00005cdc <attcSendWriteCmd>:
    5cdc:	b530      	push	{r4, r5, lr}
    5cde:	4605      	mov	r5, r0
    5ce0:	b085      	sub	sp, #20
    5ce2:	f7ff ffdf 	bl	5ca4 <attcSendSimpleReq>
    5ce6:	682a      	ldr	r2, [r5, #0]
    5ce8:	8b2b      	ldrh	r3, [r5, #24]
    5cea:	7f12      	ldrb	r2, [r2, #28]
    5cec:	f8ad 300a 	strh.w	r3, [sp, #10]
    5cf0:	4b09      	ldr	r3, [pc, #36]	; (5d18 <attcSendWriteCmd+0x3c>)
    5cf2:	f8ad 2000 	strh.w	r2, [sp]
    5cf6:	2400      	movs	r4, #0
    5cf8:	220a      	movs	r2, #10
    5cfa:	f88d 2002 	strb.w	r2, [sp, #2]
    5cfe:	f88d 4003 	strb.w	r4, [sp, #3]
    5d02:	f8ad 4008 	strh.w	r4, [sp, #8]
    5d06:	f88d 400c 	strb.w	r4, [sp, #12]
    5d0a:	6e9b      	ldr	r3, [r3, #104]	; 0x68
    5d0c:	4668      	mov	r0, sp
    5d0e:	4798      	blx	r3
    5d10:	74ac      	strb	r4, [r5, #18]
    5d12:	b005      	add	sp, #20
    5d14:	bd30      	pop	{r4, r5, pc}
    5d16:	bf00      	nop
    5d18:	10000994 	.word	0x10000994

00005d1c <attcSendReq>:
    5d1c:	7c82      	ldrb	r2, [r0, #18]
    5d1e:	4b02      	ldr	r3, [pc, #8]	; (5d28 <attcSendReq+0xc>)
    5d20:	f853 3022 	ldr.w	r3, [r3, r2, lsl #2]
    5d24:	4718      	bx	r3
    5d26:	bf00      	nop
    5d28:	0000f18c 	.word	0x0000f18c

00005d2c <attcSetupReq>:
    5d2c:	b530      	push	{r4, r5, lr}
    5d2e:	460b      	mov	r3, r1
    5d30:	4604      	mov	r4, r0
    5d32:	f100 0510 	add.w	r5, r0, #16
    5d36:	c907      	ldmia	r1, {r0, r1, r2}
    5d38:	e885 0007 	stmia.w	r5, {r0, r1, r2}
    5d3c:	685a      	ldr	r2, [r3, #4]
    5d3e:	e892 0003 	ldmia.w	r2, {r0, r1}
    5d42:	f104 031c 	add.w	r3, r4, #28
    5d46:	e883 0003 	stmia.w	r3, {r0, r1}
    5d4a:	4620      	mov	r0, r4
    5d4c:	e8bd 4030 	ldmia.w	sp!, {r4, r5, lr}
    5d50:	f7ff bfe4 	b.w	5d1c <attcSendReq>

00005d54 <attcCcbByConnId>:
    5d54:	b510      	push	{r4, lr}
    5d56:	4604      	mov	r4, r0
    5d58:	f002 fb7e 	bl	8458 <DmConnInUse>
    5d5c:	b120      	cbz	r0, 5d68 <attcCcbByConnId+0x14>
    5d5e:	4803      	ldr	r0, [pc, #12]	; (5d6c <attcCcbByConnId+0x18>)
    5d60:	3c01      	subs	r4, #1
    5d62:	2338      	movs	r3, #56	; 0x38
    5d64:	fb03 0004 	mla	r0, r3, r4, r0
    5d68:	bd10      	pop	{r4, pc}
    5d6a:	bf00      	nop
    5d6c:	10000a08 	.word	0x10000a08

00005d70 <attcCcbByHandle>:
    5d70:	b508      	push	{r3, lr}
    5d72:	f002 fb5f 	bl	8434 <DmConnIdByHandle>
    5d76:	b120      	cbz	r0, 5d82 <attcCcbByHandle+0x12>
    5d78:	4a02      	ldr	r2, [pc, #8]	; (5d84 <attcCcbByHandle+0x14>)
    5d7a:	1e43      	subs	r3, r0, #1
    5d7c:	2038      	movs	r0, #56	; 0x38
    5d7e:	fb00 2003 	mla	r0, r0, r3, r2
    5d82:	bd08      	pop	{r3, pc}
    5d84:	10000a08 	.word	0x10000a08

00005d88 <attcDataCback>:
    5d88:	b538      	push	{r3, r4, r5, lr}
    5d8a:	4614      	mov	r4, r2
    5d8c:	460d      	mov	r5, r1
    5d8e:	f7ff ffef 	bl	5d70 <attcCcbByHandle>
    5d92:	4602      	mov	r2, r0
    5d94:	b198      	cbz	r0, 5dbe <attcDataCback+0x36>
    5d96:	7a23      	ldrb	r3, [r4, #8]
    5d98:	2b19      	cmp	r3, #25
    5d9a:	d805      	bhi.n	5da8 <attcDataCback+0x20>
    5d9c:	4629      	mov	r1, r5
    5d9e:	4622      	mov	r2, r4
    5da0:	e8bd 4038 	ldmia.w	sp!, {r3, r4, r5, lr}
    5da4:	f000 ba45 	b.w	6232 <attcProcRsp>
    5da8:	2b1b      	cmp	r3, #27
    5daa:	d001      	beq.n	5db0 <attcDataCback+0x28>
    5dac:	2b1d      	cmp	r3, #29
    5dae:	d106      	bne.n	5dbe <attcDataCback+0x36>
    5db0:	4610      	mov	r0, r2
    5db2:	4629      	mov	r1, r5
    5db4:	4622      	mov	r2, r4
    5db6:	e8bd 4038 	ldmia.w	sp!, {r3, r4, r5, lr}
    5dba:	f000 ba93 	b.w	62e4 <attcProcInd>
    5dbe:	bd38      	pop	{r3, r4, r5, pc}

00005dc0 <attcFreePkt>:
    5dc0:	b510      	push	{r4, lr}
    5dc2:	4604      	mov	r4, r0
    5dc4:	6840      	ldr	r0, [r0, #4]
    5dc6:	b118      	cbz	r0, 5dd0 <attcFreePkt+0x10>
    5dc8:	f7fe fe90 	bl	4aec <WsfMsgFree>
    5dcc:	2300      	movs	r3, #0
    5dce:	6063      	str	r3, [r4, #4]
    5dd0:	bd10      	pop	{r4, pc}

00005dd2 <attcSendMtuReq>:
    5dd2:	b510      	push	{r4, lr}
    5dd4:	6803      	ldr	r3, [r0, #0]
    5dd6:	7f5a      	ldrb	r2, [r3, #29]
    5dd8:	4604      	mov	r4, r0
    5dda:	b12a      	cbz	r2, 5de8 <attcSendMtuReq+0x16>
    5ddc:	3010      	adds	r0, #16
    5dde:	f7ff ffef 	bl	5dc0 <attcFreePkt>
    5de2:	2300      	movs	r3, #0
    5de4:	74a3      	strb	r3, [r4, #18]
    5de6:	bd10      	pop	{r4, pc}
    5de8:	2201      	movs	r2, #1
    5dea:	775a      	strb	r2, [r3, #29]
    5dec:	e8bd 4010 	ldmia.w	sp!, {r4, lr}
    5df0:	e758      	b.n	5ca4 <attcSendSimpleReq>

00005df2 <attcExecCallback>:
    5df2:	2901      	cmp	r1, #1
    5df4:	b51f      	push	{r0, r1, r2, r3, r4, lr}
    5df6:	d010      	beq.n	5e1a <attcExecCallback+0x28>
    5df8:	f88d 3003 	strb.w	r3, [sp, #3]
    5dfc:	2300      	movs	r3, #0
    5dfe:	f8ad 3008 	strh.w	r3, [sp, #8]
    5e02:	f88d 300c 	strb.w	r3, [sp, #12]
    5e06:	4b06      	ldr	r3, [pc, #24]	; (5e20 <attcExecCallback+0x2e>)
    5e08:	f8ad 0000 	strh.w	r0, [sp]
    5e0c:	f88d 1002 	strb.w	r1, [sp, #2]
    5e10:	f8ad 200a 	strh.w	r2, [sp, #10]
    5e14:	6e9b      	ldr	r3, [r3, #104]	; 0x68
    5e16:	4668      	mov	r0, sp
    5e18:	4798      	blx	r3
    5e1a:	b005      	add	sp, #20
    5e1c:	f85d fb04 	ldr.w	pc, [sp], #4
    5e20:	10000994 	.word	0x10000994

00005e24 <attcReqClear>:
    5e24:	b570      	push	{r4, r5, r6, lr}
    5e26:	4606      	mov	r6, r0
    5e28:	4608      	mov	r0, r1
    5e2a:	460c      	mov	r4, r1
    5e2c:	4615      	mov	r5, r2
    5e2e:	f7ff ffc7 	bl	5dc0 <attcFreePkt>
    5e32:	6833      	ldr	r3, [r6, #0]
    5e34:	78a1      	ldrb	r1, [r4, #2]
    5e36:	7f18      	ldrb	r0, [r3, #28]
    5e38:	8922      	ldrh	r2, [r4, #8]
    5e3a:	462b      	mov	r3, r5
    5e3c:	f7ff ffd9 	bl	5df2 <attcExecCallback>
    5e40:	2300      	movs	r3, #0
    5e42:	70a3      	strb	r3, [r4, #2]
    5e44:	bd70      	pop	{r4, r5, r6, pc}

00005e46 <attcSendPrepWriteReq>:
    5e46:	b570      	push	{r4, r5, r6, lr}
    5e48:	7cc3      	ldrb	r3, [r0, #19]
    5e4a:	8b85      	ldrh	r5, [r0, #28]
    5e4c:	2b01      	cmp	r3, #1
    5e4e:	4604      	mov	r4, r0
    5e50:	d12d      	bne.n	5eae <attcSendPrepWriteReq+0x68>
    5e52:	6803      	ldr	r3, [r0, #0]
    5e54:	8b5b      	ldrh	r3, [r3, #26]
    5e56:	3b05      	subs	r3, #5
    5e58:	429d      	cmp	r5, r3
    5e5a:	bfa8      	it	ge
    5e5c:	b29d      	uxthge	r5, r3
    5e5e:	f105 000d 	add.w	r0, r5, #13
    5e62:	b280      	uxth	r0, r0
    5e64:	f7fe fe2a 	bl	4abc <WsfMsgAlloc>
    5e68:	4606      	mov	r6, r0
    5e6a:	b1c0      	cbz	r0, 5e9e <attcSendPrepWriteReq+0x58>
    5e6c:	6963      	ldr	r3, [r4, #20]
    5e6e:	4602      	mov	r2, r0
    5e70:	f103 010c 	add.w	r1, r3, #12
    5e74:	f853 0b04 	ldr.w	r0, [r3], #4
    5e78:	f842 0b04 	str.w	r0, [r2], #4
    5e7c:	428b      	cmp	r3, r1
    5e7e:	d1f9      	bne.n	5e74 <attcSendPrepWriteReq+0x2e>
    5e80:	781b      	ldrb	r3, [r3, #0]
    5e82:	7013      	strb	r3, [r2, #0]
    5e84:	f106 000d 	add.w	r0, r6, #13
    5e88:	6a21      	ldr	r1, [r4, #32]
    5e8a:	462a      	mov	r2, r5
    5e8c:	f003 fef8 	bl	9c80 <memcpy>
    5e90:	6a23      	ldr	r3, [r4, #32]
    5e92:	442b      	add	r3, r5
    5e94:	6223      	str	r3, [r4, #32]
    5e96:	8ba3      	ldrh	r3, [r4, #28]
    5e98:	1b5b      	subs	r3, r3, r5
    5e9a:	83a3      	strh	r3, [r4, #28]
    5e9c:	e00a      	b.n	5eb4 <attcSendPrepWriteReq+0x6e>
    5e9e:	4620      	mov	r0, r4
    5ea0:	f104 0110 	add.w	r1, r4, #16
    5ea4:	2270      	movs	r2, #112	; 0x70
    5ea6:	e8bd 4070 	ldmia.w	sp!, {r4, r5, r6, lr}
    5eaa:	f7ff bfbb 	b.w	5e24 <attcReqClear>
    5eae:	2300      	movs	r3, #0
    5eb0:	6946      	ldr	r6, [r0, #20]
    5eb2:	6143      	str	r3, [r0, #20]
    5eb4:	8be3      	ldrh	r3, [r4, #30]
    5eb6:	72f3      	strb	r3, [r6, #11]
    5eb8:	8be3      	ldrh	r3, [r4, #30]
    5eba:	0a1b      	lsrs	r3, r3, #8
    5ebc:	7333      	strb	r3, [r6, #12]
    5ebe:	8be3      	ldrh	r3, [r4, #30]
    5ec0:	442b      	add	r3, r5
    5ec2:	83e3      	strh	r3, [r4, #30]
    5ec4:	2311      	movs	r3, #17
    5ec6:	f884 3030 	strb.w	r3, [r4, #48]	; 0x30
    5eca:	4b08      	ldr	r3, [pc, #32]	; (5eec <attcSendPrepWriteReq+0xa6>)
    5ecc:	681b      	ldr	r3, [r3, #0]
    5ece:	f104 0024 	add.w	r0, r4, #36	; 0x24
    5ed2:	7999      	ldrb	r1, [r3, #6]
    5ed4:	f7ff f852 	bl	4f7c <WsfTimerStartSec>
    5ed8:	6823      	ldr	r3, [r4, #0]
    5eda:	1d6a      	adds	r2, r5, #5
    5edc:	8b19      	ldrh	r1, [r3, #24]
    5ede:	2004      	movs	r0, #4
    5ee0:	4633      	mov	r3, r6
    5ee2:	b292      	uxth	r2, r2
    5ee4:	e8bd 4070 	ldmia.w	sp!, {r4, r5, r6, lr}
    5ee8:	f002 bf3c 	b.w	8d64 <L2cDataReq>
    5eec:	10000290 	.word	0x10000290

00005ef0 <attcSendContinuingReq>:
    5ef0:	b570      	push	{r4, r5, r6, lr}
    5ef2:	7cc3      	ldrb	r3, [r0, #19]
    5ef4:	6945      	ldr	r5, [r0, #20]
    5ef6:	2b01      	cmp	r3, #1
    5ef8:	4604      	mov	r4, r0
    5efa:	d114      	bne.n	5f26 <attcSendContinuingReq+0x36>
    5efc:	8828      	ldrh	r0, [r5, #0]
    5efe:	3008      	adds	r0, #8
    5f00:	b280      	uxth	r0, r0
    5f02:	f7fe fddb 	bl	4abc <WsfMsgAlloc>
    5f06:	4605      	mov	r5, r0
    5f08:	b128      	cbz	r0, 5f16 <attcSendContinuingReq+0x26>
    5f0a:	6961      	ldr	r1, [r4, #20]
    5f0c:	880a      	ldrh	r2, [r1, #0]
    5f0e:	3208      	adds	r2, #8
    5f10:	f003 feb6 	bl	9c80 <memcpy>
    5f14:	e009      	b.n	5f2a <attcSendContinuingReq+0x3a>
    5f16:	4620      	mov	r0, r4
    5f18:	f104 0110 	add.w	r1, r4, #16
    5f1c:	2270      	movs	r2, #112	; 0x70
    5f1e:	e8bd 4070 	ldmia.w	sp!, {r4, r5, r6, lr}
    5f22:	f7ff bf7f 	b.w	5e24 <attcReqClear>
    5f26:	2300      	movs	r3, #0
    5f28:	6143      	str	r3, [r0, #20]
    5f2a:	7ca3      	ldrb	r3, [r4, #18]
    5f2c:	2b06      	cmp	r3, #6
    5f2e:	8be3      	ldrh	r3, [r4, #30]
    5f30:	bf1b      	ittet	ne
    5f32:	726b      	strbne	r3, [r5, #9]
    5f34:	8be3      	ldrhne	r3, [r4, #30]
    5f36:	72eb      	strbeq	r3, [r5, #11]
    5f38:	0a1b      	lsrne	r3, r3, #8
    5f3a:	bf1d      	ittte	ne
    5f3c:	72ab      	strbne	r3, [r5, #10]
    5f3e:	8c23      	ldrhne	r3, [r4, #32]
    5f40:	72eb      	strbne	r3, [r5, #11]
    5f42:	8be3      	ldrheq	r3, [r4, #30]
    5f44:	bf18      	it	ne
    5f46:	8c23      	ldrhne	r3, [r4, #32]
    5f48:	0a1b      	lsrs	r3, r3, #8
    5f4a:	732b      	strb	r3, [r5, #12]
    5f4c:	2311      	movs	r3, #17
    5f4e:	f884 3030 	strb.w	r3, [r4, #48]	; 0x30
    5f52:	4b08      	ldr	r3, [pc, #32]	; (5f74 <attcSendContinuingReq+0x84>)
    5f54:	681b      	ldr	r3, [r3, #0]
    5f56:	f104 0024 	add.w	r0, r4, #36	; 0x24
    5f5a:	7999      	ldrb	r1, [r3, #6]
    5f5c:	f7ff f80e 	bl	4f7c <WsfTimerStartSec>
    5f60:	6823      	ldr	r3, [r4, #0]
    5f62:	882a      	ldrh	r2, [r5, #0]
    5f64:	8b19      	ldrh	r1, [r3, #24]
    5f66:	2004      	movs	r0, #4
    5f68:	462b      	mov	r3, r5
    5f6a:	e8bd 4070 	ldmia.w	sp!, {r4, r5, r6, lr}
    5f6e:	f002 bef9 	b.w	8d64 <L2cDataReq>
    5f72:	bf00      	nop
    5f74:	10000290 	.word	0x10000290

00005f78 <attcConnCback>:
    5f78:	e92d 41f0 	stmdb	sp!, {r4, r5, r6, r7, r8, lr}
    5f7c:	788b      	ldrb	r3, [r1, #2]
    5f7e:	2b27      	cmp	r3, #39	; 0x27
    5f80:	4605      	mov	r5, r0
    5f82:	d10f      	bne.n	5fa4 <attcConnCback+0x2c>
    5f84:	4c23      	ldr	r4, [pc, #140]	; (6014 <attcConnCback+0x9c>)
    5f86:	6823      	ldr	r3, [r4, #0]
    5f88:	889b      	ldrh	r3, [r3, #4]
    5f8a:	2b17      	cmp	r3, #23
    5f8c:	d040      	beq.n	6010 <attcConnCback+0x98>
    5f8e:	f002 fb68 	bl	8662 <DmDevRole>
    5f92:	2800      	cmp	r0, #0
    5f94:	d13c      	bne.n	6010 <attcConnCback+0x98>
    5f96:	6823      	ldr	r3, [r4, #0]
    5f98:	7f28      	ldrb	r0, [r5, #28]
    5f9a:	8899      	ldrh	r1, [r3, #4]
    5f9c:	e8bd 41f0 	ldmia.w	sp!, {r4, r5, r6, r7, r8, lr}
    5fa0:	f000 ba82 	b.w	64a8 <AttcMtuReq>
    5fa4:	2b28      	cmp	r3, #40	; 0x28
    5fa6:	d133      	bne.n	6010 <attcConnCback+0x98>
    5fa8:	78cc      	ldrb	r4, [r1, #3]
    5faa:	b904      	cbnz	r4, 5fae <attcConnCback+0x36>
    5fac:	7a0c      	ldrb	r4, [r1, #8]
    5fae:	7f2d      	ldrb	r5, [r5, #28]
    5fb0:	4e19      	ldr	r6, [pc, #100]	; (6018 <attcConnCback+0xa0>)
    5fb2:	3d01      	subs	r5, #1
    5fb4:	2738      	movs	r7, #56	; 0x38
    5fb6:	436f      	muls	r7, r5
    5fb8:	eb06 0807 	add.w	r8, r6, r7
    5fbc:	3420      	adds	r4, #32
    5fbe:	f898 3012 	ldrb.w	r3, [r8, #18]
    5fc2:	b2e4      	uxtb	r4, r4
    5fc4:	b153      	cbz	r3, 5fdc <attcConnCback+0x64>
    5fc6:	4640      	mov	r0, r8
    5fc8:	3024      	adds	r0, #36	; 0x24
    5fca:	f7fe fffb 	bl	4fc4 <WsfTimerStop>
    5fce:	f107 0110 	add.w	r1, r7, #16
    5fd2:	4640      	mov	r0, r8
    5fd4:	4431      	add	r1, r6
    5fd6:	4622      	mov	r2, r4
    5fd8:	f7ff ff24 	bl	5e24 <attcReqClear>
    5fdc:	2138      	movs	r1, #56	; 0x38
    5fde:	fb01 6105 	mla	r1, r1, r5, r6
    5fe2:	798b      	ldrb	r3, [r1, #6]
    5fe4:	b123      	cbz	r3, 5ff0 <attcConnCback+0x78>
    5fe6:	4640      	mov	r0, r8
    5fe8:	3104      	adds	r1, #4
    5fea:	4622      	mov	r2, r4
    5fec:	f7ff ff1a 	bl	5e24 <attcReqClear>
    5ff0:	2338      	movs	r3, #56	; 0x38
    5ff2:	fb03 6505 	mla	r5, r3, r5, r6
    5ff6:	3530      	adds	r5, #48	; 0x30
    5ff8:	2300      	movs	r3, #0
    5ffa:	712b      	strb	r3, [r5, #4]
    5ffc:	716b      	strb	r3, [r5, #5]
    5ffe:	f8d6 30a8 	ldr.w	r3, [r6, #168]	; 0xa8
    6002:	b12b      	cbz	r3, 6010 <attcConnCback+0x98>
    6004:	4640      	mov	r0, r8
    6006:	4621      	mov	r1, r4
    6008:	685b      	ldr	r3, [r3, #4]
    600a:	e8bd 41f0 	ldmia.w	sp!, {r4, r5, r6, r7, r8, lr}
    600e:	4718      	bx	r3
    6010:	e8bd 81f0 	ldmia.w	sp!, {r4, r5, r6, r7, r8, pc}
    6014:	10000290 	.word	0x10000290
    6018:	10000a08 	.word	0x10000a08

0000601c <attcMsgCback>:
    601c:	b570      	push	{r4, r5, r6, lr}
    601e:	4605      	mov	r5, r0
    6020:	7800      	ldrb	r0, [r0, #0]
    6022:	f7ff fe97 	bl	5d54 <attcCcbByConnId>
    6026:	78ab      	ldrb	r3, [r5, #2]
    6028:	4604      	mov	r4, r0
    602a:	b938      	cbnz	r0, 603c <attcMsgCback+0x20>
    602c:	3b01      	subs	r3, #1
    602e:	2b0c      	cmp	r3, #12
    6030:	d847      	bhi.n	60c2 <attcMsgCback+0xa6>
    6032:	4628      	mov	r0, r5
    6034:	e8bd 4070 	ldmia.w	sp!, {r4, r5, r6, lr}
    6038:	f7ff bec2 	b.w	5dc0 <attcFreePkt>
    603c:	2b0c      	cmp	r3, #12
    603e:	d817      	bhi.n	6070 <attcMsgCback+0x54>
    6040:	7983      	ldrb	r3, [r0, #6]
    6042:	b913      	cbnz	r3, 604a <attcMsgCback+0x2e>
    6044:	7c83      	ldrb	r3, [r0, #18]
    6046:	2b01      	cmp	r3, #1
    6048:	d903      	bls.n	6052 <attcMsgCback+0x36>
    604a:	4620      	mov	r0, r4
    604c:	4629      	mov	r1, r5
    604e:	2272      	movs	r2, #114	; 0x72
    6050:	e033      	b.n	60ba <attcMsgCback+0x9e>
    6052:	d002      	beq.n	605a <attcMsgCback+0x3e>
    6054:	f890 3034 	ldrb.w	r3, [r0, #52]	; 0x34
    6058:	b12b      	cbz	r3, 6066 <attcMsgCback+0x4a>
    605a:	e895 0007 	ldmia.w	r5, {r0, r1, r2}
    605e:	3404      	adds	r4, #4
    6060:	e884 0007 	stmia.w	r4, {r0, r1, r2}
    6064:	bd70      	pop	{r4, r5, r6, pc}
    6066:	4629      	mov	r1, r5
    6068:	e8bd 4070 	ldmia.w	sp!, {r4, r5, r6, lr}
    606c:	f7ff be5e 	b.w	5d2c <attcSetupReq>
    6070:	f1a3 020d 	sub.w	r2, r3, #13
    6074:	2a02      	cmp	r2, #2
    6076:	d808      	bhi.n	608a <attcMsgCback+0x6e>
    6078:	4b12      	ldr	r3, [pc, #72]	; (60c4 <attcMsgCback+0xa8>)
    607a:	f8d3 30a8 	ldr.w	r3, [r3, #168]	; 0xa8
    607e:	b303      	cbz	r3, 60c2 <attcMsgCback+0xa6>
    6080:	4629      	mov	r1, r5
    6082:	681b      	ldr	r3, [r3, #0]
    6084:	e8bd 4070 	ldmia.w	sp!, {r4, r5, r6, lr}
    6088:	4718      	bx	r3
    608a:	2b10      	cmp	r3, #16
    608c:	d10e      	bne.n	60ac <attcMsgCback+0x90>
    608e:	7c83      	ldrb	r3, [r0, #18]
    6090:	2b01      	cmp	r3, #1
    6092:	d906      	bls.n	60a2 <attcMsgCback+0x86>
    6094:	3024      	adds	r0, #36	; 0x24
    6096:	f7fe ff95 	bl	4fc4 <WsfTimerStop>
    609a:	4620      	mov	r0, r4
    609c:	f104 0110 	add.w	r1, r4, #16
    60a0:	e002      	b.n	60a8 <attcMsgCback+0x8c>
    60a2:	7983      	ldrb	r3, [r0, #6]
    60a4:	b16b      	cbz	r3, 60c2 <attcMsgCback+0xa6>
    60a6:	1d01      	adds	r1, r0, #4
    60a8:	2274      	movs	r2, #116	; 0x74
    60aa:	e006      	b.n	60ba <attcMsgCback+0x9e>
    60ac:	2b11      	cmp	r3, #17
    60ae:	d108      	bne.n	60c2 <attcMsgCback+0xa6>
    60b0:	7c83      	ldrb	r3, [r0, #18]
    60b2:	b133      	cbz	r3, 60c2 <attcMsgCback+0xa6>
    60b4:	f100 0110 	add.w	r1, r0, #16
    60b8:	2271      	movs	r2, #113	; 0x71
    60ba:	e8bd 4070 	ldmia.w	sp!, {r4, r5, r6, lr}
    60be:	f7ff beb1 	b.w	5e24 <attcReqClear>
    60c2:	bd70      	pop	{r4, r5, r6, pc}
    60c4:	10000a08 	.word	0x10000a08

000060c8 <AttcInit>:
    60c8:	4b0f      	ldr	r3, [pc, #60]	; (6108 <AttcInit+0x40>)
    60ca:	2200      	movs	r2, #0
    60cc:	f8c3 20a8 	str.w	r2, [r3, #168]	; 0xa8
    60d0:	4a0e      	ldr	r2, [pc, #56]	; (610c <AttcInit+0x44>)
    60d2:	601a      	str	r2, [r3, #0]
    60d4:	2001      	movs	r0, #1
    60d6:	85d8      	strh	r0, [r3, #46]	; 0x2e
    60d8:	f102 0020 	add.w	r0, r2, #32
    60dc:	f892 1070 	ldrb.w	r1, [r2, #112]	; 0x70
    60e0:	6398      	str	r0, [r3, #56]	; 0x38
    60e2:	2002      	movs	r0, #2
    60e4:	f883 102c 	strb.w	r1, [r3, #44]	; 0x2c
    60e8:	f883 1064 	strb.w	r1, [r3, #100]	; 0x64
    60ec:	f8a3 0066 	strh.w	r0, [r3, #102]	; 0x66
    60f0:	f883 109c 	strb.w	r1, [r3, #156]	; 0x9c
    60f4:	f102 0040 	add.w	r0, r2, #64	; 0x40
    60f8:	2103      	movs	r1, #3
    60fa:	6718      	str	r0, [r3, #112]	; 0x70
    60fc:	f8a3 109e 	strh.w	r1, [r3, #158]	; 0x9e
    6100:	4b03      	ldr	r3, [pc, #12]	; (6110 <AttcInit+0x48>)
    6102:	6613      	str	r3, [r2, #96]	; 0x60
    6104:	4770      	bx	lr
    6106:	bf00      	nop
    6108:	10000a08 	.word	0x10000a08
    610c:	10000994 	.word	0x10000994
    6110:	0000f1c0 	.word	0x0000f1c0

00006114 <attcProcErrRsp>:
    6114:	7c81      	ldrb	r1, [r0, #18]
    6116:	7099      	strb	r1, [r3, #2]
    6118:	1f48      	subs	r0, r1, #5
    611a:	2801      	cmp	r0, #1
    611c:	f102 000c 	add.w	r0, r2, #12
    6120:	d908      	bls.n	6134 <attcProcErrRsp+0x20>
    6122:	f001 01fd 	and.w	r1, r1, #253	; 0xfd
    6126:	2909      	cmp	r1, #9
    6128:	bf1f      	itttt	ne
    612a:	7ad1      	ldrbne	r1, [r2, #11]
    612c:	7a92      	ldrbne	r2, [r2, #10]
    612e:	eb02 2201 	addne.w	r2, r2, r1, lsl #8
    6132:	815a      	strhne	r2, [r3, #10]
    6134:	7802      	ldrb	r2, [r0, #0]
    6136:	b902      	cbnz	r2, 613a <attcProcErrRsp+0x26>
    6138:	2275      	movs	r2, #117	; 0x75
    613a:	70da      	strb	r2, [r3, #3]
    613c:	2200      	movs	r2, #0
    613e:	811a      	strh	r2, [r3, #8]
    6140:	4770      	bx	lr

00006142 <attcProcMtuRsp>:
    6142:	7a91      	ldrb	r1, [r2, #10]
    6144:	7a53      	ldrb	r3, [r2, #9]
    6146:	eb03 2301 	add.w	r3, r3, r1, lsl #8
    614a:	b29b      	uxth	r3, r3
    614c:	2b16      	cmp	r3, #22
    614e:	d906      	bls.n	615e <attcProcMtuRsp+0x1c>
    6150:	4a03      	ldr	r2, [pc, #12]	; (6160 <attcProcMtuRsp+0x1e>)
    6152:	6812      	ldr	r2, [r2, #0]
    6154:	8892      	ldrh	r2, [r2, #4]
    6156:	429a      	cmp	r2, r3
    6158:	bf84      	itt	hi
    615a:	6802      	ldrhi	r2, [r0, #0]
    615c:	8353      	strhhi	r3, [r2, #26]
    615e:	4770      	bx	lr
    6160:	10000290 	.word	0x10000290

00006164 <attcProcFindOrReadRsp>:
    6164:	e92d 41f0 	stmdb	sp!, {r4, r5, r6, r7, r8, lr}
    6168:	f890 e012 	ldrb.w	lr, [r0, #18]
    616c:	4614      	mov	r4, r2
    616e:	3108      	adds	r1, #8
    6170:	f1be 0f02 	cmp.w	lr, #2
    6174:	4411      	add	r1, r2
    6176:	7a66      	ldrb	r6, [r4, #9]
    6178:	f102 020a 	add.w	r2, r2, #10
    617c:	d104      	bne.n	6188 <attcProcFindOrReadRsp+0x24>
    617e:	2e01      	cmp	r6, #1
    6180:	bf0c      	ite	eq
    6182:	2602      	moveq	r6, #2
    6184:	2610      	movne	r6, #16
    6186:	e005      	b.n	6194 <attcProcFindOrReadRsp+0x30>
    6188:	f1be 0f04 	cmp.w	lr, #4
    618c:	bf0c      	ite	eq
    618e:	3e02      	subeq	r6, #2
    6190:	3e04      	subne	r6, #4
    6192:	b2f6      	uxtb	r6, r6
    6194:	f8b0 c01e 	ldrh.w	ip, [r0, #30]
    6198:	428a      	cmp	r2, r1
    619a:	d230      	bcs.n	61fe <attcProcFindOrReadRsp+0x9a>
    619c:	7857      	ldrb	r7, [r2, #1]
    619e:	7815      	ldrb	r5, [r2, #0]
    61a0:	eb05 2707 	add.w	r7, r5, r7, lsl #8
    61a4:	b2bf      	uxth	r7, r7
    61a6:	b347      	cbz	r7, 61fa <attcProcFindOrReadRsp+0x96>
    61a8:	f1bc 0f00 	cmp.w	ip, #0
    61ac:	d025      	beq.n	61fa <attcProcFindOrReadRsp+0x96>
    61ae:	4567      	cmp	r7, ip
    61b0:	d323      	bcc.n	61fa <attcProcFindOrReadRsp+0x96>
    61b2:	f8b0 8020 	ldrh.w	r8, [r0, #32]
    61b6:	4547      	cmp	r7, r8
    61b8:	d81f      	bhi.n	61fa <attcProcFindOrReadRsp+0x96>
    61ba:	f1be 0f08 	cmp.w	lr, #8
    61be:	d10d      	bne.n	61dc <attcProcFindOrReadRsp+0x78>
    61c0:	78d4      	ldrb	r4, [r2, #3]
    61c2:	7895      	ldrb	r5, [r2, #2]
    61c4:	eb05 2504 	add.w	r5, r5, r4, lsl #8
    61c8:	b2ac      	uxth	r4, r5
    61ca:	3204      	adds	r2, #4
    61cc:	b1ac      	cbz	r4, 61fa <attcProcFindOrReadRsp+0x96>
    61ce:	42bc      	cmp	r4, r7
    61d0:	d313      	bcc.n	61fa <attcProcFindOrReadRsp+0x96>
    61d2:	4564      	cmp	r4, ip
    61d4:	d311      	bcc.n	61fa <attcProcFindOrReadRsp+0x96>
    61d6:	4544      	cmp	r4, r8
    61d8:	d902      	bls.n	61e0 <attcProcFindOrReadRsp+0x7c>
    61da:	e00e      	b.n	61fa <attcProcFindOrReadRsp+0x96>
    61dc:	3202      	adds	r2, #2
    61de:	463c      	mov	r4, r7
    61e0:	f64f 75ff 	movw	r5, #65535	; 0xffff
    61e4:	42ac      	cmp	r4, r5
    61e6:	bf18      	it	ne
    61e8:	3401      	addne	r4, #1
    61ea:	4432      	add	r2, r6
    61ec:	bf14      	ite	ne
    61ee:	fa1f fc84 	uxthne.w	ip, r4
    61f2:	f04f 0c00 	moveq.w	ip, #0
    61f6:	428a      	cmp	r2, r1
    61f8:	d9ce      	bls.n	6198 <attcProcFindOrReadRsp+0x34>
    61fa:	2273      	movs	r2, #115	; 0x73
    61fc:	70da      	strb	r2, [r3, #3]
    61fe:	78db      	ldrb	r3, [r3, #3]
    6200:	b98b      	cbnz	r3, 6226 <attcProcFindOrReadRsp+0xc2>
    6202:	7cc3      	ldrb	r3, [r0, #19]
    6204:	2b01      	cmp	r3, #1
    6206:	d10e      	bne.n	6226 <attcProcFindOrReadRsp+0xc2>
    6208:	f1bc 0f00 	cmp.w	ip, #0
    620c:	d003      	beq.n	6216 <attcProcFindOrReadRsp+0xb2>
    620e:	8c03      	ldrh	r3, [r0, #32]
    6210:	3301      	adds	r3, #1
    6212:	459c      	cmp	ip, r3
    6214:	d103      	bne.n	621e <attcProcFindOrReadRsp+0xba>
    6216:	2300      	movs	r3, #0
    6218:	74c3      	strb	r3, [r0, #19]
    621a:	e8bd 81f0 	ldmia.w	sp!, {r4, r5, r6, r7, r8, pc}
    621e:	f8a0 c01e 	strh.w	ip, [r0, #30]
    6222:	f8a0 c018 	strh.w	ip, [r0, #24]
    6226:	e8bd 81f0 	ldmia.w	sp!, {r4, r5, r6, r7, r8, pc}

0000622a <attcProcReadRsp>:
    622a:	4770      	bx	lr

0000622c <attcProcWriteRsp>:
    622c:	2200      	movs	r2, #0
    622e:	811a      	strh	r2, [r3, #8]
    6230:	4770      	bx	lr

00006232 <attcProcRsp>:
    6232:	b5f0      	push	{r4, r5, r6, r7, lr}
    6234:	4616      	mov	r6, r2
    6236:	7c82      	ldrb	r2, [r0, #18]
    6238:	b085      	sub	sp, #20
    623a:	4604      	mov	r4, r0
    623c:	460f      	mov	r7, r1
    623e:	2a00      	cmp	r2, #0
    6240:	d049      	beq.n	62d6 <attcProcRsp+0xa4>
    6242:	7a33      	ldrb	r3, [r6, #8]
    6244:	105b      	asrs	r3, r3, #1
    6246:	b2d9      	uxtb	r1, r3
    6248:	f88d 1002 	strb.w	r1, [sp, #2]
    624c:	b10b      	cbz	r3, 6252 <attcProcRsp+0x20>
    624e:	4291      	cmp	r1, r2
    6250:	d141      	bne.n	62d6 <attcProcRsp+0xa4>
    6252:	f104 0024 	add.w	r0, r4, #36	; 0x24
    6256:	f7fe feb5 	bl	4fc4 <WsfTimerStop>
    625a:	f106 0309 	add.w	r3, r6, #9
    625e:	9301      	str	r3, [sp, #4]
    6260:	1e7b      	subs	r3, r7, #1
    6262:	f8ad 3008 	strh.w	r3, [sp, #8]
    6266:	8b23      	ldrh	r3, [r4, #24]
    6268:	f89d 2002 	ldrb.w	r2, [sp, #2]
    626c:	f8ad 300a 	strh.w	r3, [sp, #10]
    6270:	4b1a      	ldr	r3, [pc, #104]	; (62dc <attcProcRsp+0xaa>)
    6272:	2500      	movs	r5, #0
    6274:	f853 c022 	ldr.w	ip, [r3, r2, lsl #2]
    6278:	f88d 5003 	strb.w	r5, [sp, #3]
    627c:	466b      	mov	r3, sp
    627e:	4620      	mov	r0, r4
    6280:	4639      	mov	r1, r7
    6282:	4632      	mov	r2, r6
    6284:	47e0      	blx	ip
    6286:	7ce3      	ldrb	r3, [r4, #19]
    6288:	b113      	cbz	r3, 6290 <attcProcRsp+0x5e>
    628a:	f89d 3003 	ldrb.w	r3, [sp, #3]
    628e:	b123      	cbz	r3, 629a <attcProcRsp+0x68>
    6290:	74a5      	strb	r5, [r4, #18]
    6292:	f104 0010 	add.w	r0, r4, #16
    6296:	f7ff fd93 	bl	5dc0 <attcFreePkt>
    629a:	f89d 3002 	ldrb.w	r3, [sp, #2]
    629e:	2b01      	cmp	r3, #1
    62a0:	d009      	beq.n	62b6 <attcProcRsp+0x84>
    62a2:	7ce3      	ldrb	r3, [r4, #19]
    62a4:	f88d 300c 	strb.w	r3, [sp, #12]
    62a8:	8a23      	ldrh	r3, [r4, #16]
    62aa:	f8ad 3000 	strh.w	r3, [sp]
    62ae:	4b0c      	ldr	r3, [pc, #48]	; (62e0 <attcProcRsp+0xae>)
    62b0:	4668      	mov	r0, sp
    62b2:	6e9b      	ldr	r3, [r3, #104]	; 0x68
    62b4:	4798      	blx	r3
    62b6:	f894 3034 	ldrb.w	r3, [r4, #52]	; 0x34
    62ba:	b963      	cbnz	r3, 62d6 <attcProcRsp+0xa4>
    62bc:	6965      	ldr	r5, [r4, #20]
    62be:	b11d      	cbz	r5, 62c8 <attcProcRsp+0x96>
    62c0:	4620      	mov	r0, r4
    62c2:	f7ff fd2b 	bl	5d1c <attcSendReq>
    62c6:	e006      	b.n	62d6 <attcProcRsp+0xa4>
    62c8:	79a3      	ldrb	r3, [r4, #6]
    62ca:	b123      	cbz	r3, 62d6 <attcProcRsp+0xa4>
    62cc:	4620      	mov	r0, r4
    62ce:	1d21      	adds	r1, r4, #4
    62d0:	f7ff fd2c 	bl	5d2c <attcSetupReq>
    62d4:	71a5      	strb	r5, [r4, #6]
    62d6:	b005      	add	sp, #20
    62d8:	bdf0      	pop	{r4, r5, r6, r7, pc}
    62da:	bf00      	nop
    62dc:	0000f1d0 	.word	0x0000f1d0
    62e0:	10000994 	.word	0x10000994

000062e4 <attcProcInd>:
    62e4:	b51f      	push	{r0, r1, r2, r3, r4, lr}
    62e6:	7a13      	ldrb	r3, [r2, #8]
    62e8:	4604      	mov	r4, r0
    62ea:	105b      	asrs	r3, r3, #1
    62ec:	7a90      	ldrb	r0, [r2, #10]
    62ee:	f88d 3002 	strb.w	r3, [sp, #2]
    62f2:	320b      	adds	r2, #11
    62f4:	f812 3c02 	ldrb.w	r3, [r2, #-2]
    62f8:	9201      	str	r2, [sp, #4]
    62fa:	6822      	ldr	r2, [r4, #0]
    62fc:	eb03 2300 	add.w	r3, r3, r0, lsl #8
    6300:	7f12      	ldrb	r2, [r2, #28]
    6302:	f8ad 2000 	strh.w	r2, [sp]
    6306:	b29b      	uxth	r3, r3
    6308:	2200      	movs	r2, #0
    630a:	3903      	subs	r1, #3
    630c:	f8ad 300a 	strh.w	r3, [sp, #10]
    6310:	f8ad 1008 	strh.w	r1, [sp, #8]
    6314:	f88d 2003 	strb.w	r2, [sp, #3]
    6318:	f88d 200c 	strb.w	r2, [sp, #12]
    631c:	b11b      	cbz	r3, 6326 <attcProcInd+0x42>
    631e:	4b0f      	ldr	r3, [pc, #60]	; (635c <attcProcInd+0x78>)
    6320:	4668      	mov	r0, sp
    6322:	6e9b      	ldr	r3, [r3, #104]	; 0x68
    6324:	4798      	blx	r3
    6326:	f89d 3002 	ldrb.w	r3, [sp, #2]
    632a:	2b0e      	cmp	r3, #14
    632c:	d113      	bne.n	6356 <attcProcInd+0x72>
    632e:	f894 3034 	ldrb.w	r3, [r4, #52]	; 0x34
    6332:	b96b      	cbnz	r3, 6350 <attcProcInd+0x6c>
    6334:	2009      	movs	r0, #9
    6336:	f7fe fbc1 	bl	4abc <WsfMsgAlloc>
    633a:	4603      	mov	r3, r0
    633c:	b158      	cbz	r0, 6356 <attcProcInd+0x72>
    633e:	221e      	movs	r2, #30
    6340:	7202      	strb	r2, [r0, #8]
    6342:	6822      	ldr	r2, [r4, #0]
    6344:	2004      	movs	r0, #4
    6346:	8b11      	ldrh	r1, [r2, #24]
    6348:	2201      	movs	r2, #1
    634a:	f002 fd0b 	bl	8d64 <L2cDataReq>
    634e:	e002      	b.n	6356 <attcProcInd+0x72>
    6350:	2301      	movs	r3, #1
    6352:	f884 3035 	strb.w	r3, [r4, #53]	; 0x35
    6356:	b004      	add	sp, #16
    6358:	bd10      	pop	{r4, pc}
    635a:	bf00      	nop
    635c:	10000994 	.word	0x10000994

00006360 <attcSendMsg>:
    6360:	e92d 43f8 	stmdb	sp!, {r3, r4, r5, r6, r7, r8, r9, lr}
    6364:	4607      	mov	r7, r0
    6366:	4688      	mov	r8, r1
    6368:	4616      	mov	r6, r2
    636a:	461d      	mov	r5, r3
    636c:	f89d 9020 	ldrb.w	r9, [sp, #32]
    6370:	f7fe f98e 	bl	4690 <WsfTaskLock>
    6374:	4638      	mov	r0, r7
    6376:	f7ff fced 	bl	5d54 <attcCcbByConnId>
    637a:	b110      	cbz	r0, 6382 <attcSendMsg+0x22>
    637c:	6803      	ldr	r3, [r0, #0]
    637e:	8b5c      	ldrh	r4, [r3, #26]
    6380:	e000      	b.n	6384 <attcSendMsg+0x24>
    6382:	4604      	mov	r4, r0
    6384:	f7fe f98a 	bl	469c <WsfTaskUnlock>
    6388:	b334      	cbz	r4, 63d8 <attcSendMsg+0x78>
    638a:	b15d      	cbz	r5, 63a4 <attcSendMsg+0x44>
    638c:	2e0b      	cmp	r6, #11
    638e:	d001      	beq.n	6394 <attcSendMsg+0x34>
    6390:	882b      	ldrh	r3, [r5, #0]
    6392:	e005      	b.n	63a0 <attcSendMsg+0x40>
    6394:	f1b9 0f00 	cmp.w	r9, #0
    6398:	d104      	bne.n	63a4 <attcSendMsg+0x44>
    639a:	882b      	ldrh	r3, [r5, #0]
    639c:	3305      	adds	r3, #5
    639e:	b29b      	uxth	r3, r3
    63a0:	42a3      	cmp	r3, r4
    63a2:	d812      	bhi.n	63ca <attcSendMsg+0x6a>
    63a4:	200c      	movs	r0, #12
    63a6:	f7fe fb89 	bl	4abc <WsfMsgAlloc>
    63aa:	4601      	mov	r1, r0
    63ac:	b1a0      	cbz	r0, 63d8 <attcSendMsg+0x78>
    63ae:	4b0e      	ldr	r3, [pc, #56]	; (63e8 <attcSendMsg+0x88>)
    63b0:	8007      	strh	r7, [r0, #0]
    63b2:	f880 9003 	strb.w	r9, [r0, #3]
    63b6:	7086      	strb	r6, [r0, #2]
    63b8:	6045      	str	r5, [r0, #4]
    63ba:	f8a0 8008 	strh.w	r8, [r0, #8]
    63be:	f893 0070 	ldrb.w	r0, [r3, #112]	; 0x70
    63c2:	e8bd 43f8 	ldmia.w	sp!, {r3, r4, r5, r6, r7, r8, r9, lr}
    63c6:	f7fe bb9d 	b.w	4b04 <WsfMsgSend>
    63ca:	4638      	mov	r0, r7
    63cc:	4631      	mov	r1, r6
    63ce:	4642      	mov	r2, r8
    63d0:	2377      	movs	r3, #119	; 0x77
    63d2:	f7ff fd0e 	bl	5df2 <attcExecCallback>
    63d6:	e000      	b.n	63da <attcSendMsg+0x7a>
    63d8:	b125      	cbz	r5, 63e4 <attcSendMsg+0x84>
    63da:	4628      	mov	r0, r5
    63dc:	e8bd 43f8 	ldmia.w	sp!, {r3, r4, r5, r6, r7, r8, r9, lr}
    63e0:	f7fe bb84 	b.w	4aec <WsfMsgFree>
    63e4:	e8bd 83f8 	ldmia.w	sp!, {r3, r4, r5, r6, r7, r8, r9, pc}
    63e8:	10000994 	.word	0x10000994

000063ec <AttcFindInfoReq>:
    63ec:	b5f7      	push	{r0, r1, r2, r4, r5, r6, r7, lr}
    63ee:	4605      	mov	r5, r0
    63f0:	200d      	movs	r0, #13
    63f2:	461e      	mov	r6, r3
    63f4:	460c      	mov	r4, r1
    63f6:	4617      	mov	r7, r2
    63f8:	f7fe fb60 	bl	4abc <WsfMsgAlloc>
    63fc:	4603      	mov	r3, r0
    63fe:	b158      	cbz	r0, 6418 <AttcFindInfoReq+0x2c>
    6400:	2205      	movs	r2, #5
    6402:	8002      	strh	r2, [r0, #0]
    6404:	2204      	movs	r2, #4
    6406:	7202      	strb	r2, [r0, #8]
    6408:	8044      	strh	r4, [r0, #2]
    640a:	8087      	strh	r7, [r0, #4]
    640c:	4621      	mov	r1, r4
    640e:	9600      	str	r6, [sp, #0]
    6410:	4628      	mov	r0, r5
    6412:	2202      	movs	r2, #2
    6414:	f7ff ffa4 	bl	6360 <attcSendMsg>
    6418:	b003      	add	sp, #12
    641a:	bdf0      	pop	{r4, r5, r6, r7, pc}

0000641c <AttcReadReq>:
    641c:	b537      	push	{r0, r1, r2, r4, r5, lr}
    641e:	4605      	mov	r5, r0
    6420:	200b      	movs	r0, #11
    6422:	460c      	mov	r4, r1
    6424:	f7fe fb4a 	bl	4abc <WsfMsgAlloc>
    6428:	4603      	mov	r3, r0
    642a:	b168      	cbz	r0, 6448 <AttcReadReq+0x2c>
    642c:	2203      	movs	r2, #3
    642e:	8002      	strh	r2, [r0, #0]
    6430:	220a      	movs	r2, #10
    6432:	7202      	strb	r2, [r0, #8]
    6434:	0a22      	lsrs	r2, r4, #8
    6436:	7282      	strb	r2, [r0, #10]
    6438:	2200      	movs	r2, #0
    643a:	7244      	strb	r4, [r0, #9]
    643c:	4621      	mov	r1, r4
    643e:	9200      	str	r2, [sp, #0]
    6440:	4628      	mov	r0, r5
    6442:	2205      	movs	r2, #5
    6444:	f7ff ff8c 	bl	6360 <attcSendMsg>
    6448:	b003      	add	sp, #12
    644a:	bd30      	pop	{r4, r5, pc}

0000644c <AttcWriteReq>:
    644c:	e92d 41f3 	stmdb	sp!, {r0, r1, r4, r5, r6, r7, r8, lr}
    6450:	4607      	mov	r7, r0
    6452:	f102 000b 	add.w	r0, r2, #11
    6456:	b280      	uxth	r0, r0
    6458:	460d      	mov	r5, r1
    645a:	4616      	mov	r6, r2
    645c:	4698      	mov	r8, r3
    645e:	f7fe fb2d 	bl	4abc <WsfMsgAlloc>
    6462:	4604      	mov	r4, r0
    6464:	b198      	cbz	r0, 648e <AttcWriteReq+0x42>
    6466:	1cf3      	adds	r3, r6, #3
    6468:	8003      	strh	r3, [r0, #0]
    646a:	2312      	movs	r3, #18
    646c:	7203      	strb	r3, [r0, #8]
    646e:	0a2b      	lsrs	r3, r5, #8
    6470:	7283      	strb	r3, [r0, #10]
    6472:	7245      	strb	r5, [r0, #9]
    6474:	4641      	mov	r1, r8
    6476:	4632      	mov	r2, r6
    6478:	300b      	adds	r0, #11
    647a:	f003 fc01 	bl	9c80 <memcpy>
    647e:	2300      	movs	r3, #0
    6480:	9300      	str	r3, [sp, #0]
    6482:	4638      	mov	r0, r7
    6484:	4629      	mov	r1, r5
    6486:	2209      	movs	r2, #9
    6488:	4623      	mov	r3, r4
    648a:	f7ff ff69 	bl	6360 <attcSendMsg>
    648e:	b002      	add	sp, #8
    6490:	e8bd 81f0 	ldmia.w	sp!, {r4, r5, r6, r7, r8, pc}

00006494 <AttcCancelReq>:
    6494:	b507      	push	{r0, r1, r2, lr}
    6496:	2100      	movs	r1, #0
    6498:	9100      	str	r1, [sp, #0]
    649a:	2210      	movs	r2, #16
    649c:	460b      	mov	r3, r1
    649e:	f7ff ff5f 	bl	6360 <attcSendMsg>
    64a2:	b003      	add	sp, #12
    64a4:	f85d fb04 	ldr.w	pc, [sp], #4

000064a8 <AttcMtuReq>:
    64a8:	b537      	push	{r0, r1, r2, r4, r5, lr}
    64aa:	4605      	mov	r5, r0
    64ac:	200b      	movs	r0, #11
    64ae:	460c      	mov	r4, r1
    64b0:	f7fe fb04 	bl	4abc <WsfMsgAlloc>
    64b4:	4603      	mov	r3, r0
    64b6:	b160      	cbz	r0, 64d2 <AttcMtuReq+0x2a>
    64b8:	2203      	movs	r2, #3
    64ba:	8002      	strh	r2, [r0, #0]
    64bc:	7244      	strb	r4, [r0, #9]
    64be:	2202      	movs	r2, #2
    64c0:	0a24      	lsrs	r4, r4, #8
    64c2:	2100      	movs	r1, #0
    64c4:	7202      	strb	r2, [r0, #8]
    64c6:	7284      	strb	r4, [r0, #10]
    64c8:	2201      	movs	r2, #1
    64ca:	9100      	str	r1, [sp, #0]
    64cc:	4628      	mov	r0, r5
    64ce:	f7ff ff47 	bl	6360 <attcSendMsg>
    64d2:	b003      	add	sp, #12
    64d4:	bd30      	pop	{r4, r5, pc}
    64d6:	bf00      	nop

000064d8 <attcProcFindByTypeRsp>:
    64d8:	b5f0      	push	{r4, r5, r6, r7, lr}
    64da:	3108      	adds	r1, #8
    64dc:	8bc6      	ldrh	r6, [r0, #30]
    64de:	f102 0709 	add.w	r7, r2, #9
    64e2:	440a      	add	r2, r1
    64e4:	4297      	cmp	r7, r2
    64e6:	d220      	bcs.n	652a <attcProcFindByTypeRsp+0x52>
    64e8:	783c      	ldrb	r4, [r7, #0]
    64ea:	f897 e001 	ldrb.w	lr, [r7, #1]
    64ee:	78bd      	ldrb	r5, [r7, #2]
    64f0:	eb04 2e0e 	add.w	lr, r4, lr, lsl #8
    64f4:	78fc      	ldrb	r4, [r7, #3]
    64f6:	eb05 2504 	add.w	r5, r5, r4, lsl #8
    64fa:	fa1f fe8e 	uxth.w	lr, lr
    64fe:	b2ac      	uxth	r4, r5
    6500:	45a6      	cmp	lr, r4
    6502:	f107 0704 	add.w	r7, r7, #4
    6506:	d80e      	bhi.n	6526 <attcProcFindByTypeRsp+0x4e>
    6508:	45b6      	cmp	lr, r6
    650a:	d30c      	bcc.n	6526 <attcProcFindByTypeRsp+0x4e>
    650c:	8c01      	ldrh	r1, [r0, #32]
    650e:	4571      	cmp	r1, lr
    6510:	d309      	bcc.n	6526 <attcProcFindByTypeRsp+0x4e>
    6512:	b146      	cbz	r6, 6526 <attcProcFindByTypeRsp+0x4e>
    6514:	f64f 71ff 	movw	r1, #65535	; 0xffff
    6518:	428c      	cmp	r4, r1
    651a:	bf1a      	itte	ne
    651c:	3401      	addne	r4, #1
    651e:	b2a6      	uxthne	r6, r4
    6520:	2600      	moveq	r6, #0
    6522:	4297      	cmp	r7, r2
    6524:	d9de      	bls.n	64e4 <attcProcFindByTypeRsp+0xc>
    6526:	2273      	movs	r2, #115	; 0x73
    6528:	70da      	strb	r2, [r3, #3]
    652a:	78db      	ldrb	r3, [r3, #3]
    652c:	b95b      	cbnz	r3, 6546 <attcProcFindByTypeRsp+0x6e>
    652e:	7cc3      	ldrb	r3, [r0, #19]
    6530:	2b01      	cmp	r3, #1
    6532:	d108      	bne.n	6546 <attcProcFindByTypeRsp+0x6e>
    6534:	b116      	cbz	r6, 653c <attcProcFindByTypeRsp+0x64>
    6536:	8c03      	ldrh	r3, [r0, #32]
    6538:	42b3      	cmp	r3, r6
    653a:	d202      	bcs.n	6542 <attcProcFindByTypeRsp+0x6a>
    653c:	2300      	movs	r3, #0
    653e:	74c3      	strb	r3, [r0, #19]
    6540:	bdf0      	pop	{r4, r5, r6, r7, pc}
    6542:	83c6      	strh	r6, [r0, #30]
    6544:	8306      	strh	r6, [r0, #24]
    6546:	bdf0      	pop	{r4, r5, r6, r7, pc}

00006548 <attcProcReadLongRsp>:
    6548:	7cc2      	ldrb	r2, [r0, #19]
    654a:	2a01      	cmp	r2, #1
    654c:	d10a      	bne.n	6564 <attcProcReadLongRsp+0x1c>
    654e:	6802      	ldr	r2, [r0, #0]
    6550:	8b52      	ldrh	r2, [r2, #26]
    6552:	428a      	cmp	r2, r1
    6554:	d902      	bls.n	655c <attcProcReadLongRsp+0x14>
    6556:	2300      	movs	r3, #0
    6558:	74c3      	strb	r3, [r0, #19]
    655a:	4770      	bx	lr
    655c:	891a      	ldrh	r2, [r3, #8]
    655e:	8bc3      	ldrh	r3, [r0, #30]
    6560:	4413      	add	r3, r2
    6562:	83c3      	strh	r3, [r0, #30]
    6564:	4770      	bx	lr

00006566 <AttcFindByTypeValueReq>:
    6566:	e92d 4ff1 	stmdb	sp!, {r0, r4, r5, r6, r7, r8, r9, sl, fp, lr}
    656a:	f8bd 6028 	ldrh.w	r6, [sp, #40]	; 0x28
    656e:	f8dd a02c 	ldr.w	sl, [sp, #44]	; 0x2c
    6572:	f89d 9030 	ldrb.w	r9, [sp, #48]	; 0x30
    6576:	4680      	mov	r8, r0
    6578:	f106 000f 	add.w	r0, r6, #15
    657c:	b280      	uxth	r0, r0
    657e:	460f      	mov	r7, r1
    6580:	4693      	mov	fp, r2
    6582:	461d      	mov	r5, r3
    6584:	f7fe fa9a 	bl	4abc <WsfMsgAlloc>
    6588:	4604      	mov	r4, r0
    658a:	b1c8      	cbz	r0, 65c0 <AttcFindByTypeValueReq+0x5a>
    658c:	1df3      	adds	r3, r6, #7
    658e:	8003      	strh	r3, [r0, #0]
    6590:	7345      	strb	r5, [r0, #13]
    6592:	2306      	movs	r3, #6
    6594:	0a2d      	lsrs	r5, r5, #8
    6596:	8047      	strh	r7, [r0, #2]
    6598:	f8a0 b004 	strh.w	fp, [r0, #4]
    659c:	7203      	strb	r3, [r0, #8]
    659e:	7385      	strb	r5, [r0, #14]
    65a0:	4651      	mov	r1, sl
    65a2:	4632      	mov	r2, r6
    65a4:	300f      	adds	r0, #15
    65a6:	f003 fb6b 	bl	9c80 <memcpy>
    65aa:	4640      	mov	r0, r8
    65ac:	4639      	mov	r1, r7
    65ae:	2203      	movs	r2, #3
    65b0:	4623      	mov	r3, r4
    65b2:	f8cd 9028 	str.w	r9, [sp, #40]	; 0x28
    65b6:	b001      	add	sp, #4
    65b8:	e8bd 4ff0 	ldmia.w	sp!, {r4, r5, r6, r7, r8, r9, sl, fp, lr}
    65bc:	f7ff bed0 	b.w	6360 <attcSendMsg>
    65c0:	b001      	add	sp, #4
    65c2:	e8bd 8ff0 	ldmia.w	sp!, {r4, r5, r6, r7, r8, r9, sl, fp, pc}

000065c6 <AttcReadByTypeReq>:
    65c6:	e92d 4ff1 	stmdb	sp!, {r0, r4, r5, r6, r7, r8, r9, sl, fp, lr}
    65ca:	b29d      	uxth	r5, r3
    65cc:	4680      	mov	r8, r0
    65ce:	f105 000d 	add.w	r0, r5, #13
    65d2:	460e      	mov	r6, r1
    65d4:	4693      	mov	fp, r2
    65d6:	461f      	mov	r7, r3
    65d8:	f8dd a028 	ldr.w	sl, [sp, #40]	; 0x28
    65dc:	f89d 902c 	ldrb.w	r9, [sp, #44]	; 0x2c
    65e0:	f7fe fa6c 	bl	4abc <WsfMsgAlloc>
    65e4:	4604      	mov	r4, r0
    65e6:	b1b0      	cbz	r0, 6616 <AttcReadByTypeReq+0x50>
    65e8:	2308      	movs	r3, #8
    65ea:	3505      	adds	r5, #5
    65ec:	8005      	strh	r5, [r0, #0]
    65ee:	8046      	strh	r6, [r0, #2]
    65f0:	f8a0 b004 	strh.w	fp, [r0, #4]
    65f4:	7203      	strb	r3, [r0, #8]
    65f6:	4651      	mov	r1, sl
    65f8:	463a      	mov	r2, r7
    65fa:	300d      	adds	r0, #13
    65fc:	f003 fb40 	bl	9c80 <memcpy>
    6600:	4640      	mov	r0, r8
    6602:	4631      	mov	r1, r6
    6604:	2204      	movs	r2, #4
    6606:	4623      	mov	r3, r4
    6608:	f8cd 9028 	str.w	r9, [sp, #40]	; 0x28
    660c:	b001      	add	sp, #4
    660e:	e8bd 4ff0 	ldmia.w	sp!, {r4, r5, r6, r7, r8, r9, sl, fp, lr}
    6612:	f7ff bea5 	b.w	6360 <attcSendMsg>
    6616:	b001      	add	sp, #4
    6618:	e8bd 8ff0 	ldmia.w	sp!, {r4, r5, r6, r7, r8, r9, sl, fp, pc}

0000661c <AttcReadLongReq>:
    661c:	b5f7      	push	{r0, r1, r2, r4, r5, r6, r7, lr}
    661e:	4605      	mov	r5, r0
    6620:	200d      	movs	r0, #13
    6622:	461e      	mov	r6, r3
    6624:	460c      	mov	r4, r1
    6626:	4617      	mov	r7, r2
    6628:	f7fe fa48 	bl	4abc <WsfMsgAlloc>
    662c:	4603      	mov	r3, r0
    662e:	b168      	cbz	r0, 664c <AttcReadLongReq+0x30>
    6630:	2205      	movs	r2, #5
    6632:	8002      	strh	r2, [r0, #0]
    6634:	220c      	movs	r2, #12
    6636:	7202      	strb	r2, [r0, #8]
    6638:	0a22      	lsrs	r2, r4, #8
    663a:	7282      	strb	r2, [r0, #10]
    663c:	8047      	strh	r7, [r0, #2]
    663e:	7244      	strb	r4, [r0, #9]
    6640:	4621      	mov	r1, r4
    6642:	9600      	str	r6, [sp, #0]
    6644:	4628      	mov	r0, r5
    6646:	2206      	movs	r2, #6
    6648:	f7ff fe8a 	bl	6360 <attcSendMsg>
    664c:	b003      	add	sp, #12
    664e:	bdf0      	pop	{r4, r5, r6, r7, pc}

00006650 <AttcReadMultipleReq>:
    6650:	b5f7      	push	{r0, r1, r2, r4, r5, r6, r7, lr}
    6652:	004d      	lsls	r5, r1, #1
    6654:	4606      	mov	r6, r0
    6656:	f105 0009 	add.w	r0, r5, #9
    665a:	460c      	mov	r4, r1
    665c:	4617      	mov	r7, r2
    665e:	f7fe fa2d 	bl	4abc <WsfMsgAlloc>
    6662:	4603      	mov	r3, r0
    6664:	b1d0      	cbz	r0, 669c <AttcReadMultipleReq+0x4c>
    6666:	3501      	adds	r5, #1
    6668:	8005      	strh	r5, [r0, #0]
    666a:	220e      	movs	r2, #14
    666c:	8839      	ldrh	r1, [r7, #0]
    666e:	7202      	strb	r2, [r0, #8]
    6670:	3009      	adds	r0, #9
    6672:	3c01      	subs	r4, #1
    6674:	b2e4      	uxtb	r4, r4
    6676:	2cff      	cmp	r4, #255	; 0xff
    6678:	f100 0002 	add.w	r0, r0, #2
    667c:	d008      	beq.n	6690 <AttcReadMultipleReq+0x40>
    667e:	883a      	ldrh	r2, [r7, #0]
    6680:	f800 2c02 	strb.w	r2, [r0, #-2]
    6684:	f837 5b02 	ldrh.w	r5, [r7], #2
    6688:	0a2d      	lsrs	r5, r5, #8
    668a:	f800 5c01 	strb.w	r5, [r0, #-1]
    668e:	e7f0      	b.n	6672 <AttcReadMultipleReq+0x22>
    6690:	2200      	movs	r2, #0
    6692:	9200      	str	r2, [sp, #0]
    6694:	4630      	mov	r0, r6
    6696:	2207      	movs	r2, #7
    6698:	f7ff fe62 	bl	6360 <attcSendMsg>
    669c:	b003      	add	sp, #12
    669e:	bdf0      	pop	{r4, r5, r6, r7, pc}

000066a0 <AttcReadByGroupTypeReq>:
    66a0:	e92d 4ff1 	stmdb	sp!, {r0, r4, r5, r6, r7, r8, r9, sl, fp, lr}
    66a4:	b29d      	uxth	r5, r3
    66a6:	4680      	mov	r8, r0
    66a8:	f105 000d 	add.w	r0, r5, #13
    66ac:	460e      	mov	r6, r1
    66ae:	4693      	mov	fp, r2
    66b0:	461f      	mov	r7, r3
    66b2:	f8dd a028 	ldr.w	sl, [sp, #40]	; 0x28
    66b6:	f89d 902c 	ldrb.w	r9, [sp, #44]	; 0x2c
    66ba:	f7fe f9ff 	bl	4abc <WsfMsgAlloc>
    66be:	4604      	mov	r4, r0
    66c0:	b1b0      	cbz	r0, 66f0 <AttcReadByGroupTypeReq+0x50>
    66c2:	2310      	movs	r3, #16
    66c4:	3505      	adds	r5, #5
    66c6:	8005      	strh	r5, [r0, #0]
    66c8:	8046      	strh	r6, [r0, #2]
    66ca:	f8a0 b004 	strh.w	fp, [r0, #4]
    66ce:	7203      	strb	r3, [r0, #8]
    66d0:	4651      	mov	r1, sl
    66d2:	463a      	mov	r2, r7
    66d4:	300d      	adds	r0, #13
    66d6:	f003 fad3 	bl	9c80 <memcpy>
    66da:	4640      	mov	r0, r8
    66dc:	4631      	mov	r1, r6
    66de:	2208      	movs	r2, #8
    66e0:	4623      	mov	r3, r4
    66e2:	f8cd 9028 	str.w	r9, [sp, #40]	; 0x28
    66e6:	b001      	add	sp, #4
    66e8:	e8bd 4ff0 	ldmia.w	sp!, {r4, r5, r6, r7, r8, r9, sl, fp, lr}
    66ec:	f7ff be38 	b.w	6360 <attcSendMsg>
    66f0:	b001      	add	sp, #4
    66f2:	e8bd 8ff0 	ldmia.w	sp!, {r4, r5, r6, r7, r8, r9, sl, fp, pc}

000066f6 <attcProcPrepWriteRsp>:
    66f6:	7cc2      	ldrb	r2, [r0, #19]
    66f8:	2a01      	cmp	r2, #1
    66fa:	d102      	bne.n	6702 <attcProcPrepWriteRsp+0xc>
    66fc:	8b82      	ldrh	r2, [r0, #28]
    66fe:	b902      	cbnz	r2, 6702 <attcProcPrepWriteRsp+0xc>
    6700:	74c2      	strb	r2, [r0, #19]
    6702:	2200      	movs	r2, #0
    6704:	811a      	strh	r2, [r3, #8]
    6706:	4770      	bx	lr

00006708 <AttcWriteCmd>:
    6708:	e92d 41f3 	stmdb	sp!, {r0, r1, r4, r5, r6, r7, r8, lr}
    670c:	4607      	mov	r7, r0
    670e:	f102 000b 	add.w	r0, r2, #11
    6712:	b280      	uxth	r0, r0
    6714:	460d      	mov	r5, r1
    6716:	4616      	mov	r6, r2
    6718:	4698      	mov	r8, r3
    671a:	f7fe f9cf 	bl	4abc <WsfMsgAlloc>
    671e:	4604      	mov	r4, r0
    6720:	b198      	cbz	r0, 674a <AttcWriteCmd+0x42>
    6722:	1cf3      	adds	r3, r6, #3
    6724:	8003      	strh	r3, [r0, #0]
    6726:	2352      	movs	r3, #82	; 0x52
    6728:	7203      	strb	r3, [r0, #8]
    672a:	0a2b      	lsrs	r3, r5, #8
    672c:	7283      	strb	r3, [r0, #10]
    672e:	7245      	strb	r5, [r0, #9]
    6730:	4641      	mov	r1, r8
    6732:	4632      	mov	r2, r6
    6734:	300b      	adds	r0, #11
    6736:	f003 faa3 	bl	9c80 <memcpy>
    673a:	2300      	movs	r3, #0
    673c:	9300      	str	r3, [sp, #0]
    673e:	4638      	mov	r0, r7
    6740:	4629      	mov	r1, r5
    6742:	220a      	movs	r2, #10
    6744:	4623      	mov	r3, r4
    6746:	f7ff fe0b 	bl	6360 <attcSendMsg>
    674a:	b002      	add	sp, #8
    674c:	e8bd 81f0 	ldmia.w	sp!, {r4, r5, r6, r7, r8, pc}

00006750 <AttcPrepareWriteReq>:
    6750:	e92d 4ff1 	stmdb	sp!, {r0, r4, r5, r6, r7, r8, r9, sl, fp, lr}
    6754:	f89d 6030 	ldrb.w	r6, [sp, #48]	; 0x30
    6758:	f8dd 9028 	ldr.w	r9, [sp, #40]	; 0x28
    675c:	f89d a02c 	ldrb.w	sl, [sp, #44]	; 0x2c
    6760:	4680      	mov	r8, r0
    6762:	460d      	mov	r5, r1
    6764:	4693      	mov	fp, r2
    6766:	461f      	mov	r7, r3
    6768:	b116      	cbz	r6, 6770 <AttcPrepareWriteReq+0x20>
    676a:	f1ba 0f00 	cmp.w	sl, #0
    676e:	d103      	bne.n	6778 <AttcPrepareWriteReq+0x28>
    6770:	f107 000d 	add.w	r0, r7, #13
    6774:	b280      	uxth	r0, r0
    6776:	e000      	b.n	677a <AttcPrepareWriteReq+0x2a>
    6778:	200d      	movs	r0, #13
    677a:	f7fe f99f 	bl	4abc <WsfMsgAlloc>
    677e:	4604      	mov	r4, r0
    6780:	b300      	cbz	r0, 67c4 <AttcPrepareWriteReq+0x74>
    6782:	2316      	movs	r3, #22
    6784:	7203      	strb	r3, [r0, #8]
    6786:	0a2b      	lsrs	r3, r5, #8
    6788:	8007      	strh	r7, [r0, #0]
    678a:	f8a0 b002 	strh.w	fp, [r0, #2]
    678e:	7245      	strb	r5, [r0, #9]
    6790:	7283      	strb	r3, [r0, #10]
    6792:	b12e      	cbz	r6, 67a0 <AttcPrepareWriteReq+0x50>
    6794:	f1ba 0f00 	cmp.w	sl, #0
    6798:	d002      	beq.n	67a0 <AttcPrepareWriteReq+0x50>
    679a:	f8c0 9004 	str.w	r9, [r0, #4]
    679e:	e007      	b.n	67b0 <AttcPrepareWriteReq+0x60>
    67a0:	f104 030d 	add.w	r3, r4, #13
    67a4:	4618      	mov	r0, r3
    67a6:	4649      	mov	r1, r9
    67a8:	463a      	mov	r2, r7
    67aa:	f003 fa69 	bl	9c80 <memcpy>
    67ae:	6060      	str	r0, [r4, #4]
    67b0:	4640      	mov	r0, r8
    67b2:	4629      	mov	r1, r5
    67b4:	220b      	movs	r2, #11
    67b6:	4623      	mov	r3, r4
    67b8:	960a      	str	r6, [sp, #40]	; 0x28
    67ba:	b001      	add	sp, #4
    67bc:	e8bd 4ff0 	ldmia.w	sp!, {r4, r5, r6, r7, r8, r9, sl, fp, lr}
    67c0:	f7ff bdce 	b.w	6360 <attcSendMsg>
    67c4:	b001      	add	sp, #4
    67c6:	e8bd 8ff0 	ldmia.w	sp!, {r4, r5, r6, r7, r8, r9, sl, fp, pc}

000067ca <AttcExecuteWriteReq>:
    67ca:	b537      	push	{r0, r1, r2, r4, r5, lr}
    67cc:	4604      	mov	r4, r0
    67ce:	200a      	movs	r0, #10
    67d0:	460d      	mov	r5, r1
    67d2:	f7fe f973 	bl	4abc <WsfMsgAlloc>
    67d6:	4603      	mov	r3, r0
    67d8:	b150      	cbz	r0, 67f0 <AttcExecuteWriteReq+0x26>
    67da:	2202      	movs	r2, #2
    67dc:	8002      	strh	r2, [r0, #0]
    67de:	2100      	movs	r1, #0
    67e0:	2218      	movs	r2, #24
    67e2:	7202      	strb	r2, [r0, #8]
    67e4:	7245      	strb	r5, [r0, #9]
    67e6:	220c      	movs	r2, #12
    67e8:	9100      	str	r1, [sp, #0]
    67ea:	4620      	mov	r0, r4
    67ec:	f7ff fdb8 	bl	6360 <attcSendMsg>
    67f0:	b003      	add	sp, #12
    67f2:	bd30      	pop	{r4, r5, pc}

000067f4 <attsCccMainCback>:
    67f4:	b5f0      	push	{r4, r5, r6, r7, lr}
    67f6:	2905      	cmp	r1, #5
    67f8:	b085      	sub	sp, #20
    67fa:	4930      	ldr	r1, [pc, #192]	; (68bc <attsCccMainCback+0xc8>)
    67fc:	d11e      	bne.n	683c <attsCccMainCback+0x48>
    67fe:	f8d1 e00c 	ldr.w	lr, [r1, #12]
    6802:	7d0f      	ldrb	r7, [r1, #20]
    6804:	2500      	movs	r5, #0
    6806:	b2ec      	uxtb	r4, r5
    6808:	42bc      	cmp	r4, r7
    680a:	d207      	bcs.n	681c <attsCccMainCback+0x28>
    680c:	3501      	adds	r5, #1
    680e:	2606      	movs	r6, #6
    6810:	fb06 e605 	mla	r6, r6, r5, lr
    6814:	f836 6c06 	ldrh.w	r6, [r6, #-6]
    6818:	4296      	cmp	r6, r2
    681a:	d1f4      	bne.n	6806 <attsCccMainCback+0x12>
    681c:	42bc      	cmp	r4, r7
    681e:	d044      	beq.n	68aa <attsCccMainCback+0xb6>
    6820:	3801      	subs	r0, #1
    6822:	f851 2020 	ldr.w	r2, [r1, r0, lsl #2]
    6826:	2a00      	cmp	r2, #0
    6828:	d043      	beq.n	68b2 <attsCccMainCback+0xbe>
    682a:	b224      	sxth	r4, r4
    682c:	f832 1014 	ldrh.w	r1, [r2, r4, lsl #1]
    6830:	7019      	strb	r1, [r3, #0]
    6832:	f832 2014 	ldrh.w	r2, [r2, r4, lsl #1]
    6836:	0a12      	lsrs	r2, r2, #8
    6838:	705a      	strb	r2, [r3, #1]
    683a:	e03c      	b.n	68b6 <attsCccMainCback+0xc2>
    683c:	68cd      	ldr	r5, [r1, #12]
    683e:	7d0f      	ldrb	r7, [r1, #20]
    6840:	2600      	movs	r6, #0
    6842:	b2f4      	uxtb	r4, r6
    6844:	42bc      	cmp	r4, r7
    6846:	d205      	bcs.n	6854 <attsCccMainCback+0x60>
    6848:	f8b5 e000 	ldrh.w	lr, [r5]
    684c:	4596      	cmp	lr, r2
    684e:	f106 0601 	add.w	r6, r6, #1
    6852:	d102      	bne.n	685a <attsCccMainCback+0x66>
    6854:	42bc      	cmp	r4, r7
    6856:	d102      	bne.n	685e <attsCccMainCback+0x6a>
    6858:	e027      	b.n	68aa <attsCccMainCback+0xb6>
    685a:	3506      	adds	r5, #6
    685c:	e7f1      	b.n	6842 <attsCccMainCback+0x4e>
    685e:	785e      	ldrb	r6, [r3, #1]
    6860:	781b      	ldrb	r3, [r3, #0]
    6862:	eb03 2306 	add.w	r3, r3, r6, lsl #8
    6866:	b29b      	uxth	r3, r3
    6868:	2b02      	cmp	r3, #2
    686a:	d820      	bhi.n	68ae <attsCccMainCback+0xba>
    686c:	b113      	cbz	r3, 6874 <attsCccMainCback+0x80>
    686e:	886d      	ldrh	r5, [r5, #2]
    6870:	422b      	tst	r3, r5
    6872:	d01c      	beq.n	68ae <attsCccMainCback+0xba>
    6874:	1e45      	subs	r5, r0, #1
    6876:	f851 1025 	ldr.w	r1, [r1, r5, lsl #2]
    687a:	b1d1      	cbz	r1, 68b2 <attsCccMainCback+0xbe>
    687c:	b225      	sxth	r5, r4
    687e:	f831 6015 	ldrh.w	r6, [r1, r5, lsl #1]
    6882:	f821 3015 	strh.w	r3, [r1, r5, lsl #1]
    6886:	429e      	cmp	r6, r3
    6888:	d015      	beq.n	68b6 <attsCccMainCback+0xc2>
    688a:	f8ad 300a 	strh.w	r3, [sp, #10]
    688e:	4b0b      	ldr	r3, [pc, #44]	; (68bc <attsCccMainCback+0xc8>)
    6890:	f8ad 0004 	strh.w	r0, [sp, #4]
    6894:	2110      	movs	r1, #16
    6896:	f88d 1006 	strb.w	r1, [sp, #6]
    689a:	f88d 400c 	strb.w	r4, [sp, #12]
    689e:	f8ad 2008 	strh.w	r2, [sp, #8]
    68a2:	691b      	ldr	r3, [r3, #16]
    68a4:	a801      	add	r0, sp, #4
    68a6:	4798      	blx	r3
    68a8:	e005      	b.n	68b6 <attsCccMainCback+0xc2>
    68aa:	200a      	movs	r0, #10
    68ac:	e004      	b.n	68b8 <attsCccMainCback+0xc4>
    68ae:	2080      	movs	r0, #128	; 0x80
    68b0:	e002      	b.n	68b8 <attsCccMainCback+0xc4>
    68b2:	2011      	movs	r0, #17
    68b4:	e000      	b.n	68b8 <attsCccMainCback+0xc4>
    68b6:	2000      	movs	r0, #0
    68b8:	b005      	add	sp, #20
    68ba:	bdf0      	pop	{r4, r5, r6, r7, pc}
    68bc:	10000ab4 	.word	0x10000ab4

000068c0 <AttsCccRegister>:
    68c0:	4b03      	ldr	r3, [pc, #12]	; (68d0 <AttsCccRegister+0x10>)
    68c2:	7518      	strb	r0, [r3, #20]
    68c4:	611a      	str	r2, [r3, #16]
    68c6:	60d9      	str	r1, [r3, #12]
    68c8:	4b02      	ldr	r3, [pc, #8]	; (68d4 <AttsCccRegister+0x14>)
    68ca:	4a03      	ldr	r2, [pc, #12]	; (68d8 <AttsCccRegister+0x18>)
    68cc:	615a      	str	r2, [r3, #20]
    68ce:	4770      	bx	lr
    68d0:	10000ab4 	.word	0x10000ab4
    68d4:	10000b14 	.word	0x10000b14
    68d8:	000067f5 	.word	0x000067f5

000068dc <AttsCccInitTable>:
    68dc:	e92d 41ff 	stmdb	sp!, {r0, r1, r2, r3, r4, r5, r6, r7, r8, lr}
    68e0:	1e46      	subs	r6, r0, #1
    68e2:	4d1d      	ldr	r5, [pc, #116]	; (6958 <AttsCccInitTable+0x7c>)
    68e4:	f855 3026 	ldr.w	r3, [r5, r6, lsl #2]
    68e8:	4607      	mov	r7, r0
    68ea:	460c      	mov	r4, r1
    68ec:	b92b      	cbnz	r3, 68fa <AttsCccInitTable+0x1e>
    68ee:	7d28      	ldrb	r0, [r5, #20]
    68f0:	0040      	lsls	r0, r0, #1
    68f2:	f7fe f86f 	bl	49d4 <WsfBufAlloc>
    68f6:	f845 0026 	str.w	r0, [r5, r6, lsl #2]
    68fa:	f855 8026 	ldr.w	r8, [r5, r6, lsl #2]
    68fe:	f1b8 0f00 	cmp.w	r8, #0
    6902:	d025      	beq.n	6950 <AttsCccInitTable+0x74>
    6904:	b1ec      	cbz	r4, 6942 <AttsCccInitTable+0x66>
    6906:	3c02      	subs	r4, #2
    6908:	2600      	movs	r6, #0
    690a:	7d2a      	ldrb	r2, [r5, #20]
    690c:	b2f3      	uxtb	r3, r6
    690e:	429a      	cmp	r2, r3
    6910:	d91e      	bls.n	6950 <AttsCccInitTable+0x74>
    6912:	f834 2f02 	ldrh.w	r2, [r4, #2]!
    6916:	f828 2016 	strh.w	r2, [r8, r6, lsl #1]
    691a:	8822      	ldrh	r2, [r4, #0]
    691c:	b17a      	cbz	r2, 693e <AttsCccInitTable+0x62>
    691e:	f88d 300c 	strb.w	r3, [sp, #12]
    6922:	2300      	movs	r3, #0
    6924:	f8ad 3008 	strh.w	r3, [sp, #8]
    6928:	4b0b      	ldr	r3, [pc, #44]	; (6958 <AttsCccInitTable+0x7c>)
    692a:	f8ad 7004 	strh.w	r7, [sp, #4]
    692e:	2110      	movs	r1, #16
    6930:	f88d 1006 	strb.w	r1, [sp, #6]
    6934:	f8ad 200a 	strh.w	r2, [sp, #10]
    6938:	691b      	ldr	r3, [r3, #16]
    693a:	a801      	add	r0, sp, #4
    693c:	4798      	blx	r3
    693e:	3601      	adds	r6, #1
    6940:	e7e3      	b.n	690a <AttsCccInitTable+0x2e>
    6942:	4b05      	ldr	r3, [pc, #20]	; (6958 <AttsCccInitTable+0x7c>)
    6944:	7d1a      	ldrb	r2, [r3, #20]
    6946:	4640      	mov	r0, r8
    6948:	4621      	mov	r1, r4
    694a:	0052      	lsls	r2, r2, #1
    694c:	f003 fa92 	bl	9e74 <memset>
    6950:	b004      	add	sp, #16
    6952:	e8bd 81f0 	ldmia.w	sp!, {r4, r5, r6, r7, r8, pc}
    6956:	bf00      	nop
    6958:	10000ab4 	.word	0x10000ab4

0000695c <AttsCccClearTable>:
    695c:	b538      	push	{r3, r4, r5, lr}
    695e:	1e45      	subs	r5, r0, #1
    6960:	4c04      	ldr	r4, [pc, #16]	; (6974 <AttsCccClearTable+0x18>)
    6962:	f854 0025 	ldr.w	r0, [r4, r5, lsl #2]
    6966:	b120      	cbz	r0, 6972 <AttsCccClearTable+0x16>
    6968:	f7fe f86e 	bl	4a48 <WsfBufFree>
    696c:	2300      	movs	r3, #0
    696e:	f844 3025 	str.w	r3, [r4, r5, lsl #2]
    6972:	bd38      	pop	{r3, r4, r5, pc}
    6974:	10000ab4 	.word	0x10000ab4

00006978 <AttsCccGet>:
    6978:	3801      	subs	r0, #1
    697a:	4b03      	ldr	r3, [pc, #12]	; (6988 <AttsCccGet+0x10>)
    697c:	f853 0020 	ldr.w	r0, [r3, r0, lsl #2]
    6980:	b108      	cbz	r0, 6986 <AttsCccGet+0xe>
    6982:	f830 0011 	ldrh.w	r0, [r0, r1, lsl #1]
    6986:	4770      	bx	lr
    6988:	10000ab4 	.word	0x10000ab4

0000698c <AttsCccSet>:
    698c:	3801      	subs	r0, #1
    698e:	4b03      	ldr	r3, [pc, #12]	; (699c <AttsCccSet+0x10>)
    6990:	f853 3020 	ldr.w	r3, [r3, r0, lsl #2]
    6994:	b10b      	cbz	r3, 699a <AttsCccSet+0xe>
    6996:	f823 2011 	strh.w	r2, [r3, r1, lsl #1]
    699a:	4770      	bx	lr
    699c:	10000ab4 	.word	0x10000ab4

000069a0 <AttsCccEnabled>:
    69a0:	b538      	push	{r3, r4, r5, lr}
    69a2:	460c      	mov	r4, r1
    69a4:	4605      	mov	r5, r0
    69a6:	f001 fd87 	bl	84b8 <DmConnSecLevel>
    69aa:	4b08      	ldr	r3, [pc, #32]	; (69cc <AttsCccEnabled+0x2c>)
    69ac:	68db      	ldr	r3, [r3, #12]
    69ae:	eb04 0244 	add.w	r2, r4, r4, lsl #1
    69b2:	eb03 0342 	add.w	r3, r3, r2, lsl #1
    69b6:	791b      	ldrb	r3, [r3, #4]
    69b8:	4283      	cmp	r3, r0
    69ba:	d805      	bhi.n	69c8 <AttsCccEnabled+0x28>
    69bc:	4628      	mov	r0, r5
    69be:	4621      	mov	r1, r4
    69c0:	e8bd 4038 	ldmia.w	sp!, {r3, r4, r5, lr}
    69c4:	f7ff bfd8 	b.w	6978 <AttsCccGet>
    69c8:	2000      	movs	r0, #0
    69ca:	bd38      	pop	{r3, r4, r5, pc}
    69cc:	10000ab4 	.word	0x10000ab4

000069d0 <attsExecCallback>:
    69d0:	b51f      	push	{r0, r1, r2, r3, r4, lr}
    69d2:	230f      	movs	r3, #15
    69d4:	f88d 3002 	strb.w	r3, [sp, #2]
    69d8:	2300      	movs	r3, #0
    69da:	f8ad 3008 	strh.w	r3, [sp, #8]
    69de:	f88d 300c 	strb.w	r3, [sp, #12]
    69e2:	4b06      	ldr	r3, [pc, #24]	; (69fc <attsExecCallback+0x2c>)
    69e4:	f8ad 0000 	strh.w	r0, [sp]
    69e8:	f88d 2003 	strb.w	r2, [sp, #3]
    69ec:	f8ad 100a 	strh.w	r1, [sp, #10]
    69f0:	6e9b      	ldr	r3, [r3, #104]	; 0x68
    69f2:	4668      	mov	r0, sp
    69f4:	4798      	blx	r3
    69f6:	b005      	add	sp, #20
    69f8:	f85d fb04 	ldr.w	pc, [sp], #4
    69fc:	10000994 	.word	0x10000994

00006a00 <attsIndCcbByConnId>:
    6a00:	b510      	push	{r4, lr}
    6a02:	4604      	mov	r4, r0
    6a04:	f001 fd28 	bl	8458 <DmConnInUse>
    6a08:	b120      	cbz	r0, 6a14 <attsIndCcbByConnId+0x14>
    6a0a:	4803      	ldr	r0, [pc, #12]	; (6a18 <attsIndCcbByConnId+0x18>)
    6a0c:	3c01      	subs	r4, #1
    6a0e:	2318      	movs	r3, #24
    6a10:	fb03 0004 	mla	r0, r3, r4, r0
    6a14:	bd10      	pop	{r4, pc}
    6a16:	bf00      	nop
    6a18:	10000acc 	.word	0x10000acc

00006a1c <attsIndCtrlCback>:
    6a1c:	b538      	push	{r3, r4, r5, lr}
    6a1e:	4605      	mov	r5, r0
    6a20:	7800      	ldrb	r0, [r0, #0]
    6a22:	f7ff ffed 	bl	6a00 <attsIndCcbByConnId>
    6a26:	4604      	mov	r4, r0
    6a28:	b138      	cbz	r0, 6a3a <attsIndCtrlCback+0x1e>
    6a2a:	8ac1      	ldrh	r1, [r0, #22]
    6a2c:	b129      	cbz	r1, 6a3a <attsIndCtrlCback+0x1e>
    6a2e:	7828      	ldrb	r0, [r5, #0]
    6a30:	2200      	movs	r2, #0
    6a32:	f7ff ffcd 	bl	69d0 <attsExecCallback>
    6a36:	2300      	movs	r3, #0
    6a38:	82e3      	strh	r3, [r4, #22]
    6a3a:	bd38      	pop	{r3, r4, r5, pc}

00006a3c <attsIndMsgCback>:
    6a3c:	b570      	push	{r4, r5, r6, lr}
    6a3e:	4605      	mov	r5, r0
    6a40:	7800      	ldrb	r0, [r0, #0]
    6a42:	f7ff ffdd 	bl	6a00 <attsIndCcbByConnId>
    6a46:	78ab      	ldrb	r3, [r5, #2]
    6a48:	4604      	mov	r4, r0
    6a4a:	b910      	cbnz	r0, 6a52 <attsIndMsgCback+0x16>
    6a4c:	2b21      	cmp	r3, #33	; 0x21
    6a4e:	d13d      	bne.n	6acc <attsIndMsgCback+0x90>
    6a50:	e009      	b.n	6a66 <attsIndMsgCback+0x2a>
    6a52:	2b21      	cmp	r3, #33	; 0x21
    6a54:	d12e      	bne.n	6ab4 <attsIndMsgCback+0x78>
    6a56:	8ac2      	ldrh	r2, [r0, #22]
    6a58:	686b      	ldr	r3, [r5, #4]
    6a5a:	b14a      	cbz	r2, 6a70 <attsIndMsgCback+0x34>
    6a5c:	7828      	ldrb	r0, [r5, #0]
    6a5e:	8859      	ldrh	r1, [r3, #2]
    6a60:	2272      	movs	r2, #114	; 0x72
    6a62:	f7ff ffb5 	bl	69d0 <attsExecCallback>
    6a66:	6868      	ldr	r0, [r5, #4]
    6a68:	e8bd 4070 	ldmia.w	sp!, {r4, r5, r6, lr}
    6a6c:	f7fe b83e 	b.w	4aec <WsfMsgFree>
    6a70:	885a      	ldrh	r2, [r3, #2]
    6a72:	882e      	ldrh	r6, [r5, #0]
    6a74:	7a1d      	ldrb	r5, [r3, #8]
    6a76:	82c2      	strh	r2, [r0, #22]
    6a78:	6902      	ldr	r2, [r0, #16]
    6a7a:	2004      	movs	r0, #4
    6a7c:	8b11      	ldrh	r1, [r2, #24]
    6a7e:	881a      	ldrh	r2, [r3, #0]
    6a80:	f002 f970 	bl	8d64 <L2cDataReq>
    6a84:	2d1d      	cmp	r5, #29
    6a86:	d10b      	bne.n	6aa0 <attsIndMsgCback+0x64>
    6a88:	8ae3      	ldrh	r3, [r4, #22]
    6a8a:	82a3      	strh	r3, [r4, #20]
    6a8c:	2322      	movs	r3, #34	; 0x22
    6a8e:	7323      	strb	r3, [r4, #12]
    6a90:	4b0f      	ldr	r3, [pc, #60]	; (6ad0 <attsIndMsgCback+0x94>)
    6a92:	681b      	ldr	r3, [r3, #0]
    6a94:	4620      	mov	r0, r4
    6a96:	7999      	ldrb	r1, [r3, #6]
    6a98:	e8bd 4070 	ldmia.w	sp!, {r4, r5, r6, lr}
    6a9c:	f7fe ba6e 	b.w	4f7c <WsfTimerStartSec>
    6aa0:	6923      	ldr	r3, [r4, #16]
    6aa2:	7f9d      	ldrb	r5, [r3, #30]
    6aa4:	b995      	cbnz	r5, 6acc <attsIndMsgCback+0x90>
    6aa6:	b2f0      	uxtb	r0, r6
    6aa8:	8ae1      	ldrh	r1, [r4, #22]
    6aaa:	462a      	mov	r2, r5
    6aac:	f7ff ff90 	bl	69d0 <attsExecCallback>
    6ab0:	82e5      	strh	r5, [r4, #22]
    6ab2:	bd70      	pop	{r4, r5, r6, pc}
    6ab4:	2b22      	cmp	r3, #34	; 0x22
    6ab6:	d109      	bne.n	6acc <attsIndMsgCback+0x90>
    6ab8:	8a83      	ldrh	r3, [r0, #20]
    6aba:	b13b      	cbz	r3, 6acc <attsIndMsgCback+0x90>
    6abc:	2600      	movs	r6, #0
    6abe:	8286      	strh	r6, [r0, #20]
    6ac0:	8ae1      	ldrh	r1, [r4, #22]
    6ac2:	7828      	ldrb	r0, [r5, #0]
    6ac4:	2271      	movs	r2, #113	; 0x71
    6ac6:	f7ff ff83 	bl	69d0 <attsExecCallback>
    6aca:	82e6      	strh	r6, [r4, #22]
    6acc:	bd70      	pop	{r4, r5, r6, pc}
    6ace:	bf00      	nop
    6ad0:	10000290 	.word	0x10000290

00006ad4 <attsIndConnCback>:
    6ad4:	e92d 41f0 	stmdb	sp!, {r4, r5, r6, r7, r8, lr}
    6ad8:	788b      	ldrb	r3, [r1, #2]
    6ada:	2b28      	cmp	r3, #40	; 0x28
    6adc:	4607      	mov	r7, r0
    6ade:	d11f      	bne.n	6b20 <attsIndConnCback+0x4c>
    6ae0:	78cc      	ldrb	r4, [r1, #3]
    6ae2:	b904      	cbnz	r4, 6ae6 <attsIndConnCback+0x12>
    6ae4:	7a0c      	ldrb	r4, [r1, #8]
    6ae6:	7f3e      	ldrb	r6, [r7, #28]
    6ae8:	4d0e      	ldr	r5, [pc, #56]	; (6b24 <attsIndConnCback+0x50>)
    6aea:	3e01      	subs	r6, #1
    6aec:	2018      	movs	r0, #24
    6aee:	fb00 5006 	mla	r0, r0, r6, r5
    6af2:	3420      	adds	r4, #32
    6af4:	8a83      	ldrh	r3, [r0, #20]
    6af6:	b2e4      	uxtb	r4, r4
    6af8:	f100 0810 	add.w	r8, r0, #16
    6afc:	b123      	cbz	r3, 6b08 <attsIndConnCback+0x34>
    6afe:	f7fe fa61 	bl	4fc4 <WsfTimerStop>
    6b02:	2300      	movs	r3, #0
    6b04:	f8a8 3004 	strh.w	r3, [r8, #4]
    6b08:	2318      	movs	r3, #24
    6b0a:	fb03 5506 	mla	r5, r3, r6, r5
    6b0e:	3510      	adds	r5, #16
    6b10:	88e9      	ldrh	r1, [r5, #6]
    6b12:	b129      	cbz	r1, 6b20 <attsIndConnCback+0x4c>
    6b14:	7f38      	ldrb	r0, [r7, #28]
    6b16:	4622      	mov	r2, r4
    6b18:	f7ff ff5a 	bl	69d0 <attsExecCallback>
    6b1c:	2300      	movs	r3, #0
    6b1e:	80eb      	strh	r3, [r5, #6]
    6b20:	e8bd 81f0 	ldmia.w	sp!, {r4, r5, r6, r7, r8, pc}
    6b24:	10000acc 	.word	0x10000acc

00006b28 <attsHandleValueIndNtf>:
    6b28:	e92d 43f8 	stmdb	sp!, {r3, r4, r5, r6, r7, r8, r9, lr}
    6b2c:	4681      	mov	r9, r0
    6b2e:	460d      	mov	r5, r1
    6b30:	4616      	mov	r6, r2
    6b32:	461f      	mov	r7, r3
    6b34:	f89d 8020 	ldrb.w	r8, [sp, #32]
    6b38:	f7fd fdaa 	bl	4690 <WsfTaskLock>
    6b3c:	4648      	mov	r0, r9
    6b3e:	f7ff ff5f 	bl	6a00 <attsIndCcbByConnId>
    6b42:	b110      	cbz	r0, 6b4a <attsHandleValueIndNtf+0x22>
    6b44:	6903      	ldr	r3, [r0, #16]
    6b46:	8b5c      	ldrh	r4, [r3, #26]
    6b48:	e000      	b.n	6b4c <attsHandleValueIndNtf+0x24>
    6b4a:	4604      	mov	r4, r0
    6b4c:	f7fd fda6 	bl	469c <WsfTaskUnlock>
    6b50:	b394      	cbz	r4, 6bb8 <attsHandleValueIndNtf+0x90>
    6b52:	1cb3      	adds	r3, r6, #2
    6b54:	42a3      	cmp	r3, r4
    6b56:	da29      	bge.n	6bac <attsHandleValueIndNtf+0x84>
    6b58:	2008      	movs	r0, #8
    6b5a:	f7fd ffaf 	bl	4abc <WsfMsgAlloc>
    6b5e:	4604      	mov	r4, r0
    6b60:	b350      	cbz	r0, 6bb8 <attsHandleValueIndNtf+0x90>
    6b62:	2321      	movs	r3, #33	; 0x21
    6b64:	f8a0 9000 	strh.w	r9, [r0]
    6b68:	7083      	strb	r3, [r0, #2]
    6b6a:	f106 000b 	add.w	r0, r6, #11
    6b6e:	b280      	uxth	r0, r0
    6b70:	f7fd ffa4 	bl	4abc <WsfMsgAlloc>
    6b74:	6060      	str	r0, [r4, #4]
    6b76:	b1a0      	cbz	r0, 6ba2 <attsHandleValueIndNtf+0x7a>
    6b78:	1cf3      	adds	r3, r6, #3
    6b7a:	8045      	strh	r5, [r0, #2]
    6b7c:	7245      	strb	r5, [r0, #9]
    6b7e:	0a2d      	lsrs	r5, r5, #8
    6b80:	8003      	strh	r3, [r0, #0]
    6b82:	f880 8008 	strb.w	r8, [r0, #8]
    6b86:	7285      	strb	r5, [r0, #10]
    6b88:	4639      	mov	r1, r7
    6b8a:	4632      	mov	r2, r6
    6b8c:	300b      	adds	r0, #11
    6b8e:	f003 f877 	bl	9c80 <memcpy>
    6b92:	4b0a      	ldr	r3, [pc, #40]	; (6bbc <attsHandleValueIndNtf+0x94>)
    6b94:	4621      	mov	r1, r4
    6b96:	f893 0070 	ldrb.w	r0, [r3, #112]	; 0x70
    6b9a:	e8bd 43f8 	ldmia.w	sp!, {r3, r4, r5, r6, r7, r8, r9, lr}
    6b9e:	f7fd bfb1 	b.w	4b04 <WsfMsgSend>
    6ba2:	4620      	mov	r0, r4
    6ba4:	e8bd 43f8 	ldmia.w	sp!, {r3, r4, r5, r6, r7, r8, r9, lr}
    6ba8:	f7fd bfa0 	b.w	4aec <WsfMsgFree>
    6bac:	4648      	mov	r0, r9
    6bae:	4629      	mov	r1, r5
    6bb0:	2277      	movs	r2, #119	; 0x77
    6bb2:	e8bd 43f8 	ldmia.w	sp!, {r3, r4, r5, r6, r7, r8, r9, lr}
    6bb6:	e70b      	b.n	69d0 <attsExecCallback>
    6bb8:	e8bd 83f8 	ldmia.w	sp!, {r3, r4, r5, r6, r7, r8, r9, pc}
    6bbc:	10000994 	.word	0x10000994

00006bc0 <attsProcValueCnf>:
    6bc0:	b570      	push	{r4, r5, r6, lr}
    6bc2:	4606      	mov	r6, r0
    6bc4:	7f00      	ldrb	r0, [r0, #28]
    6bc6:	f7ff ff1b 	bl	6a00 <attsIndCcbByConnId>
    6bca:	4604      	mov	r4, r0
    6bcc:	b168      	cbz	r0, 6bea <attsProcValueCnf+0x2a>
    6bce:	8a83      	ldrh	r3, [r0, #20]
    6bd0:	b15b      	cbz	r3, 6bea <attsProcValueCnf+0x2a>
    6bd2:	2300      	movs	r3, #0
    6bd4:	8283      	strh	r3, [r0, #20]
    6bd6:	f7fe f9f5 	bl	4fc4 <WsfTimerStop>
    6bda:	7fb5      	ldrb	r5, [r6, #30]
    6bdc:	b92d      	cbnz	r5, 6bea <attsProcValueCnf+0x2a>
    6bde:	7f30      	ldrb	r0, [r6, #28]
    6be0:	8ae1      	ldrh	r1, [r4, #22]
    6be2:	462a      	mov	r2, r5
    6be4:	f7ff fef4 	bl	69d0 <attsExecCallback>
    6be8:	82e5      	strh	r5, [r4, #22]
    6bea:	bd70      	pop	{r4, r5, r6, pc}

00006bec <AttsIndInit>:
    6bec:	4b0c      	ldr	r3, [pc, #48]	; (6c20 <AttsIndInit+0x34>)
    6bee:	4a0d      	ldr	r2, [pc, #52]	; (6c24 <AttsIndInit+0x38>)
    6bf0:	611a      	str	r2, [r3, #16]
    6bf2:	2001      	movs	r0, #1
    6bf4:	f892 1070 	ldrb.w	r1, [r2, #112]	; 0x70
    6bf8:	8158      	strh	r0, [r3, #10]
    6bfa:	f102 0020 	add.w	r0, r2, #32
    6bfe:	3240      	adds	r2, #64	; 0x40
    6c00:	6298      	str	r0, [r3, #40]	; 0x28
    6c02:	641a      	str	r2, [r3, #64]	; 0x40
    6c04:	2002      	movs	r0, #2
    6c06:	2203      	movs	r2, #3
    6c08:	7219      	strb	r1, [r3, #8]
    6c0a:	875a      	strh	r2, [r3, #58]	; 0x3a
    6c0c:	f883 1020 	strb.w	r1, [r3, #32]
    6c10:	8458      	strh	r0, [r3, #34]	; 0x22
    6c12:	f883 1038 	strb.w	r1, [r3, #56]	; 0x38
    6c16:	4b04      	ldr	r3, [pc, #16]	; (6c28 <AttsIndInit+0x3c>)
    6c18:	4a04      	ldr	r2, [pc, #16]	; (6c2c <AttsIndInit+0x40>)
    6c1a:	609a      	str	r2, [r3, #8]
    6c1c:	4770      	bx	lr
    6c1e:	bf00      	nop
    6c20:	10000acc 	.word	0x10000acc
    6c24:	10000994 	.word	0x10000994
    6c28:	10000b14 	.word	0x10000b14
    6c2c:	0000f204 	.word	0x0000f204

00006c30 <AttsHandleValueInd>:
    6c30:	b513      	push	{r0, r1, r4, lr}
    6c32:	241d      	movs	r4, #29
    6c34:	9400      	str	r4, [sp, #0]
    6c36:	f7ff ff77 	bl	6b28 <attsHandleValueIndNtf>
    6c3a:	b002      	add	sp, #8
    6c3c:	bd10      	pop	{r4, pc}

00006c3e <AttsHandleValueNtf>:
    6c3e:	b513      	push	{r0, r1, r4, lr}
    6c40:	241b      	movs	r4, #27
    6c42:	9400      	str	r4, [sp, #0]
    6c44:	f7ff ff70 	bl	6b28 <attsHandleValueIndNtf>
    6c48:	b002      	add	sp, #8
    6c4a:	bd10      	pop	{r4, pc}

00006c4c <attsL2cCtrlCback>:
    6c4c:	4b01      	ldr	r3, [pc, #4]	; (6c54 <attsL2cCtrlCback+0x8>)
    6c4e:	689b      	ldr	r3, [r3, #8]
    6c50:	685b      	ldr	r3, [r3, #4]
    6c52:	4718      	bx	r3
    6c54:	10000b14 	.word	0x10000b14

00006c58 <attsMsgCback>:
    6c58:	7883      	ldrb	r3, [r0, #2]
    6c5a:	2b20      	cmp	r3, #32
    6c5c:	d104      	bne.n	6c68 <attsMsgCback+0x10>
    6c5e:	7800      	ldrb	r0, [r0, #0]
    6c60:	2104      	movs	r1, #4
    6c62:	2200      	movs	r2, #0
    6c64:	f001 bc32 	b.w	84cc <DmConnSetIdle>
    6c68:	2b22      	cmp	r3, #34	; 0x22
    6c6a:	4b03      	ldr	r3, [pc, #12]	; (6c78 <attsMsgCback+0x20>)
    6c6c:	bf96      	itet	ls
    6c6e:	689b      	ldrls	r3, [r3, #8]
    6c70:	68db      	ldrhi	r3, [r3, #12]
    6c72:	689b      	ldrls	r3, [r3, #8]
    6c74:	4718      	bx	r3
    6c76:	bf00      	nop
    6c78:	10000b14 	.word	0x10000b14

00006c7c <attsErrRsp>:
    6c7c:	e92d 41f0 	stmdb	sp!, {r4, r5, r6, r7, r8, lr}
    6c80:	4605      	mov	r5, r0
    6c82:	200d      	movs	r0, #13
    6c84:	461e      	mov	r6, r3
    6c86:	460f      	mov	r7, r1
    6c88:	4614      	mov	r4, r2
    6c8a:	f7fd ff17 	bl	4abc <WsfMsgAlloc>
    6c8e:	4603      	mov	r3, r0
    6c90:	b168      	cbz	r0, 6cae <attsErrRsp+0x32>
    6c92:	7284      	strb	r4, [r0, #10]
    6c94:	2201      	movs	r2, #1
    6c96:	0a24      	lsrs	r4, r4, #8
    6c98:	7202      	strb	r2, [r0, #8]
    6c9a:	7247      	strb	r7, [r0, #9]
    6c9c:	72c4      	strb	r4, [r0, #11]
    6c9e:	7306      	strb	r6, [r0, #12]
    6ca0:	4629      	mov	r1, r5
    6ca2:	2004      	movs	r0, #4
    6ca4:	2205      	movs	r2, #5
    6ca6:	e8bd 41f0 	ldmia.w	sp!, {r4, r5, r6, r7, r8, lr}
    6caa:	f002 b85b 	b.w	8d64 <L2cDataReq>
    6cae:	e8bd 81f0 	ldmia.w	sp!, {r4, r5, r6, r7, r8, pc}

00006cb2 <attsDataCback>:
    6cb2:	e92d 41f0 	stmdb	sp!, {r4, r5, r6, r7, r8, lr}
    6cb6:	4680      	mov	r8, r0
    6cb8:	460f      	mov	r7, r1
    6cba:	4616      	mov	r6, r2
    6cbc:	f7fe ff90 	bl	5be0 <attCcbByHandle>
    6cc0:	b380      	cbz	r0, 6d24 <attsDataCback+0x72>
    6cc2:	7a34      	ldrb	r4, [r6, #8]
    6cc4:	2c12      	cmp	r4, #18
    6cc6:	d903      	bls.n	6cd0 <attsDataCback+0x1e>
    6cc8:	f1a4 0316 	sub.w	r3, r4, #22
    6ccc:	2b08      	cmp	r3, #8
    6cce:	d801      	bhi.n	6cd4 <attsDataCback+0x22>
    6cd0:	0863      	lsrs	r3, r4, #1
    6cd2:	e007      	b.n	6ce4 <attsDataCback+0x32>
    6cd4:	2c52      	cmp	r4, #82	; 0x52
    6cd6:	d004      	beq.n	6ce2 <attsDataCback+0x30>
    6cd8:	2cd2      	cmp	r4, #210	; 0xd2
    6cda:	bf0c      	ite	eq
    6cdc:	2310      	moveq	r3, #16
    6cde:	2300      	movne	r3, #0
    6ce0:	e000      	b.n	6ce4 <attsDataCback+0x32>
    6ce2:	230a      	movs	r3, #10
    6ce4:	4a10      	ldr	r2, [pc, #64]	; (6d28 <attsDataCback+0x76>)
    6ce6:	f852 5023 	ldr.w	r5, [r2, r3, lsl #2]
    6cea:	b14d      	cbz	r5, 6d00 <attsDataCback+0x4e>
    6cec:	4a0f      	ldr	r2, [pc, #60]	; (6d2c <attsDataCback+0x7a>)
    6cee:	5cd3      	ldrb	r3, [r2, r3]
    6cf0:	42bb      	cmp	r3, r7
    6cf2:	d807      	bhi.n	6d04 <attsDataCback+0x52>
    6cf4:	4639      	mov	r1, r7
    6cf6:	4632      	mov	r2, r6
    6cf8:	462b      	mov	r3, r5
    6cfa:	e8bd 41f0 	ldmia.w	sp!, {r4, r5, r6, r7, r8, lr}
    6cfe:	4718      	bx	r3
    6d00:	2306      	movs	r3, #6
    6d02:	e000      	b.n	6d06 <attsDataCback+0x54>
    6d04:	2304      	movs	r3, #4
    6d06:	2c02      	cmp	r4, #2
    6d08:	d00c      	beq.n	6d24 <attsDataCback+0x72>
    6d0a:	2c1e      	cmp	r4, #30
    6d0c:	d00a      	beq.n	6d24 <attsDataCback+0x72>
    6d0e:	f004 0140 	and.w	r1, r4, #64	; 0x40
    6d12:	f001 02ff 	and.w	r2, r1, #255	; 0xff
    6d16:	b929      	cbnz	r1, 6d24 <attsDataCback+0x72>
    6d18:	4640      	mov	r0, r8
    6d1a:	4621      	mov	r1, r4
    6d1c:	e8bd 41f0 	ldmia.w	sp!, {r4, r5, r6, r7, r8, lr}
    6d20:	f7ff bfac 	b.w	6c7c <attsErrRsp>
    6d24:	e8bd 81f0 	ldmia.w	sp!, {r4, r5, r6, r7, r8, pc}
    6d28:	100002b8 	.word	0x100002b8
    6d2c:	0000f214 	.word	0x0000f214

00006d30 <attsClearPrepWrites>:
    6d30:	b510      	push	{r4, lr}
    6d32:	4604      	mov	r4, r0
    6d34:	4620      	mov	r0, r4
    6d36:	f7fd ff4d 	bl	4bd4 <WsfQueueDeq>
    6d3a:	b110      	cbz	r0, 6d42 <attsClearPrepWrites+0x12>
    6d3c:	f7fd fe84 	bl	4a48 <WsfBufFree>
    6d40:	e7f8      	b.n	6d34 <attsClearPrepWrites+0x4>
    6d42:	bd10      	pop	{r4, pc}

00006d44 <attsConnCback>:
    6d44:	b570      	push	{r4, r5, r6, lr}
    6d46:	788b      	ldrb	r3, [r1, #2]
    6d48:	2b28      	cmp	r3, #40	; 0x28
    6d4a:	4604      	mov	r4, r0
    6d4c:	460d      	mov	r5, r1
    6d4e:	d10a      	bne.n	6d66 <attsConnCback+0x22>
    6d50:	f7ff ffee 	bl	6d30 <attsClearPrepWrites>
    6d54:	7f20      	ldrb	r0, [r4, #28]
    6d56:	f001 fbd5 	bl	8504 <DmConnCheckIdle>
    6d5a:	0743      	lsls	r3, r0, #29
    6d5c:	d503      	bpl.n	6d66 <attsConnCback+0x22>
    6d5e:	f104 0008 	add.w	r0, r4, #8
    6d62:	f7fe f92f 	bl	4fc4 <WsfTimerStop>
    6d66:	4b04      	ldr	r3, [pc, #16]	; (6d78 <attsConnCback+0x34>)
    6d68:	689b      	ldr	r3, [r3, #8]
    6d6a:	4620      	mov	r0, r4
    6d6c:	4629      	mov	r1, r5
    6d6e:	68db      	ldr	r3, [r3, #12]
    6d70:	e8bd 4070 	ldmia.w	sp!, {r4, r5, r6, lr}
    6d74:	4718      	bx	r3
    6d76:	bf00      	nop
    6d78:	10000b14 	.word	0x10000b14

00006d7c <attsDiscBusy>:
    6d7c:	b538      	push	{r3, r4, r5, lr}
    6d7e:	4d0d      	ldr	r5, [pc, #52]	; (6db4 <attsDiscBusy+0x38>)
    6d80:	682b      	ldr	r3, [r5, #0]
    6d82:	681b      	ldr	r3, [r3, #0]
    6d84:	4604      	mov	r4, r0
    6d86:	b1a3      	cbz	r3, 6db2 <attsDiscBusy+0x36>
    6d88:	7f00      	ldrb	r0, [r0, #28]
    6d8a:	2104      	movs	r1, #4
    6d8c:	2201      	movs	r2, #1
    6d8e:	f001 fb9d 	bl	84cc <DmConnSetIdle>
    6d92:	4b09      	ldr	r3, [pc, #36]	; (6db8 <attsDiscBusy+0x3c>)
    6d94:	f893 3070 	ldrb.w	r3, [r3, #112]	; 0x70
    6d98:	7423      	strb	r3, [r4, #16]
    6d9a:	2320      	movs	r3, #32
    6d9c:	7523      	strb	r3, [r4, #20]
    6d9e:	7f23      	ldrb	r3, [r4, #28]
    6da0:	8263      	strh	r3, [r4, #18]
    6da2:	682b      	ldr	r3, [r5, #0]
    6da4:	f104 0008 	add.w	r0, r4, #8
    6da8:	6819      	ldr	r1, [r3, #0]
    6daa:	e8bd 4038 	ldmia.w	sp!, {r3, r4, r5, lr}
    6dae:	f7fe b8e5 	b.w	4f7c <WsfTimerStartSec>
    6db2:	bd38      	pop	{r3, r4, r5, pc}
    6db4:	10000290 	.word	0x10000290
    6db8:	10000994 	.word	0x10000994

00006dbc <AttsInit>:
    6dbc:	4b05      	ldr	r3, [pc, #20]	; (6dd4 <AttsInit+0x18>)
    6dbe:	2200      	movs	r2, #0
    6dc0:	601a      	str	r2, [r3, #0]
    6dc2:	605a      	str	r2, [r3, #4]
    6dc4:	4a04      	ldr	r2, [pc, #16]	; (6dd8 <AttsInit+0x1c>)
    6dc6:	609a      	str	r2, [r3, #8]
    6dc8:	4a04      	ldr	r2, [pc, #16]	; (6ddc <AttsInit+0x20>)
    6dca:	60da      	str	r2, [r3, #12]
    6dcc:	4b04      	ldr	r3, [pc, #16]	; (6de0 <AttsInit+0x24>)
    6dce:	4a05      	ldr	r2, [pc, #20]	; (6de4 <AttsInit+0x28>)
    6dd0:	665a      	str	r2, [r3, #100]	; 0x64
    6dd2:	4770      	bx	lr
    6dd4:	10000b14 	.word	0x10000b14
    6dd8:	0000f08c 	.word	0x0000f08c
    6ddc:	00005b85 	.word	0x00005b85
    6de0:	10000994 	.word	0x10000994
    6de4:	0000f228 	.word	0x0000f228

00006de8 <AttsAuthorRegister>:
    6de8:	4b01      	ldr	r3, [pc, #4]	; (6df0 <AttsAuthorRegister+0x8>)
    6dea:	6118      	str	r0, [r3, #16]
    6dec:	4770      	bx	lr
    6dee:	bf00      	nop
    6df0:	10000b14 	.word	0x10000b14

00006df4 <AttsAddGroup>:
    6df4:	b510      	push	{r4, lr}
    6df6:	4604      	mov	r4, r0
    6df8:	f7fd fc4a 	bl	4690 <WsfTaskLock>
    6dfc:	4b09      	ldr	r3, [pc, #36]	; (6e24 <AttsAddGroup+0x30>)
    6dfe:	681b      	ldr	r3, [r3, #0]
    6e00:	2200      	movs	r2, #0
    6e02:	b11b      	cbz	r3, 6e0c <AttsAddGroup+0x18>
    6e04:	8a20      	ldrh	r0, [r4, #16]
    6e06:	8a19      	ldrh	r1, [r3, #16]
    6e08:	4288      	cmp	r0, r1
    6e0a:	d207      	bcs.n	6e1c <AttsAddGroup+0x28>
    6e0c:	4621      	mov	r1, r4
    6e0e:	4805      	ldr	r0, [pc, #20]	; (6e24 <AttsAddGroup+0x30>)
    6e10:	f7fd ff18 	bl	4c44 <WsfQueueInsert>
    6e14:	e8bd 4010 	ldmia.w	sp!, {r4, lr}
    6e18:	f7fd bc40 	b.w	469c <WsfTaskUnlock>
    6e1c:	461a      	mov	r2, r3
    6e1e:	681b      	ldr	r3, [r3, #0]
    6e20:	e7ef      	b.n	6e02 <AttsAddGroup+0xe>
    6e22:	bf00      	nop
    6e24:	10000b14 	.word	0x10000b14

00006e28 <AttsRemoveGroup>:
    6e28:	b510      	push	{r4, lr}
    6e2a:	4604      	mov	r4, r0
    6e2c:	f7fd fc30 	bl	4690 <WsfTaskLock>
    6e30:	4b08      	ldr	r3, [pc, #32]	; (6e54 <AttsRemoveGroup+0x2c>)
    6e32:	6819      	ldr	r1, [r3, #0]
    6e34:	2200      	movs	r2, #0
    6e36:	b141      	cbz	r1, 6e4a <AttsRemoveGroup+0x22>
    6e38:	8a0b      	ldrh	r3, [r1, #16]
    6e3a:	42a3      	cmp	r3, r4
    6e3c:	d002      	beq.n	6e44 <AttsRemoveGroup+0x1c>
    6e3e:	460a      	mov	r2, r1
    6e40:	6809      	ldr	r1, [r1, #0]
    6e42:	e7f8      	b.n	6e36 <AttsRemoveGroup+0xe>
    6e44:	4803      	ldr	r0, [pc, #12]	; (6e54 <AttsRemoveGroup+0x2c>)
    6e46:	f7fd ff27 	bl	4c98 <WsfQueueRemove>
    6e4a:	e8bd 4010 	ldmia.w	sp!, {r4, lr}
    6e4e:	f7fd bc25 	b.w	469c <WsfTaskUnlock>
    6e52:	bf00      	nop
    6e54:	10000b14 	.word	0x10000b14

00006e58 <AttsSetAttr>:
    6e58:	b573      	push	{r0, r1, r4, r5, r6, lr}
    6e5a:	4605      	mov	r5, r0
    6e5c:	460e      	mov	r6, r1
    6e5e:	4614      	mov	r4, r2
    6e60:	f7fd fc16 	bl	4690 <WsfTaskLock>
    6e64:	4628      	mov	r0, r5
    6e66:	a901      	add	r1, sp, #4
    6e68:	f000 f867 	bl	6f3a <attsFindByHandle>
    6e6c:	4605      	mov	r5, r0
    6e6e:	b188      	cbz	r0, 6e94 <AttsSetAttr+0x3c>
    6e70:	8983      	ldrh	r3, [r0, #12]
    6e72:	42b3      	cmp	r3, r6
    6e74:	d310      	bcc.n	6e98 <AttsSetAttr+0x40>
    6e76:	4621      	mov	r1, r4
    6e78:	6840      	ldr	r0, [r0, #4]
    6e7a:	4632      	mov	r2, r6
    6e7c:	f002 ff00 	bl	9c80 <memcpy>
    6e80:	7bab      	ldrb	r3, [r5, #14]
    6e82:	f003 0308 	and.w	r3, r3, #8
    6e86:	f003 04ff 	and.w	r4, r3, #255	; 0xff
    6e8a:	b133      	cbz	r3, 6e9a <AttsSetAttr+0x42>
    6e8c:	68ab      	ldr	r3, [r5, #8]
    6e8e:	2400      	movs	r4, #0
    6e90:	801e      	strh	r6, [r3, #0]
    6e92:	e002      	b.n	6e9a <AttsSetAttr+0x42>
    6e94:	240a      	movs	r4, #10
    6e96:	e000      	b.n	6e9a <AttsSetAttr+0x42>
    6e98:	240d      	movs	r4, #13
    6e9a:	f7fd fbff 	bl	469c <WsfTaskUnlock>
    6e9e:	4620      	mov	r0, r4
    6ea0:	b002      	add	sp, #8
    6ea2:	bd70      	pop	{r4, r5, r6, pc}

00006ea4 <AttsGetAttr>:
    6ea4:	b537      	push	{r0, r1, r2, r4, r5, lr}
    6ea6:	460d      	mov	r5, r1
    6ea8:	a901      	add	r1, sp, #4
    6eaa:	4614      	mov	r4, r2
    6eac:	f000 f845 	bl	6f3a <attsFindByHandle>
    6eb0:	b130      	cbz	r0, 6ec0 <AttsGetAttr+0x1c>
    6eb2:	6883      	ldr	r3, [r0, #8]
    6eb4:	881b      	ldrh	r3, [r3, #0]
    6eb6:	802b      	strh	r3, [r5, #0]
    6eb8:	6843      	ldr	r3, [r0, #4]
    6eba:	6023      	str	r3, [r4, #0]
    6ebc:	2000      	movs	r0, #0
    6ebe:	e000      	b.n	6ec2 <AttsGetAttr+0x1e>
    6ec0:	200a      	movs	r0, #10
    6ec2:	b003      	add	sp, #12
    6ec4:	bd30      	pop	{r4, r5, pc}

00006ec6 <AttsErrorTest>:
    6ec6:	4b02      	ldr	r3, [pc, #8]	; (6ed0 <AttsErrorTest+0xa>)
    6ec8:	f883 0071 	strb.w	r0, [r3, #113]	; 0x71
    6ecc:	4770      	bx	lr
    6ece:	bf00      	nop
    6ed0:	10000994 	.word	0x10000994

00006ed4 <attsUuidCmp>:
    6ed4:	b510      	push	{r4, lr}
    6ed6:	460c      	mov	r4, r1
    6ed8:	4611      	mov	r1, r2
    6eda:	7b82      	ldrb	r2, [r0, #14]
    6edc:	07d2      	lsls	r2, r2, #31
    6ede:	4603      	mov	r3, r0
    6ee0:	d402      	bmi.n	6ee8 <attsUuidCmp+0x14>
    6ee2:	2c02      	cmp	r4, #2
    6ee4:	d103      	bne.n	6eee <attsUuidCmp+0x1a>
    6ee6:	e00c      	b.n	6f02 <attsUuidCmp+0x2e>
    6ee8:	2c10      	cmp	r4, #16
    6eea:	d104      	bne.n	6ef6 <attsUuidCmp+0x22>
    6eec:	e009      	b.n	6f02 <attsUuidCmp+0x2e>
    6eee:	2c10      	cmp	r4, #16
    6ef0:	d101      	bne.n	6ef6 <attsUuidCmp+0x22>
    6ef2:	6800      	ldr	r0, [r0, #0]
    6ef4:	e001      	b.n	6efa <attsUuidCmp+0x26>
    6ef6:	4608      	mov	r0, r1
    6ef8:	6819      	ldr	r1, [r3, #0]
    6efa:	e8bd 4010 	ldmia.w	sp!, {r4, lr}
    6efe:	f7fe be83 	b.w	5c08 <attUuidCmp16to128>
    6f02:	6818      	ldr	r0, [r3, #0]
    6f04:	4622      	mov	r2, r4
    6f06:	f002 fe87 	bl	9c18 <memcmp>
    6f0a:	fab0 f080 	clz	r0, r0
    6f0e:	0940      	lsrs	r0, r0, #5
    6f10:	bd10      	pop	{r4, pc}

00006f12 <attsUuid16Cmp>:
    6f12:	2902      	cmp	r1, #2
    6f14:	4603      	mov	r3, r0
    6f16:	d10b      	bne.n	6f30 <attsUuid16Cmp+0x1e>
    6f18:	7800      	ldrb	r0, [r0, #0]
    6f1a:	7811      	ldrb	r1, [r2, #0]
    6f1c:	4288      	cmp	r0, r1
    6f1e:	d105      	bne.n	6f2c <attsUuid16Cmp+0x1a>
    6f20:	7850      	ldrb	r0, [r2, #1]
    6f22:	785b      	ldrb	r3, [r3, #1]
    6f24:	1a1b      	subs	r3, r3, r0
    6f26:	4258      	negs	r0, r3
    6f28:	4158      	adcs	r0, r3
    6f2a:	e004      	b.n	6f36 <attsUuid16Cmp+0x24>
    6f2c:	2000      	movs	r0, #0
    6f2e:	e002      	b.n	6f36 <attsUuid16Cmp+0x24>
    6f30:	4611      	mov	r1, r2
    6f32:	f7fe be69 	b.w	5c08 <attUuidCmp16to128>
    6f36:	b2c0      	uxtb	r0, r0
    6f38:	4770      	bx	lr

00006f3a <attsFindByHandle>:
    6f3a:	b510      	push	{r4, lr}
    6f3c:	4b08      	ldr	r3, [pc, #32]	; (6f60 <attsFindByHandle+0x26>)
    6f3e:	681b      	ldr	r3, [r3, #0]
    6f40:	b15b      	cbz	r3, 6f5a <attsFindByHandle+0x20>
    6f42:	8a1a      	ldrh	r2, [r3, #16]
    6f44:	4290      	cmp	r0, r2
    6f46:	d3fa      	bcc.n	6f3e <attsFindByHandle+0x4>
    6f48:	8a5c      	ldrh	r4, [r3, #18]
    6f4a:	4284      	cmp	r4, r0
    6f4c:	d3f7      	bcc.n	6f3e <attsFindByHandle+0x4>
    6f4e:	600b      	str	r3, [r1, #0]
    6f50:	685b      	ldr	r3, [r3, #4]
    6f52:	1a80      	subs	r0, r0, r2
    6f54:	eb03 1000 	add.w	r0, r3, r0, lsl #4
    6f58:	bd10      	pop	{r4, pc}
    6f5a:	4618      	mov	r0, r3
    6f5c:	bd10      	pop	{r4, pc}
    6f5e:	bf00      	nop
    6f60:	10000b14 	.word	0x10000b14

00006f64 <attsFindInRange>:
    6f64:	b530      	push	{r4, r5, lr}
    6f66:	4b0a      	ldr	r3, [pc, #40]	; (6f90 <attsFindInRange+0x2c>)
    6f68:	681b      	ldr	r3, [r3, #0]
    6f6a:	b133      	cbz	r3, 6f7a <attsFindInRange+0x16>
    6f6c:	8a1c      	ldrh	r4, [r3, #16]
    6f6e:	42a0      	cmp	r0, r4
    6f70:	d205      	bcs.n	6f7e <attsFindInRange+0x1a>
    6f72:	42a1      	cmp	r1, r4
    6f74:	d3f8      	bcc.n	6f68 <attsFindInRange+0x4>
    6f76:	4620      	mov	r0, r4
    6f78:	e001      	b.n	6f7e <attsFindInRange+0x1a>
    6f7a:	4618      	mov	r0, r3
    6f7c:	bd30      	pop	{r4, r5, pc}
    6f7e:	8a5d      	ldrh	r5, [r3, #18]
    6f80:	4285      	cmp	r5, r0
    6f82:	d3f1      	bcc.n	6f68 <attsFindInRange+0x4>
    6f84:	685b      	ldr	r3, [r3, #4]
    6f86:	1b04      	subs	r4, r0, r4
    6f88:	eb03 1404 	add.w	r4, r3, r4, lsl #4
    6f8c:	6014      	str	r4, [r2, #0]
    6f8e:	bd30      	pop	{r4, r5, pc}
    6f90:	10000b14 	.word	0x10000b14

00006f94 <attsPermissions>:
    6f94:	420b      	tst	r3, r1
    6f96:	e92d 41f0 	stmdb	sp!, {r4, r5, r6, r7, r8, lr}
    6f9a:	4606      	mov	r6, r0
    6f9c:	460d      	mov	r5, r1
    6f9e:	4617      	mov	r7, r2
    6fa0:	461c      	mov	r4, r3
    6fa2:	d105      	bne.n	6fb0 <attsPermissions+0x1c>
    6fa4:	2901      	cmp	r1, #1
    6fa6:	bf0c      	ite	eq
    6fa8:	2002      	moveq	r0, #2
    6faa:	2003      	movne	r0, #3
    6fac:	e8bd 81f0 	ldmia.w	sp!, {r4, r5, r6, r7, r8, pc}
    6fb0:	2910      	cmp	r1, #16
    6fb2:	bf08      	it	eq
    6fb4:	091c      	lsreq	r4, r3, #4
    6fb6:	f014 0f0e 	tst.w	r4, #14
    6fba:	d102      	bne.n	6fc2 <attsPermissions+0x2e>
    6fbc:	2000      	movs	r0, #0
    6fbe:	e8bd 81f0 	ldmia.w	sp!, {r4, r5, r6, r7, r8, pc}
    6fc2:	f001 fa79 	bl	84b8 <DmConnSecLevel>
    6fc6:	0722      	lsls	r2, r4, #28
    6fc8:	d500      	bpl.n	6fcc <attsPermissions+0x38>
    6fca:	b180      	cbz	r0, 6fee <attsPermissions+0x5a>
    6fcc:	f004 030a 	and.w	r3, r4, #10
    6fd0:	2b0a      	cmp	r3, #10
    6fd2:	d101      	bne.n	6fd8 <attsPermissions+0x44>
    6fd4:	2801      	cmp	r0, #1
    6fd6:	d90a      	bls.n	6fee <attsPermissions+0x5a>
    6fd8:	0763      	lsls	r3, r4, #29
    6fda:	d5ef      	bpl.n	6fbc <attsPermissions+0x28>
    6fdc:	4b07      	ldr	r3, [pc, #28]	; (6ffc <attsPermissions+0x68>)
    6fde:	691b      	ldr	r3, [r3, #16]
    6fe0:	b143      	cbz	r3, 6ff4 <attsPermissions+0x60>
    6fe2:	4630      	mov	r0, r6
    6fe4:	4629      	mov	r1, r5
    6fe6:	463a      	mov	r2, r7
    6fe8:	e8bd 41f0 	ldmia.w	sp!, {r4, r5, r6, r7, r8, lr}
    6fec:	4718      	bx	r3
    6fee:	2005      	movs	r0, #5
    6ff0:	e8bd 81f0 	ldmia.w	sp!, {r4, r5, r6, r7, r8, pc}
    6ff4:	2008      	movs	r0, #8
    6ff6:	e8bd 81f0 	ldmia.w	sp!, {r4, r5, r6, r7, r8, pc}
    6ffa:	bf00      	nop
    6ffc:	10000b14 	.word	0x10000b14

00007000 <attsProcMtuReq>:
    7000:	b538      	push	{r3, r4, r5, lr}
    7002:	7a53      	ldrb	r3, [r2, #9]
    7004:	7a94      	ldrb	r4, [r2, #10]
    7006:	eb03 2404 	add.w	r4, r3, r4, lsl #8
    700a:	b2a4      	uxth	r4, r4
    700c:	2c16      	cmp	r4, #22
    700e:	4605      	mov	r5, r0
    7010:	f04f 000b 	mov.w	r0, #11
    7014:	bf98      	it	ls
    7016:	2417      	movls	r4, #23
    7018:	f7fd fd50 	bl	4abc <WsfMsgAlloc>
    701c:	4603      	mov	r3, r0
    701e:	b150      	cbz	r0, 7036 <attsProcMtuReq+0x36>
    7020:	2203      	movs	r2, #3
    7022:	7202      	strb	r2, [r0, #8]
    7024:	8b69      	ldrh	r1, [r5, #26]
    7026:	7241      	strb	r1, [r0, #9]
    7028:	8b69      	ldrh	r1, [r5, #26]
    702a:	0a09      	lsrs	r1, r1, #8
    702c:	7281      	strb	r1, [r0, #10]
    702e:	8b29      	ldrh	r1, [r5, #24]
    7030:	2004      	movs	r0, #4
    7032:	f001 fe97 	bl	8d64 <L2cDataReq>
    7036:	8b6b      	ldrh	r3, [r5, #26]
    7038:	42a3      	cmp	r3, r4
    703a:	bf88      	it	hi
    703c:	836c      	strhhi	r4, [r5, #26]
    703e:	bd38      	pop	{r3, r4, r5, pc}

00007040 <attsProcFindInfoReq>:
    7040:	e92d 47f3 	stmdb	sp!, {r0, r1, r4, r5, r6, r7, r8, r9, sl, lr}
    7044:	7a53      	ldrb	r3, [r2, #9]
    7046:	7a96      	ldrb	r6, [r2, #10]
    7048:	f892 900c 	ldrb.w	r9, [r2, #12]
    704c:	eb03 2606 	add.w	r6, r3, r6, lsl #8
    7050:	b2b6      	uxth	r6, r6
    7052:	4607      	mov	r7, r0
    7054:	7ad3      	ldrb	r3, [r2, #11]
    7056:	b12e      	cbz	r6, 7064 <attsProcFindInfoReq+0x24>
    7058:	eb03 2909 	add.w	r9, r3, r9, lsl #8
    705c:	fa1f f989 	uxth.w	r9, r9
    7060:	454e      	cmp	r6, r9
    7062:	d901      	bls.n	7068 <attsProcFindInfoReq+0x28>
    7064:	2401      	movs	r4, #1
    7066:	e03d      	b.n	70e4 <attsProcFindInfoReq+0xa4>
    7068:	8b40      	ldrh	r0, [r0, #26]
    706a:	3008      	adds	r0, #8
    706c:	b280      	uxth	r0, r0
    706e:	f7fd fd25 	bl	4abc <WsfMsgAlloc>
    7072:	4605      	mov	r5, r0
    7074:	2800      	cmp	r0, #0
    7076:	d06f      	beq.n	7158 <attsProcFindInfoReq+0x118>
    7078:	2305      	movs	r3, #5
    707a:	722b      	strb	r3, [r5, #8]
    707c:	2301      	movs	r3, #1
    707e:	726b      	strb	r3, [r5, #9]
    7080:	f105 040e 	add.w	r4, r5, #14
    7084:	4630      	mov	r0, r6
    7086:	4649      	mov	r1, r9
    7088:	aa01      	add	r2, sp, #4
    708a:	f1a4 0804 	sub.w	r8, r4, #4
    708e:	f7ff ff69 	bl	6f64 <attsFindInRange>
    7092:	2800      	cmp	r0, #0
    7094:	d05c      	beq.n	7150 <attsProcFindInfoReq+0x110>
    7096:	9b01      	ldr	r3, [sp, #4]
    7098:	7b9b      	ldrb	r3, [r3, #14]
    709a:	07db      	lsls	r3, r3, #31
    709c:	d538      	bpl.n	7110 <attsProcFindInfoReq+0xd0>
    709e:	f105 030a 	add.w	r3, r5, #10
    70a2:	4598      	cmp	r8, r3
    70a4:	46c2      	mov	sl, r8
    70a6:	d115      	bne.n	70d4 <attsProcFindInfoReq+0x94>
    70a8:	f888 0000 	strb.w	r0, [r8]
    70ac:	2302      	movs	r3, #2
    70ae:	0a00      	lsrs	r0, r0, #8
    70b0:	f808 3c01 	strb.w	r3, [r8, #-1]
    70b4:	f888 0001 	strb.w	r0, [r8, #1]
    70b8:	9b01      	ldr	r3, [sp, #4]
    70ba:	681b      	ldr	r3, [r3, #0]
    70bc:	f105 020c 	add.w	r2, r5, #12
    70c0:	f103 0110 	add.w	r1, r3, #16
    70c4:	f853 0b04 	ldr.w	r0, [r3], #4
    70c8:	f842 0b04 	str.w	r0, [r2], #4
    70cc:	428b      	cmp	r3, r1
    70ce:	d1f9      	bne.n	70c4 <attsProcFindInfoReq+0x84>
    70d0:	f108 0a12 	add.w	sl, r8, #18
    70d4:	f105 030a 	add.w	r3, r5, #10
    70d8:	459a      	cmp	sl, r3
    70da:	d13b      	bne.n	7154 <attsProcFindInfoReq+0x114>
    70dc:	4628      	mov	r0, r5
    70de:	f7fd fd05 	bl	4aec <WsfMsgFree>
    70e2:	240a      	movs	r4, #10
    70e4:	4638      	mov	r0, r7
    70e6:	f7ff fe49 	bl	6d7c <attsDiscBusy>
    70ea:	8b39      	ldrh	r1, [r7, #24]
    70ec:	b94c      	cbnz	r4, 7102 <attsProcFindInfoReq+0xc2>
    70ee:	f105 0208 	add.w	r2, r5, #8
    70f2:	ebc2 020a 	rsb	r2, r2, sl
    70f6:	2004      	movs	r0, #4
    70f8:	b292      	uxth	r2, r2
    70fa:	462b      	mov	r3, r5
    70fc:	f001 fe32 	bl	8d64 <L2cDataReq>
    7100:	e02c      	b.n	715c <attsProcFindInfoReq+0x11c>
    7102:	4608      	mov	r0, r1
    7104:	4632      	mov	r2, r6
    7106:	2104      	movs	r1, #4
    7108:	4623      	mov	r3, r4
    710a:	f7ff fdb7 	bl	6c7c <attsErrRsp>
    710e:	e025      	b.n	715c <attsProcFindInfoReq+0x11c>
    7110:	8b7b      	ldrh	r3, [r7, #26]
    7112:	3308      	adds	r3, #8
    7114:	442b      	add	r3, r5
    7116:	429c      	cmp	r4, r3
    7118:	46a2      	mov	sl, r4
    711a:	d819      	bhi.n	7150 <attsProcFindInfoReq+0x110>
    711c:	0a03      	lsrs	r3, r0, #8
    711e:	f804 0c04 	strb.w	r0, [r4, #-4]
    7122:	f804 3c03 	strb.w	r3, [r4, #-3]
    7126:	9b01      	ldr	r3, [sp, #4]
    7128:	681b      	ldr	r3, [r3, #0]
    712a:	781b      	ldrb	r3, [r3, #0]
    712c:	f804 3c02 	strb.w	r3, [r4, #-2]
    7130:	9b01      	ldr	r3, [sp, #4]
    7132:	681b      	ldr	r3, [r3, #0]
    7134:	785b      	ldrb	r3, [r3, #1]
    7136:	f804 3c01 	strb.w	r3, [r4, #-1]
    713a:	f64f 73ff 	movw	r3, #65535	; 0xffff
    713e:	4298      	cmp	r0, r3
    7140:	d0c8      	beq.n	70d4 <attsProcFindInfoReq+0x94>
    7142:	3001      	adds	r0, #1
    7144:	b280      	uxth	r0, r0
    7146:	4548      	cmp	r0, r9
    7148:	f104 0404 	add.w	r4, r4, #4
    714c:	d99b      	bls.n	7086 <attsProcFindInfoReq+0x46>
    714e:	e7c1      	b.n	70d4 <attsProcFindInfoReq+0x94>
    7150:	46c2      	mov	sl, r8
    7152:	e7bf      	b.n	70d4 <attsProcFindInfoReq+0x94>
    7154:	2400      	movs	r4, #0
    7156:	e7c5      	b.n	70e4 <attsProcFindInfoReq+0xa4>
    7158:	2411      	movs	r4, #17
    715a:	e7c3      	b.n	70e4 <attsProcFindInfoReq+0xa4>
    715c:	b002      	add	sp, #8
    715e:	e8bd 87f0 	ldmia.w	sp!, {r4, r5, r6, r7, r8, r9, sl, pc}

00007162 <attsProcReadReq>:
    7162:	b5f0      	push	{r4, r5, r6, r7, lr}
    7164:	7a94      	ldrb	r4, [r2, #10]
    7166:	7a53      	ldrb	r3, [r2, #9]
    7168:	eb03 2404 	add.w	r4, r3, r4, lsl #8
    716c:	b085      	sub	sp, #20
    716e:	b2a4      	uxth	r4, r4
    7170:	4605      	mov	r5, r0
    7172:	a903      	add	r1, sp, #12
    7174:	4620      	mov	r0, r4
    7176:	f7ff fee0 	bl	6f3a <attsFindByHandle>
    717a:	4607      	mov	r7, r0
    717c:	2800      	cmp	r0, #0
    717e:	d040      	beq.n	7202 <attsProcReadReq+0xa0>
    7180:	7bfb      	ldrb	r3, [r7, #15]
    7182:	7f28      	ldrb	r0, [r5, #28]
    7184:	2101      	movs	r1, #1
    7186:	4622      	mov	r2, r4
    7188:	f7ff ff04 	bl	6f94 <attsPermissions>
    718c:	4603      	mov	r3, r0
    718e:	2800      	cmp	r0, #0
    7190:	d138      	bne.n	7204 <attsProcReadReq+0xa2>
    7192:	7bba      	ldrb	r2, [r7, #14]
    7194:	0751      	lsls	r1, r2, #29
    7196:	d508      	bpl.n	71aa <attsProcReadReq+0x48>
    7198:	9903      	ldr	r1, [sp, #12]
    719a:	688e      	ldr	r6, [r1, #8]
    719c:	b12e      	cbz	r6, 71aa <attsProcReadReq+0x48>
    719e:	7f28      	ldrb	r0, [r5, #28]
    71a0:	9700      	str	r7, [sp, #0]
    71a2:	4621      	mov	r1, r4
    71a4:	220a      	movs	r2, #10
    71a6:	47b0      	blx	r6
    71a8:	e028      	b.n	71fc <attsProcReadReq+0x9a>
    71aa:	0693      	lsls	r3, r2, #26
    71ac:	d41d      	bmi.n	71ea <attsProcReadReq+0x88>
    71ae:	68bb      	ldr	r3, [r7, #8]
    71b0:	881a      	ldrh	r2, [r3, #0]
    71b2:	8b6b      	ldrh	r3, [r5, #26]
    71b4:	1e5c      	subs	r4, r3, #1
    71b6:	4294      	cmp	r4, r2
    71b8:	bfa8      	it	ge
    71ba:	4614      	movge	r4, r2
    71bc:	b2a4      	uxth	r4, r4
    71be:	f104 0009 	add.w	r0, r4, #9
    71c2:	b280      	uxth	r0, r0
    71c4:	f7fd fc7a 	bl	4abc <WsfMsgAlloc>
    71c8:	4606      	mov	r6, r0
    71ca:	b300      	cbz	r0, 720e <attsProcReadReq+0xac>
    71cc:	230b      	movs	r3, #11
    71ce:	7203      	strb	r3, [r0, #8]
    71d0:	6879      	ldr	r1, [r7, #4]
    71d2:	4622      	mov	r2, r4
    71d4:	3009      	adds	r0, #9
    71d6:	f002 fd53 	bl	9c80 <memcpy>
    71da:	1c62      	adds	r2, r4, #1
    71dc:	2004      	movs	r0, #4
    71de:	8b29      	ldrh	r1, [r5, #24]
    71e0:	b292      	uxth	r2, r2
    71e2:	4633      	mov	r3, r6
    71e4:	f001 fdbe 	bl	8d64 <L2cDataReq>
    71e8:	e011      	b.n	720e <attsProcReadReq+0xac>
    71ea:	4b0a      	ldr	r3, [pc, #40]	; (7214 <attsProcReadReq+0xb2>)
    71ec:	695e      	ldr	r6, [r3, #20]
    71ee:	2e00      	cmp	r6, #0
    71f0:	d0dd      	beq.n	71ae <attsProcReadReq+0x4c>
    71f2:	7f28      	ldrb	r0, [r5, #28]
    71f4:	687b      	ldr	r3, [r7, #4]
    71f6:	2105      	movs	r1, #5
    71f8:	4622      	mov	r2, r4
    71fa:	47b0      	blx	r6
    71fc:	4603      	mov	r3, r0
    71fe:	b908      	cbnz	r0, 7204 <attsProcReadReq+0xa2>
    7200:	e7d5      	b.n	71ae <attsProcReadReq+0x4c>
    7202:	2301      	movs	r3, #1
    7204:	8b28      	ldrh	r0, [r5, #24]
    7206:	210a      	movs	r1, #10
    7208:	4622      	mov	r2, r4
    720a:	f7ff fd37 	bl	6c7c <attsErrRsp>
    720e:	b005      	add	sp, #20
    7210:	bdf0      	pop	{r4, r5, r6, r7, pc}
    7212:	bf00      	nop
    7214:	10000b14 	.word	0x10000b14

00007218 <attsFindUuidInRange>:
    7218:	e92d 43f8 	stmdb	sp!, {r3, r4, r5, r6, r7, r8, r9, lr}
    721c:	4699      	mov	r9, r3
    721e:	4b19      	ldr	r3, [pc, #100]	; (7284 <attsFindUuidInRange+0x6c>)
    7220:	9e08      	ldr	r6, [sp, #32]
    7222:	681c      	ldr	r4, [r3, #0]
    7224:	4605      	mov	r5, r0
    7226:	460f      	mov	r7, r1
    7228:	4690      	mov	r8, r2
    722a:	b194      	cbz	r4, 7252 <attsFindUuidInRange+0x3a>
    722c:	8a22      	ldrh	r2, [r4, #16]
    722e:	4295      	cmp	r5, r2
    7230:	d202      	bcs.n	7238 <attsFindUuidInRange+0x20>
    7232:	4297      	cmp	r7, r2
    7234:	d30b      	bcc.n	724e <attsFindUuidInRange+0x36>
    7236:	4615      	mov	r5, r2
    7238:	8a63      	ldrh	r3, [r4, #18]
    723a:	42ab      	cmp	r3, r5
    723c:	d307      	bcc.n	724e <attsFindUuidInRange+0x36>
    723e:	6863      	ldr	r3, [r4, #4]
    7240:	1aaa      	subs	r2, r5, r2
    7242:	eb03 1202 	add.w	r2, r3, r2, lsl #4
    7246:	8a63      	ldrh	r3, [r4, #18]
    7248:	6032      	str	r2, [r6, #0]
    724a:	42ab      	cmp	r3, r5
    724c:	d204      	bcs.n	7258 <attsFindUuidInRange+0x40>
    724e:	6824      	ldr	r4, [r4, #0]
    7250:	e7eb      	b.n	722a <attsFindUuidInRange+0x12>
    7252:	4620      	mov	r0, r4
    7254:	e8bd 83f8 	ldmia.w	sp!, {r3, r4, r5, r6, r7, r8, r9, pc}
    7258:	42bd      	cmp	r5, r7
    725a:	d8f8      	bhi.n	724e <attsFindUuidInRange+0x36>
    725c:	6830      	ldr	r0, [r6, #0]
    725e:	4641      	mov	r1, r8
    7260:	464a      	mov	r2, r9
    7262:	f7ff fe37 	bl	6ed4 <attsUuidCmp>
    7266:	b120      	cbz	r0, 7272 <attsFindUuidInRange+0x5a>
    7268:	9b09      	ldr	r3, [sp, #36]	; 0x24
    726a:	4628      	mov	r0, r5
    726c:	601c      	str	r4, [r3, #0]
    726e:	e8bd 83f8 	ldmia.w	sp!, {r3, r4, r5, r6, r7, r8, r9, pc}
    7272:	f64f 73ff 	movw	r3, #65535	; 0xffff
    7276:	429d      	cmp	r5, r3
    7278:	d0e9      	beq.n	724e <attsFindUuidInRange+0x36>
    727a:	6832      	ldr	r2, [r6, #0]
    727c:	1c68      	adds	r0, r5, #1
    727e:	b285      	uxth	r5, r0
    7280:	3210      	adds	r2, #16
    7282:	e7e0      	b.n	7246 <attsFindUuidInRange+0x2e>
    7284:	10000b14 	.word	0x10000b14

00007288 <attsFindServiceGroupEnd>:
    7288:	b5f7      	push	{r0, r1, r2, r4, r5, r6, r7, lr}
    728a:	2300      	movs	r3, #0
    728c:	f88d 3000 	strb.w	r3, [sp]
    7290:	2328      	movs	r3, #40	; 0x28
    7292:	f88d 3001 	strb.w	r3, [sp, #1]
    7296:	4b1e      	ldr	r3, [pc, #120]	; (7310 <attsFindServiceGroupEnd+0x88>)
    7298:	881b      	ldrh	r3, [r3, #0]
    729a:	f8ad 3004 	strh.w	r3, [sp, #4]
    729e:	f64f 73ff 	movw	r3, #65535	; 0xffff
    72a2:	4298      	cmp	r0, r3
    72a4:	4605      	mov	r5, r0
    72a6:	d102      	bne.n	72ae <attsFindServiceGroupEnd+0x26>
    72a8:	f64f 70ff 	movw	r0, #65535	; 0xffff
    72ac:	e02d      	b.n	730a <attsFindServiceGroupEnd+0x82>
    72ae:	4b19      	ldr	r3, [pc, #100]	; (7314 <attsFindServiceGroupEnd+0x8c>)
    72b0:	1c44      	adds	r4, r0, #1
    72b2:	681e      	ldr	r6, [r3, #0]
    72b4:	b2a4      	uxth	r4, r4
    72b6:	2e00      	cmp	r6, #0
    72b8:	d0f6      	beq.n	72a8 <attsFindServiceGroupEnd+0x20>
    72ba:	8a37      	ldrh	r7, [r6, #16]
    72bc:	8a73      	ldrh	r3, [r6, #18]
    72be:	42bc      	cmp	r4, r7
    72c0:	bf38      	it	cc
    72c2:	463c      	movcc	r4, r7
    72c4:	42a3      	cmp	r3, r4
    72c6:	d31e      	bcc.n	7306 <attsFindServiceGroupEnd+0x7e>
    72c8:	6873      	ldr	r3, [r6, #4]
    72ca:	1be7      	subs	r7, r4, r7
    72cc:	eb03 1707 	add.w	r7, r3, r7, lsl #4
    72d0:	8a73      	ldrh	r3, [r6, #18]
    72d2:	42a3      	cmp	r3, r4
    72d4:	d317      	bcc.n	7306 <attsFindServiceGroupEnd+0x7e>
    72d6:	4638      	mov	r0, r7
    72d8:	2102      	movs	r1, #2
    72da:	466a      	mov	r2, sp
    72dc:	f7ff fdfa 	bl	6ed4 <attsUuidCmp>
    72e0:	b108      	cbz	r0, 72e6 <attsFindServiceGroupEnd+0x5e>
    72e2:	4628      	mov	r0, r5
    72e4:	e011      	b.n	730a <attsFindServiceGroupEnd+0x82>
    72e6:	4638      	mov	r0, r7
    72e8:	2102      	movs	r1, #2
    72ea:	aa01      	add	r2, sp, #4
    72ec:	f7ff fdf2 	bl	6ed4 <attsUuidCmp>
    72f0:	2800      	cmp	r0, #0
    72f2:	d1f6      	bne.n	72e2 <attsFindServiceGroupEnd+0x5a>
    72f4:	f64f 73ff 	movw	r3, #65535	; 0xffff
    72f8:	429c      	cmp	r4, r3
    72fa:	d0d5      	beq.n	72a8 <attsFindServiceGroupEnd+0x20>
    72fc:	1c63      	adds	r3, r4, #1
    72fe:	4625      	mov	r5, r4
    7300:	3710      	adds	r7, #16
    7302:	b29c      	uxth	r4, r3
    7304:	e7e4      	b.n	72d0 <attsFindServiceGroupEnd+0x48>
    7306:	6836      	ldr	r6, [r6, #0]
    7308:	e7d5      	b.n	72b6 <attsFindServiceGroupEnd+0x2e>
    730a:	b003      	add	sp, #12
    730c:	bdf0      	pop	{r4, r5, r6, r7, pc}
    730e:	bf00      	nop
    7310:	0000f238 	.word	0x0000f238
    7314:	10000b14 	.word	0x10000b14

00007318 <attsProcReadBlobReq>:
    7318:	e92d 41ff 	stmdb	sp!, {r0, r1, r2, r3, r4, r5, r6, r7, r8, lr}
    731c:	7a94      	ldrb	r4, [r2, #10]
    731e:	7a53      	ldrb	r3, [r2, #9]
    7320:	7ad5      	ldrb	r5, [r2, #11]
    7322:	f892 800c 	ldrb.w	r8, [r2, #12]
    7326:	eb03 2404 	add.w	r4, r3, r4, lsl #8
    732a:	b2a4      	uxth	r4, r4
    732c:	4606      	mov	r6, r0
    732e:	a903      	add	r1, sp, #12
    7330:	4620      	mov	r0, r4
    7332:	f7ff fe02 	bl	6f3a <attsFindByHandle>
    7336:	4607      	mov	r7, r0
    7338:	2800      	cmp	r0, #0
    733a:	d04f      	beq.n	73dc <attsProcReadBlobReq+0xc4>
    733c:	7bfb      	ldrb	r3, [r7, #15]
    733e:	7f30      	ldrb	r0, [r6, #28]
    7340:	2101      	movs	r1, #1
    7342:	4622      	mov	r2, r4
    7344:	f7ff fe26 	bl	6f94 <attsPermissions>
    7348:	4603      	mov	r3, r0
    734a:	2800      	cmp	r0, #0
    734c:	d149      	bne.n	73e2 <attsProcReadBlobReq+0xca>
    734e:	68bb      	ldr	r3, [r7, #8]
    7350:	eb05 2508 	add.w	r5, r5, r8, lsl #8
    7354:	881b      	ldrh	r3, [r3, #0]
    7356:	b2ad      	uxth	r5, r5
    7358:	42ab      	cmp	r3, r5
    735a:	d341      	bcc.n	73e0 <attsProcReadBlobReq+0xc8>
    735c:	7bbb      	ldrb	r3, [r7, #14]
    735e:	075a      	lsls	r2, r3, #29
    7360:	d50c      	bpl.n	737c <attsProcReadBlobReq+0x64>
    7362:	9a03      	ldr	r2, [sp, #12]
    7364:	f8d2 c008 	ldr.w	ip, [r2, #8]
    7368:	f1bc 0f00 	cmp.w	ip, #0
    736c:	d006      	beq.n	737c <attsProcReadBlobReq+0x64>
    736e:	7f30      	ldrb	r0, [r6, #28]
    7370:	9700      	str	r7, [sp, #0]
    7372:	4621      	mov	r1, r4
    7374:	220c      	movs	r2, #12
    7376:	462b      	mov	r3, r5
    7378:	47e0      	blx	ip
    737a:	e02c      	b.n	73d6 <attsProcReadBlobReq+0xbe>
    737c:	069b      	lsls	r3, r3, #26
    737e:	d41f      	bmi.n	73c0 <attsProcReadBlobReq+0xa8>
    7380:	68bb      	ldr	r3, [r7, #8]
    7382:	881c      	ldrh	r4, [r3, #0]
    7384:	8b73      	ldrh	r3, [r6, #26]
    7386:	1b64      	subs	r4, r4, r5
    7388:	3b01      	subs	r3, #1
    738a:	429c      	cmp	r4, r3
    738c:	bfa8      	it	ge
    738e:	461c      	movge	r4, r3
    7390:	b2a4      	uxth	r4, r4
    7392:	f104 0009 	add.w	r0, r4, #9
    7396:	b280      	uxth	r0, r0
    7398:	f7fd fb90 	bl	4abc <WsfMsgAlloc>
    739c:	4680      	mov	r8, r0
    739e:	b328      	cbz	r0, 73ec <attsProcReadBlobReq+0xd4>
    73a0:	230d      	movs	r3, #13
    73a2:	7203      	strb	r3, [r0, #8]
    73a4:	6879      	ldr	r1, [r7, #4]
    73a6:	4622      	mov	r2, r4
    73a8:	4429      	add	r1, r5
    73aa:	3009      	adds	r0, #9
    73ac:	f002 fc68 	bl	9c80 <memcpy>
    73b0:	1c62      	adds	r2, r4, #1
    73b2:	2004      	movs	r0, #4
    73b4:	8b31      	ldrh	r1, [r6, #24]
    73b6:	b292      	uxth	r2, r2
    73b8:	4643      	mov	r3, r8
    73ba:	f001 fcd3 	bl	8d64 <L2cDataReq>
    73be:	e015      	b.n	73ec <attsProcReadBlobReq+0xd4>
    73c0:	4b0c      	ldr	r3, [pc, #48]	; (73f4 <attsProcReadBlobReq+0xdc>)
    73c2:	f8d3 c014 	ldr.w	ip, [r3, #20]
    73c6:	f1bc 0f00 	cmp.w	ip, #0
    73ca:	d0d9      	beq.n	7380 <attsProcReadBlobReq+0x68>
    73cc:	7f30      	ldrb	r0, [r6, #28]
    73ce:	687b      	ldr	r3, [r7, #4]
    73d0:	2105      	movs	r1, #5
    73d2:	4622      	mov	r2, r4
    73d4:	47e0      	blx	ip
    73d6:	4603      	mov	r3, r0
    73d8:	b918      	cbnz	r0, 73e2 <attsProcReadBlobReq+0xca>
    73da:	e7d1      	b.n	7380 <attsProcReadBlobReq+0x68>
    73dc:	2301      	movs	r3, #1
    73de:	e000      	b.n	73e2 <attsProcReadBlobReq+0xca>
    73e0:	2307      	movs	r3, #7
    73e2:	8b30      	ldrh	r0, [r6, #24]
    73e4:	210c      	movs	r1, #12
    73e6:	4622      	mov	r2, r4
    73e8:	f7ff fc48 	bl	6c7c <attsErrRsp>
    73ec:	b004      	add	sp, #16
    73ee:	e8bd 81f0 	ldmia.w	sp!, {r4, r5, r6, r7, r8, pc}
    73f2:	bf00      	nop
    73f4:	10000b14 	.word	0x10000b14

000073f8 <attsProcFindTypeReq>:
    73f8:	e92d 4ff0 	stmdb	sp!, {r4, r5, r6, r7, r8, r9, sl, fp, lr}
    73fc:	7a53      	ldrb	r3, [r2, #9]
    73fe:	7a96      	ldrb	r6, [r2, #10]
    7400:	f892 800c 	ldrb.w	r8, [r2, #12]
    7404:	eb03 2606 	add.w	r6, r3, r6, lsl #8
    7408:	b2b6      	uxth	r6, r6
    740a:	b087      	sub	sp, #28
    740c:	4682      	mov	sl, r0
    740e:	4689      	mov	r9, r1
    7410:	4693      	mov	fp, r2
    7412:	7ad3      	ldrb	r3, [r2, #11]
    7414:	b12e      	cbz	r6, 7422 <attsProcFindTypeReq+0x2a>
    7416:	eb03 2808 	add.w	r8, r3, r8, lsl #8
    741a:	fa1f f888 	uxth.w	r8, r8
    741e:	4546      	cmp	r6, r8
    7420:	d901      	bls.n	7426 <attsProcFindTypeReq+0x2e>
    7422:	2401      	movs	r4, #1
    7424:	e024      	b.n	7470 <attsProcFindTypeReq+0x78>
    7426:	8b40      	ldrh	r0, [r0, #26]
    7428:	3008      	adds	r0, #8
    742a:	b280      	uxth	r0, r0
    742c:	f7fd fb46 	bl	4abc <WsfMsgAlloc>
    7430:	4607      	mov	r7, r0
    7432:	2800      	cmp	r0, #0
    7434:	d062      	beq.n	74fc <attsProcFindTypeReq+0x104>
    7436:	f1a9 0907 	sub.w	r9, r9, #7
    743a:	f107 0509 	add.w	r5, r7, #9
    743e:	2307      	movs	r3, #7
    7440:	fa1f f989 	uxth.w	r9, r9
    7444:	723b      	strb	r3, [r7, #8]
    7446:	4630      	mov	r0, r6
    7448:	9503      	str	r5, [sp, #12]
    744a:	ab04      	add	r3, sp, #16
    744c:	9300      	str	r3, [sp, #0]
    744e:	ab05      	add	r3, sp, #20
    7450:	9301      	str	r3, [sp, #4]
    7452:	4641      	mov	r1, r8
    7454:	2202      	movs	r2, #2
    7456:	f10b 030d 	add.w	r3, fp, #13
    745a:	f7ff fedd 	bl	7218 <attsFindUuidInRange>
    745e:	4604      	mov	r4, r0
    7460:	b9e0      	cbnz	r0, 749c <attsProcFindTypeReq+0xa4>
    7462:	9b03      	ldr	r3, [sp, #12]
    7464:	429d      	cmp	r5, r3
    7466:	d147      	bne.n	74f8 <attsProcFindTypeReq+0x100>
    7468:	4638      	mov	r0, r7
    746a:	f7fd fb3f 	bl	4aec <WsfMsgFree>
    746e:	240a      	movs	r4, #10
    7470:	4650      	mov	r0, sl
    7472:	f7ff fc83 	bl	6d7c <attsDiscBusy>
    7476:	f8ba 1018 	ldrh.w	r1, [sl, #24]
    747a:	b944      	cbnz	r4, 748e <attsProcFindTypeReq+0x96>
    747c:	f107 0208 	add.w	r2, r7, #8
    7480:	1aaa      	subs	r2, r5, r2
    7482:	2004      	movs	r0, #4
    7484:	b292      	uxth	r2, r2
    7486:	463b      	mov	r3, r7
    7488:	f001 fc6c 	bl	8d64 <L2cDataReq>
    748c:	e03d      	b.n	750a <attsProcFindTypeReq+0x112>
    748e:	4608      	mov	r0, r1
    7490:	4632      	mov	r2, r6
    7492:	2106      	movs	r1, #6
    7494:	4623      	mov	r3, r4
    7496:	f7ff fbf1 	bl	6c7c <attsErrRsp>
    749a:	e036      	b.n	750a <attsProcFindTypeReq+0x112>
    749c:	9b04      	ldr	r3, [sp, #16]
    749e:	7bda      	ldrb	r2, [r3, #15]
    74a0:	07d2      	lsls	r2, r2, #31
    74a2:	d52d      	bpl.n	7500 <attsProcFindTypeReq+0x108>
    74a4:	f1b9 0f00 	cmp.w	r9, #0
    74a8:	d00a      	beq.n	74c0 <attsProcFindTypeReq+0xc8>
    74aa:	689a      	ldr	r2, [r3, #8]
    74ac:	8812      	ldrh	r2, [r2, #0]
    74ae:	454a      	cmp	r2, r9
    74b0:	d126      	bne.n	7500 <attsProcFindTypeReq+0x108>
    74b2:	f10b 000f 	add.w	r0, fp, #15
    74b6:	6859      	ldr	r1, [r3, #4]
    74b8:	464a      	mov	r2, r9
    74ba:	f002 fbad 	bl	9c18 <memcmp>
    74be:	b9f8      	cbnz	r0, 7500 <attsProcFindTypeReq+0x108>
    74c0:	f89b 300d 	ldrb.w	r3, [fp, #13]
    74c4:	b93b      	cbnz	r3, 74d6 <attsProcFindTypeReq+0xde>
    74c6:	f89b 300e 	ldrb.w	r3, [fp, #14]
    74ca:	2b28      	cmp	r3, #40	; 0x28
    74cc:	4620      	mov	r0, r4
    74ce:	d103      	bne.n	74d8 <attsProcFindTypeReq+0xe0>
    74d0:	f7ff feda 	bl	7288 <attsFindServiceGroupEnd>
    74d4:	e000      	b.n	74d8 <attsProcFindTypeReq+0xe0>
    74d6:	4620      	mov	r0, r4
    74d8:	f8ba 301a 	ldrh.w	r3, [sl, #26]
    74dc:	3308      	adds	r3, #8
    74de:	1d2a      	adds	r2, r5, #4
    74e0:	443b      	add	r3, r7
    74e2:	429a      	cmp	r2, r3
    74e4:	d8bd      	bhi.n	7462 <attsProcFindTypeReq+0x6a>
    74e6:	702c      	strb	r4, [r5, #0]
    74e8:	0a03      	lsrs	r3, r0, #8
    74ea:	0a24      	lsrs	r4, r4, #8
    74ec:	706c      	strb	r4, [r5, #1]
    74ee:	70a8      	strb	r0, [r5, #2]
    74f0:	70eb      	strb	r3, [r5, #3]
    74f2:	4604      	mov	r4, r0
    74f4:	4615      	mov	r5, r2
    74f6:	e003      	b.n	7500 <attsProcFindTypeReq+0x108>
    74f8:	2400      	movs	r4, #0
    74fa:	e7b9      	b.n	7470 <attsProcFindTypeReq+0x78>
    74fc:	2411      	movs	r4, #17
    74fe:	e7b7      	b.n	7470 <attsProcFindTypeReq+0x78>
    7500:	4544      	cmp	r4, r8
    7502:	d2ae      	bcs.n	7462 <attsProcFindTypeReq+0x6a>
    7504:	1c60      	adds	r0, r4, #1
    7506:	b280      	uxth	r0, r0
    7508:	e79f      	b.n	744a <attsProcFindTypeReq+0x52>
    750a:	b007      	add	sp, #28
    750c:	e8bd 8ff0 	ldmia.w	sp!, {r4, r5, r6, r7, r8, r9, sl, fp, pc}

00007510 <attsProcReadTypeReq>:
    7510:	e92d 4ff0 	stmdb	sp!, {r4, r5, r6, r7, r8, r9, sl, fp, lr}
    7514:	3905      	subs	r1, #5
    7516:	7a53      	ldrb	r3, [r2, #9]
    7518:	7a94      	ldrb	r4, [r2, #10]
    751a:	f892 900c 	ldrb.w	r9, [r2, #12]
    751e:	fa5f fa81 	uxtb.w	sl, r1
    7522:	eb03 2404 	add.w	r4, r3, r4, lsl #8
    7526:	f1ba 0f02 	cmp.w	sl, #2
    752a:	b089      	sub	sp, #36	; 0x24
    752c:	4606      	mov	r6, r0
    752e:	b2a4      	uxth	r4, r4
    7530:	7ad3      	ldrb	r3, [r2, #11]
    7532:	d002      	beq.n	753a <attsProcReadTypeReq+0x2a>
    7534:	f1ba 0f10 	cmp.w	sl, #16
    7538:	d107      	bne.n	754a <attsProcReadTypeReq+0x3a>
    753a:	b144      	cbz	r4, 754e <attsProcReadTypeReq+0x3e>
    753c:	eb03 2909 	add.w	r9, r3, r9, lsl #8
    7540:	fa1f f989 	uxth.w	r9, r9
    7544:	454c      	cmp	r4, r9
    7546:	d802      	bhi.n	754e <attsProcReadTypeReq+0x3e>
    7548:	e003      	b.n	7552 <attsProcReadTypeReq+0x42>
    754a:	2304      	movs	r3, #4
    754c:	e0c5      	b.n	76da <attsProcReadTypeReq+0x1ca>
    754e:	2301      	movs	r3, #1
    7550:	e0c3      	b.n	76da <attsProcReadTypeReq+0x1ca>
    7552:	f102 030d 	add.w	r3, r2, #13
    7556:	9304      	str	r3, [sp, #16]
    7558:	ab06      	add	r3, sp, #24
    755a:	9300      	str	r3, [sp, #0]
    755c:	ab07      	add	r3, sp, #28
    755e:	9301      	str	r3, [sp, #4]
    7560:	4620      	mov	r0, r4
    7562:	4649      	mov	r1, r9
    7564:	4652      	mov	r2, sl
    7566:	9b04      	ldr	r3, [sp, #16]
    7568:	f7ff fe56 	bl	7218 <attsFindUuidInRange>
    756c:	4604      	mov	r4, r0
    756e:	2800      	cmp	r0, #0
    7570:	f000 80a5 	beq.w	76be <attsProcReadTypeReq+0x1ae>
    7574:	9b06      	ldr	r3, [sp, #24]
    7576:	7f30      	ldrb	r0, [r6, #28]
    7578:	7bdb      	ldrb	r3, [r3, #15]
    757a:	2101      	movs	r1, #1
    757c:	4622      	mov	r2, r4
    757e:	f7ff fd09 	bl	6f94 <attsPermissions>
    7582:	4603      	mov	r3, r0
    7584:	2800      	cmp	r0, #0
    7586:	f040 80a8 	bne.w	76da <attsProcReadTypeReq+0x1ca>
    758a:	9d06      	ldr	r5, [sp, #24]
    758c:	7baa      	ldrb	r2, [r5, #14]
    758e:	0757      	lsls	r7, r2, #29
    7590:	d508      	bpl.n	75a4 <attsProcReadTypeReq+0x94>
    7592:	9907      	ldr	r1, [sp, #28]
    7594:	688f      	ldr	r7, [r1, #8]
    7596:	b12f      	cbz	r7, 75a4 <attsProcReadTypeReq+0x94>
    7598:	7f30      	ldrb	r0, [r6, #28]
    759a:	9500      	str	r5, [sp, #0]
    759c:	4621      	mov	r1, r4
    759e:	2208      	movs	r2, #8
    75a0:	47b8      	blx	r7
    75a2:	e013      	b.n	75cc <attsProcReadTypeReq+0xbc>
    75a4:	0690      	lsls	r0, r2, #26
    75a6:	d408      	bmi.n	75ba <attsProcReadTypeReq+0xaa>
    75a8:	8b70      	ldrh	r0, [r6, #26]
    75aa:	3008      	adds	r0, #8
    75ac:	b280      	uxth	r0, r0
    75ae:	f7fd fa85 	bl	4abc <WsfMsgAlloc>
    75b2:	4680      	mov	r8, r0
    75b4:	b970      	cbnz	r0, 75d4 <attsProcReadTypeReq+0xc4>
    75b6:	2311      	movs	r3, #17
    75b8:	e08f      	b.n	76da <attsProcReadTypeReq+0x1ca>
    75ba:	4b4c      	ldr	r3, [pc, #304]	; (76ec <attsProcReadTypeReq+0x1dc>)
    75bc:	695f      	ldr	r7, [r3, #20]
    75be:	2f00      	cmp	r7, #0
    75c0:	d0f2      	beq.n	75a8 <attsProcReadTypeReq+0x98>
    75c2:	7f30      	ldrb	r0, [r6, #28]
    75c4:	686b      	ldr	r3, [r5, #4]
    75c6:	2105      	movs	r1, #5
    75c8:	4622      	mov	r2, r4
    75ca:	47b8      	blx	r7
    75cc:	4603      	mov	r3, r0
    75ce:	2800      	cmp	r0, #0
    75d0:	d0ea      	beq.n	75a8 <attsProcReadTypeReq+0x98>
    75d2:	e082      	b.n	76da <attsProcReadTypeReq+0x1ca>
    75d4:	9a06      	ldr	r2, [sp, #24]
    75d6:	2309      	movs	r3, #9
    75d8:	7203      	strb	r3, [r0, #8]
    75da:	6893      	ldr	r3, [r2, #8]
    75dc:	8819      	ldrh	r1, [r3, #0]
    75de:	8b73      	ldrh	r3, [r6, #26]
    75e0:	7284      	strb	r4, [r0, #10]
    75e2:	1f1f      	subs	r7, r3, #4
    75e4:	428f      	cmp	r7, r1
    75e6:	bf28      	it	cs
    75e8:	460f      	movcs	r7, r1
    75ea:	b2ff      	uxtb	r7, r7
    75ec:	0a23      	lsrs	r3, r4, #8
    75ee:	f107 0b02 	add.w	fp, r7, #2
    75f2:	f880 b009 	strb.w	fp, [r0, #9]
    75f6:	72c3      	strb	r3, [r0, #11]
    75f8:	f100 050c 	add.w	r5, r0, #12
    75fc:	4628      	mov	r0, r5
    75fe:	6851      	ldr	r1, [r2, #4]
    7600:	3401      	adds	r4, #1
    7602:	463a      	mov	r2, r7
    7604:	f002 fb3c 	bl	9c80 <memcpy>
    7608:	445d      	add	r5, fp
    760a:	b2a0      	uxth	r0, r4
    760c:	1eab      	subs	r3, r5, #2
    760e:	9303      	str	r3, [sp, #12]
    7610:	ab06      	add	r3, sp, #24
    7612:	9300      	str	r3, [sp, #0]
    7614:	ab07      	add	r3, sp, #28
    7616:	9301      	str	r3, [sp, #4]
    7618:	4649      	mov	r1, r9
    761a:	4652      	mov	r2, sl
    761c:	9b04      	ldr	r3, [sp, #16]
    761e:	f7ff fdfb 	bl	7218 <attsFindUuidInRange>
    7622:	4604      	mov	r4, r0
    7624:	2800      	cmp	r0, #0
    7626:	d04d      	beq.n	76c4 <attsProcReadTypeReq+0x1b4>
    7628:	9b06      	ldr	r3, [sp, #24]
    762a:	7b9a      	ldrb	r2, [r3, #14]
    762c:	0751      	lsls	r1, r2, #29
    762e:	d50c      	bpl.n	764a <attsProcReadTypeReq+0x13a>
    7630:	9907      	ldr	r1, [sp, #28]
    7632:	f8d1 c008 	ldr.w	ip, [r1, #8]
    7636:	f1bc 0f00 	cmp.w	ip, #0
    763a:	d006      	beq.n	764a <attsProcReadTypeReq+0x13a>
    763c:	9300      	str	r3, [sp, #0]
    763e:	7f30      	ldrb	r0, [r6, #28]
    7640:	4621      	mov	r1, r4
    7642:	2208      	movs	r2, #8
    7644:	2300      	movs	r3, #0
    7646:	47e0      	blx	ip
    7648:	e012      	b.n	7670 <attsProcReadTypeReq+0x160>
    764a:	0692      	lsls	r2, r2, #26
    764c:	d405      	bmi.n	765a <attsProcReadTypeReq+0x14a>
    764e:	9b06      	ldr	r3, [sp, #24]
    7650:	689a      	ldr	r2, [r3, #8]
    7652:	8812      	ldrh	r2, [r2, #0]
    7654:	42ba      	cmp	r2, r7
    7656:	d00e      	beq.n	7676 <attsProcReadTypeReq+0x166>
    7658:	e034      	b.n	76c4 <attsProcReadTypeReq+0x1b4>
    765a:	4a24      	ldr	r2, [pc, #144]	; (76ec <attsProcReadTypeReq+0x1dc>)
    765c:	f8d2 c014 	ldr.w	ip, [r2, #20]
    7660:	f1bc 0f00 	cmp.w	ip, #0
    7664:	d0f3      	beq.n	764e <attsProcReadTypeReq+0x13e>
    7666:	7f30      	ldrb	r0, [r6, #28]
    7668:	685b      	ldr	r3, [r3, #4]
    766a:	2105      	movs	r1, #5
    766c:	4622      	mov	r2, r4
    766e:	47e0      	blx	ip
    7670:	2800      	cmp	r0, #0
    7672:	d0ec      	beq.n	764e <attsProcReadTypeReq+0x13e>
    7674:	e026      	b.n	76c4 <attsProcReadTypeReq+0x1b4>
    7676:	7f30      	ldrb	r0, [r6, #28]
    7678:	7bdb      	ldrb	r3, [r3, #15]
    767a:	2101      	movs	r1, #1
    767c:	4622      	mov	r2, r4
    767e:	f7ff fc89 	bl	6f94 <attsPermissions>
    7682:	b9f8      	cbnz	r0, 76c4 <attsProcReadTypeReq+0x1b4>
    7684:	8b72      	ldrh	r2, [r6, #26]
    7686:	3208      	adds	r2, #8
    7688:	19eb      	adds	r3, r5, r7
    768a:	4442      	add	r2, r8
    768c:	4293      	cmp	r3, r2
    768e:	9305      	str	r3, [sp, #20]
    7690:	d818      	bhi.n	76c4 <attsProcReadTypeReq+0x1b4>
    7692:	0a22      	lsrs	r2, r4, #8
    7694:	f805 4c02 	strb.w	r4, [r5, #-2]
    7698:	f805 2c01 	strb.w	r2, [r5, #-1]
    769c:	9a06      	ldr	r2, [sp, #24]
    769e:	4628      	mov	r0, r5
    76a0:	6851      	ldr	r1, [r2, #4]
    76a2:	463a      	mov	r2, r7
    76a4:	f002 faec 	bl	9c80 <memcpy>
    76a8:	f64f 72ff 	movw	r2, #65535	; 0xffff
    76ac:	4294      	cmp	r4, r2
    76ae:	9b05      	ldr	r3, [sp, #20]
    76b0:	d007      	beq.n	76c2 <attsProcReadTypeReq+0x1b2>
    76b2:	3401      	adds	r4, #1
    76b4:	b2a0      	uxth	r0, r4
    76b6:	4548      	cmp	r0, r9
    76b8:	445d      	add	r5, fp
    76ba:	d9a7      	bls.n	760c <attsProcReadTypeReq+0xfc>
    76bc:	e001      	b.n	76c2 <attsProcReadTypeReq+0x1b2>
    76be:	230a      	movs	r3, #10
    76c0:	e00b      	b.n	76da <attsProcReadTypeReq+0x1ca>
    76c2:	9303      	str	r3, [sp, #12]
    76c4:	9b03      	ldr	r3, [sp, #12]
    76c6:	8b31      	ldrh	r1, [r6, #24]
    76c8:	f108 0208 	add.w	r2, r8, #8
    76cc:	1a9a      	subs	r2, r3, r2
    76ce:	2004      	movs	r0, #4
    76d0:	b292      	uxth	r2, r2
    76d2:	4643      	mov	r3, r8
    76d4:	f001 fb46 	bl	8d64 <L2cDataReq>
    76d8:	e004      	b.n	76e4 <attsProcReadTypeReq+0x1d4>
    76da:	8b30      	ldrh	r0, [r6, #24]
    76dc:	2108      	movs	r1, #8
    76de:	4622      	mov	r2, r4
    76e0:	f7ff facc 	bl	6c7c <attsErrRsp>
    76e4:	b009      	add	sp, #36	; 0x24
    76e6:	e8bd 8ff0 	ldmia.w	sp!, {r4, r5, r6, r7, r8, r9, sl, fp, pc}
    76ea:	bf00      	nop
    76ec:	10000b14 	.word	0x10000b14

000076f0 <attsProcReadMultReq>:
    76f0:	e92d 4ff0 	stmdb	sp!, {r4, r5, r6, r7, r8, r9, sl, fp, lr}
    76f4:	4607      	mov	r7, r0
    76f6:	8b40      	ldrh	r0, [r0, #26]
    76f8:	3008      	adds	r0, #8
    76fa:	3108      	adds	r1, #8
    76fc:	b085      	sub	sp, #20
    76fe:	b280      	uxth	r0, r0
    7700:	eb02 0a01 	add.w	sl, r2, r1
    7704:	f102 0909 	add.w	r9, r2, #9
    7708:	f7fd f9d8 	bl	4abc <WsfMsgAlloc>
    770c:	4605      	mov	r5, r0
    770e:	2800      	cmp	r0, #0
    7710:	d055      	beq.n	77be <attsProcReadMultReq+0xce>
    7712:	230f      	movs	r3, #15
    7714:	f100 0809 	add.w	r8, r0, #9
    7718:	7203      	strb	r3, [r0, #8]
    771a:	45d1      	cmp	r9, sl
    771c:	d258      	bcs.n	77d0 <attsProcReadMultReq+0xe0>
    771e:	8b7b      	ldrh	r3, [r7, #26]
    7720:	3308      	adds	r3, #8
    7722:	442b      	add	r3, r5
    7724:	4598      	cmp	r8, r3
    7726:	d253      	bcs.n	77d0 <attsProcReadMultReq+0xe0>
    7728:	f899 4001 	ldrb.w	r4, [r9, #1]
    772c:	f819 3b02 	ldrb.w	r3, [r9], #2
    7730:	eb03 2404 	add.w	r4, r3, r4, lsl #8
    7734:	b2a4      	uxth	r4, r4
    7736:	4620      	mov	r0, r4
    7738:	a903      	add	r1, sp, #12
    773a:	f7ff fbfe 	bl	6f3a <attsFindByHandle>
    773e:	4683      	mov	fp, r0
    7740:	2800      	cmp	r0, #0
    7742:	d050      	beq.n	77e6 <attsProcReadMultReq+0xf6>
    7744:	7f38      	ldrb	r0, [r7, #28]
    7746:	f89b 300f 	ldrb.w	r3, [fp, #15]
    774a:	2101      	movs	r1, #1
    774c:	4622      	mov	r2, r4
    774e:	f7ff fc21 	bl	6f94 <attsPermissions>
    7752:	4606      	mov	r6, r0
    7754:	2800      	cmp	r0, #0
    7756:	d147      	bne.n	77e8 <attsProcReadMultReq+0xf8>
    7758:	f89b 300e 	ldrb.w	r3, [fp, #14]
    775c:	075a      	lsls	r2, r3, #29
    775e:	d50d      	bpl.n	777c <attsProcReadMultReq+0x8c>
    7760:	9a03      	ldr	r2, [sp, #12]
    7762:	f8d2 c008 	ldr.w	ip, [r2, #8]
    7766:	f1bc 0f00 	cmp.w	ip, #0
    776a:	d007      	beq.n	777c <attsProcReadMultReq+0x8c>
    776c:	7f38      	ldrb	r0, [r7, #28]
    776e:	f8cd b000 	str.w	fp, [sp]
    7772:	4621      	mov	r1, r4
    7774:	220e      	movs	r2, #14
    7776:	4633      	mov	r3, r6
    7778:	47e0      	blx	ip
    777a:	e00a      	b.n	7792 <attsProcReadMultReq+0xa2>
    777c:	069b      	lsls	r3, r3, #26
    777e:	d50a      	bpl.n	7796 <attsProcReadMultReq+0xa6>
    7780:	4b1d      	ldr	r3, [pc, #116]	; (77f8 <attsProcReadMultReq+0x108>)
    7782:	695e      	ldr	r6, [r3, #20]
    7784:	b13e      	cbz	r6, 7796 <attsProcReadMultReq+0xa6>
    7786:	7f38      	ldrb	r0, [r7, #28]
    7788:	f8db 3004 	ldr.w	r3, [fp, #4]
    778c:	2105      	movs	r1, #5
    778e:	4622      	mov	r2, r4
    7790:	47b0      	blx	r6
    7792:	4606      	mov	r6, r0
    7794:	bb40      	cbnz	r0, 77e8 <attsProcReadMultReq+0xf8>
    7796:	8b7b      	ldrh	r3, [r7, #26]
    7798:	f8db 2008 	ldr.w	r2, [fp, #8]
    779c:	f8db 1004 	ldr.w	r1, [fp, #4]
    77a0:	8814      	ldrh	r4, [r2, #0]
    77a2:	3308      	adds	r3, #8
    77a4:	442b      	add	r3, r5
    77a6:	ebc8 0303 	rsb	r3, r8, r3
    77aa:	b29b      	uxth	r3, r3
    77ac:	429c      	cmp	r4, r3
    77ae:	bf28      	it	cs
    77b0:	461c      	movcs	r4, r3
    77b2:	4640      	mov	r0, r8
    77b4:	4622      	mov	r2, r4
    77b6:	f002 fa63 	bl	9c80 <memcpy>
    77ba:	44a0      	add	r8, r4
    77bc:	e7ad      	b.n	771a <attsProcReadMultReq+0x2a>
    77be:	4604      	mov	r4, r0
    77c0:	2611      	movs	r6, #17
    77c2:	8b38      	ldrh	r0, [r7, #24]
    77c4:	210e      	movs	r1, #14
    77c6:	4622      	mov	r2, r4
    77c8:	4633      	mov	r3, r6
    77ca:	f7ff fa57 	bl	6c7c <attsErrRsp>
    77ce:	e00f      	b.n	77f0 <attsProcReadMultReq+0x100>
    77d0:	f105 0208 	add.w	r2, r5, #8
    77d4:	ebc2 0208 	rsb	r2, r2, r8
    77d8:	2004      	movs	r0, #4
    77da:	8b39      	ldrh	r1, [r7, #24]
    77dc:	b292      	uxth	r2, r2
    77de:	462b      	mov	r3, r5
    77e0:	f001 fac0 	bl	8d64 <L2cDataReq>
    77e4:	e004      	b.n	77f0 <attsProcReadMultReq+0x100>
    77e6:	2601      	movs	r6, #1
    77e8:	4628      	mov	r0, r5
    77ea:	f7fd f97f 	bl	4aec <WsfMsgFree>
    77ee:	e7e8      	b.n	77c2 <attsProcReadMultReq+0xd2>
    77f0:	b005      	add	sp, #20
    77f2:	e8bd 8ff0 	ldmia.w	sp!, {r4, r5, r6, r7, r8, r9, sl, fp, pc}
    77f6:	bf00      	nop
    77f8:	10000b14 	.word	0x10000b14

000077fc <attsProcReadGroupTypeReq>:
    77fc:	e92d 4ff0 	stmdb	sp!, {r4, r5, r6, r7, r8, r9, sl, fp, lr}
    7800:	b08b      	sub	sp, #44	; 0x2c
    7802:	2300      	movs	r3, #0
    7804:	f88d 301c 	strb.w	r3, [sp, #28]
    7808:	2328      	movs	r3, #40	; 0x28
    780a:	f88d 301d 	strb.w	r3, [sp, #29]
    780e:	f892 800a 	ldrb.w	r8, [r2, #10]
    7812:	7a53      	ldrb	r3, [r2, #9]
    7814:	3905      	subs	r1, #5
    7816:	fa5f fa81 	uxtb.w	sl, r1
    781a:	eb03 2808 	add.w	r8, r3, r8, lsl #8
    781e:	f1ba 0f02 	cmp.w	sl, #2
    7822:	4683      	mov	fp, r0
    7824:	fa1f f888 	uxth.w	r8, r8
    7828:	7ad3      	ldrb	r3, [r2, #11]
    782a:	7b10      	ldrb	r0, [r2, #12]
    782c:	d002      	beq.n	7834 <attsProcReadGroupTypeReq+0x38>
    782e:	f1ba 0f10 	cmp.w	sl, #16
    7832:	d114      	bne.n	785e <attsProcReadGroupTypeReq+0x62>
    7834:	f1b8 0f00 	cmp.w	r8, #0
    7838:	d014      	beq.n	7864 <attsProcReadGroupTypeReq+0x68>
    783a:	eb03 2300 	add.w	r3, r3, r0, lsl #8
    783e:	b29b      	uxth	r3, r3
    7840:	4598      	cmp	r8, r3
    7842:	9302      	str	r3, [sp, #8]
    7844:	d80e      	bhi.n	7864 <attsProcReadGroupTypeReq+0x68>
    7846:	f102 030d 	add.w	r3, r2, #13
    784a:	a807      	add	r0, sp, #28
    784c:	4651      	mov	r1, sl
    784e:	461a      	mov	r2, r3
    7850:	9303      	str	r3, [sp, #12]
    7852:	f7ff fb5e 	bl	6f12 <attsUuid16Cmp>
    7856:	b940      	cbnz	r0, 786a <attsProcReadGroupTypeReq+0x6e>
    7858:	f04f 0910 	mov.w	r9, #16
    785c:	e01e      	b.n	789c <attsProcReadGroupTypeReq+0xa0>
    785e:	f04f 0904 	mov.w	r9, #4
    7862:	e01b      	b.n	789c <attsProcReadGroupTypeReq+0xa0>
    7864:	f04f 0901 	mov.w	r9, #1
    7868:	e018      	b.n	789c <attsProcReadGroupTypeReq+0xa0>
    786a:	ab08      	add	r3, sp, #32
    786c:	9300      	str	r3, [sp, #0]
    786e:	ab09      	add	r3, sp, #36	; 0x24
    7870:	9301      	str	r3, [sp, #4]
    7872:	4640      	mov	r0, r8
    7874:	9902      	ldr	r1, [sp, #8]
    7876:	9b03      	ldr	r3, [sp, #12]
    7878:	4652      	mov	r2, sl
    787a:	f7ff fccd 	bl	7218 <attsFindUuidInRange>
    787e:	4604      	mov	r4, r0
    7880:	2800      	cmp	r0, #0
    7882:	f000 8097 	beq.w	79b4 <attsProcReadGroupTypeReq+0x1b8>
    7886:	9b08      	ldr	r3, [sp, #32]
    7888:	f89b 001c 	ldrb.w	r0, [fp, #28]
    788c:	7bdb      	ldrb	r3, [r3, #15]
    788e:	2101      	movs	r1, #1
    7890:	4622      	mov	r2, r4
    7892:	f7ff fb7f 	bl	6f94 <attsPermissions>
    7896:	4681      	mov	r9, r0
    7898:	b1d0      	cbz	r0, 78d0 <attsProcReadGroupTypeReq+0xd4>
    789a:	46a0      	mov	r8, r4
    789c:	2400      	movs	r4, #0
    789e:	4625      	mov	r5, r4
    78a0:	4658      	mov	r0, fp
    78a2:	f7ff fa6b 	bl	6d7c <attsDiscBusy>
    78a6:	f8bb 1018 	ldrh.w	r1, [fp, #24]
    78aa:	f1b9 0f00 	cmp.w	r9, #0
    78ae:	d108      	bne.n	78c2 <attsProcReadGroupTypeReq+0xc6>
    78b0:	f105 0208 	add.w	r2, r5, #8
    78b4:	1aa2      	subs	r2, r4, r2
    78b6:	2004      	movs	r0, #4
    78b8:	b292      	uxth	r2, r2
    78ba:	462b      	mov	r3, r5
    78bc:	f001 fa52 	bl	8d64 <L2cDataReq>
    78c0:	e07b      	b.n	79ba <attsProcReadGroupTypeReq+0x1be>
    78c2:	4608      	mov	r0, r1
    78c4:	4642      	mov	r2, r8
    78c6:	2110      	movs	r1, #16
    78c8:	464b      	mov	r3, r9
    78ca:	f7ff f9d7 	bl	6c7c <attsErrRsp>
    78ce:	e074      	b.n	79ba <attsProcReadGroupTypeReq+0x1be>
    78d0:	f8bb 001a 	ldrh.w	r0, [fp, #26]
    78d4:	3008      	adds	r0, #8
    78d6:	b280      	uxth	r0, r0
    78d8:	f7fd f8f0 	bl	4abc <WsfMsgAlloc>
    78dc:	2311      	movs	r3, #17
    78de:	4605      	mov	r5, r0
    78e0:	2800      	cmp	r0, #0
    78e2:	d064      	beq.n	79ae <attsProcReadGroupTypeReq+0x1b2>
    78e4:	7203      	strb	r3, [r0, #8]
    78e6:	9b08      	ldr	r3, [sp, #32]
    78e8:	689b      	ldr	r3, [r3, #8]
    78ea:	881a      	ldrh	r2, [r3, #0]
    78ec:	f8bb 301a 	ldrh.w	r3, [fp, #26]
    78f0:	7284      	strb	r4, [r0, #10]
    78f2:	1f9f      	subs	r7, r3, #6
    78f4:	4297      	cmp	r7, r2
    78f6:	bf28      	it	cs
    78f8:	4617      	movcs	r7, r2
    78fa:	b2ff      	uxtb	r7, r7
    78fc:	1d3b      	adds	r3, r7, #4
    78fe:	9304      	str	r3, [sp, #16]
    7900:	f89d 3010 	ldrb.w	r3, [sp, #16]
    7904:	7243      	strb	r3, [r0, #9]
    7906:	0a23      	lsrs	r3, r4, #8
    7908:	72c3      	strb	r3, [r0, #11]
    790a:	4620      	mov	r0, r4
    790c:	f7ff fcbc 	bl	7288 <attsFindServiceGroupEnd>
    7910:	0a02      	lsrs	r2, r0, #8
    7912:	7328      	strb	r0, [r5, #12]
    7914:	f105 060e 	add.w	r6, r5, #14
    7918:	9005      	str	r0, [sp, #20]
    791a:	736a      	strb	r2, [r5, #13]
    791c:	9a08      	ldr	r2, [sp, #32]
    791e:	4630      	mov	r0, r6
    7920:	6851      	ldr	r1, [r2, #4]
    7922:	463a      	mov	r2, r7
    7924:	f002 f9ac 	bl	9c80 <memcpy>
    7928:	9b04      	ldr	r3, [sp, #16]
    792a:	441e      	add	r6, r3
    792c:	9b05      	ldr	r3, [sp, #20]
    792e:	f64f 72ff 	movw	r2, #65535	; 0xffff
    7932:	4293      	cmp	r3, r2
    7934:	f1a6 0404 	sub.w	r4, r6, #4
    7938:	d0b2      	beq.n	78a0 <attsProcReadGroupTypeReq+0xa4>
    793a:	1c58      	adds	r0, r3, #1
    793c:	9b02      	ldr	r3, [sp, #8]
    793e:	b280      	uxth	r0, r0
    7940:	4298      	cmp	r0, r3
    7942:	d8ad      	bhi.n	78a0 <attsProcReadGroupTypeReq+0xa4>
    7944:	ab08      	add	r3, sp, #32
    7946:	9300      	str	r3, [sp, #0]
    7948:	ab09      	add	r3, sp, #36	; 0x24
    794a:	9301      	str	r3, [sp, #4]
    794c:	9902      	ldr	r1, [sp, #8]
    794e:	9b03      	ldr	r3, [sp, #12]
    7950:	4652      	mov	r2, sl
    7952:	f7ff fc61 	bl	7218 <attsFindUuidInRange>
    7956:	4684      	mov	ip, r0
    7958:	2800      	cmp	r0, #0
    795a:	d0a1      	beq.n	78a0 <attsProcReadGroupTypeReq+0xa4>
    795c:	9b08      	ldr	r3, [sp, #32]
    795e:	689a      	ldr	r2, [r3, #8]
    7960:	8812      	ldrh	r2, [r2, #0]
    7962:	42ba      	cmp	r2, r7
    7964:	d19c      	bne.n	78a0 <attsProcReadGroupTypeReq+0xa4>
    7966:	f89b 001c 	ldrb.w	r0, [fp, #28]
    796a:	7bdb      	ldrb	r3, [r3, #15]
    796c:	f8cd c014 	str.w	ip, [sp, #20]
    7970:	2101      	movs	r1, #1
    7972:	4662      	mov	r2, ip
    7974:	f7ff fb0e 	bl	6f94 <attsPermissions>
    7978:	2800      	cmp	r0, #0
    797a:	d191      	bne.n	78a0 <attsProcReadGroupTypeReq+0xa4>
    797c:	f8bb 301a 	ldrh.w	r3, [fp, #26]
    7980:	3308      	adds	r3, #8
    7982:	19f2      	adds	r2, r6, r7
    7984:	442b      	add	r3, r5
    7986:	429a      	cmp	r2, r3
    7988:	d88a      	bhi.n	78a0 <attsProcReadGroupTypeReq+0xa4>
    798a:	f8dd c014 	ldr.w	ip, [sp, #20]
    798e:	f806 cc04 	strb.w	ip, [r6, #-4]
    7992:	ea4f 231c 	mov.w	r3, ip, lsr #8
    7996:	f806 3c03 	strb.w	r3, [r6, #-3]
    799a:	4660      	mov	r0, ip
    799c:	f7ff fc74 	bl	7288 <attsFindServiceGroupEnd>
    79a0:	0a02      	lsrs	r2, r0, #8
    79a2:	f806 0c02 	strb.w	r0, [r6, #-2]
    79a6:	9005      	str	r0, [sp, #20]
    79a8:	f806 2c01 	strb.w	r2, [r6, #-1]
    79ac:	e7b6      	b.n	791c <attsProcReadGroupTypeReq+0x120>
    79ae:	4699      	mov	r9, r3
    79b0:	4604      	mov	r4, r0
    79b2:	e775      	b.n	78a0 <attsProcReadGroupTypeReq+0xa4>
    79b4:	f04f 090a 	mov.w	r9, #10
    79b8:	e771      	b.n	789e <attsProcReadGroupTypeReq+0xa2>
    79ba:	b00b      	add	sp, #44	; 0x2c
    79bc:	e8bd 8ff0 	ldmia.w	sp!, {r4, r5, r6, r7, r8, r9, sl, fp, pc}

000079c0 <attsProcWrite>:
    79c0:	e92d 43f0 	stmdb	sp!, {r4, r5, r6, r7, r8, r9, lr}
    79c4:	7a94      	ldrb	r4, [r2, #10]
    79c6:	7a53      	ldrb	r3, [r2, #9]
    79c8:	f892 9008 	ldrb.w	r9, [r2, #8]
    79cc:	eb03 2404 	add.w	r4, r3, r4, lsl #8
    79d0:	b087      	sub	sp, #28
    79d2:	b2a4      	uxth	r4, r4
    79d4:	4680      	mov	r8, r0
    79d6:	460d      	mov	r5, r1
    79d8:	4620      	mov	r0, r4
    79da:	a905      	add	r1, sp, #20
    79dc:	4617      	mov	r7, r2
    79de:	f7ff faac 	bl	6f3a <attsFindByHandle>
    79e2:	4606      	mov	r6, r0
    79e4:	2800      	cmp	r0, #0
    79e6:	d04e      	beq.n	7a86 <attsProcWrite+0xc6>
    79e8:	7bf3      	ldrb	r3, [r6, #15]
    79ea:	f898 001c 	ldrb.w	r0, [r8, #28]
    79ee:	2110      	movs	r1, #16
    79f0:	4622      	mov	r2, r4
    79f2:	f7ff facf 	bl	6f94 <attsPermissions>
    79f6:	4603      	mov	r3, r0
    79f8:	2800      	cmp	r0, #0
    79fa:	d147      	bne.n	7a8c <attsProcWrite+0xcc>
    79fc:	7bb2      	ldrb	r2, [r6, #14]
    79fe:	89b3      	ldrh	r3, [r6, #12]
    7a00:	3d03      	subs	r5, #3
    7a02:	f012 0f08 	tst.w	r2, #8
    7a06:	b2ad      	uxth	r5, r5
    7a08:	d102      	bne.n	7a10 <attsProcWrite+0x50>
    7a0a:	42ab      	cmp	r3, r5
    7a0c:	d13d      	bne.n	7a8a <attsProcWrite+0xca>
    7a0e:	e001      	b.n	7a14 <attsProcWrite+0x54>
    7a10:	42ab      	cmp	r3, r5
    7a12:	d33a      	bcc.n	7a8a <attsProcWrite+0xca>
    7a14:	0791      	lsls	r1, r2, #30
    7a16:	f107 030b 	add.w	r3, r7, #11
    7a1a:	d50c      	bpl.n	7a36 <attsProcWrite+0x76>
    7a1c:	9905      	ldr	r1, [sp, #20]
    7a1e:	68cf      	ldr	r7, [r1, #12]
    7a20:	b14f      	cbz	r7, 7a36 <attsProcWrite+0x76>
    7a22:	9301      	str	r3, [sp, #4]
    7a24:	f898 001c 	ldrb.w	r0, [r8, #28]
    7a28:	9500      	str	r5, [sp, #0]
    7a2a:	9602      	str	r6, [sp, #8]
    7a2c:	4621      	mov	r1, r4
    7a2e:	464a      	mov	r2, r9
    7a30:	2300      	movs	r3, #0
    7a32:	47b8      	blx	r7
    7a34:	e009      	b.n	7a4a <attsProcWrite+0x8a>
    7a36:	0692      	lsls	r2, r2, #26
    7a38:	d50a      	bpl.n	7a50 <attsProcWrite+0x90>
    7a3a:	4a1a      	ldr	r2, [pc, #104]	; (7aa4 <attsProcWrite+0xe4>)
    7a3c:	6957      	ldr	r7, [r2, #20]
    7a3e:	b13f      	cbz	r7, 7a50 <attsProcWrite+0x90>
    7a40:	f898 001c 	ldrb.w	r0, [r8, #28]
    7a44:	2109      	movs	r1, #9
    7a46:	4622      	mov	r2, r4
    7a48:	47b8      	blx	r7
    7a4a:	4603      	mov	r3, r0
    7a4c:	b9f0      	cbnz	r0, 7a8c <attsProcWrite+0xcc>
    7a4e:	e009      	b.n	7a64 <attsProcWrite+0xa4>
    7a50:	4619      	mov	r1, r3
    7a52:	6870      	ldr	r0, [r6, #4]
    7a54:	462a      	mov	r2, r5
    7a56:	f002 f913 	bl	9c80 <memcpy>
    7a5a:	7bb3      	ldrb	r3, [r6, #14]
    7a5c:	071b      	lsls	r3, r3, #28
    7a5e:	d501      	bpl.n	7a64 <attsProcWrite+0xa4>
    7a60:	68b3      	ldr	r3, [r6, #8]
    7a62:	801d      	strh	r5, [r3, #0]
    7a64:	f1b9 0f12 	cmp.w	r9, #18
    7a68:	d119      	bne.n	7a9e <attsProcWrite+0xde>
    7a6a:	2009      	movs	r0, #9
    7a6c:	f7fd f826 	bl	4abc <WsfMsgAlloc>
    7a70:	4603      	mov	r3, r0
    7a72:	b1a0      	cbz	r0, 7a9e <attsProcWrite+0xde>
    7a74:	2213      	movs	r2, #19
    7a76:	7202      	strb	r2, [r0, #8]
    7a78:	f8b8 1018 	ldrh.w	r1, [r8, #24]
    7a7c:	2004      	movs	r0, #4
    7a7e:	2201      	movs	r2, #1
    7a80:	f001 f970 	bl	8d64 <L2cDataReq>
    7a84:	e00b      	b.n	7a9e <attsProcWrite+0xde>
    7a86:	2301      	movs	r3, #1
    7a88:	e000      	b.n	7a8c <attsProcWrite+0xcc>
    7a8a:	230d      	movs	r3, #13
    7a8c:	f1b9 0f12 	cmp.w	r9, #18
    7a90:	d105      	bne.n	7a9e <attsProcWrite+0xde>
    7a92:	f8b8 0018 	ldrh.w	r0, [r8, #24]
    7a96:	4649      	mov	r1, r9
    7a98:	4622      	mov	r2, r4
    7a9a:	f7ff f8ef 	bl	6c7c <attsErrRsp>
    7a9e:	b007      	add	sp, #28
    7aa0:	e8bd 83f0 	ldmia.w	sp!, {r4, r5, r6, r7, r8, r9, pc}
    7aa4:	10000b14 	.word	0x10000b14

00007aa8 <attsProcPrepWriteReq>:
    7aa8:	e92d 4ff7 	stmdb	sp!, {r0, r1, r2, r4, r5, r6, r7, r8, r9, sl, fp, lr}
    7aac:	7a94      	ldrb	r4, [r2, #10]
    7aae:	7a53      	ldrb	r3, [r2, #9]
    7ab0:	7ad5      	ldrb	r5, [r2, #11]
    7ab2:	f892 a00c 	ldrb.w	sl, [r2, #12]
    7ab6:	eb03 2404 	add.w	r4, r3, r4, lsl #8
    7aba:	b2a4      	uxth	r4, r4
    7abc:	4680      	mov	r8, r0
    7abe:	4689      	mov	r9, r1
    7ac0:	4620      	mov	r0, r4
    7ac2:	a901      	add	r1, sp, #4
    7ac4:	4616      	mov	r6, r2
    7ac6:	f7ff fa38 	bl	6f3a <attsFindByHandle>
    7aca:	4607      	mov	r7, r0
    7acc:	b348      	cbz	r0, 7b22 <attsProcPrepWriteReq+0x7a>
    7ace:	7bfb      	ldrb	r3, [r7, #15]
    7ad0:	f898 001c 	ldrb.w	r0, [r8, #28]
    7ad4:	2110      	movs	r1, #16
    7ad6:	4622      	mov	r2, r4
    7ad8:	f7ff fa5c 	bl	6f94 <attsPermissions>
    7adc:	4603      	mov	r3, r0
    7ade:	bb38      	cbnz	r0, 7b30 <attsProcPrepWriteReq+0x88>
    7ae0:	eb05 250a 	add.w	r5, r5, sl, lsl #8
    7ae4:	b2ad      	uxth	r5, r5
    7ae6:	7bbb      	ldrb	r3, [r7, #14]
    7ae8:	b10d      	cbz	r5, 7aee <attsProcPrepWriteReq+0x46>
    7aea:	06da      	lsls	r2, r3, #27
    7aec:	d51b      	bpl.n	7b26 <attsProcPrepWriteReq+0x7e>
    7aee:	f1a9 0a05 	sub.w	sl, r9, #5
    7af2:	071b      	lsls	r3, r3, #28
    7af4:	fa1f fa8a 	uxth.w	sl, sl
    7af8:	d402      	bmi.n	7b00 <attsProcPrepWriteReq+0x58>
    7afa:	89bb      	ldrh	r3, [r7, #12]
    7afc:	4553      	cmp	r3, sl
    7afe:	d114      	bne.n	7b2a <attsProcPrepWriteReq+0x82>
    7b00:	4640      	mov	r0, r8
    7b02:	f7fd f8ed 	bl	4ce0 <WsfQueueCount>
    7b06:	4b25      	ldr	r3, [pc, #148]	; (7b9c <attsProcPrepWriteReq+0xf4>)
    7b08:	681b      	ldr	r3, [r3, #0]
    7b0a:	79db      	ldrb	r3, [r3, #7]
    7b0c:	4283      	cmp	r3, r0
    7b0e:	d90e      	bls.n	7b2e <attsProcPrepWriteReq+0x86>
    7b10:	f109 0006 	add.w	r0, r9, #6
    7b14:	b280      	uxth	r0, r0
    7b16:	f7fc ff5d 	bl	49d4 <WsfBufAlloc>
    7b1a:	4607      	mov	r7, r0
    7b1c:	b978      	cbnz	r0, 7b3e <attsProcPrepWriteReq+0x96>
    7b1e:	2311      	movs	r3, #17
    7b20:	e006      	b.n	7b30 <attsProcPrepWriteReq+0x88>
    7b22:	2301      	movs	r3, #1
    7b24:	e004      	b.n	7b30 <attsProcPrepWriteReq+0x88>
    7b26:	230b      	movs	r3, #11
    7b28:	e002      	b.n	7b30 <attsProcPrepWriteReq+0x88>
    7b2a:	230d      	movs	r3, #13
    7b2c:	e000      	b.n	7b30 <attsProcPrepWriteReq+0x88>
    7b2e:	2309      	movs	r3, #9
    7b30:	f8b8 0018 	ldrh.w	r0, [r8, #24]
    7b34:	2116      	movs	r1, #22
    7b36:	4622      	mov	r2, r4
    7b38:	f7ff f8a0 	bl	6c7c <attsErrRsp>
    7b3c:	e02a      	b.n	7b94 <attsProcPrepWriteReq+0xec>
    7b3e:	f106 0b0d 	add.w	fp, r6, #13
    7b42:	4652      	mov	r2, sl
    7b44:	f8a0 a004 	strh.w	sl, [r0, #4]
    7b48:	80c4      	strh	r4, [r0, #6]
    7b4a:	8105      	strh	r5, [r0, #8]
    7b4c:	4659      	mov	r1, fp
    7b4e:	300a      	adds	r0, #10
    7b50:	f002 f896 	bl	9c80 <memcpy>
    7b54:	4640      	mov	r0, r8
    7b56:	4639      	mov	r1, r7
    7b58:	f7fd f81a 	bl	4b90 <WsfQueueEnq>
    7b5c:	f109 0008 	add.w	r0, r9, #8
    7b60:	b280      	uxth	r0, r0
    7b62:	f7fc ffab 	bl	4abc <WsfMsgAlloc>
    7b66:	4606      	mov	r6, r0
    7b68:	b1a0      	cbz	r0, 7b94 <attsProcPrepWriteReq+0xec>
    7b6a:	2317      	movs	r3, #23
    7b6c:	7274      	strb	r4, [r6, #9]
    7b6e:	72f5      	strb	r5, [r6, #11]
    7b70:	0a24      	lsrs	r4, r4, #8
    7b72:	0a2d      	lsrs	r5, r5, #8
    7b74:	7233      	strb	r3, [r6, #8]
    7b76:	4659      	mov	r1, fp
    7b78:	4652      	mov	r2, sl
    7b7a:	72b4      	strb	r4, [r6, #10]
    7b7c:	7335      	strb	r5, [r6, #12]
    7b7e:	f106 000d 	add.w	r0, r6, #13
    7b82:	f002 f87d 	bl	9c80 <memcpy>
    7b86:	2004      	movs	r0, #4
    7b88:	f8b8 1018 	ldrh.w	r1, [r8, #24]
    7b8c:	464a      	mov	r2, r9
    7b8e:	4633      	mov	r3, r6
    7b90:	f001 f8e8 	bl	8d64 <L2cDataReq>
    7b94:	b003      	add	sp, #12
    7b96:	e8bd 8ff0 	ldmia.w	sp!, {r4, r5, r6, r7, r8, r9, sl, fp, pc}
    7b9a:	bf00      	nop
    7b9c:	10000290 	.word	0x10000290

00007ba0 <attsProcExecWriteReq>:
    7ba0:	b5f0      	push	{r4, r5, r6, r7, lr}
    7ba2:	7a53      	ldrb	r3, [r2, #9]
    7ba4:	b087      	sub	sp, #28
    7ba6:	4606      	mov	r6, r0
    7ba8:	b913      	cbnz	r3, 7bb0 <attsProcExecWriteReq+0x10>
    7baa:	f7ff f8c1 	bl	6d30 <attsClearPrepWrites>
    7bae:	e069      	b.n	7c84 <attsProcExecWriteReq+0xe4>
    7bb0:	2b01      	cmp	r3, #1
    7bb2:	d17b      	bne.n	7cac <attsProcExecWriteReq+0x10c>
    7bb4:	6804      	ldr	r4, [r0, #0]
    7bb6:	2c00      	cmp	r4, #0
    7bb8:	d02f      	beq.n	7c1a <attsProcExecWriteReq+0x7a>
    7bba:	88e0      	ldrh	r0, [r4, #6]
    7bbc:	a904      	add	r1, sp, #16
    7bbe:	f7ff f9bc 	bl	6f3a <attsFindByHandle>
    7bc2:	b138      	cbz	r0, 7bd4 <attsProcExecWriteReq+0x34>
    7bc4:	8923      	ldrh	r3, [r4, #8]
    7bc6:	8982      	ldrh	r2, [r0, #12]
    7bc8:	4293      	cmp	r3, r2
    7bca:	d868      	bhi.n	7c9e <attsProcExecWriteReq+0xfe>
    7bcc:	88a1      	ldrh	r1, [r4, #4]
    7bce:	440b      	add	r3, r1
    7bd0:	4293      	cmp	r3, r2
    7bd2:	dc66      	bgt.n	7ca2 <attsProcExecWriteReq+0x102>
    7bd4:	6824      	ldr	r4, [r4, #0]
    7bd6:	e7ee      	b.n	7bb6 <attsProcExecWriteReq+0x16>
    7bd8:	88e8      	ldrh	r0, [r5, #6]
    7bda:	a905      	add	r1, sp, #20
    7bdc:	f7ff f9ad 	bl	6f3a <attsFindByHandle>
    7be0:	4607      	mov	r7, r0
    7be2:	2800      	cmp	r0, #0
    7be4:	d03f      	beq.n	7c66 <attsProcExecWriteReq+0xc6>
    7be6:	7bc3      	ldrb	r3, [r0, #15]
    7be8:	06d8      	lsls	r0, r3, #27
    7bea:	d53e      	bpl.n	7c6a <attsProcExecWriteReq+0xca>
    7bec:	7bba      	ldrb	r2, [r7, #14]
    7bee:	0791      	lsls	r1, r2, #30
    7bf0:	f105 030a 	add.w	r3, r5, #10
    7bf4:	d518      	bpl.n	7c28 <attsProcExecWriteReq+0x88>
    7bf6:	9905      	ldr	r1, [sp, #20]
    7bf8:	68cc      	ldr	r4, [r1, #12]
    7bfa:	b1ac      	cbz	r4, 7c28 <attsProcExecWriteReq+0x88>
    7bfc:	f8b5 e008 	ldrh.w	lr, [r5, #8]
    7c00:	88aa      	ldrh	r2, [r5, #4]
    7c02:	88e9      	ldrh	r1, [r5, #6]
    7c04:	7f30      	ldrb	r0, [r6, #28]
    7c06:	e88d 008c 	stmia.w	sp, {r2, r3, r7}
    7c0a:	2218      	movs	r2, #24
    7c0c:	4673      	mov	r3, lr
    7c0e:	47a0      	blx	r4
    7c10:	4604      	mov	r4, r0
    7c12:	bb58      	cbnz	r0, 7c6c <attsProcExecWriteReq+0xcc>
    7c14:	4628      	mov	r0, r5
    7c16:	f7fc ff17 	bl	4a48 <WsfBufFree>
    7c1a:	4630      	mov	r0, r6
    7c1c:	f7fc ffda 	bl	4bd4 <WsfQueueDeq>
    7c20:	4605      	mov	r5, r0
    7c22:	2800      	cmp	r0, #0
    7c24:	d1d8      	bne.n	7bd8 <attsProcExecWriteReq+0x38>
    7c26:	e025      	b.n	7c74 <attsProcExecWriteReq+0xd4>
    7c28:	0692      	lsls	r2, r2, #26
    7c2a:	d507      	bpl.n	7c3c <attsProcExecWriteReq+0x9c>
    7c2c:	4a21      	ldr	r2, [pc, #132]	; (7cb4 <attsProcExecWriteReq+0x114>)
    7c2e:	6954      	ldr	r4, [r2, #20]
    7c30:	b124      	cbz	r4, 7c3c <attsProcExecWriteReq+0x9c>
    7c32:	7f30      	ldrb	r0, [r6, #28]
    7c34:	88ea      	ldrh	r2, [r5, #6]
    7c36:	2109      	movs	r1, #9
    7c38:	47a0      	blx	r4
    7c3a:	e7e9      	b.n	7c10 <attsProcExecWriteReq+0x70>
    7c3c:	892a      	ldrh	r2, [r5, #8]
    7c3e:	6878      	ldr	r0, [r7, #4]
    7c40:	4619      	mov	r1, r3
    7c42:	4410      	add	r0, r2
    7c44:	88aa      	ldrh	r2, [r5, #4]
    7c46:	f002 f81b 	bl	9c80 <memcpy>
    7c4a:	7bbb      	ldrb	r3, [r7, #14]
    7c4c:	f003 0308 	and.w	r3, r3, #8
    7c50:	f003 04ff 	and.w	r4, r3, #255	; 0xff
    7c54:	2b00      	cmp	r3, #0
    7c56:	d0dd      	beq.n	7c14 <attsProcExecWriteReq+0x74>
    7c58:	8929      	ldrh	r1, [r5, #8]
    7c5a:	88ab      	ldrh	r3, [r5, #4]
    7c5c:	68ba      	ldr	r2, [r7, #8]
    7c5e:	440b      	add	r3, r1
    7c60:	8013      	strh	r3, [r2, #0]
    7c62:	2400      	movs	r4, #0
    7c64:	e7d6      	b.n	7c14 <attsProcExecWriteReq+0x74>
    7c66:	240e      	movs	r4, #14
    7c68:	e000      	b.n	7c6c <attsProcExecWriteReq+0xcc>
    7c6a:	2403      	movs	r4, #3
    7c6c:	4630      	mov	r0, r6
    7c6e:	f7ff f85f 	bl	6d30 <attsClearPrepWrites>
    7c72:	e7cf      	b.n	7c14 <attsProcExecWriteReq+0x74>
    7c74:	b134      	cbz	r4, 7c84 <attsProcExecWriteReq+0xe4>
    7c76:	8b30      	ldrh	r0, [r6, #24]
    7c78:	2118      	movs	r1, #24
    7c7a:	2200      	movs	r2, #0
    7c7c:	4623      	mov	r3, r4
    7c7e:	f7fe fffd 	bl	6c7c <attsErrRsp>
    7c82:	e015      	b.n	7cb0 <attsProcExecWriteReq+0x110>
    7c84:	2009      	movs	r0, #9
    7c86:	f7fc ff19 	bl	4abc <WsfMsgAlloc>
    7c8a:	4603      	mov	r3, r0
    7c8c:	b180      	cbz	r0, 7cb0 <attsProcExecWriteReq+0x110>
    7c8e:	2219      	movs	r2, #25
    7c90:	7202      	strb	r2, [r0, #8]
    7c92:	8b31      	ldrh	r1, [r6, #24]
    7c94:	2004      	movs	r0, #4
    7c96:	2201      	movs	r2, #1
    7c98:	f001 f864 	bl	8d64 <L2cDataReq>
    7c9c:	e008      	b.n	7cb0 <attsProcExecWriteReq+0x110>
    7c9e:	2407      	movs	r4, #7
    7ca0:	e000      	b.n	7ca4 <attsProcExecWriteReq+0x104>
    7ca2:	240d      	movs	r4, #13
    7ca4:	4630      	mov	r0, r6
    7ca6:	f7ff f843 	bl	6d30 <attsClearPrepWrites>
    7caa:	e7e4      	b.n	7c76 <attsProcExecWriteReq+0xd6>
    7cac:	2404      	movs	r4, #4
    7cae:	e7e2      	b.n	7c76 <attsProcExecWriteReq+0xd6>
    7cb0:	b007      	add	sp, #28
    7cb2:	bdf0      	pop	{r4, r5, r6, r7, pc}
    7cb4:	10000b14 	.word	0x10000b14

00007cb8 <dmAdvHciHandler>:
    7cb8:	4770      	bx	lr

00007cba <dmAdvMsgHandler>:
    7cba:	7883      	ldrb	r3, [r0, #2]
    7cbc:	4a02      	ldr	r2, [pc, #8]	; (7cc8 <dmAdvMsgHandler+0xe>)
    7cbe:	f003 030f 	and.w	r3, r3, #15
    7cc2:	f852 3023 	ldr.w	r3, [r2, r3, lsl #2]
    7cc6:	4718      	bx	r3
    7cc8:	0000f23c 	.word	0x0000f23c

00007ccc <dmAdvReset>:
    7ccc:	4a08      	ldr	r2, [pc, #32]	; (7cf0 <dmAdvReset+0x24>)
    7cce:	4b09      	ldr	r3, [pc, #36]	; (7cf4 <dmAdvReset+0x28>)
    7cd0:	7b11      	ldrb	r1, [r2, #12]
    7cd2:	7219      	strb	r1, [r3, #8]
    7cd4:	f44f 61c8 	mov.w	r1, #1600	; 0x640
    7cd8:	8219      	strh	r1, [r3, #16]
    7cda:	f44f 61f0 	mov.w	r1, #1920	; 0x780
    7cde:	8259      	strh	r1, [r3, #18]
    7ce0:	2107      	movs	r1, #7
    7ce2:	7559      	strb	r1, [r3, #21]
    7ce4:	21ff      	movs	r1, #255	; 0xff
    7ce6:	7519      	strb	r1, [r3, #20]
    7ce8:	2300      	movs	r3, #0
    7cea:	73d3      	strb	r3, [r2, #15]
    7cec:	7413      	strb	r3, [r2, #16]
    7cee:	4770      	bx	lr
    7cf0:	10000bc4 	.word	0x10000bc4
    7cf4:	10000b2c 	.word	0x10000b2c

00007cf8 <dmAdvStart>:
    7cf8:	e92d 41ff 	stmdb	sp!, {r0, r1, r2, r3, r4, r5, r6, r7, r8, lr}
    7cfc:	4c10      	ldr	r4, [pc, #64]	; (7d40 <dmAdvStart+0x48>)
    7cfe:	7d23      	ldrb	r3, [r4, #20]
    7d00:	2bff      	cmp	r3, #255	; 0xff
    7d02:	4606      	mov	r6, r0
    7d04:	4688      	mov	r8, r1
    7d06:	4617      	mov	r7, r2
    7d08:	d005      	beq.n	7d16 <dmAdvStart+0x1e>
    7d0a:	4620      	mov	r0, r4
    7d0c:	f7fd f95a 	bl	4fc4 <WsfTimerStop>
    7d10:	2000      	movs	r0, #0
    7d12:	f7f9 fe91 	bl	1a38 <HciLeSetAdvEnableCmd>
    7d16:	4d0b      	ldr	r5, [pc, #44]	; (7d44 <dmAdvStart+0x4c>)
    7d18:	7d62      	ldrb	r2, [r4, #21]
    7d1a:	9202      	str	r2, [sp, #8]
    7d1c:	7c2a      	ldrb	r2, [r5, #16]
    7d1e:	8a20      	ldrh	r0, [r4, #16]
    7d20:	8a61      	ldrh	r1, [r4, #18]
    7d22:	7beb      	ldrb	r3, [r5, #15]
    7d24:	9203      	str	r2, [sp, #12]
    7d26:	f8cd 8000 	str.w	r8, [sp]
    7d2a:	4632      	mov	r2, r6
    7d2c:	9701      	str	r7, [sp, #4]
    7d2e:	f7f9 fecf 	bl	1ad0 <HciLeSetAdvParamCmd>
    7d32:	2001      	movs	r0, #1
    7d34:	f7f9 fe80 	bl	1a38 <HciLeSetAdvEnableCmd>
    7d38:	7526      	strb	r6, [r4, #20]
    7d3a:	b004      	add	sp, #16
    7d3c:	e8bd 81f0 	ldmia.w	sp!, {r4, r5, r6, r7, r8, pc}
    7d40:	10000b2c 	.word	0x10000b2c
    7d44:	10000bc4 	.word	0x10000bc4

00007d48 <dmAdvActStop>:
    7d48:	b510      	push	{r4, lr}
    7d4a:	4604      	mov	r4, r0
    7d4c:	480e      	ldr	r0, [pc, #56]	; (7d88 <dmAdvActStop+0x40>)
    7d4e:	7d03      	ldrb	r3, [r0, #20]
    7d50:	2b01      	cmp	r3, #1
    7d52:	d017      	beq.n	7d84 <dmAdvActStop+0x3c>
    7d54:	2bff      	cmp	r3, #255	; 0xff
    7d56:	d015      	beq.n	7d84 <dmAdvActStop+0x3c>
    7d58:	23ff      	movs	r3, #255	; 0xff
    7d5a:	7503      	strb	r3, [r0, #20]
    7d5c:	f7fd f932 	bl	4fc4 <WsfTimerStop>
    7d60:	2000      	movs	r0, #0
    7d62:	f7f9 fe69 	bl	1a38 <HciLeSetAdvEnableCmd>
    7d66:	2315      	movs	r3, #21
    7d68:	70a3      	strb	r3, [r4, #2]
    7d6a:	4b08      	ldr	r3, [pc, #32]	; (7d8c <dmAdvActStop+0x44>)
    7d6c:	685b      	ldr	r3, [r3, #4]
    7d6e:	4620      	mov	r0, r4
    7d70:	689b      	ldr	r3, [r3, #8]
    7d72:	4798      	blx	r3
    7d74:	2322      	movs	r3, #34	; 0x22
    7d76:	70a3      	strb	r3, [r4, #2]
    7d78:	4b05      	ldr	r3, [pc, #20]	; (7d90 <dmAdvActStop+0x48>)
    7d7a:	4620      	mov	r0, r4
    7d7c:	689b      	ldr	r3, [r3, #8]
    7d7e:	e8bd 4010 	ldmia.w	sp!, {r4, lr}
    7d82:	4718      	bx	r3
    7d84:	bd10      	pop	{r4, pc}
    7d86:	bf00      	nop
    7d88:	10000b2c 	.word	0x10000b2c
    7d8c:	100002fc 	.word	0x100002fc
    7d90:	10000bc4 	.word	0x10000bc4

00007d94 <dmAdvActTimeout>:
    7d94:	f7ff bfd8 	b.w	7d48 <dmAdvActStop>

00007d98 <dmAdvActStart>:
    7d98:	b570      	push	{r4, r5, r6, lr}
    7d9a:	4d11      	ldr	r5, [pc, #68]	; (7de0 <dmAdvActStart+0x48>)
    7d9c:	7d2b      	ldrb	r3, [r5, #20]
    7d9e:	2b01      	cmp	r3, #1
    7da0:	4604      	mov	r4, r0
    7da2:	d01b      	beq.n	7ddc <dmAdvActStart+0x44>
    7da4:	2100      	movs	r1, #0
    7da6:	7980      	ldrb	r0, [r0, #6]
    7da8:	460a      	mov	r2, r1
    7daa:	f7ff ffa5 	bl	7cf8 <dmAdvStart>
    7dae:	88a3      	ldrh	r3, [r4, #4]
    7db0:	b12b      	cbz	r3, 7dbe <dmAdvActStart+0x26>
    7db2:	2302      	movs	r3, #2
    7db4:	732b      	strb	r3, [r5, #12]
    7db6:	4628      	mov	r0, r5
    7db8:	88a1      	ldrh	r1, [r4, #4]
    7dba:	f7fd f8ef 	bl	4f9c <WsfTimerStartMs>
    7dbe:	2314      	movs	r3, #20
    7dc0:	70a3      	strb	r3, [r4, #2]
    7dc2:	4b08      	ldr	r3, [pc, #32]	; (7de4 <dmAdvActStart+0x4c>)
    7dc4:	685b      	ldr	r3, [r3, #4]
    7dc6:	4620      	mov	r0, r4
    7dc8:	689b      	ldr	r3, [r3, #8]
    7dca:	4798      	blx	r3
    7dcc:	2321      	movs	r3, #33	; 0x21
    7dce:	70a3      	strb	r3, [r4, #2]
    7dd0:	4b05      	ldr	r3, [pc, #20]	; (7de8 <dmAdvActStart+0x50>)
    7dd2:	4620      	mov	r0, r4
    7dd4:	689b      	ldr	r3, [r3, #8]
    7dd6:	e8bd 4070 	ldmia.w	sp!, {r4, r5, r6, lr}
    7dda:	4718      	bx	r3
    7ddc:	bd70      	pop	{r4, r5, r6, pc}
    7dde:	bf00      	nop
    7de0:	10000b2c 	.word	0x10000b2c
    7de4:	100002fc 	.word	0x100002fc
    7de8:	10000bc4 	.word	0x10000bc4

00007dec <dmAdvStartDirected>:
    7dec:	4603      	mov	r3, r0
    7dee:	460a      	mov	r2, r1
    7df0:	2001      	movs	r0, #1
    7df2:	4619      	mov	r1, r3
    7df4:	e780      	b.n	7cf8 <dmAdvStart>

00007df6 <dmAdvStopDirected>:
    7df6:	b508      	push	{r3, lr}
    7df8:	2000      	movs	r0, #0
    7dfa:	f7f9 fe1d 	bl	1a38 <HciLeSetAdvEnableCmd>
    7dfe:	4b02      	ldr	r3, [pc, #8]	; (7e08 <dmAdvStopDirected+0x12>)
    7e00:	22ff      	movs	r2, #255	; 0xff
    7e02:	751a      	strb	r2, [r3, #20]
    7e04:	bd08      	pop	{r3, pc}
    7e06:	bf00      	nop
    7e08:	10000b2c 	.word	0x10000b2c

00007e0c <dmAdvConnected>:
    7e0c:	4b01      	ldr	r3, [pc, #4]	; (7e14 <dmAdvConnected+0x8>)
    7e0e:	22ff      	movs	r2, #255	; 0xff
    7e10:	751a      	strb	r2, [r3, #20]
    7e12:	4770      	bx	lr
    7e14:	10000b2c 	.word	0x10000b2c

00007e18 <dmAdvConnectFailed>:
    7e18:	4b01      	ldr	r3, [pc, #4]	; (7e20 <dmAdvConnectFailed+0x8>)
    7e1a:	22ff      	movs	r2, #255	; 0xff
    7e1c:	751a      	strb	r2, [r3, #20]
    7e1e:	4770      	bx	lr
    7e20:	10000b2c 	.word	0x10000b2c

00007e24 <DmAdvInit>:
    7e24:	4b01      	ldr	r3, [pc, #4]	; (7e2c <DmAdvInit+0x8>)
    7e26:	4a02      	ldr	r2, [pc, #8]	; (7e30 <DmAdvInit+0xc>)
    7e28:	601a      	str	r2, [r3, #0]
    7e2a:	4770      	bx	lr
    7e2c:	100002fc 	.word	0x100002fc
    7e30:	0000f248 	.word	0x0000f248

00007e34 <DmAdvStart>:
    7e34:	b538      	push	{r3, r4, r5, lr}
    7e36:	4604      	mov	r4, r0
    7e38:	2008      	movs	r0, #8
    7e3a:	460d      	mov	r5, r1
    7e3c:	f7fc fe3e 	bl	4abc <WsfMsgAlloc>
    7e40:	4601      	mov	r1, r0
    7e42:	b148      	cbz	r0, 7e58 <DmAdvStart+0x24>
    7e44:	2200      	movs	r2, #0
    7e46:	7082      	strb	r2, [r0, #2]
    7e48:	4a04      	ldr	r2, [pc, #16]	; (7e5c <DmAdvStart+0x28>)
    7e4a:	8085      	strh	r5, [r0, #4]
    7e4c:	7184      	strb	r4, [r0, #6]
    7e4e:	7b10      	ldrb	r0, [r2, #12]
    7e50:	e8bd 4038 	ldmia.w	sp!, {r3, r4, r5, lr}
    7e54:	f7fc be56 	b.w	4b04 <WsfMsgSend>
    7e58:	bd38      	pop	{r3, r4, r5, pc}
    7e5a:	bf00      	nop
    7e5c:	10000bc4 	.word	0x10000bc4

00007e60 <DmAdvStop>:
    7e60:	b508      	push	{r3, lr}
    7e62:	2004      	movs	r0, #4
    7e64:	f7fc fe2a 	bl	4abc <WsfMsgAlloc>
    7e68:	4601      	mov	r1, r0
    7e6a:	b138      	cbz	r0, 7e7c <DmAdvStop+0x1c>
    7e6c:	2301      	movs	r3, #1
    7e6e:	7083      	strb	r3, [r0, #2]
    7e70:	4b03      	ldr	r3, [pc, #12]	; (7e80 <DmAdvStop+0x20>)
    7e72:	7b18      	ldrb	r0, [r3, #12]
    7e74:	e8bd 4008 	ldmia.w	sp!, {r3, lr}
    7e78:	f7fc be44 	b.w	4b04 <WsfMsgSend>
    7e7c:	bd08      	pop	{r3, pc}
    7e7e:	bf00      	nop
    7e80:	10000bc4 	.word	0x10000bc4

00007e84 <DmAdvSetInterval>:
    7e84:	b538      	push	{r3, r4, r5, lr}
    7e86:	4605      	mov	r5, r0
    7e88:	460c      	mov	r4, r1
    7e8a:	f7fc fc01 	bl	4690 <WsfTaskLock>
    7e8e:	4b03      	ldr	r3, [pc, #12]	; (7e9c <DmAdvSetInterval+0x18>)
    7e90:	821d      	strh	r5, [r3, #16]
    7e92:	825c      	strh	r4, [r3, #18]
    7e94:	e8bd 4038 	ldmia.w	sp!, {r3, r4, r5, lr}
    7e98:	f7fc bc00 	b.w	469c <WsfTaskUnlock>
    7e9c:	10000b2c 	.word	0x10000b2c

00007ea0 <DmAdvSetChannelMap>:
    7ea0:	b510      	push	{r4, lr}
    7ea2:	4604      	mov	r4, r0
    7ea4:	f7fc fbf4 	bl	4690 <WsfTaskLock>
    7ea8:	4b02      	ldr	r3, [pc, #8]	; (7eb4 <DmAdvSetChannelMap+0x14>)
    7eaa:	755c      	strb	r4, [r3, #21]
    7eac:	e8bd 4010 	ldmia.w	sp!, {r4, lr}
    7eb0:	f7fc bbf4 	b.w	469c <WsfTaskUnlock>
    7eb4:	10000b2c 	.word	0x10000b2c

00007eb8 <DmAdvSetData>:
    7eb8:	b918      	cbnz	r0, 7ec2 <DmAdvSetData+0xa>
    7eba:	4608      	mov	r0, r1
    7ebc:	4611      	mov	r1, r2
    7ebe:	f7f9 bdd7 	b.w	1a70 <HciLeSetAdvDataCmd>
    7ec2:	4608      	mov	r0, r1
    7ec4:	4611      	mov	r1, r2
    7ec6:	f7f9 bf05 	b.w	1cd4 <HciLeSetScanRespDataCmd>

00007eca <DmAdvSetAddrType>:
    7eca:	b510      	push	{r4, lr}
    7ecc:	4604      	mov	r4, r0
    7ece:	f7fc fbdf 	bl	4690 <WsfTaskLock>
    7ed2:	4b03      	ldr	r3, [pc, #12]	; (7ee0 <DmAdvSetAddrType+0x16>)
    7ed4:	73dc      	strb	r4, [r3, #15]
    7ed6:	e8bd 4010 	ldmia.w	sp!, {r4, lr}
    7eda:	f7fc bbdf 	b.w	469c <WsfTaskUnlock>
    7ede:	bf00      	nop
    7ee0:	10000bc4 	.word	0x10000bc4

00007ee4 <DmAdvSetAdValue>:
    7ee4:	e92d 43f8 	stmdb	sp!, {r3, r4, r5, r6, r7, r8, r9, lr}
    7ee8:	9e08      	ldr	r6, [sp, #32]
    7eea:	460c      	mov	r4, r1
    7eec:	4617      	mov	r7, r2
    7eee:	7819      	ldrb	r1, [r3, #0]
    7ef0:	4632      	mov	r2, r6
    7ef2:	4680      	mov	r8, r0
    7ef4:	4699      	mov	r9, r3
    7ef6:	f000 fbfd 	bl	86f4 <DmFindAdType>
    7efa:	4601      	mov	r1, r0
    7efc:	b1f0      	cbz	r0, 7f3c <DmAdvSetAdValue+0x58>
    7efe:	7803      	ldrb	r3, [r0, #0]
    7f00:	1c65      	adds	r5, r4, #1
    7f02:	429d      	cmp	r5, r3
    7f04:	d105      	bne.n	7f12 <DmAdvSetAdValue+0x2e>
    7f06:	4639      	mov	r1, r7
    7f08:	4622      	mov	r2, r4
    7f0a:	3002      	adds	r0, #2
    7f0c:	f001 feb8 	bl	9c80 <memcpy>
    7f10:	e029      	b.n	7f66 <DmAdvSetAdValue+0x82>
    7f12:	f899 e000 	ldrb.w	lr, [r9]
    7f16:	4475      	add	r5, lr
    7f18:	1aed      	subs	r5, r5, r3
    7f1a:	b2ed      	uxtb	r5, r5
    7f1c:	2d1f      	cmp	r5, #31
    7f1e:	d80d      	bhi.n	7f3c <DmAdvSetAdValue+0x58>
    7f20:	3301      	adds	r3, #1
    7f22:	b2dd      	uxtb	r5, r3
    7f24:	4429      	add	r1, r5
    7f26:	1b8a      	subs	r2, r1, r6
    7f28:	b2d2      	uxtb	r2, r2
    7f2a:	ebc2 020e 	rsb	r2, r2, lr
    7f2e:	f001 ff41 	bl	9db4 <memmove>
    7f32:	f899 3000 	ldrb.w	r3, [r9]
    7f36:	1b5d      	subs	r5, r3, r5
    7f38:	f889 5000 	strb.w	r5, [r9]
    7f3c:	f899 3000 	ldrb.w	r3, [r9]
    7f40:	191a      	adds	r2, r3, r4
    7f42:	2a1d      	cmp	r2, #29
    7f44:	dc12      	bgt.n	7f6c <DmAdvSetAdValue+0x88>
    7f46:	18f0      	adds	r0, r6, r3
    7f48:	1c62      	adds	r2, r4, #1
    7f4a:	54f2      	strb	r2, [r6, r3]
    7f4c:	3002      	adds	r0, #2
    7f4e:	f800 8c01 	strb.w	r8, [r0, #-1]
    7f52:	4622      	mov	r2, r4
    7f54:	4639      	mov	r1, r7
    7f56:	f001 fe93 	bl	9c80 <memcpy>
    7f5a:	f899 3000 	ldrb.w	r3, [r9]
    7f5e:	3402      	adds	r4, #2
    7f60:	441c      	add	r4, r3
    7f62:	f889 4000 	strb.w	r4, [r9]
    7f66:	2001      	movs	r0, #1
    7f68:	e8bd 83f8 	ldmia.w	sp!, {r3, r4, r5, r6, r7, r8, r9, pc}
    7f6c:	2000      	movs	r0, #0
    7f6e:	e8bd 83f8 	ldmia.w	sp!, {r3, r4, r5, r6, r7, r8, r9, pc}

00007f72 <DmAdvSetName>:
    7f72:	e92d 41f0 	stmdb	sp!, {r4, r5, r6, r7, r8, lr}
    7f76:	4605      	mov	r5, r0
    7f78:	4688      	mov	r8, r1
    7f7a:	4614      	mov	r4, r2
    7f7c:	7811      	ldrb	r1, [r2, #0]
    7f7e:	2009      	movs	r0, #9
    7f80:	461a      	mov	r2, r3
    7f82:	461f      	mov	r7, r3
    7f84:	f000 fbb6 	bl	86f4 <DmFindAdType>
    7f88:	b928      	cbnz	r0, 7f96 <DmAdvSetName+0x24>
    7f8a:	2008      	movs	r0, #8
    7f8c:	7821      	ldrb	r1, [r4, #0]
    7f8e:	463a      	mov	r2, r7
    7f90:	f000 fbb0 	bl	86f4 <DmFindAdType>
    7f94:	b160      	cbz	r0, 7fb0 <DmAdvSetName+0x3e>
    7f96:	7806      	ldrb	r6, [r0, #0]
    7f98:	7822      	ldrb	r2, [r4, #0]
    7f9a:	3601      	adds	r6, #1
    7f9c:	b2f6      	uxtb	r6, r6
    7f9e:	1981      	adds	r1, r0, r6
    7fa0:	1bcb      	subs	r3, r1, r7
    7fa2:	b2db      	uxtb	r3, r3
    7fa4:	1ad2      	subs	r2, r2, r3
    7fa6:	f001 ff05 	bl	9db4 <memmove>
    7faa:	7823      	ldrb	r3, [r4, #0]
    7fac:	1b9e      	subs	r6, r3, r6
    7fae:	7026      	strb	r6, [r4, #0]
    7fb0:	7822      	ldrb	r2, [r4, #0]
    7fb2:	2a1d      	cmp	r2, #29
    7fb4:	d81a      	bhi.n	7fec <DmAdvSetName+0x7a>
    7fb6:	1953      	adds	r3, r2, r5
    7fb8:	2b1d      	cmp	r3, #29
    7fba:	bfc4      	itt	gt
    7fbc:	f1c2 051d 	rsbgt	r5, r2, #29
    7fc0:	b2ed      	uxtbgt	r5, r5
    7fc2:	eb07 0002 	add.w	r0, r7, r2
    7fc6:	bfcc      	ite	gt
    7fc8:	2308      	movgt	r3, #8
    7fca:	2309      	movle	r3, #9
    7fcc:	1c69      	adds	r1, r5, #1
    7fce:	54b9      	strb	r1, [r7, r2]
    7fd0:	3002      	adds	r0, #2
    7fd2:	f800 3c01 	strb.w	r3, [r0, #-1]
    7fd6:	462a      	mov	r2, r5
    7fd8:	4641      	mov	r1, r8
    7fda:	f001 fe51 	bl	9c80 <memcpy>
    7fde:	7823      	ldrb	r3, [r4, #0]
    7fe0:	3302      	adds	r3, #2
    7fe2:	441d      	add	r5, r3
    7fe4:	7025      	strb	r5, [r4, #0]
    7fe6:	2001      	movs	r0, #1
    7fe8:	e8bd 81f0 	ldmia.w	sp!, {r4, r5, r6, r7, r8, pc}
    7fec:	2000      	movs	r0, #0
    7fee:	e8bd 81f0 	ldmia.w	sp!, {r4, r5, r6, r7, r8, pc}
    7ff2:	bf00      	nop

00007ff4 <dmConnSmActNone>:
    7ff4:	4770      	bx	lr

00007ff6 <dmConnSmActHciUpdated>:
    7ff6:	2300      	movs	r3, #0
    7ff8:	7443      	strb	r3, [r0, #17]
    7ffa:	2329      	movs	r3, #41	; 0x29
    7ffc:	708b      	strb	r3, [r1, #2]
    7ffe:	4b02      	ldr	r3, [pc, #8]	; (8008 <dmConnSmActHciUpdated+0x12>)
    8000:	4608      	mov	r0, r1
    8002:	6ddb      	ldr	r3, [r3, #92]	; 0x5c
    8004:	4718      	bx	r3
    8006:	bf00      	nop
    8008:	10000b44 	.word	0x10000b44

0000800c <dmConnReset>:
    800c:	b510      	push	{r4, lr}
    800e:	4c09      	ldr	r4, [pc, #36]	; (8034 <dmConnReset+0x28>)
    8010:	4a09      	ldr	r2, [pc, #36]	; (8038 <dmConnReset+0x2c>)
    8012:	6820      	ldr	r0, [r4, #0]
    8014:	6861      	ldr	r1, [r4, #4]
    8016:	f102 0364 	add.w	r3, r2, #100	; 0x64
    801a:	c303      	stmia	r3!, {r0, r1}
    801c:	68a0      	ldr	r0, [r4, #8]
    801e:	6018      	str	r0, [r3, #0]
    8020:	2330      	movs	r3, #48	; 0x30
    8022:	f8a2 3070 	strh.w	r3, [r2, #112]	; 0x70
    8026:	f8a2 3072 	strh.w	r3, [r2, #114]	; 0x72
    802a:	4b04      	ldr	r3, [pc, #16]	; (803c <dmConnReset+0x30>)
    802c:	2200      	movs	r2, #0
    802e:	739a      	strb	r2, [r3, #14]
    8030:	749a      	strb	r2, [r3, #18]
    8032:	bd10      	pop	{r4, pc}
    8034:	0000f254 	.word	0x0000f254
    8038:	10000b44 	.word	0x10000b44
    803c:	10000bc4 	.word	0x10000bc4

00008040 <dmConnSmActClose>:
    8040:	8980      	ldrh	r0, [r0, #12]
    8042:	7909      	ldrb	r1, [r1, #4]
    8044:	f7f9 bbb4 	b.w	17b0 <HciDisconnectCmd>

00008048 <dmConnCcbAlloc>:
    8048:	b570      	push	{r4, r5, r6, lr}
    804a:	4c11      	ldr	r4, [pc, #68]	; (8090 <dmConnCcbAlloc+0x48>)
    804c:	7da5      	ldrb	r5, [r4, #22]
    804e:	4606      	mov	r6, r0
    8050:	b155      	cbz	r5, 8068 <dmConnCcbAlloc+0x20>
    8052:	f894 3030 	ldrb.w	r3, [r4, #48]	; 0x30
    8056:	b12b      	cbz	r3, 8064 <dmConnCcbAlloc+0x1c>
    8058:	f894 304a 	ldrb.w	r3, [r4, #74]	; 0x4a
    805c:	b9b3      	cbnz	r3, 808c <dmConnCcbAlloc+0x44>
    805e:	2502      	movs	r5, #2
    8060:	3434      	adds	r4, #52	; 0x34
    8062:	e001      	b.n	8068 <dmConnCcbAlloc+0x20>
    8064:	2501      	movs	r5, #1
    8066:	341a      	adds	r4, #26
    8068:	221a      	movs	r2, #26
    806a:	4620      	mov	r0, r4
    806c:	2100      	movs	r1, #0
    806e:	f001 ff01 	bl	9e74 <memset>
    8072:	4620      	mov	r0, r4
    8074:	4631      	mov	r1, r6
    8076:	f7fc fa95 	bl	45a4 <BdaCpy>
    807a:	f64f 73ff 	movw	r3, #65535	; 0xffff
    807e:	81a3      	strh	r3, [r4, #12]
    8080:	3501      	adds	r5, #1
    8082:	2301      	movs	r3, #1
    8084:	7425      	strb	r5, [r4, #16]
    8086:	75a3      	strb	r3, [r4, #22]
    8088:	4620      	mov	r0, r4
    808a:	bd70      	pop	{r4, r5, r6, pc}
    808c:	2000      	movs	r0, #0
    808e:	bd70      	pop	{r4, r5, r6, pc}
    8090:	10000b44 	.word	0x10000b44

00008094 <dmConnCcbDealloc>:
    8094:	2300      	movs	r3, #0
    8096:	7583      	strb	r3, [r0, #22]
    8098:	4770      	bx	lr

0000809a <dmConnCcbByHandle>:
    809a:	4b07      	ldr	r3, [pc, #28]	; (80b8 <dmConnCcbByHandle+0x1e>)
    809c:	7d9a      	ldrb	r2, [r3, #22]
    809e:	b112      	cbz	r2, 80a6 <dmConnCcbByHandle+0xc>
    80a0:	899a      	ldrh	r2, [r3, #12]
    80a2:	4282      	cmp	r2, r0
    80a4:	d005      	beq.n	80b2 <dmConnCcbByHandle+0x18>
    80a6:	4a05      	ldr	r2, [pc, #20]	; (80bc <dmConnCcbByHandle+0x22>)
    80a8:	331a      	adds	r3, #26
    80aa:	4293      	cmp	r3, r2
    80ac:	d1f6      	bne.n	809c <dmConnCcbByHandle+0x2>
    80ae:	2000      	movs	r0, #0
    80b0:	4770      	bx	lr
    80b2:	4618      	mov	r0, r3
    80b4:	4770      	bx	lr
    80b6:	bf00      	nop
    80b8:	10000b44 	.word	0x10000b44
    80bc:	10000b92 	.word	0x10000b92

000080c0 <dmConn2HciHandler>:
    80c0:	b51f      	push	{r0, r1, r2, r3, r4, lr}
    80c2:	4604      	mov	r4, r0
    80c4:	8800      	ldrh	r0, [r0, #0]
    80c6:	f7ff ffe8 	bl	809a <dmConnCcbByHandle>
    80ca:	b1b8      	cbz	r0, 80fc <dmConn2HciHandler+0x3c>
    80cc:	78a3      	ldrb	r3, [r4, #2]
    80ce:	2b06      	cmp	r3, #6
    80d0:	d114      	bne.n	80fc <dmConn2HciHandler+0x3c>
    80d2:	7923      	ldrb	r3, [r4, #4]
    80d4:	f88d 3007 	strb.w	r3, [sp, #7]
    80d8:	f88d 3008 	strb.w	r3, [sp, #8]
    80dc:	4b08      	ldr	r3, [pc, #32]	; (8100 <dmConn2HciHandler+0x40>)
    80de:	8981      	ldrh	r1, [r0, #12]
    80e0:	7a22      	ldrb	r2, [r4, #8]
    80e2:	7c00      	ldrb	r0, [r0, #16]
    80e4:	f8ad 0004 	strh.w	r0, [sp, #4]
    80e8:	2438      	movs	r4, #56	; 0x38
    80ea:	f88d 4006 	strb.w	r4, [sp, #6]
    80ee:	f8ad 100a 	strh.w	r1, [sp, #10]
    80f2:	f88d 200c 	strb.w	r2, [sp, #12]
    80f6:	6ddb      	ldr	r3, [r3, #92]	; 0x5c
    80f8:	a801      	add	r0, sp, #4
    80fa:	4798      	blx	r3
    80fc:	b004      	add	sp, #16
    80fe:	bd10      	pop	{r4, pc}
    8100:	10000b44 	.word	0x10000b44

00008104 <dmConnCcbByBdAddr>:
    8104:	b538      	push	{r3, r4, r5, lr}
    8106:	4c08      	ldr	r4, [pc, #32]	; (8128 <dmConnCcbByBdAddr+0x24>)
    8108:	4605      	mov	r5, r0
    810a:	7da3      	ldrb	r3, [r4, #22]
    810c:	b123      	cbz	r3, 8118 <dmConnCcbByBdAddr+0x14>
    810e:	4620      	mov	r0, r4
    8110:	4629      	mov	r1, r5
    8112:	f7fc fa55 	bl	45c0 <BdaCmp>
    8116:	b928      	cbnz	r0, 8124 <dmConnCcbByBdAddr+0x20>
    8118:	4b04      	ldr	r3, [pc, #16]	; (812c <dmConnCcbByBdAddr+0x28>)
    811a:	341a      	adds	r4, #26
    811c:	429c      	cmp	r4, r3
    811e:	d1f4      	bne.n	810a <dmConnCcbByBdAddr+0x6>
    8120:	2000      	movs	r0, #0
    8122:	bd38      	pop	{r3, r4, r5, pc}
    8124:	4620      	mov	r0, r4
    8126:	bd38      	pop	{r3, r4, r5, pc}
    8128:	10000b44 	.word	0x10000b44
    812c:	10000b92 	.word	0x10000b92

00008130 <dmConnHciHandler>:
    8130:	b538      	push	{r3, r4, r5, lr}
    8132:	7885      	ldrb	r5, [r0, #2]
    8134:	2d01      	cmp	r5, #1
    8136:	4604      	mov	r4, r0
    8138:	d123      	bne.n	8182 <dmConnHciHandler+0x52>
    813a:	f100 050a 	add.w	r5, r0, #10
    813e:	4628      	mov	r0, r5
    8140:	f7ff ffe0 	bl	8104 <dmConnCcbByBdAddr>
    8144:	b9b0      	cbnz	r0, 8174 <dmConnHciHandler+0x44>
    8146:	4b17      	ldr	r3, [pc, #92]	; (81a4 <dmConnHciHandler+0x74>)
    8148:	7d9a      	ldrb	r2, [r3, #22]
    814a:	b14a      	cbz	r2, 8160 <dmConnHciHandler+0x30>
    814c:	7d5a      	ldrb	r2, [r3, #21]
    814e:	2a02      	cmp	r2, #2
    8150:	d024      	beq.n	819c <dmConnHciHandler+0x6c>
    8152:	2a04      	cmp	r2, #4
    8154:	d104      	bne.n	8160 <dmConnHciHandler+0x30>
    8156:	8999      	ldrh	r1, [r3, #12]
    8158:	f64f 72ff 	movw	r2, #65535	; 0xffff
    815c:	4291      	cmp	r1, r2
    815e:	d01d      	beq.n	819c <dmConnHciHandler+0x6c>
    8160:	4a11      	ldr	r2, [pc, #68]	; (81a8 <dmConnHciHandler+0x78>)
    8162:	331a      	adds	r3, #26
    8164:	4293      	cmp	r3, r2
    8166:	d1ef      	bne.n	8148 <dmConnHciHandler+0x18>
    8168:	7a23      	ldrb	r3, [r4, #8]
    816a:	2b01      	cmp	r3, #1
    816c:	d102      	bne.n	8174 <dmConnHciHandler+0x44>
    816e:	4628      	mov	r0, r5
    8170:	f7ff ff6a 	bl	8048 <dmConnCcbAlloc>
    8174:	78e3      	ldrb	r3, [r4, #3]
    8176:	b90b      	cbnz	r3, 817c <dmConnHciHandler+0x4c>
    8178:	2338      	movs	r3, #56	; 0x38
    817a:	e000      	b.n	817e <dmConnHciHandler+0x4e>
    817c:	2337      	movs	r3, #55	; 0x37
    817e:	70a3      	strb	r3, [r4, #2]
    8180:	e004      	b.n	818c <dmConnHciHandler+0x5c>
    8182:	8800      	ldrh	r0, [r0, #0]
    8184:	3537      	adds	r5, #55	; 0x37
    8186:	f7ff ff88 	bl	809a <dmConnCcbByHandle>
    818a:	70a5      	strb	r5, [r4, #2]
    818c:	b140      	cbz	r0, 81a0 <dmConnHciHandler+0x70>
    818e:	7c03      	ldrb	r3, [r0, #16]
    8190:	8023      	strh	r3, [r4, #0]
    8192:	4621      	mov	r1, r4
    8194:	e8bd 4038 	ldmia.w	sp!, {r3, r4, r5, lr}
    8198:	f000 ba2c 	b.w	85f4 <dmConnSmExecute>
    819c:	4618      	mov	r0, r3
    819e:	e7e9      	b.n	8174 <dmConnHciHandler+0x44>
    81a0:	bd38      	pop	{r3, r4, r5, pc}
    81a2:	bf00      	nop
    81a4:	10000b44 	.word	0x10000b44
    81a8:	10000b92 	.word	0x10000b92

000081ac <dmConnCcbById>:
    81ac:	3801      	subs	r0, #1
    81ae:	4a05      	ldr	r2, [pc, #20]	; (81c4 <dmConnCcbById+0x18>)
    81b0:	b2c3      	uxtb	r3, r0
    81b2:	201a      	movs	r0, #26
    81b4:	fb00 2003 	mla	r0, r0, r3, r2
    81b8:	7d83      	ldrb	r3, [r0, #22]
    81ba:	2b00      	cmp	r3, #0
    81bc:	bf08      	it	eq
    81be:	2000      	moveq	r0, #0
    81c0:	4770      	bx	lr
    81c2:	bf00      	nop
    81c4:	10000b44 	.word	0x10000b44

000081c8 <dmConnMsgHandler>:
    81c8:	b510      	push	{r4, lr}
    81ca:	4604      	mov	r4, r0
    81cc:	7800      	ldrb	r0, [r0, #0]
    81ce:	f7ff ffed 	bl	81ac <dmConnCcbById>
    81d2:	b120      	cbz	r0, 81de <dmConnMsgHandler+0x16>
    81d4:	4621      	mov	r1, r4
    81d6:	e8bd 4010 	ldmia.w	sp!, {r4, lr}
    81da:	f000 ba0b 	b.w	85f4 <dmConnSmExecute>
    81de:	bd10      	pop	{r4, pc}

000081e0 <dmConn2MsgHandler>:
    81e0:	b510      	push	{r4, lr}
    81e2:	4604      	mov	r4, r0
    81e4:	7800      	ldrb	r0, [r0, #0]
    81e6:	f7ff ffe1 	bl	81ac <dmConnCcbById>
    81ea:	b138      	cbz	r0, 81fc <dmConn2MsgHandler+0x1c>
    81ec:	78a3      	ldrb	r3, [r4, #2]
    81ee:	2b41      	cmp	r3, #65	; 0x41
    81f0:	d104      	bne.n	81fc <dmConn2MsgHandler+0x1c>
    81f2:	8980      	ldrh	r0, [r0, #12]
    81f4:	e8bd 4010 	ldmia.w	sp!, {r4, lr}
    81f8:	f7f9 bdf2 	b.w	1de0 <HciReadRssiCmd>
    81fc:	bd10      	pop	{r4, pc}

000081fe <dmConnExecCback>:
    81fe:	b570      	push	{r4, r5, r6, lr}
    8200:	4c05      	ldr	r4, [pc, #20]	; (8218 <dmConnExecCback+0x1a>)
    8202:	4606      	mov	r6, r0
    8204:	f104 0514 	add.w	r5, r4, #20
    8208:	f854 3f04 	ldr.w	r3, [r4, #4]!
    820c:	b10b      	cbz	r3, 8212 <dmConnExecCback+0x14>
    820e:	4630      	mov	r0, r6
    8210:	4798      	blx	r3
    8212:	42ac      	cmp	r4, r5
    8214:	d1f8      	bne.n	8208 <dmConnExecCback+0xa>
    8216:	bd70      	pop	{r4, r5, r6, pc}
    8218:	10000b90 	.word	0x10000b90

0000821c <dmConnSmActConnOpened>:
    821c:	b570      	push	{r4, r5, r6, lr}
    821e:	460d      	mov	r5, r1
    8220:	4604      	mov	r4, r0
    8222:	310a      	adds	r1, #10
    8224:	f7fc f9be 	bl	45a4 <BdaCpy>
    8228:	88eb      	ldrh	r3, [r5, #6]
    822a:	81a3      	strh	r3, [r4, #12]
    822c:	7a6b      	ldrb	r3, [r5, #9]
    822e:	74e3      	strb	r3, [r4, #19]
    8230:	7a2a      	ldrb	r2, [r5, #8]
    8232:	4b0e      	ldr	r3, [pc, #56]	; (826c <dmConnSmActConnOpened+0x50>)
    8234:	735a      	strb	r2, [r3, #13]
    8236:	b90a      	cbnz	r2, 823c <dmConnSmActConnOpened+0x20>
    8238:	7b9b      	ldrb	r3, [r3, #14]
    823a:	e000      	b.n	823e <dmConnSmActConnOpened+0x22>
    823c:	7bdb      	ldrb	r3, [r3, #15]
    823e:	7523      	strb	r3, [r4, #20]
    8240:	7d23      	ldrb	r3, [r4, #20]
    8242:	1da6      	adds	r6, r4, #6
    8244:	b923      	cbnz	r3, 8250 <dmConnSmActConnOpened+0x34>
    8246:	f7fa fa7b 	bl	2740 <HciGetBdAddr>
    824a:	4601      	mov	r1, r0
    824c:	4630      	mov	r0, r6
    824e:	e001      	b.n	8254 <dmConnSmActConnOpened+0x38>
    8250:	4906      	ldr	r1, [pc, #24]	; (826c <dmConnSmActConnOpened+0x50>)
    8252:	4630      	mov	r0, r6
    8254:	f7fc f9a6 	bl	45a4 <BdaCpy>
    8258:	2300      	movs	r3, #0
    825a:	81e3      	strh	r3, [r4, #14]
    825c:	2327      	movs	r3, #39	; 0x27
    825e:	70ab      	strb	r3, [r5, #2]
    8260:	4628      	mov	r0, r5
    8262:	e8bd 4070 	ldmia.w	sp!, {r4, r5, r6, lr}
    8266:	f7ff bfca 	b.w	81fe <dmConnExecCback>
    826a:	bf00      	nop
    826c:	10000bc4 	.word	0x10000bc4

00008270 <dmConnSmActConnFailed>:
    8270:	2300      	movs	r3, #0
    8272:	7583      	strb	r3, [r0, #22]
    8274:	2328      	movs	r3, #40	; 0x28
    8276:	708b      	strb	r3, [r1, #2]
    8278:	4608      	mov	r0, r1
    827a:	f7ff bfc0 	b.w	81fe <dmConnExecCback>

0000827e <dmConnSmActConnClosed>:
    827e:	2300      	movs	r3, #0
    8280:	7583      	strb	r3, [r0, #22]
    8282:	2328      	movs	r3, #40	; 0x28
    8284:	708b      	strb	r3, [r1, #2]
    8286:	4608      	mov	r0, r1
    8288:	f7ff bfb9 	b.w	81fe <dmConnExecCback>

0000828c <dmConnOpenAccept>:
    828c:	e92d 43f8 	stmdb	sp!, {r3, r4, r5, r6, r7, r8, r9, lr}
    8290:	4616      	mov	r6, r2
    8292:	4680      	mov	r8, r0
    8294:	4689      	mov	r9, r1
    8296:	461f      	mov	r7, r3
    8298:	f7fc f9fa 	bl	4690 <WsfTaskLock>
    829c:	4630      	mov	r0, r6
    829e:	f7ff ff31 	bl	8104 <dmConnCcbByBdAddr>
    82a2:	b920      	cbnz	r0, 82ae <dmConnOpenAccept+0x22>
    82a4:	4630      	mov	r0, r6
    82a6:	f7ff fecf 	bl	8048 <dmConnCcbAlloc>
    82aa:	4604      	mov	r4, r0
    82ac:	e000      	b.n	82b0 <dmConnOpenAccept+0x24>
    82ae:	2400      	movs	r4, #0
    82b0:	f7fc f9f4 	bl	469c <WsfTaskUnlock>
    82b4:	b344      	cbz	r4, 8308 <dmConnOpenAccept+0x7c>
    82b6:	200c      	movs	r0, #12
    82b8:	f7fc fc00 	bl	4abc <WsfMsgAlloc>
    82bc:	4605      	mov	r5, r0
    82be:	b1d8      	cbz	r0, 82f8 <dmConnOpenAccept+0x6c>
    82c0:	7c23      	ldrb	r3, [r4, #16]
    82c2:	8003      	strh	r3, [r0, #0]
    82c4:	2f00      	cmp	r7, #0
    82c6:	bf0c      	ite	eq
    82c8:	2330      	moveq	r3, #48	; 0x30
    82ca:	2332      	movne	r3, #50	; 0x32
    82cc:	7083      	strb	r3, [r0, #2]
    82ce:	4631      	mov	r1, r6
    82d0:	3004      	adds	r0, #4
    82d2:	4e0f      	ldr	r6, [pc, #60]	; (8310 <dmConnOpenAccept+0x84>)
    82d4:	f7fc f966 	bl	45a4 <BdaCpy>
    82d8:	f885 900a 	strb.w	r9, [r5, #10]
    82dc:	f885 800b 	strb.w	r8, [r5, #11]
    82e0:	7b30      	ldrb	r0, [r6, #12]
    82e2:	4629      	mov	r1, r5
    82e4:	f7fc fc0e 	bl	4b04 <WsfMsgSend>
    82e8:	f7fc f9d2 	bl	4690 <WsfTaskLock>
    82ec:	7377      	strb	r7, [r6, #13]
    82ee:	f7fc f9d5 	bl	469c <WsfTaskUnlock>
    82f2:	7c20      	ldrb	r0, [r4, #16]
    82f4:	e8bd 83f8 	ldmia.w	sp!, {r3, r4, r5, r6, r7, r8, r9, pc}
    82f8:	f7fc f9ca 	bl	4690 <WsfTaskLock>
    82fc:	75a5      	strb	r5, [r4, #22]
    82fe:	f7fc f9cd 	bl	469c <WsfTaskUnlock>
    8302:	4628      	mov	r0, r5
    8304:	e8bd 83f8 	ldmia.w	sp!, {r3, r4, r5, r6, r7, r8, r9, pc}
    8308:	4620      	mov	r0, r4
    830a:	e8bd 83f8 	ldmia.w	sp!, {r3, r4, r5, r6, r7, r8, r9, pc}
    830e:	bf00      	nop
    8310:	10000bc4 	.word	0x10000bc4

00008314 <DmConnInit>:
    8314:	4b05      	ldr	r3, [pc, #20]	; (832c <DmConnInit+0x18>)
    8316:	4a06      	ldr	r2, [pc, #24]	; (8330 <DmConnInit+0x1c>)
    8318:	f103 010c 	add.w	r1, r3, #12
    831c:	60d1      	str	r1, [r2, #12]
    831e:	f103 0118 	add.w	r1, r3, #24
    8322:	6111      	str	r1, [r2, #16]
    8324:	4a03      	ldr	r2, [pc, #12]	; (8334 <DmConnInit+0x20>)
    8326:	3324      	adds	r3, #36	; 0x24
    8328:	6013      	str	r3, [r2, #0]
    832a:	4770      	bx	lr
    832c:	0000f254 	.word	0x0000f254
    8330:	100002fc 	.word	0x100002fc
    8334:	10000bb8 	.word	0x10000bb8

00008338 <DmConnRegister>:
    8338:	b538      	push	{r3, r4, r5, lr}
    833a:	4604      	mov	r4, r0
    833c:	460d      	mov	r5, r1
    833e:	3414      	adds	r4, #20
    8340:	f7fc f9a6 	bl	4690 <WsfTaskLock>
    8344:	4b03      	ldr	r3, [pc, #12]	; (8354 <DmConnRegister+0x1c>)
    8346:	f843 5024 	str.w	r5, [r3, r4, lsl #2]
    834a:	e8bd 4038 	ldmia.w	sp!, {r3, r4, r5, lr}
    834e:	f7fc b9a5 	b.w	469c <WsfTaskUnlock>
    8352:	bf00      	nop
    8354:	10000b44 	.word	0x10000b44

00008358 <DmConnClose>:
    8358:	b570      	push	{r4, r5, r6, lr}
    835a:	4604      	mov	r4, r0
    835c:	200c      	movs	r0, #12
    835e:	460e      	mov	r6, r1
    8360:	4615      	mov	r5, r2
    8362:	f7fc fbab 	bl	4abc <WsfMsgAlloc>
    8366:	4601      	mov	r1, r0
    8368:	b150      	cbz	r0, 8380 <DmConnClose+0x28>
    836a:	2231      	movs	r2, #49	; 0x31
    836c:	7082      	strb	r2, [r0, #2]
    836e:	4a05      	ldr	r2, [pc, #20]	; (8384 <DmConnClose+0x2c>)
    8370:	8006      	strh	r6, [r0, #0]
    8372:	7105      	strb	r5, [r0, #4]
    8374:	7144      	strb	r4, [r0, #5]
    8376:	7b10      	ldrb	r0, [r2, #12]
    8378:	e8bd 4070 	ldmia.w	sp!, {r4, r5, r6, lr}
    837c:	f7fc bbc2 	b.w	4b04 <WsfMsgSend>
    8380:	bd70      	pop	{r4, r5, r6, pc}
    8382:	bf00      	nop
    8384:	10000bc4 	.word	0x10000bc4

00008388 <DmConnUpdate>:
    8388:	b570      	push	{r4, r5, r6, lr}
    838a:	4606      	mov	r6, r0
    838c:	2010      	movs	r0, #16
    838e:	460d      	mov	r5, r1
    8390:	f7fc fb94 	bl	4abc <WsfMsgAlloc>
    8394:	4604      	mov	r4, r0
    8396:	b1b0      	cbz	r0, 83c6 <DmConnUpdate+0x3e>
    8398:	f000 f963 	bl	8662 <DmDevRole>
    839c:	4622      	mov	r2, r4
    839e:	2800      	cmp	r0, #0
    83a0:	bf0c      	ite	eq
    83a2:	2333      	moveq	r3, #51	; 0x33
    83a4:	2334      	movne	r3, #52	; 0x34
    83a6:	70a3      	strb	r3, [r4, #2]
    83a8:	f822 6b04 	strh.w	r6, [r2], #4
    83ac:	682b      	ldr	r3, [r5, #0]
    83ae:	6063      	str	r3, [r4, #4]
    83b0:	686b      	ldr	r3, [r5, #4]
    83b2:	6053      	str	r3, [r2, #4]
    83b4:	68ab      	ldr	r3, [r5, #8]
    83b6:	6093      	str	r3, [r2, #8]
    83b8:	4b03      	ldr	r3, [pc, #12]	; (83c8 <DmConnUpdate+0x40>)
    83ba:	4621      	mov	r1, r4
    83bc:	7b18      	ldrb	r0, [r3, #12]
    83be:	e8bd 4070 	ldmia.w	sp!, {r4, r5, r6, lr}
    83c2:	f7fc bb9f 	b.w	4b04 <WsfMsgSend>
    83c6:	bd70      	pop	{r4, r5, r6, pc}
    83c8:	10000bc4 	.word	0x10000bc4

000083cc <DmConnSetScanInterval>:
    83cc:	b538      	push	{r3, r4, r5, lr}
    83ce:	4605      	mov	r5, r0
    83d0:	460c      	mov	r4, r1
    83d2:	f7fc f95d 	bl	4690 <WsfTaskLock>
    83d6:	4b04      	ldr	r3, [pc, #16]	; (83e8 <DmConnSetScanInterval+0x1c>)
    83d8:	f8a3 5070 	strh.w	r5, [r3, #112]	; 0x70
    83dc:	f8a3 4072 	strh.w	r4, [r3, #114]	; 0x72
    83e0:	e8bd 4038 	ldmia.w	sp!, {r3, r4, r5, lr}
    83e4:	f7fc b95a 	b.w	469c <WsfTaskUnlock>
    83e8:	10000b44 	.word	0x10000b44

000083ec <DmConnSetConnSpec>:
    83ec:	b510      	push	{r4, lr}
    83ee:	4604      	mov	r4, r0
    83f0:	f7fc f94e 	bl	4690 <WsfTaskLock>
    83f4:	6820      	ldr	r0, [r4, #0]
    83f6:	6861      	ldr	r1, [r4, #4]
    83f8:	4b03      	ldr	r3, [pc, #12]	; (8408 <DmConnSetConnSpec+0x1c>)
    83fa:	c303      	stmia	r3!, {r0, r1}
    83fc:	68a0      	ldr	r0, [r4, #8]
    83fe:	6018      	str	r0, [r3, #0]
    8400:	e8bd 4010 	ldmia.w	sp!, {r4, lr}
    8404:	f7fc b94a 	b.w	469c <WsfTaskUnlock>
    8408:	10000ba8 	.word	0x10000ba8

0000840c <DmConnReadRssi>:
    840c:	b510      	push	{r4, lr}
    840e:	4604      	mov	r4, r0
    8410:	2004      	movs	r0, #4
    8412:	f7fc fb53 	bl	4abc <WsfMsgAlloc>
    8416:	4601      	mov	r1, r0
    8418:	b140      	cbz	r0, 842c <DmConnReadRssi+0x20>
    841a:	2341      	movs	r3, #65	; 0x41
    841c:	7083      	strb	r3, [r0, #2]
    841e:	4b04      	ldr	r3, [pc, #16]	; (8430 <DmConnReadRssi+0x24>)
    8420:	8004      	strh	r4, [r0, #0]
    8422:	7b18      	ldrb	r0, [r3, #12]
    8424:	e8bd 4010 	ldmia.w	sp!, {r4, lr}
    8428:	f7fc bb6c 	b.w	4b04 <WsfMsgSend>
    842c:	bd10      	pop	{r4, pc}
    842e:	bf00      	nop
    8430:	10000bc4 	.word	0x10000bc4

00008434 <DmConnIdByHandle>:
    8434:	4b06      	ldr	r3, [pc, #24]	; (8450 <DmConnIdByHandle+0x1c>)
    8436:	7d9a      	ldrb	r2, [r3, #22]
    8438:	b122      	cbz	r2, 8444 <DmConnIdByHandle+0x10>
    843a:	899a      	ldrh	r2, [r3, #12]
    843c:	4282      	cmp	r2, r0
    843e:	d101      	bne.n	8444 <DmConnIdByHandle+0x10>
    8440:	7c18      	ldrb	r0, [r3, #16]
    8442:	4770      	bx	lr
    8444:	4a03      	ldr	r2, [pc, #12]	; (8454 <DmConnIdByHandle+0x20>)
    8446:	331a      	adds	r3, #26
    8448:	4293      	cmp	r3, r2
    844a:	d1f4      	bne.n	8436 <DmConnIdByHandle+0x2>
    844c:	2000      	movs	r0, #0
    844e:	4770      	bx	lr
    8450:	10000b44 	.word	0x10000b44
    8454:	10000b92 	.word	0x10000b92

00008458 <DmConnInUse>:
    8458:	4a03      	ldr	r2, [pc, #12]	; (8468 <DmConnInUse+0x10>)
    845a:	1e43      	subs	r3, r0, #1
    845c:	201a      	movs	r0, #26
    845e:	fb00 2003 	mla	r0, r0, r3, r2
    8462:	7d80      	ldrb	r0, [r0, #22]
    8464:	4770      	bx	lr
    8466:	bf00      	nop
    8468:	10000b44 	.word	0x10000b44

0000846c <DmConnPeerAddrType>:
    846c:	4a03      	ldr	r2, [pc, #12]	; (847c <DmConnPeerAddrType+0x10>)
    846e:	1e43      	subs	r3, r0, #1
    8470:	201a      	movs	r0, #26
    8472:	fb00 2003 	mla	r0, r0, r3, r2
    8476:	7cc0      	ldrb	r0, [r0, #19]
    8478:	4770      	bx	lr
    847a:	bf00      	nop
    847c:	10000b44 	.word	0x10000b44

00008480 <DmConnPeerAddr>:
    8480:	4b02      	ldr	r3, [pc, #8]	; (848c <DmConnPeerAddr+0xc>)
    8482:	221a      	movs	r2, #26
    8484:	3801      	subs	r0, #1
    8486:	fb02 3000 	mla	r0, r2, r0, r3
    848a:	4770      	bx	lr
    848c:	10000b44 	.word	0x10000b44

00008490 <DmConnLocalAddrType>:
    8490:	4a03      	ldr	r2, [pc, #12]	; (84a0 <DmConnLocalAddrType+0x10>)
    8492:	1e43      	subs	r3, r0, #1
    8494:	201a      	movs	r0, #26
    8496:	fb00 2003 	mla	r0, r0, r3, r2
    849a:	7d00      	ldrb	r0, [r0, #20]
    849c:	4770      	bx	lr
    849e:	bf00      	nop
    84a0:	10000b44 	.word	0x10000b44

000084a4 <DmConnLocalAddr>:
    84a4:	4a03      	ldr	r2, [pc, #12]	; (84b4 <DmConnLocalAddr+0x10>)
    84a6:	1e43      	subs	r3, r0, #1
    84a8:	201a      	movs	r0, #26
    84aa:	fb00 2003 	mla	r0, r0, r3, r2
    84ae:	3006      	adds	r0, #6
    84b0:	4770      	bx	lr
    84b2:	bf00      	nop
    84b4:	10000b44 	.word	0x10000b44

000084b8 <DmConnSecLevel>:
    84b8:	4a03      	ldr	r2, [pc, #12]	; (84c8 <DmConnSecLevel+0x10>)
    84ba:	1e43      	subs	r3, r0, #1
    84bc:	201a      	movs	r0, #26
    84be:	fb00 2003 	mla	r0, r0, r3, r2
    84c2:	7dc0      	ldrb	r0, [r0, #23]
    84c4:	4770      	bx	lr
    84c6:	bf00      	nop
    84c8:	10000b44 	.word	0x10000b44

000084cc <DmConnSetIdle>:
    84cc:	b570      	push	{r4, r5, r6, lr}
    84ce:	4604      	mov	r4, r0
    84d0:	460d      	mov	r5, r1
    84d2:	4616      	mov	r6, r2
    84d4:	f7fc f8dc 	bl	4690 <WsfTaskLock>
    84d8:	4b09      	ldr	r3, [pc, #36]	; (8500 <DmConnSetIdle+0x34>)
    84da:	3c01      	subs	r4, #1
    84dc:	201a      	movs	r0, #26
    84de:	fb00 3004 	mla	r0, r0, r4, r3
    84e2:	7d83      	ldrb	r3, [r0, #22]
    84e4:	b143      	cbz	r3, 84f8 <DmConnSetIdle+0x2c>
    84e6:	3008      	adds	r0, #8
    84e8:	88c3      	ldrh	r3, [r0, #6]
    84ea:	b916      	cbnz	r6, 84f2 <DmConnSetIdle+0x26>
    84ec:	ea23 0105 	bic.w	r1, r3, r5
    84f0:	e001      	b.n	84f6 <DmConnSetIdle+0x2a>
    84f2:	ea45 0103 	orr.w	r1, r5, r3
    84f6:	80c1      	strh	r1, [r0, #6]
    84f8:	e8bd 4070 	ldmia.w	sp!, {r4, r5, r6, lr}
    84fc:	f7fc b8ce 	b.w	469c <WsfTaskUnlock>
    8500:	10000b44 	.word	0x10000b44

00008504 <DmConnCheckIdle>:
    8504:	b510      	push	{r4, lr}
    8506:	4604      	mov	r4, r0
    8508:	f7fc f8c2 	bl	4690 <WsfTaskLock>
    850c:	4b04      	ldr	r3, [pc, #16]	; (8520 <DmConnCheckIdle+0x1c>)
    850e:	1e60      	subs	r0, r4, #1
    8510:	241a      	movs	r4, #26
    8512:	fb04 3400 	mla	r4, r4, r0, r3
    8516:	89e4      	ldrh	r4, [r4, #14]
    8518:	f7fc f8c0 	bl	469c <WsfTaskUnlock>
    851c:	4620      	mov	r0, r4
    851e:	bd10      	pop	{r4, pc}
    8520:	10000b44 	.word	0x10000b44

00008524 <dmConnSmActAccept>:
    8524:	7a88      	ldrb	r0, [r1, #10]
    8526:	3104      	adds	r1, #4
    8528:	f7ff bc60 	b.w	7dec <dmAdvStartDirected>

0000852c <dmConnSmActCancelAccept>:
    852c:	b538      	push	{r3, r4, r5, lr}
    852e:	4605      	mov	r5, r0
    8530:	460c      	mov	r4, r1
    8532:	f7ff fc60 	bl	7df6 <dmAdvStopDirected>
    8536:	4628      	mov	r0, r5
    8538:	4621      	mov	r1, r4
    853a:	e8bd 4038 	ldmia.w	sp!, {r3, r4, r5, lr}
    853e:	f7ff be97 	b.w	8270 <dmConnSmActConnFailed>

00008542 <dmConnSmActConnAccepted>:
    8542:	b538      	push	{r3, r4, r5, lr}
    8544:	4605      	mov	r5, r0
    8546:	460c      	mov	r4, r1
    8548:	f7ff fc60 	bl	7e0c <dmAdvConnected>
    854c:	4628      	mov	r0, r5
    854e:	4621      	mov	r1, r4
    8550:	e8bd 4038 	ldmia.w	sp!, {r3, r4, r5, lr}
    8554:	f7ff be62 	b.w	821c <dmConnSmActConnOpened>

00008558 <dmConnSmActAcceptFailed>:
    8558:	b538      	push	{r3, r4, r5, lr}
    855a:	4605      	mov	r5, r0
    855c:	460c      	mov	r4, r1
    855e:	f7ff fc5b 	bl	7e18 <dmAdvConnectFailed>
    8562:	4628      	mov	r0, r5
    8564:	4621      	mov	r1, r4
    8566:	e8bd 4038 	ldmia.w	sp!, {r3, r4, r5, lr}
    856a:	f7ff be81 	b.w	8270 <dmConnSmActConnFailed>

0000856e <dmConnSmActL2cUpdateCnf>:
    856e:	b51f      	push	{r0, r1, r2, r3, r4, lr}
    8570:	7c43      	ldrb	r3, [r0, #17]
    8572:	b1ab      	cbz	r3, 85a0 <dmConnSmActL2cUpdateCnf+0x32>
    8574:	888b      	ldrh	r3, [r1, #4]
    8576:	b19b      	cbz	r3, 85a0 <dmConnSmActL2cUpdateCnf+0x32>
    8578:	2300      	movs	r3, #0
    857a:	7443      	strb	r3, [r0, #17]
    857c:	2329      	movs	r3, #41	; 0x29
    857e:	f88d 3002 	strb.w	r3, [sp, #2]
    8582:	7c03      	ldrb	r3, [r0, #16]
    8584:	f8ad 3000 	strh.w	r3, [sp]
    8588:	790b      	ldrb	r3, [r1, #4]
    858a:	f88d 3003 	strb.w	r3, [sp, #3]
    858e:	f88d 3004 	strb.w	r3, [sp, #4]
    8592:	8983      	ldrh	r3, [r0, #12]
    8594:	f8ad 3006 	strh.w	r3, [sp, #6]
    8598:	4b03      	ldr	r3, [pc, #12]	; (85a8 <dmConnSmActL2cUpdateCnf+0x3a>)
    859a:	4668      	mov	r0, sp
    859c:	6ddb      	ldr	r3, [r3, #92]	; 0x5c
    859e:	4798      	blx	r3
    85a0:	b005      	add	sp, #20
    85a2:	f85d fb04 	ldr.w	pc, [sp], #4
    85a6:	bf00      	nop
    85a8:	10000b44 	.word	0x10000b44

000085ac <dmConnSmActUpdateSlave>:
    85ac:	7c43      	ldrb	r3, [r0, #17]
    85ae:	b92b      	cbnz	r3, 85bc <dmConnSmActUpdateSlave+0x10>
    85b0:	2301      	movs	r3, #1
    85b2:	7443      	strb	r3, [r0, #17]
    85b4:	3104      	adds	r1, #4
    85b6:	8980      	ldrh	r0, [r0, #12]
    85b8:	f000 bc3a 	b.w	8e30 <L2cDmConnUpdateReq>
    85bc:	4770      	bx	lr

000085be <DmL2cConnUpdateCnf>:
    85be:	b513      	push	{r0, r1, r4, lr}
    85c0:	460c      	mov	r4, r1
    85c2:	f7ff fd6a 	bl	809a <dmConnCcbByHandle>
    85c6:	b138      	cbz	r0, 85d8 <DmL2cConnUpdateCnf+0x1a>
    85c8:	2336      	movs	r3, #54	; 0x36
    85ca:	4669      	mov	r1, sp
    85cc:	f88d 3002 	strb.w	r3, [sp, #2]
    85d0:	f8ad 4004 	strh.w	r4, [sp, #4]
    85d4:	f000 f80e 	bl	85f4 <dmConnSmExecute>
    85d8:	b002      	add	sp, #8
    85da:	bd10      	pop	{r4, pc}

000085dc <DmConnSlaveInit>:
    85dc:	4b01      	ldr	r3, [pc, #4]	; (85e4 <DmConnSlaveInit+0x8>)
    85de:	4a02      	ldr	r2, [pc, #8]	; (85e8 <DmConnSlaveInit+0xc>)
    85e0:	609a      	str	r2, [r3, #8]
    85e2:	4770      	bx	lr
    85e4:	10000bb8 	.word	0x10000bb8
    85e8:	0000f290 	.word	0x0000f290

000085ec <DmConnAccept>:
    85ec:	2301      	movs	r3, #1
    85ee:	f7ff be4d 	b.w	828c <dmConnOpenAccept>
    85f2:	bf00      	nop

000085f4 <dmConnSmExecute>:
    85f4:	b570      	push	{r4, r5, r6, lr}
    85f6:	788a      	ldrb	r2, [r1, #2]
    85f8:	7d43      	ldrb	r3, [r0, #21]
    85fa:	4d0e      	ldr	r5, [pc, #56]	; (8634 <dmConnSmExecute+0x40>)
    85fc:	f002 020f 	and.w	r2, r2, #15
    8600:	260d      	movs	r6, #13
    8602:	fb06 2203 	mla	r2, r6, r3, r2
    8606:	eb05 0342 	add.w	r3, r5, r2, lsl #1
    860a:	f815 2012 	ldrb.w	r2, [r5, r2, lsl #1]
    860e:	785b      	ldrb	r3, [r3, #1]
    8610:	7542      	strb	r2, [r0, #21]
    8612:	091c      	lsrs	r4, r3, #4
    8614:	4a08      	ldr	r2, [pc, #32]	; (8638 <dmConnSmExecute+0x44>)
    8616:	f852 2024 	ldr.w	r2, [r2, r4, lsl #2]
    861a:	b132      	cbz	r2, 862a <dmConnSmExecute+0x36>
    861c:	f003 030f 	and.w	r3, r3, #15
    8620:	e8bd 4070 	ldmia.w	sp!, {r4, r5, r6, lr}
    8624:	f852 3023 	ldr.w	r3, [r2, r3, lsl #2]
    8628:	4718      	bx	r3
    862a:	e8bd 4070 	ldmia.w	sp!, {r4, r5, r6, lr}
    862e:	f7ff bce1 	b.w	7ff4 <dmConnSmActNone>
    8632:	bf00      	nop
    8634:	0000f2a8 	.word	0x0000f2a8
    8638:	10000bb8 	.word	0x10000bb8

0000863c <dmDevHciHandler>:
    863c:	7882      	ldrb	r2, [r0, #2]
    863e:	4603      	mov	r3, r0
    8640:	b90a      	cbnz	r2, 8646 <dmDevHciHandler+0xa>
    8642:	2220      	movs	r2, #32
    8644:	e002      	b.n	864c <dmDevHciHandler+0x10>
    8646:	2a12      	cmp	r2, #18
    8648:	d104      	bne.n	8654 <dmDevHciHandler+0x18>
    864a:	2239      	movs	r2, #57	; 0x39
    864c:	709a      	strb	r2, [r3, #2]
    864e:	4b02      	ldr	r3, [pc, #8]	; (8658 <dmDevHciHandler+0x1c>)
    8650:	689b      	ldr	r3, [r3, #8]
    8652:	4718      	bx	r3
    8654:	4770      	bx	lr
    8656:	bf00      	nop
    8658:	10000bc4 	.word	0x10000bc4

0000865c <dmDevMsgHandler>:
    865c:	4770      	bx	lr

0000865e <DmDevReset>:
    865e:	f7f9 bf33 	b.w	24c8 <HciResetSequence>

00008662 <DmDevRole>:
    8662:	4b01      	ldr	r3, [pc, #4]	; (8668 <DmDevRole+0x6>)
    8664:	7b58      	ldrb	r0, [r3, #13]
    8666:	4770      	bx	lr
    8668:	10000bc4 	.word	0x10000bc4

0000866c <DmDevSetRandAddr>:
    866c:	b510      	push	{r4, lr}
    866e:	4604      	mov	r4, r0
    8670:	4621      	mov	r1, r4
    8672:	4804      	ldr	r0, [pc, #16]	; (8684 <DmDevSetRandAddr+0x18>)
    8674:	f7fb ff96 	bl	45a4 <BdaCpy>
    8678:	4620      	mov	r0, r4
    867a:	e8bd 4010 	ldmia.w	sp!, {r4, lr}
    867e:	f7f9 baa3 	b.w	1bc8 <HciLeSetRandAddrCmd>
    8682:	bf00      	nop
    8684:	10000bc4 	.word	0x10000bc4

00008688 <DmDevWhiteListAdd>:
    8688:	f7f9 b8be 	b.w	1808 <HciLeAddDevWhiteListCmd>

0000868c <DmDevWhiteListRemove>:
    868c:	f7f9 b9b0 	b.w	19f0 <HciLeRemoveDevWhiteListCmd>

00008690 <DmDevWhiteListClear>:
    8690:	f7f9 b8de 	b.w	1850 <HciLeClearWhiteListCmd>

00008694 <DmDevSetFilterPolicy>:
    8694:	2801      	cmp	r0, #1
    8696:	d008      	beq.n	86aa <DmDevSetFilterPolicy+0x16>
    8698:	d302      	bcc.n	86a0 <DmDevSetFilterPolicy+0xc>
    869a:	2802      	cmp	r0, #2
    869c:	d00a      	beq.n	86b4 <DmDevSetFilterPolicy+0x20>
    869e:	e00f      	b.n	86c0 <DmDevSetFilterPolicy+0x2c>
    86a0:	2903      	cmp	r1, #3
    86a2:	d80d      	bhi.n	86c0 <DmDevSetFilterPolicy+0x2c>
    86a4:	4b07      	ldr	r3, [pc, #28]	; (86c4 <DmDevSetFilterPolicy+0x30>)
    86a6:	7419      	strb	r1, [r3, #16]
    86a8:	e008      	b.n	86bc <DmDevSetFilterPolicy+0x28>
    86aa:	2901      	cmp	r1, #1
    86ac:	d808      	bhi.n	86c0 <DmDevSetFilterPolicy+0x2c>
    86ae:	4b05      	ldr	r3, [pc, #20]	; (86c4 <DmDevSetFilterPolicy+0x30>)
    86b0:	7459      	strb	r1, [r3, #17]
    86b2:	4770      	bx	lr
    86b4:	2901      	cmp	r1, #1
    86b6:	d803      	bhi.n	86c0 <DmDevSetFilterPolicy+0x2c>
    86b8:	4b02      	ldr	r3, [pc, #8]	; (86c4 <DmDevSetFilterPolicy+0x30>)
    86ba:	7499      	strb	r1, [r3, #18]
    86bc:	2001      	movs	r0, #1
    86be:	4770      	bx	lr
    86c0:	2000      	movs	r0, #0
    86c2:	4770      	bx	lr
    86c4:	10000bc4 	.word	0x10000bc4

000086c8 <DmDevVsInit>:
    86c8:	f7fb bb24 	b.w	3d14 <HciVsInit>

000086cc <dmHciEvtCback>:
    86cc:	7883      	ldrb	r3, [r0, #2]
    86ce:	4a03      	ldr	r2, [pc, #12]	; (86dc <dmHciEvtCback+0x10>)
    86d0:	5cd2      	ldrb	r2, [r2, r3]
    86d2:	4b03      	ldr	r3, [pc, #12]	; (86e0 <dmHciEvtCback+0x14>)
    86d4:	f853 3022 	ldr.w	r3, [r3, r2, lsl #2]
    86d8:	685b      	ldr	r3, [r3, #4]
    86da:	4718      	bx	r3
    86dc:	0000f338 	.word	0x0000f338
    86e0:	100002fc 	.word	0x100002fc

000086e4 <dmEmptyReset>:
    86e4:	4770      	bx	lr

000086e6 <dmEmptyHandler>:
    86e6:	4770      	bx	lr

000086e8 <DmRegister>:
    86e8:	4b01      	ldr	r3, [pc, #4]	; (86f0 <DmRegister+0x8>)
    86ea:	6098      	str	r0, [r3, #8]
    86ec:	4770      	bx	lr
    86ee:	bf00      	nop
    86f0:	10000bc4 	.word	0x10000bc4

000086f4 <DmFindAdType>:
    86f4:	b510      	push	{r4, lr}
    86f6:	b161      	cbz	r1, 8712 <DmFindAdType+0x1e>
    86f8:	7813      	ldrb	r3, [r2, #0]
    86fa:	b153      	cbz	r3, 8712 <DmFindAdType+0x1e>
    86fc:	428b      	cmp	r3, r1
    86fe:	d208      	bcs.n	8712 <DmFindAdType+0x1e>
    8700:	7854      	ldrb	r4, [r2, #1]
    8702:	4284      	cmp	r4, r0
    8704:	d007      	beq.n	8716 <DmFindAdType+0x22>
    8706:	43dc      	mvns	r4, r3
    8708:	4421      	add	r1, r4
    870a:	1c5c      	adds	r4, r3, #1
    870c:	b2c9      	uxtb	r1, r1
    870e:	4422      	add	r2, r4
    8710:	e7f1      	b.n	86f6 <DmFindAdType+0x2>
    8712:	2000      	movs	r0, #0
    8714:	bd10      	pop	{r4, pc}
    8716:	4610      	mov	r0, r2
    8718:	bd10      	pop	{r4, pc}

0000871a <DmHandlerInit>:
    871a:	b508      	push	{r3, lr}
    871c:	4b06      	ldr	r3, [pc, #24]	; (8738 <DmHandlerInit+0x1e>)
    871e:	7318      	strb	r0, [r3, #12]
    8720:	4806      	ldr	r0, [pc, #24]	; (873c <DmHandlerInit+0x22>)
    8722:	f7fb feed 	bl	4500 <HciEvtRegister>
    8726:	f000 f821 	bl	876c <dmScanReset>
    872a:	f7ff fc6f 	bl	800c <dmConnReset>
    872e:	e8bd 4008 	ldmia.w	sp!, {r3, lr}
    8732:	f7ff bacb 	b.w	7ccc <dmAdvReset>
    8736:	bf00      	nop
    8738:	10000bc4 	.word	0x10000bc4
    873c:	000086cd 	.word	0x000086cd

00008740 <DmHandler>:
    8740:	b139      	cbz	r1, 8752 <DmHandler+0x12>
    8742:	788b      	ldrb	r3, [r1, #2]
    8744:	4a03      	ldr	r2, [pc, #12]	; (8754 <DmHandler+0x14>)
    8746:	091b      	lsrs	r3, r3, #4
    8748:	4608      	mov	r0, r1
    874a:	f852 3023 	ldr.w	r3, [r2, r3, lsl #2]
    874e:	689b      	ldr	r3, [r3, #8]
    8750:	4718      	bx	r3
    8752:	4770      	bx	lr
    8754:	100002fc 	.word	0x100002fc

00008758 <dmScanMsgHandler>:
    8758:	7883      	ldrb	r3, [r0, #2]
    875a:	4a03      	ldr	r2, [pc, #12]	; (8768 <dmScanMsgHandler+0x10>)
    875c:	f003 030f 	and.w	r3, r3, #15
    8760:	f852 3023 	ldr.w	r3, [r2, r3, lsl #2]
    8764:	4718      	bx	r3
    8766:	bf00      	nop
    8768:	0000f358 	.word	0x0000f358

0000876c <dmScanReset>:
    876c:	4905      	ldr	r1, [pc, #20]	; (8784 <dmScanReset+0x18>)
    876e:	4b06      	ldr	r3, [pc, #24]	; (8788 <dmScanReset+0x1c>)
    8770:	7b0a      	ldrb	r2, [r1, #12]
    8772:	721a      	strb	r2, [r3, #8]
    8774:	2230      	movs	r2, #48	; 0x30
    8776:	821a      	strh	r2, [r3, #16]
    8778:	825a      	strh	r2, [r3, #18]
    877a:	2200      	movs	r2, #0
    877c:	751a      	strb	r2, [r3, #20]
    877e:	75da      	strb	r2, [r3, #23]
    8780:	744a      	strb	r2, [r1, #17]
    8782:	4770      	bx	lr
    8784:	10000bc4 	.word	0x10000bc4
    8788:	10000bd8 	.word	0x10000bd8

0000878c <dmScanActStart>:
    878c:	b5f7      	push	{r0, r1, r2, r4, r5, r6, r7, lr}
    878e:	4c1b      	ldr	r4, [pc, #108]	; (87fc <dmScanActStart+0x70>)
    8790:	7d23      	ldrb	r3, [r4, #20]
    8792:	4607      	mov	r7, r0
    8794:	b133      	cbz	r3, 87a4 <dmScanActStart+0x18>
    8796:	4620      	mov	r0, r4
    8798:	f7fc fc14 	bl	4fc4 <WsfTimerStop>
    879c:	2000      	movs	r0, #0
    879e:	4601      	mov	r1, r0
    87a0:	f7f9 fa30 	bl	1c04 <HciLeSetScanEnableCmd>
    87a4:	4e16      	ldr	r6, [pc, #88]	; (8800 <dmScanActStart+0x74>)
    87a6:	79f8      	ldrb	r0, [r7, #7]
    87a8:	f896 e011 	ldrb.w	lr, [r6, #17]
    87ac:	7de3      	ldrb	r3, [r4, #23]
    87ae:	8a21      	ldrh	r1, [r4, #16]
    87b0:	8a62      	ldrh	r2, [r4, #18]
    87b2:	f8cd e000 	str.w	lr, [sp]
    87b6:	f7f9 fa49 	bl	1c4c <HciLeSetScanParamCmd>
    87ba:	79bb      	ldrb	r3, [r7, #6]
    87bc:	4d0f      	ldr	r5, [pc, #60]	; (87fc <dmScanActStart+0x70>)
    87be:	2b01      	cmp	r3, #1
    87c0:	d003      	beq.n	87ca <dmScanActStart+0x3e>
    87c2:	2b02      	cmp	r3, #2
    87c4:	bf0c      	ite	eq
    87c6:	2303      	moveq	r3, #3
    87c8:	2300      	movne	r3, #0
    87ca:	75ab      	strb	r3, [r5, #22]
    87cc:	2001      	movs	r0, #1
    87ce:	2300      	movs	r3, #0
    87d0:	7563      	strb	r3, [r4, #21]
    87d2:	7520      	strb	r0, [r4, #20]
    87d4:	7a39      	ldrb	r1, [r7, #8]
    87d6:	4d09      	ldr	r5, [pc, #36]	; (87fc <dmScanActStart+0x70>)
    87d8:	f7f9 fa14 	bl	1c04 <HciLeSetScanEnableCmd>
    87dc:	88bb      	ldrh	r3, [r7, #4]
    87de:	b12b      	cbz	r3, 87ec <dmScanActStart+0x60>
    87e0:	2322      	movs	r3, #34	; 0x22
    87e2:	732b      	strb	r3, [r5, #12]
    87e4:	4628      	mov	r0, r5
    87e6:	88b9      	ldrh	r1, [r7, #4]
    87e8:	f7fc fbd8 	bl	4f9c <WsfTimerStartMs>
    87ec:	2324      	movs	r3, #36	; 0x24
    87ee:	70bb      	strb	r3, [r7, #2]
    87f0:	68b3      	ldr	r3, [r6, #8]
    87f2:	4638      	mov	r0, r7
    87f4:	b003      	add	sp, #12
    87f6:	e8bd 40f0 	ldmia.w	sp!, {r4, r5, r6, r7, lr}
    87fa:	4718      	bx	r3
    87fc:	10000bd8 	.word	0x10000bd8
    8800:	10000bc4 	.word	0x10000bc4

00008804 <dmScanActStop>:
    8804:	b570      	push	{r4, r5, r6, lr}
    8806:	4c0b      	ldr	r4, [pc, #44]	; (8834 <dmScanActStop+0x30>)
    8808:	7d23      	ldrb	r3, [r4, #20]
    880a:	4605      	mov	r5, r0
    880c:	b183      	cbz	r3, 8830 <dmScanActStop+0x2c>
    880e:	4620      	mov	r0, r4
    8810:	f7fc fbd8 	bl	4fc4 <WsfTimerStop>
    8814:	2000      	movs	r0, #0
    8816:	4601      	mov	r1, r0
    8818:	f7f9 f9f4 	bl	1c04 <HciLeSetScanEnableCmd>
    881c:	2300      	movs	r3, #0
    881e:	7523      	strb	r3, [r4, #20]
    8820:	2325      	movs	r3, #37	; 0x25
    8822:	70ab      	strb	r3, [r5, #2]
    8824:	4b04      	ldr	r3, [pc, #16]	; (8838 <dmScanActStop+0x34>)
    8826:	4628      	mov	r0, r5
    8828:	689b      	ldr	r3, [r3, #8]
    882a:	e8bd 4070 	ldmia.w	sp!, {r4, r5, r6, lr}
    882e:	4718      	bx	r3
    8830:	bd70      	pop	{r4, r5, r6, pc}
    8832:	bf00      	nop
    8834:	10000bd8 	.word	0x10000bd8
    8838:	10000bc4 	.word	0x10000bc4

0000883c <dmScanActTimeout>:
    883c:	f7ff bfe2 	b.w	8804 <dmScanActStop>

00008840 <dmScanActHciReport>:
    8840:	b570      	push	{r4, r5, r6, lr}
    8842:	4b12      	ldr	r3, [pc, #72]	; (888c <dmScanActHciReport+0x4c>)
    8844:	7d1a      	ldrb	r2, [r3, #20]
    8846:	4604      	mov	r4, r0
    8848:	461d      	mov	r5, r3
    884a:	b1f2      	cbz	r2, 888a <dmScanActHciReport+0x4a>
    884c:	7d9a      	ldrb	r2, [r3, #22]
    884e:	b1a2      	cbz	r2, 887a <dmScanActHciReport+0x3a>
    8850:	7a82      	ldrb	r2, [r0, #10]
    8852:	2a04      	cmp	r2, #4
    8854:	d104      	bne.n	8860 <dmScanActHciReport+0x20>
    8856:	7d5a      	ldrb	r2, [r3, #21]
    8858:	b17a      	cbz	r2, 887a <dmScanActHciReport+0x3a>
    885a:	2200      	movs	r2, #0
    885c:	755a      	strb	r2, [r3, #21]
    885e:	bd70      	pop	{r4, r5, r6, pc}
    8860:	2001      	movs	r0, #1
    8862:	7a21      	ldrb	r1, [r4, #8]
    8864:	6862      	ldr	r2, [r4, #4]
    8866:	f7ff ff45 	bl	86f4 <DmFindAdType>
    886a:	b910      	cbnz	r0, 8872 <dmScanActHciReport+0x32>
    886c:	2301      	movs	r3, #1
    886e:	756b      	strb	r3, [r5, #21]
    8870:	bd70      	pop	{r4, r5, r6, pc}
    8872:	7882      	ldrb	r2, [r0, #2]
    8874:	7dab      	ldrb	r3, [r5, #22]
    8876:	421a      	tst	r2, r3
    8878:	d0f8      	beq.n	886c <dmScanActHciReport+0x2c>
    887a:	2326      	movs	r3, #38	; 0x26
    887c:	70a3      	strb	r3, [r4, #2]
    887e:	4b04      	ldr	r3, [pc, #16]	; (8890 <dmScanActHciReport+0x50>)
    8880:	4620      	mov	r0, r4
    8882:	689b      	ldr	r3, [r3, #8]
    8884:	e8bd 4070 	ldmia.w	sp!, {r4, r5, r6, lr}
    8888:	4718      	bx	r3
    888a:	bd70      	pop	{r4, r5, r6, pc}
    888c:	10000bd8 	.word	0x10000bd8
    8890:	10000bc4 	.word	0x10000bc4

00008894 <dmScanHciHandler>:
    8894:	7883      	ldrb	r3, [r0, #2]
    8896:	2b05      	cmp	r3, #5
    8898:	d101      	bne.n	889e <dmScanHciHandler+0xa>
    889a:	f7ff bfd1 	b.w	8840 <dmScanActHciReport>
    889e:	4770      	bx	lr

000088a0 <DmScanInit>:
    88a0:	4b01      	ldr	r3, [pc, #4]	; (88a8 <DmScanInit+0x8>)
    88a2:	4a02      	ldr	r2, [pc, #8]	; (88ac <DmScanInit+0xc>)
    88a4:	609a      	str	r2, [r3, #8]
    88a6:	4770      	bx	lr
    88a8:	100002fc 	.word	0x100002fc
    88ac:	0000f364 	.word	0x0000f364

000088b0 <DmScanStart>:
    88b0:	b5f8      	push	{r3, r4, r5, r6, r7, lr}
    88b2:	4606      	mov	r6, r0
    88b4:	200a      	movs	r0, #10
    88b6:	460d      	mov	r5, r1
    88b8:	4614      	mov	r4, r2
    88ba:	461f      	mov	r7, r3
    88bc:	f7fc f8fe 	bl	4abc <WsfMsgAlloc>
    88c0:	4601      	mov	r1, r0
    88c2:	b158      	cbz	r0, 88dc <DmScanStart+0x2c>
    88c4:	2320      	movs	r3, #32
    88c6:	7083      	strb	r3, [r0, #2]
    88c8:	4b05      	ldr	r3, [pc, #20]	; (88e0 <DmScanStart+0x30>)
    88ca:	8087      	strh	r7, [r0, #4]
    88cc:	7186      	strb	r6, [r0, #6]
    88ce:	71c5      	strb	r5, [r0, #7]
    88d0:	7204      	strb	r4, [r0, #8]
    88d2:	7b18      	ldrb	r0, [r3, #12]
    88d4:	e8bd 40f8 	ldmia.w	sp!, {r3, r4, r5, r6, r7, lr}
    88d8:	f7fc b914 	b.w	4b04 <WsfMsgSend>
    88dc:	bdf8      	pop	{r3, r4, r5, r6, r7, pc}
    88de:	bf00      	nop
    88e0:	10000bc4 	.word	0x10000bc4

000088e4 <DmScanStop>:
    88e4:	b508      	push	{r3, lr}
    88e6:	2004      	movs	r0, #4
    88e8:	f7fc f8e8 	bl	4abc <WsfMsgAlloc>
    88ec:	4601      	mov	r1, r0
    88ee:	b138      	cbz	r0, 8900 <DmScanStop+0x1c>
    88f0:	2321      	movs	r3, #33	; 0x21
    88f2:	7083      	strb	r3, [r0, #2]
    88f4:	4b03      	ldr	r3, [pc, #12]	; (8904 <DmScanStop+0x20>)
    88f6:	7b18      	ldrb	r0, [r3, #12]
    88f8:	e8bd 4008 	ldmia.w	sp!, {r3, lr}
    88fc:	f7fc b902 	b.w	4b04 <WsfMsgSend>
    8900:	bd08      	pop	{r3, pc}
    8902:	bf00      	nop
    8904:	10000bc4 	.word	0x10000bc4

00008908 <DmScanSetInterval>:
    8908:	4b01      	ldr	r3, [pc, #4]	; (8910 <DmScanSetInterval+0x8>)
    890a:	8218      	strh	r0, [r3, #16]
    890c:	8259      	strh	r1, [r3, #18]
    890e:	4770      	bx	lr
    8910:	10000bd8 	.word	0x10000bd8

00008914 <DmScanSetAddrType>:
    8914:	b510      	push	{r4, lr}
    8916:	4604      	mov	r4, r0
    8918:	f7fb feba 	bl	4690 <WsfTaskLock>
    891c:	4b02      	ldr	r3, [pc, #8]	; (8928 <DmScanSetAddrType+0x14>)
    891e:	75dc      	strb	r4, [r3, #23]
    8920:	e8bd 4010 	ldmia.w	sp!, {r4, lr}
    8924:	f7fb beba 	b.w	469c <WsfTaskUnlock>
    8928:	10000bd8 	.word	0x10000bd8

0000892c <dmSecMsgHandler>:
    892c:	b570      	push	{r4, r5, r6, lr}
    892e:	4605      	mov	r5, r0
    8930:	7800      	ldrb	r0, [r0, #0]
    8932:	f7ff fc3b 	bl	81ac <dmConnCcbById>
    8936:	4604      	mov	r4, r0
    8938:	b350      	cbz	r0, 8990 <dmSecMsgHandler+0x64>
    893a:	78ab      	ldrb	r3, [r5, #2]
    893c:	2b50      	cmp	r3, #80	; 0x50
    893e:	d002      	beq.n	8946 <dmSecMsgHandler+0x1a>
    8940:	2b51      	cmp	r3, #81	; 0x51
    8942:	d012      	beq.n	896a <dmSecMsgHandler+0x3e>
    8944:	bd70      	pop	{r4, r5, r6, pc}
    8946:	7c00      	ldrb	r0, [r0, #16]
    8948:	2102      	movs	r1, #2
    894a:	2201      	movs	r2, #1
    894c:	f7ff fdbe 	bl	84cc <DmConnSetIdle>
    8950:	7fab      	ldrb	r3, [r5, #30]
    8952:	7623      	strb	r3, [r4, #24]
    8954:	2301      	movs	r3, #1
    8956:	74a3      	strb	r3, [r4, #18]
    8958:	89a0      	ldrh	r0, [r4, #12]
    895a:	8baa      	ldrh	r2, [r5, #28]
    895c:	f105 0114 	add.w	r1, r5, #20
    8960:	1d2b      	adds	r3, r5, #4
    8962:	e8bd 4070 	ldmia.w	sp!, {r4, r5, r6, lr}
    8966:	f7f9 b9e5 	b.w	1d34 <HciLeStartEncryptionCmd>
    896a:	7d2a      	ldrb	r2, [r5, #20]
    896c:	b13a      	cbz	r2, 897e <dmSecMsgHandler+0x52>
    896e:	7d6b      	ldrb	r3, [r5, #21]
    8970:	7603      	strb	r3, [r0, #24]
    8972:	1d29      	adds	r1, r5, #4
    8974:	8980      	ldrh	r0, [r0, #12]
    8976:	e8bd 4070 	ldmia.w	sp!, {r4, r5, r6, lr}
    897a:	f7f8 bfc5 	b.w	1908 <HciLeLtkReqReplCmd>
    897e:	7c00      	ldrb	r0, [r0, #16]
    8980:	2102      	movs	r1, #2
    8982:	f7ff fda3 	bl	84cc <DmConnSetIdle>
    8986:	89a0      	ldrh	r0, [r4, #12]
    8988:	e8bd 4070 	ldmia.w	sp!, {r4, r5, r6, lr}
    898c:	f7f8 bf96 	b.w	18bc <HciLeLtkReqNegReplCmd>
    8990:	bd70      	pop	{r4, r5, r6, pc}

00008992 <dmSecApiLtkMsg>:
    8992:	b5f8      	push	{r3, r4, r5, r6, r7, lr}
    8994:	4606      	mov	r6, r0
    8996:	2020      	movs	r0, #32
    8998:	460d      	mov	r5, r1
    899a:	4614      	mov	r4, r2
    899c:	461f      	mov	r7, r3
    899e:	f7fc f88d 	bl	4abc <WsfMsgAlloc>
    89a2:	4601      	mov	r1, r0
    89a4:	b1a0      	cbz	r0, 89d0 <dmSecApiLtkMsg+0x3e>
    89a6:	7087      	strb	r7, [r0, #2]
    89a8:	8006      	strh	r6, [r0, #0]
    89aa:	70c5      	strb	r5, [r0, #3]
    89ac:	1d03      	adds	r3, r0, #4
    89ae:	4622      	mov	r2, r4
    89b0:	f104 0018 	add.w	r0, r4, #24
    89b4:	f852 4b04 	ldr.w	r4, [r2], #4
    89b8:	f843 4b04 	str.w	r4, [r3], #4
    89bc:	4282      	cmp	r2, r0
    89be:	d1f9      	bne.n	89b4 <dmSecApiLtkMsg+0x22>
    89c0:	8812      	ldrh	r2, [r2, #0]
    89c2:	801a      	strh	r2, [r3, #0]
    89c4:	4b03      	ldr	r3, [pc, #12]	; (89d4 <dmSecApiLtkMsg+0x42>)
    89c6:	7b18      	ldrb	r0, [r3, #12]
    89c8:	e8bd 40f8 	ldmia.w	sp!, {r3, r4, r5, r6, r7, lr}
    89cc:	f7fc b89a 	b.w	4b04 <WsfMsgSend>
    89d0:	bdf8      	pop	{r3, r4, r5, r6, r7, pc}
    89d2:	bf00      	nop
    89d4:	10000bc4 	.word	0x10000bc4

000089d8 <DmSmpCbackExec>:
    89d8:	b510      	push	{r4, lr}
    89da:	7883      	ldrb	r3, [r0, #2]
    89dc:	2b2a      	cmp	r3, #42	; 0x2a
    89de:	4604      	mov	r4, r0
    89e0:	d001      	beq.n	89e6 <DmSmpCbackExec+0xe>
    89e2:	2b2c      	cmp	r3, #44	; 0x2c
    89e4:	d104      	bne.n	89f0 <DmSmpCbackExec+0x18>
    89e6:	4b05      	ldr	r3, [pc, #20]	; (89fc <DmSmpCbackExec+0x24>)
    89e8:	6d1b      	ldr	r3, [r3, #80]	; 0x50
    89ea:	b10b      	cbz	r3, 89f0 <DmSmpCbackExec+0x18>
    89ec:	4620      	mov	r0, r4
    89ee:	4798      	blx	r3
    89f0:	4b03      	ldr	r3, [pc, #12]	; (8a00 <DmSmpCbackExec+0x28>)
    89f2:	4620      	mov	r0, r4
    89f4:	689b      	ldr	r3, [r3, #8]
    89f6:	e8bd 4010 	ldmia.w	sp!, {r4, lr}
    89fa:	4718      	bx	r3
    89fc:	10000b44 	.word	0x10000b44
    8a00:	10000bc4 	.word	0x10000bc4

00008a04 <dmSecHciHandler>:
    8a04:	b5f7      	push	{r0, r1, r2, r4, r5, r6, r7, lr}
    8a06:	4605      	mov	r5, r0
    8a08:	8800      	ldrh	r0, [r0, #0]
    8a0a:	f7ff fb46 	bl	809a <dmConnCcbByHandle>
    8a0e:	4604      	mov	r4, r0
    8a10:	2800      	cmp	r0, #0
    8a12:	d055      	beq.n	8ac0 <dmSecHciHandler+0xbc>
    8a14:	78ab      	ldrb	r3, [r5, #2]
    8a16:	2b0f      	cmp	r3, #15
    8a18:	d12b      	bne.n	8a72 <dmSecHciHandler+0x6e>
    8a1a:	89eb      	ldrh	r3, [r5, #14]
    8a1c:	7c06      	ldrb	r6, [r0, #16]
    8a1e:	b9c3      	cbnz	r3, 8a52 <dmSecHciHandler+0x4e>
    8a20:	1da8      	adds	r0, r5, #6
    8a22:	4928      	ldr	r1, [pc, #160]	; (8ac4 <dmSecHciHandler+0xc0>)
    8a24:	2208      	movs	r2, #8
    8a26:	f001 f8f7 	bl	9c18 <memcmp>
    8a2a:	4607      	mov	r7, r0
    8a2c:	b988      	cbnz	r0, 8a52 <dmSecHciHandler+0x4e>
    8a2e:	4669      	mov	r1, sp
    8a30:	4630      	mov	r0, r6
    8a32:	f000 fc23 	bl	927c <SmpDmGetStk>
    8a36:	4601      	mov	r1, r0
    8a38:	b138      	cbz	r0, 8a4a <dmSecHciHandler+0x46>
    8a3a:	f89d 3000 	ldrb.w	r3, [sp]
    8a3e:	7623      	strb	r3, [r4, #24]
    8a40:	74a7      	strb	r7, [r4, #18]
    8a42:	8828      	ldrh	r0, [r5, #0]
    8a44:	f7f8 ff60 	bl	1908 <HciLeLtkReqReplCmd>
    8a48:	e03a      	b.n	8ac0 <dmSecHciHandler+0xbc>
    8a4a:	8828      	ldrh	r0, [r5, #0]
    8a4c:	f7f8 ff36 	bl	18bc <HciLeLtkReqNegReplCmd>
    8a50:	e036      	b.n	8ac0 <dmSecHciHandler+0xbc>
    8a52:	4630      	mov	r0, r6
    8a54:	2102      	movs	r1, #2
    8a56:	2201      	movs	r2, #1
    8a58:	f7ff fd38 	bl	84cc <DmConnSetIdle>
    8a5c:	2301      	movs	r3, #1
    8a5e:	74a3      	strb	r3, [r4, #18]
    8a60:	7c23      	ldrb	r3, [r4, #16]
    8a62:	802b      	strh	r3, [r5, #0]
    8a64:	2330      	movs	r3, #48	; 0x30
    8a66:	70ab      	strb	r3, [r5, #2]
    8a68:	4b17      	ldr	r3, [pc, #92]	; (8ac8 <dmSecHciHandler+0xc4>)
    8a6a:	4628      	mov	r0, r5
    8a6c:	689b      	ldr	r3, [r3, #8]
    8a6e:	4798      	blx	r3
    8a70:	e026      	b.n	8ac0 <dmSecHciHandler+0xbc>
    8a72:	3b0d      	subs	r3, #13
    8a74:	2b01      	cmp	r3, #1
    8a76:	d823      	bhi.n	8ac0 <dmSecHciHandler+0xbc>
    8a78:	7c00      	ldrb	r0, [r0, #16]
    8a7a:	2102      	movs	r1, #2
    8a7c:	2200      	movs	r2, #0
    8a7e:	f7ff fd25 	bl	84cc <DmConnSetIdle>
    8a82:	7c23      	ldrb	r3, [r4, #16]
    8a84:	f8ad 3000 	strh.w	r3, [sp]
    8a88:	78eb      	ldrb	r3, [r5, #3]
    8a8a:	f88d 3003 	strb.w	r3, [sp, #3]
    8a8e:	b943      	cbnz	r3, 8aa2 <dmSecHciHandler+0x9e>
    8a90:	232c      	movs	r3, #44	; 0x2c
    8a92:	f88d 3002 	strb.w	r3, [sp, #2]
    8a96:	7e23      	ldrb	r3, [r4, #24]
    8a98:	75e3      	strb	r3, [r4, #23]
    8a9a:	7ca3      	ldrb	r3, [r4, #18]
    8a9c:	f88d 3004 	strb.w	r3, [sp, #4]
    8aa0:	e002      	b.n	8aa8 <dmSecHciHandler+0xa4>
    8aa2:	232d      	movs	r3, #45	; 0x2d
    8aa4:	f88d 3002 	strb.w	r3, [sp, #2]
    8aa8:	4668      	mov	r0, sp
    8aaa:	f7ff ff95 	bl	89d8 <DmSmpCbackExec>
    8aae:	7c23      	ldrb	r3, [r4, #16]
    8ab0:	f8ad 3000 	strh.w	r3, [sp]
    8ab4:	4668      	mov	r0, sp
    8ab6:	78eb      	ldrb	r3, [r5, #3]
    8ab8:	f88d 3003 	strb.w	r3, [sp, #3]
    8abc:	f000 fc54 	bl	9368 <SmpDmEncryptInd>
    8ac0:	b003      	add	sp, #12
    8ac2:	bdf0      	pop	{r4, r5, r6, r7, pc}
    8ac4:	0000f020 	.word	0x0000f020
    8ac8:	10000bc4 	.word	0x10000bc4

00008acc <DmSecCancelReq>:
    8acc:	b538      	push	{r3, r4, r5, lr}
    8ace:	4605      	mov	r5, r0
    8ad0:	2004      	movs	r0, #4
    8ad2:	460c      	mov	r4, r1
    8ad4:	f7fb fff2 	bl	4abc <WsfMsgAlloc>
    8ad8:	b138      	cbz	r0, 8aea <DmSecCancelReq+0x1e>
    8ada:	2203      	movs	r2, #3
    8adc:	7082      	strb	r2, [r0, #2]
    8ade:	70c4      	strb	r4, [r0, #3]
    8ae0:	8005      	strh	r5, [r0, #0]
    8ae2:	e8bd 4038 	ldmia.w	sp!, {r3, r4, r5, lr}
    8ae6:	f000 bbc1 	b.w	926c <SmpDmMsgSend>
    8aea:	bd38      	pop	{r3, r4, r5, pc}

00008aec <DmSecAuthRsp>:
    8aec:	b5f8      	push	{r3, r4, r5, r6, r7, lr}
    8aee:	4607      	mov	r7, r0
    8af0:	2016      	movs	r0, #22
    8af2:	460d      	mov	r5, r1
    8af4:	4616      	mov	r6, r2
    8af6:	f7fb ffe1 	bl	4abc <WsfMsgAlloc>
    8afa:	4604      	mov	r4, r0
    8afc:	b168      	cbz	r0, 8b1a <DmSecAuthRsp+0x2e>
    8afe:	2304      	movs	r3, #4
    8b00:	7083      	strb	r3, [r0, #2]
    8b02:	8007      	strh	r7, [r0, #0]
    8b04:	7505      	strb	r5, [r0, #20]
    8b06:	4631      	mov	r1, r6
    8b08:	4418      	add	r0, r3
    8b0a:	462a      	mov	r2, r5
    8b0c:	f001 f8b8 	bl	9c80 <memcpy>
    8b10:	4620      	mov	r0, r4
    8b12:	e8bd 40f8 	ldmia.w	sp!, {r3, r4, r5, r6, r7, lr}
    8b16:	f000 bba9 	b.w	926c <SmpDmMsgSend>
    8b1a:	bdf8      	pop	{r3, r4, r5, r6, r7, pc}

00008b1c <DmSecInit>:
    8b1c:	4b03      	ldr	r3, [pc, #12]	; (8b2c <DmSecInit+0x10>)
    8b1e:	4a04      	ldr	r2, [pc, #16]	; (8b30 <DmSecInit+0x14>)
    8b20:	615a      	str	r2, [r3, #20]
    8b22:	4b04      	ldr	r3, [pc, #16]	; (8b34 <DmSecInit+0x18>)
    8b24:	4a04      	ldr	r2, [pc, #16]	; (8b38 <DmSecInit+0x1c>)
    8b26:	601a      	str	r2, [r3, #0]
    8b28:	605a      	str	r2, [r3, #4]
    8b2a:	4770      	bx	lr
    8b2c:	100002fc 	.word	0x100002fc
    8b30:	0000f370 	.word	0x0000f370
    8b34:	10000bf0 	.word	0x10000bf0
    8b38:	0000f020 	.word	0x0000f020

00008b3c <DmSecSetLocalCsrk>:
    8b3c:	b510      	push	{r4, lr}
    8b3e:	4604      	mov	r4, r0
    8b40:	f7fb fda6 	bl	4690 <WsfTaskLock>
    8b44:	4b02      	ldr	r3, [pc, #8]	; (8b50 <DmSecSetLocalCsrk+0x14>)
    8b46:	605c      	str	r4, [r3, #4]
    8b48:	e8bd 4010 	ldmia.w	sp!, {r4, lr}
    8b4c:	f7fb bda6 	b.w	469c <WsfTaskUnlock>
    8b50:	10000bf0 	.word	0x10000bf0

00008b54 <DmSecSetLocalIrk>:
    8b54:	b510      	push	{r4, lr}
    8b56:	4604      	mov	r4, r0
    8b58:	f7fb fd9a 	bl	4690 <WsfTaskLock>
    8b5c:	4b02      	ldr	r3, [pc, #8]	; (8b68 <DmSecSetLocalIrk+0x14>)
    8b5e:	601c      	str	r4, [r3, #0]
    8b60:	e8bd 4010 	ldmia.w	sp!, {r4, lr}
    8b64:	f7fb bd9a 	b.w	469c <WsfTaskUnlock>
    8b68:	10000bf0 	.word	0x10000bf0

00008b6c <DmSecGetLocalCsrk>:
    8b6c:	4b01      	ldr	r3, [pc, #4]	; (8b74 <DmSecGetLocalCsrk+0x8>)
    8b6e:	6858      	ldr	r0, [r3, #4]
    8b70:	4770      	bx	lr
    8b72:	bf00      	nop
    8b74:	10000bf0 	.word	0x10000bf0

00008b78 <DmSecGetLocalIrk>:
    8b78:	4b01      	ldr	r3, [pc, #4]	; (8b80 <DmSecGetLocalIrk+0x8>)
    8b7a:	6818      	ldr	r0, [r3, #0]
    8b7c:	4770      	bx	lr
    8b7e:	bf00      	nop
    8b80:	10000bf0 	.word	0x10000bf0

00008b84 <DmSecPairRsp>:
    8b84:	e92d 43f8 	stmdb	sp!, {r3, r4, r5, r6, r7, r8, r9, lr}
    8b88:	4681      	mov	r9, r0
    8b8a:	2008      	movs	r0, #8
    8b8c:	4688      	mov	r8, r1
    8b8e:	4617      	mov	r7, r2
    8b90:	461e      	mov	r6, r3
    8b92:	f89d 5020 	ldrb.w	r5, [sp, #32]
    8b96:	f7fb ff91 	bl	4abc <WsfMsgAlloc>
    8b9a:	b180      	cbz	r0, 8bbe <DmSecPairRsp+0x3a>
    8b9c:	2302      	movs	r3, #2
    8b9e:	f006 0607 	and.w	r6, r6, #7
    8ba2:	f005 0507 	and.w	r5, r5, #7
    8ba6:	7083      	strb	r3, [r0, #2]
    8ba8:	f880 8004 	strb.w	r8, [r0, #4]
    8bac:	7147      	strb	r7, [r0, #5]
    8bae:	7186      	strb	r6, [r0, #6]
    8bb0:	71c5      	strb	r5, [r0, #7]
    8bb2:	f8a0 9000 	strh.w	r9, [r0]
    8bb6:	e8bd 43f8 	ldmia.w	sp!, {r3, r4, r5, r6, r7, r8, r9, lr}
    8bba:	f000 bb57 	b.w	926c <SmpDmMsgSend>
    8bbe:	e8bd 83f8 	ldmia.w	sp!, {r3, r4, r5, r6, r7, r8, r9, pc}

00008bc2 <DmSecSlaveReq>:
    8bc2:	b538      	push	{r3, r4, r5, lr}
    8bc4:	4605      	mov	r5, r0
    8bc6:	2006      	movs	r0, #6
    8bc8:	460c      	mov	r4, r1
    8bca:	f7fb ff77 	bl	4abc <WsfMsgAlloc>
    8bce:	b138      	cbz	r0, 8be0 <DmSecSlaveReq+0x1e>
    8bd0:	2205      	movs	r2, #5
    8bd2:	7082      	strb	r2, [r0, #2]
    8bd4:	7104      	strb	r4, [r0, #4]
    8bd6:	8005      	strh	r5, [r0, #0]
    8bd8:	e8bd 4038 	ldmia.w	sp!, {r3, r4, r5, lr}
    8bdc:	f000 bb46 	b.w	926c <SmpDmMsgSend>
    8be0:	bd38      	pop	{r3, r4, r5, pc}

00008be2 <DmSecLtkRsp>:
    8be2:	e92d 41f0 	stmdb	sp!, {r4, r5, r6, r7, r8, lr}
    8be6:	4680      	mov	r8, r0
    8be8:	2016      	movs	r0, #22
    8bea:	460d      	mov	r5, r1
    8bec:	4617      	mov	r7, r2
    8bee:	461e      	mov	r6, r3
    8bf0:	f7fb ff64 	bl	4abc <WsfMsgAlloc>
    8bf4:	4604      	mov	r4, r0
    8bf6:	b188      	cbz	r0, 8c1c <DmSecLtkRsp+0x3a>
    8bf8:	2351      	movs	r3, #81	; 0x51
    8bfa:	7083      	strb	r3, [r0, #2]
    8bfc:	f8a0 8000 	strh.w	r8, [r0]
    8c00:	7505      	strb	r5, [r0, #20]
    8c02:	7547      	strb	r7, [r0, #21]
    8c04:	b11d      	cbz	r5, 8c0e <DmSecLtkRsp+0x2c>
    8c06:	3004      	adds	r0, #4
    8c08:	4631      	mov	r1, r6
    8c0a:	f7fb fcfd 	bl	4608 <Calc128Cpy>
    8c0e:	4b04      	ldr	r3, [pc, #16]	; (8c20 <DmSecLtkRsp+0x3e>)
    8c10:	4621      	mov	r1, r4
    8c12:	7b18      	ldrb	r0, [r3, #12]
    8c14:	e8bd 41f0 	ldmia.w	sp!, {r4, r5, r6, r7, r8, lr}
    8c18:	f7fb bf74 	b.w	4b04 <WsfMsgSend>
    8c1c:	e8bd 81f0 	ldmia.w	sp!, {r4, r5, r6, r7, r8, pc}
    8c20:	10000bc4 	.word	0x10000bc4

00008c24 <l2cDefaultDataCback>:
    8c24:	4770      	bx	lr

00008c26 <l2cDefaultDataCidCback>:
    8c26:	4770      	bx	lr

00008c28 <l2cDefaultCtrlCback>:
    8c28:	4770      	bx	lr

00008c2a <l2cHciFlowCback>:
    8c2a:	b537      	push	{r0, r1, r2, r4, r5, lr}
    8c2c:	460d      	mov	r5, r1
    8c2e:	f7ff fc01 	bl	8434 <DmConnIdByHandle>
    8c32:	b280      	uxth	r0, r0
    8c34:	f8ad 0004 	strh.w	r0, [sp, #4]
    8c38:	b178      	cbz	r0, 8c5a <l2cHciFlowCback+0x30>
    8c3a:	4c09      	ldr	r4, [pc, #36]	; (8c60 <l2cHciFlowCback+0x36>)
    8c3c:	f88d 5006 	strb.w	r5, [sp, #6]
    8c40:	68e3      	ldr	r3, [r4, #12]
    8c42:	a801      	add	r0, sp, #4
    8c44:	4798      	blx	r3
    8c46:	6923      	ldr	r3, [r4, #16]
    8c48:	f88d 5006 	strb.w	r5, [sp, #6]
    8c4c:	a801      	add	r0, sp, #4
    8c4e:	4798      	blx	r3
    8c50:	f88d 5006 	strb.w	r5, [sp, #6]
    8c54:	6963      	ldr	r3, [r4, #20]
    8c56:	a801      	add	r0, sp, #4
    8c58:	4798      	blx	r3
    8c5a:	b003      	add	sp, #12
    8c5c:	bd30      	pop	{r4, r5, pc}
    8c5e:	bf00      	nop
    8c60:	10000bf8 	.word	0x10000bf8

00008c64 <l2cHciAclCback>:
    8c64:	b570      	push	{r4, r5, r6, lr}
    8c66:	4604      	mov	r4, r0
    8c68:	7803      	ldrb	r3, [r0, #0]
    8c6a:	78a2      	ldrb	r2, [r4, #2]
    8c6c:	78e1      	ldrb	r1, [r4, #3]
    8c6e:	7840      	ldrb	r0, [r0, #1]
    8c70:	eb02 2101 	add.w	r1, r2, r1, lsl #8
    8c74:	b289      	uxth	r1, r1
    8c76:	2903      	cmp	r1, #3
    8c78:	bf83      	ittte	hi
    8c7a:	7922      	ldrbhi	r2, [r4, #4]
    8c7c:	7965      	ldrbhi	r5, [r4, #5]
    8c7e:	eb02 2205 	addhi.w	r2, r2, r5, lsl #8
    8c82:	2200      	movls	r2, #0
    8c84:	bf88      	it	hi
    8c86:	b292      	uxthhi	r2, r2
    8c88:	f102 0604 	add.w	r6, r2, #4
    8c8c:	bf94      	ite	ls
    8c8e:	1d25      	addls	r5, r4, #4
    8c90:	1da5      	addhi	r5, r4, #6
    8c92:	42b1      	cmp	r1, r6
    8c94:	d11b      	bne.n	8cce <l2cHciAclCback+0x6a>
    8c96:	eb03 2000 	add.w	r0, r3, r0, lsl #8
    8c9a:	7869      	ldrb	r1, [r5, #1]
    8c9c:	782b      	ldrb	r3, [r5, #0]
    8c9e:	eb03 2101 	add.w	r1, r3, r1, lsl #8
    8ca2:	b289      	uxth	r1, r1
    8ca4:	2905      	cmp	r1, #5
    8ca6:	f3c0 000b 	ubfx	r0, r0, #0, #12
    8caa:	4b0b      	ldr	r3, [pc, #44]	; (8cd8 <l2cHciAclCback+0x74>)
    8cac:	d005      	beq.n	8cba <l2cHciAclCback+0x56>
    8cae:	2906      	cmp	r1, #6
    8cb0:	d005      	beq.n	8cbe <l2cHciAclCback+0x5a>
    8cb2:	2904      	cmp	r1, #4
    8cb4:	d108      	bne.n	8cc8 <l2cHciAclCback+0x64>
    8cb6:	681b      	ldr	r3, [r3, #0]
    8cb8:	e002      	b.n	8cc0 <l2cHciAclCback+0x5c>
    8cba:	689b      	ldr	r3, [r3, #8]
    8cbc:	e000      	b.n	8cc0 <l2cHciAclCback+0x5c>
    8cbe:	685b      	ldr	r3, [r3, #4]
    8cc0:	4611      	mov	r1, r2
    8cc2:	4622      	mov	r2, r4
    8cc4:	4798      	blx	r3
    8cc6:	e002      	b.n	8cce <l2cHciAclCback+0x6a>
    8cc8:	6a1d      	ldr	r5, [r3, #32]
    8cca:	4623      	mov	r3, r4
    8ccc:	47a8      	blx	r5
    8cce:	4620      	mov	r0, r4
    8cd0:	e8bd 4070 	ldmia.w	sp!, {r4, r5, r6, lr}
    8cd4:	f7fb bf0a 	b.w	4aec <WsfMsgFree>
    8cd8:	10000bf8 	.word	0x10000bf8

00008cdc <l2cRxSignalingPkt>:
    8cdc:	b570      	push	{r4, r5, r6, lr}
    8cde:	4606      	mov	r6, r0
    8ce0:	460d      	mov	r5, r1
    8ce2:	4614      	mov	r4, r2
    8ce4:	f7ff fcbd 	bl	8662 <DmDevRole>
    8ce8:	b910      	cbnz	r0, 8cf0 <l2cRxSignalingPkt+0x14>
    8cea:	4b07      	ldr	r3, [pc, #28]	; (8d08 <l2cRxSignalingPkt+0x2c>)
    8cec:	699b      	ldr	r3, [r3, #24]
    8cee:	e003      	b.n	8cf8 <l2cRxSignalingPkt+0x1c>
    8cf0:	2801      	cmp	r0, #1
    8cf2:	d108      	bne.n	8d06 <l2cRxSignalingPkt+0x2a>
    8cf4:	4b04      	ldr	r3, [pc, #16]	; (8d08 <l2cRxSignalingPkt+0x2c>)
    8cf6:	69db      	ldr	r3, [r3, #28]
    8cf8:	b12b      	cbz	r3, 8d06 <l2cRxSignalingPkt+0x2a>
    8cfa:	4630      	mov	r0, r6
    8cfc:	4629      	mov	r1, r5
    8cfe:	4622      	mov	r2, r4
    8d00:	e8bd 4070 	ldmia.w	sp!, {r4, r5, r6, lr}
    8d04:	4718      	bx	r3
    8d06:	bd70      	pop	{r4, r5, r6, pc}
    8d08:	10000bf8 	.word	0x10000bf8

00008d0c <L2cInit>:
    8d0c:	4b09      	ldr	r3, [pc, #36]	; (8d34 <L2cInit+0x28>)
    8d0e:	4a0a      	ldr	r2, [pc, #40]	; (8d38 <L2cInit+0x2c>)
    8d10:	601a      	str	r2, [r3, #0]
    8d12:	605a      	str	r2, [r3, #4]
    8d14:	4a09      	ldr	r2, [pc, #36]	; (8d3c <L2cInit+0x30>)
    8d16:	609a      	str	r2, [r3, #8]
    8d18:	4a09      	ldr	r2, [pc, #36]	; (8d40 <L2cInit+0x34>)
    8d1a:	60da      	str	r2, [r3, #12]
    8d1c:	611a      	str	r2, [r3, #16]
    8d1e:	615a      	str	r2, [r3, #20]
    8d20:	4a08      	ldr	r2, [pc, #32]	; (8d44 <L2cInit+0x38>)
    8d22:	621a      	str	r2, [r3, #32]
    8d24:	4808      	ldr	r0, [pc, #32]	; (8d48 <L2cInit+0x3c>)
    8d26:	4909      	ldr	r1, [pc, #36]	; (8d4c <L2cInit+0x40>)
    8d28:	2201      	movs	r2, #1
    8d2a:	f883 2024 	strb.w	r2, [r3, #36]	; 0x24
    8d2e:	f7fb bc03 	b.w	4538 <HciAclRegister>
    8d32:	bf00      	nop
    8d34:	10000bf8 	.word	0x10000bf8
    8d38:	00008c25 	.word	0x00008c25
    8d3c:	00008cdd 	.word	0x00008cdd
    8d40:	00008c29 	.word	0x00008c29
    8d44:	00008c27 	.word	0x00008c27
    8d48:	00008c65 	.word	0x00008c65
    8d4c:	00008c2b 	.word	0x00008c2b

00008d50 <L2cRegister>:
    8d50:	4b03      	ldr	r3, [pc, #12]	; (8d60 <L2cRegister+0x10>)
    8d52:	2804      	cmp	r0, #4
    8d54:	bf07      	ittee	eq
    8d56:	6019      	streq	r1, [r3, #0]
    8d58:	60da      	streq	r2, [r3, #12]
    8d5a:	6059      	strne	r1, [r3, #4]
    8d5c:	611a      	strne	r2, [r3, #16]
    8d5e:	4770      	bx	lr
    8d60:	10000bf8 	.word	0x10000bf8

00008d64 <L2cDataReq>:
    8d64:	b510      	push	{r4, lr}
    8d66:	7019      	strb	r1, [r3, #0]
    8d68:	b2d4      	uxtb	r4, r2
    8d6a:	0a09      	lsrs	r1, r1, #8
    8d6c:	7059      	strb	r1, [r3, #1]
    8d6e:	1d21      	adds	r1, r4, #4
    8d70:	7099      	strb	r1, [r3, #2]
    8d72:	1d11      	adds	r1, r2, #4
    8d74:	1209      	asrs	r1, r1, #8
    8d76:	0a12      	lsrs	r2, r2, #8
    8d78:	7198      	strb	r0, [r3, #6]
    8d7a:	0a00      	lsrs	r0, r0, #8
    8d7c:	711c      	strb	r4, [r3, #4]
    8d7e:	71d8      	strb	r0, [r3, #7]
    8d80:	70d9      	strb	r1, [r3, #3]
    8d82:	715a      	strb	r2, [r3, #5]
    8d84:	4618      	mov	r0, r3
    8d86:	e8bd 4010 	ldmia.w	sp!, {r4, lr}
    8d8a:	f7f9 bba7 	b.w	24dc <HciSendAclData>

00008d8e <l2cSendCmdReject>:
    8d8e:	b570      	push	{r4, r5, r6, lr}
    8d90:	4605      	mov	r5, r0
    8d92:	200e      	movs	r0, #14
    8d94:	460e      	mov	r6, r1
    8d96:	4614      	mov	r4, r2
    8d98:	f7fb fe90 	bl	4abc <WsfMsgAlloc>
    8d9c:	4603      	mov	r3, r0
    8d9e:	b180      	cbz	r0, 8dc2 <l2cSendCmdReject+0x34>
    8da0:	2201      	movs	r2, #1
    8da2:	7202      	strb	r2, [r0, #8]
    8da4:	2202      	movs	r2, #2
    8da6:	7282      	strb	r2, [r0, #10]
    8da8:	7304      	strb	r4, [r0, #12]
    8daa:	2200      	movs	r2, #0
    8dac:	0a24      	lsrs	r4, r4, #8
    8dae:	72c2      	strb	r2, [r0, #11]
    8db0:	7246      	strb	r6, [r0, #9]
    8db2:	7344      	strb	r4, [r0, #13]
    8db4:	4629      	mov	r1, r5
    8db6:	2005      	movs	r0, #5
    8db8:	2206      	movs	r2, #6
    8dba:	e8bd 4070 	ldmia.w	sp!, {r4, r5, r6, lr}
    8dbe:	f7ff bfd1 	b.w	8d64 <L2cDataReq>
    8dc2:	bd70      	pop	{r4, r5, r6, pc}

00008dc4 <l2cSlaveRxSignalingPkt>:
    8dc4:	b570      	push	{r4, r5, r6, lr}
    8dc6:	4605      	mov	r5, r0
    8dc8:	7ad6      	ldrb	r6, [r2, #11]
    8dca:	7a90      	ldrb	r0, [r2, #10]
    8dcc:	7a13      	ldrb	r3, [r2, #8]
    8dce:	7a54      	ldrb	r4, [r2, #9]
    8dd0:	eb00 2006 	add.w	r0, r0, r6, lsl #8
    8dd4:	b280      	uxth	r0, r0
    8dd6:	1d06      	adds	r6, r0, #4
    8dd8:	42b1      	cmp	r1, r6
    8dda:	d115      	bne.n	8e08 <l2cSlaveRxSignalingPkt+0x44>
    8ddc:	2b13      	cmp	r3, #19
    8dde:	d107      	bne.n	8df0 <l2cSlaveRxSignalingPkt+0x2c>
    8de0:	2802      	cmp	r0, #2
    8de2:	d111      	bne.n	8e08 <l2cSlaveRxSignalingPkt+0x44>
    8de4:	7b54      	ldrb	r4, [r2, #13]
    8de6:	7b13      	ldrb	r3, [r2, #12]
    8de8:	eb03 2304 	add.w	r3, r3, r4, lsl #8
    8dec:	b29c      	uxth	r4, r3
    8dee:	e002      	b.n	8df6 <l2cSlaveRxSignalingPkt+0x32>
    8df0:	2b01      	cmp	r3, #1
    8df2:	d109      	bne.n	8e08 <l2cSlaveRxSignalingPkt+0x44>
    8df4:	461c      	mov	r4, r3
    8df6:	4809      	ldr	r0, [pc, #36]	; (8e1c <l2cSlaveRxSignalingPkt+0x58>)
    8df8:	f7fc f8e4 	bl	4fc4 <WsfTimerStop>
    8dfc:	4628      	mov	r0, r5
    8dfe:	4621      	mov	r1, r4
    8e00:	e8bd 4070 	ldmia.w	sp!, {r4, r5, r6, lr}
    8e04:	f7ff bbdb 	b.w	85be <DmL2cConnUpdateCnf>
    8e08:	f013 0201 	ands.w	r2, r3, #1
    8e0c:	d105      	bne.n	8e1a <l2cSlaveRxSignalingPkt+0x56>
    8e0e:	4628      	mov	r0, r5
    8e10:	4621      	mov	r1, r4
    8e12:	e8bd 4070 	ldmia.w	sp!, {r4, r5, r6, lr}
    8e16:	f7ff bfba 	b.w	8d8e <l2cSendCmdReject>
    8e1a:	bd70      	pop	{r4, r5, r6, pc}
    8e1c:	10000c20 	.word	0x10000c20

00008e20 <L2cSlaveInit>:
    8e20:	4b01      	ldr	r3, [pc, #4]	; (8e28 <L2cSlaveInit+0x8>)
    8e22:	4a02      	ldr	r2, [pc, #8]	; (8e2c <L2cSlaveInit+0xc>)
    8e24:	61da      	str	r2, [r3, #28]
    8e26:	4770      	bx	lr
    8e28:	10000bf8 	.word	0x10000bf8
    8e2c:	00008dc5 	.word	0x00008dc5

00008e30 <L2cDmConnUpdateReq>:
    8e30:	b570      	push	{r4, r5, r6, lr}
    8e32:	4e1e      	ldr	r6, [pc, #120]	; (8eac <L2cDmConnUpdateReq+0x7c>)
    8e34:	4605      	mov	r5, r0
    8e36:	460c      	mov	r4, r1
    8e38:	4630      	mov	r0, r6
    8e3a:	211e      	movs	r1, #30
    8e3c:	f7fc f89e 	bl	4f7c <WsfTimerStartSec>
    8e40:	2014      	movs	r0, #20
    8e42:	8175      	strh	r5, [r6, #10]
    8e44:	f7fb fe3a 	bl	4abc <WsfMsgAlloc>
    8e48:	4603      	mov	r3, r0
    8e4a:	b368      	cbz	r0, 8ea8 <L2cDmConnUpdateReq+0x78>
    8e4c:	4918      	ldr	r1, [pc, #96]	; (8eb0 <L2cDmConnUpdateReq+0x80>)
    8e4e:	2212      	movs	r2, #18
    8e50:	7202      	strb	r2, [r0, #8]
    8e52:	f891 2024 	ldrb.w	r2, [r1, #36]	; 0x24
    8e56:	7242      	strb	r2, [r0, #9]
    8e58:	f891 2024 	ldrb.w	r2, [r1, #36]	; 0x24
    8e5c:	2aff      	cmp	r2, #255	; 0xff
    8e5e:	bf1a      	itte	ne
    8e60:	3201      	addne	r2, #1
    8e62:	b2d2      	uxtbne	r2, r2
    8e64:	2201      	moveq	r2, #1
    8e66:	f881 2024 	strb.w	r2, [r1, #36]	; 0x24
    8e6a:	2208      	movs	r2, #8
    8e6c:	7282      	strb	r2, [r0, #10]
    8e6e:	2200      	movs	r2, #0
    8e70:	72c2      	strb	r2, [r0, #11]
    8e72:	8822      	ldrh	r2, [r4, #0]
    8e74:	7302      	strb	r2, [r0, #12]
    8e76:	8822      	ldrh	r2, [r4, #0]
    8e78:	0a12      	lsrs	r2, r2, #8
    8e7a:	7342      	strb	r2, [r0, #13]
    8e7c:	8862      	ldrh	r2, [r4, #2]
    8e7e:	7382      	strb	r2, [r0, #14]
    8e80:	8862      	ldrh	r2, [r4, #2]
    8e82:	0a12      	lsrs	r2, r2, #8
    8e84:	73c2      	strb	r2, [r0, #15]
    8e86:	88a2      	ldrh	r2, [r4, #4]
    8e88:	7402      	strb	r2, [r0, #16]
    8e8a:	88a2      	ldrh	r2, [r4, #4]
    8e8c:	0a12      	lsrs	r2, r2, #8
    8e8e:	7442      	strb	r2, [r0, #17]
    8e90:	88e2      	ldrh	r2, [r4, #6]
    8e92:	7482      	strb	r2, [r0, #18]
    8e94:	88e2      	ldrh	r2, [r4, #6]
    8e96:	0a12      	lsrs	r2, r2, #8
    8e98:	74c2      	strb	r2, [r0, #19]
    8e9a:	4629      	mov	r1, r5
    8e9c:	2005      	movs	r0, #5
    8e9e:	220c      	movs	r2, #12
    8ea0:	e8bd 4070 	ldmia.w	sp!, {r4, r5, r6, lr}
    8ea4:	f7ff bf5e 	b.w	8d64 <L2cDataReq>
    8ea8:	bd70      	pop	{r4, r5, r6, pc}
    8eaa:	bf00      	nop
    8eac:	10000c20 	.word	0x10000c20
    8eb0:	10000bf8 	.word	0x10000bf8

00008eb4 <L2cSlaveHandlerInit>:
    8eb4:	4b02      	ldr	r3, [pc, #8]	; (8ec0 <L2cSlaveHandlerInit+0xc>)
    8eb6:	2201      	movs	r2, #1
    8eb8:	731a      	strb	r2, [r3, #12]
    8eba:	7218      	strb	r0, [r3, #8]
    8ebc:	7418      	strb	r0, [r3, #16]
    8ebe:	4770      	bx	lr
    8ec0:	10000c20 	.word	0x10000c20

00008ec4 <L2cSlaveHandler>:
    8ec4:	460b      	mov	r3, r1
    8ec6:	b129      	cbz	r1, 8ed4 <L2cSlaveHandler+0x10>
    8ec8:	7889      	ldrb	r1, [r1, #2]
    8eca:	2901      	cmp	r1, #1
    8ecc:	d102      	bne.n	8ed4 <L2cSlaveHandler+0x10>
    8ece:	8818      	ldrh	r0, [r3, #0]
    8ed0:	f7ff bb75 	b.w	85be <DmL2cConnUpdateCnf>
    8ed4:	4770      	bx	lr
    8ed6:	bf00      	nop

00008ed8 <smpDmConnCback>:
    8ed8:	b5f7      	push	{r0, r1, r2, r4, r5, r6, r7, lr}
    8eda:	8803      	ldrh	r3, [r0, #0]
    8edc:	7882      	ldrb	r2, [r0, #2]
    8ede:	4d2a      	ldr	r5, [pc, #168]	; (8f88 <smpDmConnCback+0xb0>)
    8ee0:	b2dc      	uxtb	r4, r3
    8ee2:	2a27      	cmp	r2, #39	; 0x27
    8ee4:	4606      	mov	r6, r0
    8ee6:	f104 34ff 	add.w	r4, r4, #4294967295
    8eea:	d12c      	bne.n	8f46 <smpDmConnCback+0x6e>
    8eec:	f7ff fbb9 	bl	8662 <DmDevRole>
    8ef0:	2338      	movs	r3, #56	; 0x38
    8ef2:	b950      	cbnz	r0, 8f0a <smpDmConnCback+0x32>
    8ef4:	f8d5 20b0 	ldr.w	r2, [r5, #176]	; 0xb0
    8ef8:	f8c5 20a8 	str.w	r2, [r5, #168]	; 0xa8
    8efc:	fb03 5304 	mla	r3, r3, r4, r5
    8f00:	2201      	movs	r2, #1
    8f02:	f883 202a 	strb.w	r2, [r3, #42]	; 0x2a
    8f06:	220b      	movs	r2, #11
    8f08:	e009      	b.n	8f1e <smpDmConnCback+0x46>
    8f0a:	f8d5 20ac 	ldr.w	r2, [r5, #172]	; 0xac
    8f0e:	f8c5 20a8 	str.w	r2, [r5, #168]	; 0xa8
    8f12:	fb03 5304 	mla	r3, r3, r4, r5
    8f16:	2200      	movs	r2, #0
    8f18:	f883 202a 	strb.w	r2, [r3, #42]	; 0x2a
    8f1c:	2201      	movs	r2, #1
    8f1e:	f883 202f 	strb.w	r2, [r3, #47]	; 0x2f
    8f22:	2338      	movs	r3, #56	; 0x38
    8f24:	fb03 5404 	mla	r4, r3, r4, r5
    8f28:	88f1      	ldrh	r1, [r6, #6]
    8f2a:	8521      	strh	r1, [r4, #40]	; 0x28
    8f2c:	8833      	ldrh	r3, [r6, #0]
    8f2e:	f884 302d 	strb.w	r3, [r4, #45]	; 0x2d
    8f32:	2300      	movs	r3, #0
    8f34:	f884 302b 	strb.w	r3, [r4, #43]	; 0x2b
    8f38:	f884 302c 	strb.w	r3, [r4, #44]	; 0x2c
    8f3c:	f884 3032 	strb.w	r3, [r4, #50]	; 0x32
    8f40:	f884 3033 	strb.w	r3, [r4, #51]	; 0x33
    8f44:	e01d      	b.n	8f82 <smpDmConnCback+0xaa>
    8f46:	2138      	movs	r1, #56	; 0x38
    8f48:	fb01 5404 	mla	r4, r1, r4, r5
    8f4c:	f894 102d 	ldrb.w	r1, [r4, #45]	; 0x2d
    8f50:	b1b9      	cbz	r1, 8f82 <smpDmConnCback+0xaa>
    8f52:	2a28      	cmp	r2, #40	; 0x28
    8f54:	d115      	bne.n	8f82 <smpDmConnCback+0xaa>
    8f56:	f8ad 3004 	strh.w	r3, [sp, #4]
    8f5a:	230a      	movs	r3, #10
    8f5c:	f88d 3006 	strb.w	r3, [sp, #6]
    8f60:	7a03      	ldrb	r3, [r0, #8]
    8f62:	a901      	add	r1, sp, #4
    8f64:	4620      	mov	r0, r4
    8f66:	3320      	adds	r3, #32
    8f68:	f88d 3007 	strb.w	r3, [sp, #7]
    8f6c:	f000 fc07 	bl	977e <smpSmExecute>
    8f70:	6a60      	ldr	r0, [r4, #36]	; 0x24
    8f72:	2500      	movs	r5, #0
    8f74:	f884 502d 	strb.w	r5, [r4, #45]	; 0x2d
    8f78:	3420      	adds	r4, #32
    8f7a:	b110      	cbz	r0, 8f82 <smpDmConnCback+0xaa>
    8f7c:	f7fb fdb6 	bl	4aec <WsfMsgFree>
    8f80:	6065      	str	r5, [r4, #4]
    8f82:	b003      	add	sp, #12
    8f84:	bdf0      	pop	{r4, r5, r6, r7, pc}
    8f86:	bf00      	nop
    8f88:	10000c34 	.word	0x10000c34

00008f8c <smpCcbByHandle>:
    8f8c:	b508      	push	{r3, lr}
    8f8e:	f7ff fa51 	bl	8434 <DmConnIdByHandle>
    8f92:	b120      	cbz	r0, 8f9e <smpCcbByHandle+0x12>
    8f94:	4a02      	ldr	r2, [pc, #8]	; (8fa0 <smpCcbByHandle+0x14>)
    8f96:	1e43      	subs	r3, r0, #1
    8f98:	2038      	movs	r0, #56	; 0x38
    8f9a:	fb00 2003 	mla	r0, r0, r3, r2
    8f9e:	bd08      	pop	{r3, pc}
    8fa0:	10000c34 	.word	0x10000c34

00008fa4 <smpL2cDataCback>:
    8fa4:	b538      	push	{r3, r4, r5, lr}
    8fa6:	460d      	mov	r5, r1
    8fa8:	4614      	mov	r4, r2
    8faa:	f7ff ffef 	bl	8f8c <smpCcbByHandle>
    8fae:	b1f8      	cbz	r0, 8ff0 <smpL2cDataCback+0x4c>
    8fb0:	7a23      	ldrb	r3, [r4, #8]
    8fb2:	1e5a      	subs	r2, r3, #1
    8fb4:	2a0d      	cmp	r2, #13
    8fb6:	d81b      	bhi.n	8ff0 <smpL2cDataCback+0x4c>
    8fb8:	4a0e      	ldr	r2, [pc, #56]	; (8ff4 <smpL2cDataCback+0x50>)
    8fba:	5cd2      	ldrb	r2, [r2, r3]
    8fbc:	42aa      	cmp	r2, r5
    8fbe:	d117      	bne.n	8ff0 <smpL2cDataCback+0x4c>
    8fc0:	f890 202f 	ldrb.w	r2, [r0, #47]	; 0x2f
    8fc4:	429a      	cmp	r2, r3
    8fc6:	d002      	beq.n	8fce <smpL2cDataCback+0x2a>
    8fc8:	2b05      	cmp	r3, #5
    8fca:	d111      	bne.n	8ff0 <smpL2cDataCback+0x4c>
    8fcc:	e001      	b.n	8fd2 <smpL2cDataCback+0x2e>
    8fce:	2a05      	cmp	r2, #5
    8fd0:	d104      	bne.n	8fdc <smpL2cDataCback+0x38>
    8fd2:	2307      	movs	r3, #7
    8fd4:	70a3      	strb	r3, [r4, #2]
    8fd6:	7a63      	ldrb	r3, [r4, #9]
    8fd8:	70e3      	strb	r3, [r4, #3]
    8fda:	e001      	b.n	8fe0 <smpL2cDataCback+0x3c>
    8fdc:	2306      	movs	r3, #6
    8fde:	70a3      	strb	r3, [r4, #2]
    8fe0:	f890 302d 	ldrb.w	r3, [r0, #45]	; 0x2d
    8fe4:	8023      	strh	r3, [r4, #0]
    8fe6:	4621      	mov	r1, r4
    8fe8:	e8bd 4038 	ldmia.w	sp!, {r3, r4, r5, lr}
    8fec:	f000 bbc7 	b.w	977e <smpSmExecute>
    8ff0:	bd38      	pop	{r3, r4, r5, pc}
    8ff2:	bf00      	nop
    8ff4:	0000f37c 	.word	0x0000f37c

00008ff8 <smpCcbByConnId>:
    8ff8:	4b02      	ldr	r3, [pc, #8]	; (9004 <smpCcbByConnId+0xc>)
    8ffa:	2238      	movs	r2, #56	; 0x38
    8ffc:	3801      	subs	r0, #1
    8ffe:	fb02 3000 	mla	r0, r2, r0, r3
    9002:	4770      	bx	lr
    9004:	10000c34 	.word	0x10000c34

00009008 <smpCalcC1Part1>:
    9008:	b5f0      	push	{r4, r5, r6, r7, lr}
    900a:	f890 302a 	ldrb.w	r3, [r0, #42]	; 0x2a
    900e:	4604      	mov	r4, r0
    9010:	b087      	sub	sp, #28
    9012:	460e      	mov	r6, r1
    9014:	4615      	mov	r5, r2
    9016:	f890 002d 	ldrb.w	r0, [r0, #45]	; 0x2d
    901a:	b13b      	cbz	r3, 902c <smpCalcC1Part1+0x24>
    901c:	f7ff fa38 	bl	8490 <DmConnLocalAddrType>
    9020:	4607      	mov	r7, r0
    9022:	f894 002d 	ldrb.w	r0, [r4, #45]	; 0x2d
    9026:	f7ff fa21 	bl	846c <DmConnPeerAddrType>
    902a:	e006      	b.n	903a <smpCalcC1Part1+0x32>
    902c:	f7ff fa1e 	bl	846c <DmConnPeerAddrType>
    9030:	4607      	mov	r7, r0
    9032:	f894 002d 	ldrb.w	r0, [r4, #45]	; 0x2d
    9036:	f7ff fa2b 	bl	8490 <DmConnLocalAddrType>
    903a:	4629      	mov	r1, r5
    903c:	f811 3b02 	ldrb.w	r3, [r1], #2
    9040:	407b      	eors	r3, r7
    9042:	f88d 3008 	strb.w	r3, [sp, #8]
    9046:	786b      	ldrb	r3, [r5, #1]
    9048:	4058      	eors	r0, r3
    904a:	f88d 0009 	strb.w	r0, [sp, #9]
    904e:	2300      	movs	r3, #0
    9050:	f104 000f 	add.w	r0, r4, #15
    9054:	aa02      	add	r2, sp, #8
    9056:	18d7      	adds	r7, r2, r3
    9058:	f811 e003 	ldrb.w	lr, [r1, r3]
    905c:	f810 2f01 	ldrb.w	r2, [r0, #1]!
    9060:	3301      	adds	r3, #1
    9062:	ea8e 0202 	eor.w	r2, lr, r2
    9066:	2b07      	cmp	r3, #7
    9068:	70ba      	strb	r2, [r7, #2]
    906a:	d1f3      	bne.n	9054 <smpCalcC1Part1+0x4c>
    906c:	f105 0309 	add.w	r3, r5, #9
    9070:	f104 0016 	add.w	r0, r4, #22
    9074:	a904      	add	r1, sp, #16
    9076:	3510      	adds	r5, #16
    9078:	f813 2b01 	ldrb.w	r2, [r3], #1
    907c:	f810 7f01 	ldrb.w	r7, [r0, #1]!
    9080:	42ab      	cmp	r3, r5
    9082:	ea82 0207 	eor.w	r2, r2, r7
    9086:	f801 2f01 	strb.w	r2, [r1, #1]!
    908a:	d1f5      	bne.n	9078 <smpCalcC1Part1+0x70>
    908c:	4b07      	ldr	r3, [pc, #28]	; (90ac <smpCalcC1Part1+0xa4>)
    908e:	210b      	movs	r1, #11
    9090:	f893 20b4 	ldrb.w	r2, [r3, #180]	; 0xb4
    9094:	9100      	str	r1, [sp, #0]
    9096:	f894 302d 	ldrb.w	r3, [r4, #45]	; 0x2d
    909a:	4630      	mov	r0, r6
    909c:	a902      	add	r1, sp, #8
    909e:	f7fb fec9 	bl	4e34 <WsfSecAes>
    90a2:	f884 0031 	strb.w	r0, [r4, #49]	; 0x31
    90a6:	b007      	add	sp, #28
    90a8:	bdf0      	pop	{r4, r5, r6, r7, pc}
    90aa:	bf00      	nop
    90ac:	10000c34 	.word	0x10000c34

000090b0 <smpCalcC1Part2>:
    90b0:	b5f0      	push	{r4, r5, r6, r7, lr}
    90b2:	f890 302a 	ldrb.w	r3, [r0, #42]	; 0x2a
    90b6:	4605      	mov	r5, r0
    90b8:	b087      	sub	sp, #28
    90ba:	460f      	mov	r7, r1
    90bc:	4614      	mov	r4, r2
    90be:	f890 002d 	ldrb.w	r0, [r0, #45]	; 0x2d
    90c2:	b13b      	cbz	r3, 90d4 <smpCalcC1Part2+0x24>
    90c4:	f7ff f9ee 	bl	84a4 <DmConnLocalAddr>
    90c8:	4606      	mov	r6, r0
    90ca:	f895 002d 	ldrb.w	r0, [r5, #45]	; 0x2d
    90ce:	f7ff f9d7 	bl	8480 <DmConnPeerAddr>
    90d2:	e006      	b.n	90e2 <smpCalcC1Part2+0x32>
    90d4:	f7ff f9d4 	bl	8480 <DmConnPeerAddr>
    90d8:	4606      	mov	r6, r0
    90da:	f895 002d 	ldrb.w	r0, [r5, #45]	; 0x2d
    90de:	f7ff f9e1 	bl	84a4 <DmConnLocalAddr>
    90e2:	46a6      	mov	lr, r4
    90e4:	2300      	movs	r3, #0
    90e6:	f810 2b01 	ldrb.w	r2, [r0], #1
    90ea:	f81e cb01 	ldrb.w	ip, [lr], #1
    90ee:	a902      	add	r1, sp, #8
    90f0:	ea8c 0202 	eor.w	r2, ip, r2
    90f4:	545a      	strb	r2, [r3, r1]
    90f6:	3301      	adds	r3, #1
    90f8:	2b06      	cmp	r3, #6
    90fa:	d1f4      	bne.n	90e6 <smpCalcC1Part2+0x36>
    90fc:	1da3      	adds	r3, r4, #6
    90fe:	f10d 000d 	add.w	r0, sp, #13
    9102:	f104 0e0c 	add.w	lr, r4, #12
    9106:	f813 cb01 	ldrb.w	ip, [r3], #1
    910a:	f816 2b01 	ldrb.w	r2, [r6], #1
    910e:	4573      	cmp	r3, lr
    9110:	ea8c 0202 	eor.w	r2, ip, r2
    9114:	f800 2f01 	strb.w	r2, [r0, #1]!
    9118:	d1f5      	bne.n	9106 <smpCalcC1Part2+0x56>
    911a:	7b23      	ldrb	r3, [r4, #12]
    911c:	f88d 3014 	strb.w	r3, [sp, #20]
    9120:	7b63      	ldrb	r3, [r4, #13]
    9122:	f88d 3015 	strb.w	r3, [sp, #21]
    9126:	7ba3      	ldrb	r3, [r4, #14]
    9128:	f88d 3016 	strb.w	r3, [sp, #22]
    912c:	7be3      	ldrb	r3, [r4, #15]
    912e:	f88d 3017 	strb.w	r3, [sp, #23]
    9132:	4b07      	ldr	r3, [pc, #28]	; (9150 <smpCalcC1Part2+0xa0>)
    9134:	200b      	movs	r0, #11
    9136:	f893 20b4 	ldrb.w	r2, [r3, #180]	; 0xb4
    913a:	9000      	str	r0, [sp, #0]
    913c:	f895 302d 	ldrb.w	r3, [r5, #45]	; 0x2d
    9140:	4638      	mov	r0, r7
    9142:	f7fb fe77 	bl	4e34 <WsfSecAes>
    9146:	f885 0031 	strb.w	r0, [r5, #49]	; 0x31
    914a:	b007      	add	sp, #28
    914c:	bdf0      	pop	{r4, r5, r6, r7, pc}
    914e:	bf00      	nop
    9150:	10000c34 	.word	0x10000c34

00009154 <smpCalcS1>:
    9154:	b570      	push	{r4, r5, r6, lr}
    9156:	b086      	sub	sp, #24
    9158:	4616      	mov	r6, r2
    915a:	4604      	mov	r4, r0
    915c:	460d      	mov	r5, r1
    915e:	a802      	add	r0, sp, #8
    9160:	4619      	mov	r1, r3
    9162:	f7fb fa5f 	bl	4624 <Calc128Cpy64>
    9166:	a804      	add	r0, sp, #16
    9168:	4631      	mov	r1, r6
    916a:	f7fb fa5b 	bl	4624 <Calc128Cpy64>
    916e:	4b07      	ldr	r3, [pc, #28]	; (918c <smpCalcS1+0x38>)
    9170:	210b      	movs	r1, #11
    9172:	f893 20b4 	ldrb.w	r2, [r3, #180]	; 0xb4
    9176:	9100      	str	r1, [sp, #0]
    9178:	f894 302d 	ldrb.w	r3, [r4, #45]	; 0x2d
    917c:	4628      	mov	r0, r5
    917e:	a902      	add	r1, sp, #8
    9180:	f7fb fe58 	bl	4e34 <WsfSecAes>
    9184:	f884 0031 	strb.w	r0, [r4, #49]	; 0x31
    9188:	b006      	add	sp, #24
    918a:	bd70      	pop	{r4, r5, r6, pc}
    918c:	10000c34 	.word	0x10000c34

00009190 <smpGenerateLtk>:
    9190:	b538      	push	{r3, r4, r5, lr}
    9192:	4604      	mov	r4, r0
    9194:	1d05      	adds	r5, r0, #4
    9196:	4628      	mov	r0, r5
    9198:	f894 1020 	ldrb.w	r1, [r4, #32]
    919c:	f7fb fe28 	bl	4df0 <WsfSecRand>
    91a0:	f894 2020 	ldrb.w	r2, [r4, #32]
    91a4:	2100      	movs	r1, #0
    91a6:	18a8      	adds	r0, r5, r2
    91a8:	f1c2 0210 	rsb	r2, r2, #16
    91ac:	f000 fe62 	bl	9e74 <memset>
    91b0:	f894 2031 	ldrb.w	r2, [r4, #49]	; 0x31
    91b4:	f894 3030 	ldrb.w	r3, [r4, #48]	; 0x30
    91b8:	eb03 2302 	add.w	r3, r3, r2, lsl #8
    91bc:	4622      	mov	r2, r4
    91be:	83a3      	strh	r3, [r4, #28]
    91c0:	f852 3f32 	ldr.w	r3, [r2, #50]!
    91c4:	6163      	str	r3, [r4, #20]
    91c6:	6853      	ldr	r3, [r2, #4]
    91c8:	61a3      	str	r3, [r4, #24]
    91ca:	2301      	movs	r3, #1
    91cc:	77a3      	strb	r3, [r4, #30]
    91ce:	232f      	movs	r3, #47	; 0x2f
    91d0:	70a3      	strb	r3, [r4, #2]
    91d2:	4620      	mov	r0, r4
    91d4:	e8bd 4038 	ldmia.w	sp!, {r3, r4, r5, lr}
    91d8:	f7ff bbfe 	b.w	89d8 <DmSmpCbackExec>

000091dc <smpSendPkt>:
    91dc:	b570      	push	{r4, r5, r6, lr}
    91de:	f890 302c 	ldrb.w	r3, [r0, #44]	; 0x2c
    91e2:	4604      	mov	r4, r0
    91e4:	460d      	mov	r5, r1
    91e6:	b12b      	cbz	r3, 91f4 <smpSendPkt+0x18>
    91e8:	6a40      	ldr	r0, [r0, #36]	; 0x24
    91ea:	b108      	cbz	r0, 91f0 <smpSendPkt+0x14>
    91ec:	f7fb fc7e 	bl	4aec <WsfMsgFree>
    91f0:	6265      	str	r5, [r4, #36]	; 0x24
    91f2:	bd70      	pop	{r4, r5, r6, pc}
    91f4:	7a0b      	ldrb	r3, [r1, #8]
    91f6:	4a04      	ldr	r2, [pc, #16]	; (9208 <smpSendPkt+0x2c>)
    91f8:	8d21      	ldrh	r1, [r4, #40]	; 0x28
    91fa:	5cd2      	ldrb	r2, [r2, r3]
    91fc:	2006      	movs	r0, #6
    91fe:	462b      	mov	r3, r5
    9200:	e8bd 4070 	ldmia.w	sp!, {r4, r5, r6, lr}
    9204:	f7ff bdae 	b.w	8d64 <L2cDataReq>
    9208:	0000f37c 	.word	0x0000f37c

0000920c <smpL2cCtrlCback>:
    920c:	b5f8      	push	{r3, r4, r5, r6, r7, lr}
    920e:	7805      	ldrb	r5, [r0, #0]
    9210:	4b12      	ldr	r3, [pc, #72]	; (925c <smpL2cCtrlCback+0x50>)
    9212:	3d01      	subs	r5, #1
    9214:	2438      	movs	r4, #56	; 0x38
    9216:	fb04 3405 	mla	r4, r4, r5, r3
    921a:	4606      	mov	r6, r0
    921c:	f894 102d 	ldrb.w	r1, [r4, #45]	; 0x2d
    9220:	461f      	mov	r7, r3
    9222:	b1d1      	cbz	r1, 925a <smpL2cCtrlCback+0x4e>
    9224:	7883      	ldrb	r3, [r0, #2]
    9226:	1e5a      	subs	r2, r3, #1
    9228:	4253      	negs	r3, r2
    922a:	4153      	adcs	r3, r2
    922c:	f884 302c 	strb.w	r3, [r4, #44]	; 0x2c
    9230:	b99b      	cbnz	r3, 925a <smpL2cCtrlCback+0x4e>
    9232:	6a61      	ldr	r1, [r4, #36]	; 0x24
    9234:	b119      	cbz	r1, 923e <smpL2cCtrlCback+0x32>
    9236:	6263      	str	r3, [r4, #36]	; 0x24
    9238:	4620      	mov	r0, r4
    923a:	f7ff ffcf 	bl	91dc <smpSendPkt>
    923e:	2338      	movs	r3, #56	; 0x38
    9240:	fb03 7505 	mla	r5, r3, r5, r7
    9244:	f895 302e 	ldrb.w	r3, [r5, #46]	; 0x2e
    9248:	b13b      	cbz	r3, 925a <smpL2cCtrlCback+0x4e>
    924a:	230c      	movs	r3, #12
    924c:	70b3      	strb	r3, [r6, #2]
    924e:	4620      	mov	r0, r4
    9250:	4631      	mov	r1, r6
    9252:	e8bd 40f8 	ldmia.w	sp!, {r3, r4, r5, r6, r7, lr}
    9256:	f000 ba92 	b.w	977e <smpSmExecute>
    925a:	bdf8      	pop	{r3, r4, r5, r6, r7, pc}
    925c:	10000c34 	.word	0x10000c34

00009260 <smpStateIdle>:
    9260:	f890 002e 	ldrb.w	r0, [r0, #46]	; 0x2e
    9264:	fab0 f080 	clz	r0, r0
    9268:	0940      	lsrs	r0, r0, #5
    926a:	4770      	bx	lr

0000926c <SmpDmMsgSend>:
    926c:	4b02      	ldr	r3, [pc, #8]	; (9278 <SmpDmMsgSend+0xc>)
    926e:	4601      	mov	r1, r0
    9270:	f893 00b4 	ldrb.w	r0, [r3, #180]	; 0xb4
    9274:	f7fb bc46 	b.w	4b04 <WsfMsgSend>
    9278:	10000c34 	.word	0x10000c34

0000927c <SmpDmGetStk>:
    927c:	b510      	push	{r4, lr}
    927e:	4c11      	ldr	r4, [pc, #68]	; (92c4 <SmpDmGetStk+0x48>)
    9280:	f894 20bc 	ldrb.w	r2, [r4, #188]	; 0xbc
    9284:	3801      	subs	r0, #1
    9286:	4623      	mov	r3, r4
    9288:	b162      	cbz	r2, 92a4 <SmpDmGetStk+0x28>
    928a:	2238      	movs	r2, #56	; 0x38
    928c:	fb02 4200 	mla	r2, r2, r0, r4
    9290:	3230      	adds	r2, #48	; 0x30
    9292:	6854      	ldr	r4, [r2, #4]
    9294:	7824      	ldrb	r4, [r4, #0]
    9296:	b12c      	cbz	r4, 92a4 <SmpDmGetStk+0x28>
    9298:	2303      	movs	r3, #3
    929a:	700b      	strb	r3, [r1, #0]
    929c:	6853      	ldr	r3, [r2, #4]
    929e:	68d8      	ldr	r0, [r3, #12]
    92a0:	3010      	adds	r0, #16
    92a2:	bd10      	pop	{r4, pc}
    92a4:	2238      	movs	r2, #56	; 0x38
    92a6:	fb02 3300 	mla	r3, r2, r0, r3
    92aa:	6a18      	ldr	r0, [r3, #32]
    92ac:	b148      	cbz	r0, 92c2 <SmpDmGetStk+0x46>
    92ae:	f893 2030 	ldrb.w	r2, [r3, #48]	; 0x30
    92b2:	f012 0f04 	tst.w	r2, #4
    92b6:	bf14      	ite	ne
    92b8:	2202      	movne	r2, #2
    92ba:	2201      	moveq	r2, #1
    92bc:	700a      	strb	r2, [r1, #0]
    92be:	6a18      	ldr	r0, [r3, #32]
    92c0:	3020      	adds	r0, #32
    92c2:	bd10      	pop	{r4, pc}
    92c4:	10000c34 	.word	0x10000c34

000092c8 <SmpDmGetLtk>:
    92c8:	4a05      	ldr	r2, [pc, #20]	; (92e0 <SmpDmGetLtk+0x18>)
    92ca:	1e43      	subs	r3, r0, #1
    92cc:	f892 00bc 	ldrb.w	r0, [r2, #188]	; 0xbc
    92d0:	b128      	cbz	r0, 92de <SmpDmGetLtk+0x16>
    92d2:	2038      	movs	r0, #56	; 0x38
    92d4:	fb00 2003 	mla	r0, r0, r3, r2
    92d8:	6b43      	ldr	r3, [r0, #52]	; 0x34
    92da:	68d8      	ldr	r0, [r3, #12]
    92dc:	3010      	adds	r0, #16
    92de:	4770      	bx	lr
    92e0:	10000c34 	.word	0x10000c34

000092e4 <SmpHandlerInit>:
    92e4:	b510      	push	{r4, lr}
    92e6:	4b0d      	ldr	r3, [pc, #52]	; (931c <SmpHandlerInit+0x38>)
    92e8:	490d      	ldr	r1, [pc, #52]	; (9320 <SmpHandlerInit+0x3c>)
    92ea:	f883 00b4 	strb.w	r0, [r3, #180]	; 0xb4
    92ee:	2202      	movs	r2, #2
    92f0:	2401      	movs	r4, #1
    92f2:	f8a3 2042 	strh.w	r2, [r3, #66]	; 0x42
    92f6:	2203      	movs	r2, #3
    92f8:	7218      	strb	r0, [r3, #8]
    92fa:	815c      	strh	r4, [r3, #10]
    92fc:	f883 0040 	strb.w	r0, [r3, #64]	; 0x40
    9300:	f883 0078 	strb.w	r0, [r3, #120]	; 0x78
    9304:	f8a3 207a 	strh.w	r2, [r3, #122]	; 0x7a
    9308:	2006      	movs	r0, #6
    930a:	4a06      	ldr	r2, [pc, #24]	; (9324 <SmpHandlerInit+0x40>)
    930c:	f7ff fd20 	bl	8d50 <L2cRegister>
    9310:	4620      	mov	r0, r4
    9312:	4905      	ldr	r1, [pc, #20]	; (9328 <SmpHandlerInit+0x44>)
    9314:	e8bd 4010 	ldmia.w	sp!, {r4, lr}
    9318:	f7ff b80e 	b.w	8338 <DmConnRegister>
    931c:	10000c34 	.word	0x10000c34
    9320:	00008fa5 	.word	0x00008fa5
    9324:	0000920d 	.word	0x0000920d
    9328:	00008ed9 	.word	0x00008ed9

0000932c <SmpHandler>:
    932c:	b510      	push	{r4, lr}
    932e:	b1b9      	cbz	r1, 9360 <SmpHandler+0x34>
    9330:	780b      	ldrb	r3, [r1, #0]
    9332:	480c      	ldr	r0, [pc, #48]	; (9364 <SmpHandler+0x38>)
    9334:	3b01      	subs	r3, #1
    9336:	2238      	movs	r2, #56	; 0x38
    9338:	fb02 0203 	mla	r2, r2, r3, r0
    933c:	f892 402d 	ldrb.w	r4, [r2, #45]	; 0x2d
    9340:	b174      	cbz	r4, 9360 <SmpHandler+0x34>
    9342:	788c      	ldrb	r4, [r1, #2]
    9344:	2c0b      	cmp	r4, #11
    9346:	d104      	bne.n	9352 <SmpHandler+0x26>
    9348:	f892 4031 	ldrb.w	r4, [r2, #49]	; 0x31
    934c:	78ca      	ldrb	r2, [r1, #3]
    934e:	4294      	cmp	r4, r2
    9350:	d106      	bne.n	9360 <SmpHandler+0x34>
    9352:	2238      	movs	r2, #56	; 0x38
    9354:	fb02 0003 	mla	r0, r2, r3, r0
    9358:	e8bd 4010 	ldmia.w	sp!, {r4, lr}
    935c:	f000 ba0f 	b.w	977e <smpSmExecute>
    9360:	bd10      	pop	{r4, pc}
    9362:	bf00      	nop
    9364:	10000c34 	.word	0x10000c34

00009368 <SmpDmEncryptInd>:
    9368:	78c3      	ldrb	r3, [r0, #3]
    936a:	2b00      	cmp	r3, #0
    936c:	bf0c      	ite	eq
    936e:	2308      	moveq	r3, #8
    9370:	2309      	movne	r3, #9
    9372:	4601      	mov	r1, r0
    9374:	7083      	strb	r3, [r0, #2]
    9376:	2000      	movs	r0, #0
    9378:	f7ff bfd8 	b.w	932c <SmpHandler>

0000937c <SmprInit>:
    937c:	4b03      	ldr	r3, [pc, #12]	; (938c <SmprInit+0x10>)
    937e:	4a04      	ldr	r2, [pc, #16]	; (9390 <SmprInit+0x14>)
    9380:	f8c3 20ac 	str.w	r2, [r3, #172]	; 0xac
    9384:	4a03      	ldr	r2, [pc, #12]	; (9394 <SmprInit+0x18>)
    9386:	f8c3 20b8 	str.w	r2, [r3, #184]	; 0xb8
    938a:	4770      	bx	lr
    938c:	10000c34 	.word	0x10000c34
    9390:	0000f38c 	.word	0x0000f38c
    9394:	000097c9 	.word	0x000097c9

00009398 <smpStartRspTimer>:
    9398:	220f      	movs	r2, #15
    939a:	7302      	strb	r2, [r0, #12]
    939c:	22e1      	movs	r2, #225	; 0xe1
    939e:	7342      	strb	r2, [r0, #13]
    93a0:	211e      	movs	r1, #30
    93a2:	f7fb bdeb 	b.w	4f7c <WsfTimerStartSec>

000093a6 <smpActNone>:
    93a6:	4770      	bx	lr

000093a8 <smpCleanup>:
    93a8:	b510      	push	{r4, lr}
    93aa:	4604      	mov	r4, r0
    93ac:	6a00      	ldr	r0, [r0, #32]
    93ae:	b118      	cbz	r0, 93b8 <smpCleanup+0x10>
    93b0:	f7fb fb4a 	bl	4a48 <WsfBufFree>
    93b4:	2300      	movs	r3, #0
    93b6:	6223      	str	r3, [r4, #32]
    93b8:	4620      	mov	r0, r4
    93ba:	f7fb fe03 	bl	4fc4 <WsfTimerStop>
    93be:	f894 202a 	ldrb.w	r2, [r4, #42]	; 0x2a
    93c2:	2300      	movs	r3, #0
    93c4:	429a      	cmp	r2, r3
    93c6:	bf14      	ite	ne
    93c8:	220b      	movne	r2, #11
    93ca:	2201      	moveq	r2, #1
    93cc:	f884 302b 	strb.w	r3, [r4, #43]	; 0x2b
    93d0:	f884 202f 	strb.w	r2, [r4, #47]	; 0x2f
    93d4:	f884 3033 	strb.w	r3, [r4, #51]	; 0x33
    93d8:	bd10      	pop	{r4, pc}

000093da <smpActCleanup>:
    93da:	f7ff bfe5 	b.w	93a8 <smpCleanup>

000093de <smpSendPairingFailed>:
    93de:	b538      	push	{r3, r4, r5, lr}
    93e0:	4604      	mov	r4, r0
    93e2:	200a      	movs	r0, #10
    93e4:	460d      	mov	r5, r1
    93e6:	f7fb fb69 	bl	4abc <WsfMsgAlloc>
    93ea:	4601      	mov	r1, r0
    93ec:	b138      	cbz	r0, 93fe <smpSendPairingFailed+0x20>
    93ee:	2205      	movs	r2, #5
    93f0:	7202      	strb	r2, [r0, #8]
    93f2:	7245      	strb	r5, [r0, #9]
    93f4:	4620      	mov	r0, r4
    93f6:	e8bd 4038 	ldmia.w	sp!, {r3, r4, r5, lr}
    93fa:	f7ff beef 	b.w	91dc <smpSendPkt>
    93fe:	bd38      	pop	{r3, r4, r5, pc}

00009400 <smpActPairingFailed>:
    9400:	b538      	push	{r3, r4, r5, lr}
    9402:	4605      	mov	r5, r0
    9404:	460c      	mov	r4, r1
    9406:	f7ff ffcf 	bl	93a8 <smpCleanup>
    940a:	f895 002d 	ldrb.w	r0, [r5, #45]	; 0x2d
    940e:	2101      	movs	r1, #1
    9410:	2200      	movs	r2, #0
    9412:	f7ff f85b 	bl	84cc <DmConnSetIdle>
    9416:	232b      	movs	r3, #43	; 0x2b
    9418:	70a3      	strb	r3, [r4, #2]
    941a:	4620      	mov	r0, r4
    941c:	e8bd 4038 	ldmia.w	sp!, {r3, r4, r5, lr}
    9420:	f7ff bada 	b.w	89d8 <DmSmpCbackExec>

00009424 <smpActPairingCancel>:
    9424:	b538      	push	{r3, r4, r5, lr}
    9426:	4605      	mov	r5, r0
    9428:	460c      	mov	r4, r1
    942a:	78c9      	ldrb	r1, [r1, #3]
    942c:	f7ff ffd7 	bl	93de <smpSendPairingFailed>
    9430:	4628      	mov	r0, r5
    9432:	4621      	mov	r1, r4
    9434:	e8bd 4038 	ldmia.w	sp!, {r3, r4, r5, lr}
    9438:	f7ff bfe2 	b.w	9400 <smpActPairingFailed>

0000943c <smpActStorePin>:
    943c:	b538      	push	{r3, r4, r5, lr}
    943e:	460c      	mov	r4, r1
    9440:	4605      	mov	r5, r0
    9442:	3104      	adds	r1, #4
    9444:	6a00      	ldr	r0, [r0, #32]
    9446:	7d22      	ldrb	r2, [r4, #20]
    9448:	f000 fc1a 	bl	9c80 <memcpy>
    944c:	7d23      	ldrb	r3, [r4, #20]
    944e:	2b03      	cmp	r3, #3
    9450:	d107      	bne.n	9462 <smpActStorePin+0x26>
    9452:	6a28      	ldr	r0, [r5, #32]
    9454:	2100      	movs	r1, #0
    9456:	3003      	adds	r0, #3
    9458:	220d      	movs	r2, #13
    945a:	e8bd 4038 	ldmia.w	sp!, {r3, r4, r5, lr}
    945e:	f000 bd09 	b.w	9e74 <memset>
    9462:	bd38      	pop	{r3, r4, r5, pc}

00009464 <smpActPairCnfCalc1>:
    9464:	b510      	push	{r4, lr}
    9466:	4604      	mov	r4, r0
    9468:	f7ff ffe8 	bl	943c <smpActStorePin>
    946c:	6a20      	ldr	r0, [r4, #32]
    946e:	2110      	movs	r1, #16
    9470:	3030      	adds	r0, #48	; 0x30
    9472:	f7fb fcbd 	bl	4df0 <WsfSecRand>
    9476:	6a21      	ldr	r1, [r4, #32]
    9478:	4620      	mov	r0, r4
    947a:	f101 0230 	add.w	r2, r1, #48	; 0x30
    947e:	e8bd 4010 	ldmia.w	sp!, {r4, lr}
    9482:	f7ff bdc1 	b.w	9008 <smpCalcC1Part1>

00009486 <smpActPairCnfCalc2>:
    9486:	460b      	mov	r3, r1
    9488:	6a01      	ldr	r1, [r0, #32]
    948a:	685a      	ldr	r2, [r3, #4]
    948c:	f7ff be10 	b.w	90b0 <smpCalcC1Part2>

00009490 <smpActSendPairCnf>:
    9490:	b538      	push	{r3, r4, r5, lr}
    9492:	f890 302a 	ldrb.w	r3, [r0, #42]	; 0x2a
    9496:	2b00      	cmp	r3, #0
    9498:	bf14      	ite	ne
    949a:	2303      	movne	r3, #3
    949c:	2304      	moveq	r3, #4
    949e:	f880 302f 	strb.w	r3, [r0, #47]	; 0x2f
    94a2:	4604      	mov	r4, r0
    94a4:	460d      	mov	r5, r1
    94a6:	f7ff ff77 	bl	9398 <smpStartRspTimer>
    94aa:	2019      	movs	r0, #25
    94ac:	f7fb fb06 	bl	4abc <WsfMsgAlloc>
    94b0:	4603      	mov	r3, r0
    94b2:	b190      	cbz	r0, 94da <smpActSendPairCnf+0x4a>
    94b4:	2203      	movs	r2, #3
    94b6:	7202      	strb	r2, [r0, #8]
    94b8:	686a      	ldr	r2, [r5, #4]
    94ba:	f100 0109 	add.w	r1, r0, #9
    94be:	f102 0010 	add.w	r0, r2, #16
    94c2:	f852 5b04 	ldr.w	r5, [r2], #4
    94c6:	f841 5b04 	str.w	r5, [r1], #4
    94ca:	4282      	cmp	r2, r0
    94cc:	d1f9      	bne.n	94c2 <smpActSendPairCnf+0x32>
    94ce:	4620      	mov	r0, r4
    94d0:	4619      	mov	r1, r3
    94d2:	e8bd 4038 	ldmia.w	sp!, {r3, r4, r5, lr}
    94d6:	f7ff be81 	b.w	91dc <smpSendPkt>
    94da:	bd38      	pop	{r3, r4, r5, pc}

000094dc <smpActPairCnfVerCalc1>:
    94dc:	6a03      	ldr	r3, [r0, #32]
    94de:	f101 0209 	add.w	r2, r1, #9
    94e2:	b530      	push	{r4, r5, lr}
    94e4:	3310      	adds	r3, #16
    94e6:	4614      	mov	r4, r2
    94e8:	3119      	adds	r1, #25
    94ea:	f854 5b04 	ldr.w	r5, [r4], #4
    94ee:	f843 5b04 	str.w	r5, [r3], #4
    94f2:	428c      	cmp	r4, r1
    94f4:	d1f9      	bne.n	94ea <smpActPairCnfVerCalc1+0xe>
    94f6:	6a01      	ldr	r1, [r0, #32]
    94f8:	e8bd 4030 	ldmia.w	sp!, {r4, r5, lr}
    94fc:	f7ff bd84 	b.w	9008 <smpCalcC1Part1>

00009500 <smpActPairCnfVerCalc2>:
    9500:	460b      	mov	r3, r1
    9502:	6a01      	ldr	r1, [r0, #32]
    9504:	685a      	ldr	r2, [r3, #4]
    9506:	f7ff bdd3 	b.w	90b0 <smpCalcC1Part2>

0000950a <smpSendKey>:
    950a:	b5f8      	push	{r3, r4, r5, r6, r7, lr}
    950c:	4f4f      	ldr	r7, [pc, #316]	; (964c <smpSendKey+0x142>)
    950e:	f897 30bc 	ldrb.w	r3, [r7, #188]	; 0xbc
    9512:	4605      	mov	r5, r0
    9514:	460e      	mov	r6, r1
    9516:	b143      	cbz	r3, 952a <smpSendKey+0x20>
    9518:	6b43      	ldr	r3, [r0, #52]	; 0x34
    951a:	781b      	ldrb	r3, [r3, #0]
    951c:	b12b      	cbz	r3, 952a <smpSendKey+0x20>
    951e:	f890 3033 	ldrb.w	r3, [r0, #51]	; 0x33
    9522:	b913      	cbnz	r3, 952a <smpSendKey+0x20>
    9524:	2307      	movs	r3, #7
    9526:	f880 3033 	strb.w	r3, [r0, #51]	; 0x33
    952a:	2e00      	cmp	r6, #0
    952c:	f000 808a 	beq.w	9644 <smpSendKey+0x13a>
    9530:	2e01      	cmp	r6, #1
    9532:	f895 3033 	ldrb.w	r3, [r5, #51]	; 0x33
    9536:	d102      	bne.n	953e <smpSendKey+0x34>
    9538:	2b07      	cmp	r3, #7
    953a:	d102      	bne.n	9542 <smpSendKey+0x38>
    953c:	e080      	b.n	9640 <smpSendKey+0x136>
    953e:	2e03      	cmp	r6, #3
    9540:	d801      	bhi.n	9546 <smpSendKey+0x3c>
    9542:	2b09      	cmp	r3, #9
    9544:	d07e      	beq.n	9644 <smpSendKey+0x13a>
    9546:	2b0a      	cmp	r3, #10
    9548:	d07c      	beq.n	9644 <smpSendKey+0x13a>
    954a:	f895 302c 	ldrb.w	r3, [r5, #44]	; 0x2c
    954e:	b10b      	cbz	r3, 9554 <smpSendKey+0x4a>
    9550:	2400      	movs	r4, #0
    9552:	e078      	b.n	9646 <smpSendKey+0x13c>
    9554:	2019      	movs	r0, #25
    9556:	f7fb fab1 	bl	4abc <WsfMsgAlloc>
    955a:	4604      	mov	r4, r0
    955c:	2800      	cmp	r0, #0
    955e:	d0f7      	beq.n	9550 <smpSendKey+0x46>
    9560:	f895 3033 	ldrb.w	r3, [r5, #51]	; 0x33
    9564:	b95b      	cbnz	r3, 957e <smpSendKey+0x74>
    9566:	07f0      	lsls	r0, r6, #31
    9568:	d51d      	bpl.n	95a6 <smpSendKey+0x9c>
    956a:	6a28      	ldr	r0, [r5, #32]
    956c:	f7ff fe10 	bl	9190 <smpGenerateLtk>
    9570:	2306      	movs	r3, #6
    9572:	7223      	strb	r3, [r4, #8]
    9574:	6a29      	ldr	r1, [r5, #32]
    9576:	f104 0009 	add.w	r0, r4, #9
    957a:	3104      	adds	r1, #4
    957c:	e01f      	b.n	95be <smpSendKey+0xb4>
    957e:	2b06      	cmp	r3, #6
    9580:	d111      	bne.n	95a6 <smpSendKey+0x9c>
    9582:	2307      	movs	r3, #7
    9584:	7203      	strb	r3, [r0, #8]
    9586:	6a2b      	ldr	r3, [r5, #32]
    9588:	8b9b      	ldrh	r3, [r3, #28]
    958a:	7243      	strb	r3, [r0, #9]
    958c:	6a2b      	ldr	r3, [r5, #32]
    958e:	8b9b      	ldrh	r3, [r3, #28]
    9590:	0a1b      	lsrs	r3, r3, #8
    9592:	7283      	strb	r3, [r0, #10]
    9594:	6a2a      	ldr	r2, [r5, #32]
    9596:	f852 3f14 	ldr.w	r3, [r2, #20]!
    959a:	f8c0 300b 	str.w	r3, [r0, #11]
    959e:	6853      	ldr	r3, [r2, #4]
    95a0:	f8c0 300f 	str.w	r3, [r0, #15]
    95a4:	e031      	b.n	960a <smpSendKey+0x100>
    95a6:	07b1      	lsls	r1, r6, #30
    95a8:	d50c      	bpl.n	95c4 <smpSendKey+0xba>
    95aa:	b10b      	cbz	r3, 95b0 <smpSendKey+0xa6>
    95ac:	2b07      	cmp	r3, #7
    95ae:	d109      	bne.n	95c4 <smpSendKey+0xba>
    95b0:	2308      	movs	r3, #8
    95b2:	7223      	strb	r3, [r4, #8]
    95b4:	f7ff fae0 	bl	8b78 <DmSecGetLocalIrk>
    95b8:	4601      	mov	r1, r0
    95ba:	f104 0009 	add.w	r0, r4, #9
    95be:	f7fb f823 	bl	4608 <Calc128Cpy>
    95c2:	e022      	b.n	960a <smpSendKey+0x100>
    95c4:	2b08      	cmp	r3, #8
    95c6:	d110      	bne.n	95ea <smpSendKey+0xe0>
    95c8:	2309      	movs	r3, #9
    95ca:	7223      	strb	r3, [r4, #8]
    95cc:	f895 002d 	ldrb.w	r0, [r5, #45]	; 0x2d
    95d0:	f7fe ff5e 	bl	8490 <DmConnLocalAddrType>
    95d4:	7260      	strb	r0, [r4, #9]
    95d6:	f895 002d 	ldrb.w	r0, [r5, #45]	; 0x2d
    95da:	f7fe ff63 	bl	84a4 <DmConnLocalAddr>
    95de:	4601      	mov	r1, r0
    95e0:	f104 000a 	add.w	r0, r4, #10
    95e4:	f7fa ffde 	bl	45a4 <BdaCpy>
    95e8:	e00f      	b.n	960a <smpSendKey+0x100>
    95ea:	0772      	lsls	r2, r6, #29
    95ec:	d509      	bpl.n	9602 <smpSendKey+0xf8>
    95ee:	b11b      	cbz	r3, 95f8 <smpSendKey+0xee>
    95f0:	2b09      	cmp	r3, #9
    95f2:	d001      	beq.n	95f8 <smpSendKey+0xee>
    95f4:	2b07      	cmp	r3, #7
    95f6:	d104      	bne.n	9602 <smpSendKey+0xf8>
    95f8:	230a      	movs	r3, #10
    95fa:	7223      	strb	r3, [r4, #8]
    95fc:	f7ff fab6 	bl	8b6c <DmSecGetLocalCsrk>
    9600:	e7da      	b.n	95b8 <smpSendKey+0xae>
    9602:	4620      	mov	r0, r4
    9604:	f7fb fa72 	bl	4aec <WsfMsgFree>
    9608:	e01c      	b.n	9644 <smpSendKey+0x13a>
    960a:	7a23      	ldrb	r3, [r4, #8]
    960c:	f885 3033 	strb.w	r3, [r5, #51]	; 0x33
    9610:	4621      	mov	r1, r4
    9612:	4628      	mov	r0, r5
    9614:	f7ff fde2 	bl	91dc <smpSendPkt>
    9618:	f895 402c 	ldrb.w	r4, [r5, #44]	; 0x2c
    961c:	2c00      	cmp	r4, #0
    961e:	d197      	bne.n	9550 <smpSendKey+0x46>
    9620:	2004      	movs	r0, #4
    9622:	f7fb fa4b 	bl	4abc <WsfMsgAlloc>
    9626:	4601      	mov	r1, r0
    9628:	2800      	cmp	r0, #0
    962a:	d091      	beq.n	9550 <smpSendKey+0x46>
    962c:	230c      	movs	r3, #12
    962e:	7083      	strb	r3, [r0, #2]
    9630:	f895 302d 	ldrb.w	r3, [r5, #45]	; 0x2d
    9634:	8003      	strh	r3, [r0, #0]
    9636:	f897 00b4 	ldrb.w	r0, [r7, #180]	; 0xb4
    963a:	f7fb fa63 	bl	4b04 <WsfMsgSend>
    963e:	e002      	b.n	9646 <smpSendKey+0x13c>
    9640:	4634      	mov	r4, r6
    9642:	e000      	b.n	9646 <smpSendKey+0x13c>
    9644:	2401      	movs	r4, #1
    9646:	4620      	mov	r0, r4
    9648:	bdf8      	pop	{r3, r4, r5, r6, r7, pc}
    964a:	bf00      	nop
    964c:	10000c34 	.word	0x10000c34

00009650 <smpProcRcvKey>:
    9650:	b570      	push	{r4, r5, r6, lr}
    9652:	461e      	mov	r6, r3
    9654:	7a13      	ldrb	r3, [r2, #8]
    9656:	2b06      	cmp	r3, #6
    9658:	460c      	mov	r4, r1
    965a:	4605      	mov	r5, r0
    965c:	f102 0109 	add.w	r1, r2, #9
    9660:	d00f      	beq.n	9682 <smpProcRcvKey+0x32>
    9662:	2b07      	cmp	r3, #7
    9664:	d10b      	bne.n	967e <smpProcRcvKey+0x2e>
    9666:	7a91      	ldrb	r1, [r2, #10]
    9668:	7a53      	ldrb	r3, [r2, #9]
    966a:	eb03 2301 	add.w	r3, r3, r1, lsl #8
    966e:	83a3      	strh	r3, [r4, #28]
    9670:	f852 3f0b 	ldr.w	r3, [r2, #11]!
    9674:	6163      	str	r3, [r4, #20]
    9676:	6853      	ldr	r3, [r2, #4]
    9678:	61a3      	str	r3, [r4, #24]
    967a:	2302      	movs	r3, #2
    967c:	e017      	b.n	96ae <smpProcRcvKey+0x5e>
    967e:	2b08      	cmp	r3, #8
    9680:	d103      	bne.n	968a <smpProcRcvKey+0x3a>
    9682:	1d20      	adds	r0, r4, #4
    9684:	f7fa ffc0 	bl	4608 <Calc128Cpy>
    9688:	e014      	b.n	96b4 <smpProcRcvKey+0x64>
    968a:	2b09      	cmp	r3, #9
    968c:	d109      	bne.n	96a2 <smpProcRcvKey+0x52>
    968e:	7a53      	ldrb	r3, [r2, #9]
    9690:	76a3      	strb	r3, [r4, #26]
    9692:	f104 0014 	add.w	r0, r4, #20
    9696:	f102 010a 	add.w	r1, r2, #10
    969a:	f7fa ff83 	bl	45a4 <BdaCpy>
    969e:	2304      	movs	r3, #4
    96a0:	e005      	b.n	96ae <smpProcRcvKey+0x5e>
    96a2:	2b0a      	cmp	r3, #10
    96a4:	d106      	bne.n	96b4 <smpProcRcvKey+0x64>
    96a6:	1d20      	adds	r0, r4, #4
    96a8:	f7fa ffae 	bl	4608 <Calc128Cpy>
    96ac:	2308      	movs	r3, #8
    96ae:	77a3      	strb	r3, [r4, #30]
    96b0:	2201      	movs	r2, #1
    96b2:	e000      	b.n	96b6 <smpProcRcvKey+0x66>
    96b4:	2200      	movs	r2, #0
    96b6:	f895 302f 	ldrb.w	r3, [r5, #47]	; 0x2f
    96ba:	2b06      	cmp	r3, #6
    96bc:	d001      	beq.n	96c2 <smpProcRcvKey+0x72>
    96be:	2b08      	cmp	r3, #8
    96c0:	d101      	bne.n	96c6 <smpProcRcvKey+0x76>
    96c2:	3301      	adds	r3, #1
    96c4:	e00c      	b.n	96e0 <smpProcRcvKey+0x90>
    96c6:	07b0      	lsls	r0, r6, #30
    96c8:	d503      	bpl.n	96d2 <smpProcRcvKey+0x82>
    96ca:	2b07      	cmp	r3, #7
    96cc:	d101      	bne.n	96d2 <smpProcRcvKey+0x82>
    96ce:	2308      	movs	r3, #8
    96d0:	e006      	b.n	96e0 <smpProcRcvKey+0x90>
    96d2:	0771      	lsls	r1, r6, #29
    96d4:	d508      	bpl.n	96e8 <smpProcRcvKey+0x98>
    96d6:	2b07      	cmp	r3, #7
    96d8:	d001      	beq.n	96de <smpProcRcvKey+0x8e>
    96da:	2b09      	cmp	r3, #9
    96dc:	d104      	bne.n	96e8 <smpProcRcvKey+0x98>
    96de:	230a      	movs	r3, #10
    96e0:	f885 302f 	strb.w	r3, [r5, #47]	; 0x2f
    96e4:	2500      	movs	r5, #0
    96e6:	e000      	b.n	96ea <smpProcRcvKey+0x9a>
    96e8:	2501      	movs	r5, #1
    96ea:	b122      	cbz	r2, 96f6 <smpProcRcvKey+0xa6>
    96ec:	232f      	movs	r3, #47	; 0x2f
    96ee:	70a3      	strb	r3, [r4, #2]
    96f0:	4620      	mov	r0, r4
    96f2:	f7ff f971 	bl	89d8 <DmSmpCbackExec>
    96f6:	4628      	mov	r0, r5
    96f8:	bd70      	pop	{r4, r5, r6, pc}

000096fa <smpActMaxAttempts>:
    96fa:	b510      	push	{r4, lr}
    96fc:	4604      	mov	r4, r0
    96fe:	f7ff fe91 	bl	9424 <smpActPairingCancel>
    9702:	230f      	movs	r3, #15
    9704:	7323      	strb	r3, [r4, #12]
    9706:	4b05      	ldr	r3, [pc, #20]	; (971c <smpActMaxAttempts+0x22>)
    9708:	681b      	ldr	r3, [r3, #0]
    970a:	4620      	mov	r0, r4
    970c:	8819      	ldrh	r1, [r3, #0]
    970e:	f7fb fc45 	bl	4f9c <WsfTimerStartMs>
    9712:	2300      	movs	r3, #0
    9714:	f884 3032 	strb.w	r3, [r4, #50]	; 0x32
    9718:	bd10      	pop	{r4, pc}
    971a:	bf00      	nop
    971c:	10000294 	.word	0x10000294

00009720 <smpActAttemptRcvd>:
    9720:	2301      	movs	r3, #1
    9722:	f880 3032 	strb.w	r3, [r0, #50]	; 0x32
    9726:	4770      	bx	lr

00009728 <smpActCheckAttempts>:
    9728:	b510      	push	{r4, lr}
    972a:	f890 3032 	ldrb.w	r3, [r0, #50]	; 0x32
    972e:	4604      	mov	r4, r0
    9730:	b153      	cbz	r3, 9748 <smpActCheckAttempts+0x20>
    9732:	2300      	movs	r3, #0
    9734:	f880 3032 	strb.w	r3, [r0, #50]	; 0x32
    9738:	2109      	movs	r1, #9
    973a:	f7ff fe50 	bl	93de <smpSendPairingFailed>
    973e:	4620      	mov	r0, r4
    9740:	e8bd 4010 	ldmia.w	sp!, {r4, lr}
    9744:	f7ff be30 	b.w	93a8 <smpCleanup>
    9748:	bd10      	pop	{r4, pc}

0000974a <smpActPairingCmpl>:
    974a:	b513      	push	{r0, r1, r4, lr}
    974c:	4604      	mov	r4, r0
    974e:	f7ff fe2b 	bl	93a8 <smpCleanup>
    9752:	f894 002d 	ldrb.w	r0, [r4, #45]	; 0x2d
    9756:	2101      	movs	r1, #1
    9758:	2200      	movs	r2, #0
    975a:	f7fe feb7 	bl	84cc <DmConnSetIdle>
    975e:	f894 3030 	ldrb.w	r3, [r4, #48]	; 0x30
    9762:	f88d 3004 	strb.w	r3, [sp, #4]
    9766:	f894 302d 	ldrb.w	r3, [r4, #45]	; 0x2d
    976a:	f8ad 3000 	strh.w	r3, [sp]
    976e:	4668      	mov	r0, sp
    9770:	232a      	movs	r3, #42	; 0x2a
    9772:	f88d 3002 	strb.w	r3, [sp, #2]
    9776:	f7ff f92f 	bl	89d8 <DmSmpCbackExec>
    977a:	b002      	add	sp, #8
    977c:	bd10      	pop	{r4, pc}

0000977e <smpSmExecute>:
    977e:	4b11      	ldr	r3, [pc, #68]	; (97c4 <smpSmExecute+0x46>)
    9780:	f890 202e 	ldrb.w	r2, [r0, #46]	; 0x2e
    9784:	b570      	push	{r4, r5, r6, lr}
    9786:	f8d3 40a8 	ldr.w	r4, [r3, #168]	; 0xa8
    978a:	788e      	ldrb	r6, [r1, #2]
    978c:	6823      	ldr	r3, [r4, #0]
    978e:	f853 2022 	ldr.w	r2, [r3, r2, lsl #2]
    9792:	4613      	mov	r3, r2
    9794:	781a      	ldrb	r2, [r3, #0]
    9796:	42b2      	cmp	r2, r6
    9798:	d109      	bne.n	97ae <smpSmExecute+0x30>
    979a:	785a      	ldrb	r2, [r3, #1]
    979c:	f880 202e 	strb.w	r2, [r0, #46]	; 0x2e
    97a0:	789a      	ldrb	r2, [r3, #2]
    97a2:	6863      	ldr	r3, [r4, #4]
    97a4:	e8bd 4070 	ldmia.w	sp!, {r4, r5, r6, lr}
    97a8:	f853 3022 	ldr.w	r3, [r3, r2, lsl #2]
    97ac:	4718      	bx	r3
    97ae:	f813 2f03 	ldrb.w	r2, [r3, #3]!
    97b2:	2a00      	cmp	r2, #0
    97b4:	d1ee      	bne.n	9794 <smpSmExecute+0x16>
    97b6:	68a2      	ldr	r2, [r4, #8]
    97b8:	f102 050c 	add.w	r5, r2, #12
    97bc:	42ab      	cmp	r3, r5
    97be:	d1e8      	bne.n	9792 <smpSmExecute+0x14>
    97c0:	bd70      	pop	{r4, r5, r6, pc}
    97c2:	bf00      	nop
    97c4:	10000c34 	.word	0x10000c34

000097c8 <smpProcPairing>:
    97c8:	b513      	push	{r0, r1, r4, lr}
    97ca:	2300      	movs	r3, #0
    97cc:	7013      	strb	r3, [r2, #0]
    97ce:	700b      	strb	r3, [r1, #0]
    97d0:	7c83      	ldrb	r3, [r0, #18]
    97d2:	2b01      	cmp	r3, #1
    97d4:	d104      	bne.n	97e0 <smpProcPairing+0x18>
    97d6:	7e43      	ldrb	r3, [r0, #25]
    97d8:	2b01      	cmp	r3, #1
    97da:	d101      	bne.n	97e0 <smpProcPairing+0x18>
    97dc:	700b      	strb	r3, [r1, #0]
    97de:	e060      	b.n	98a2 <smpProcPairing+0xda>
    97e0:	7cc4      	ldrb	r4, [r0, #19]
    97e2:	0761      	lsls	r1, r4, #29
    97e4:	d402      	bmi.n	97ec <smpProcPairing+0x24>
    97e6:	7e83      	ldrb	r3, [r0, #26]
    97e8:	075b      	lsls	r3, r3, #29
    97ea:	d524      	bpl.n	9836 <smpProcPairing+0x6e>
    97ec:	7c41      	ldrb	r1, [r0, #17]
    97ee:	2903      	cmp	r1, #3
    97f0:	d021      	beq.n	9836 <smpProcPairing+0x6e>
    97f2:	7e03      	ldrb	r3, [r0, #24]
    97f4:	2b03      	cmp	r3, #3
    97f6:	d01e      	beq.n	9836 <smpProcPairing+0x6e>
    97f8:	2901      	cmp	r1, #1
    97fa:	d802      	bhi.n	9802 <smpProcPairing+0x3a>
    97fc:	2b01      	cmp	r3, #1
    97fe:	d80a      	bhi.n	9816 <smpProcPairing+0x4e>
    9800:	e019      	b.n	9836 <smpProcPairing+0x6e>
    9802:	2904      	cmp	r1, #4
    9804:	d105      	bne.n	9812 <smpProcPairing+0x4a>
    9806:	2b02      	cmp	r3, #2
    9808:	d005      	beq.n	9816 <smpProcPairing+0x4e>
    980a:	1f19      	subs	r1, r3, #4
    980c:	424b      	negs	r3, r1
    980e:	414b      	adcs	r3, r1
    9810:	e002      	b.n	9818 <smpProcPairing+0x50>
    9812:	2300      	movs	r3, #0
    9814:	e000      	b.n	9818 <smpProcPairing+0x50>
    9816:	2301      	movs	r3, #1
    9818:	7013      	strb	r3, [r2, #0]
    981a:	7e01      	ldrb	r1, [r0, #24]
    981c:	2902      	cmp	r1, #2
    981e:	d102      	bne.n	9826 <smpProcPairing+0x5e>
    9820:	7c41      	ldrb	r1, [r0, #17]
    9822:	2902      	cmp	r1, #2
    9824:	d03d      	beq.n	98a2 <smpProcPairing+0xda>
    9826:	f890 102a 	ldrb.w	r1, [r0, #42]	; 0x2a
    982a:	2900      	cmp	r1, #0
    982c:	bf08      	it	eq
    982e:	f083 0301 	eoreq.w	r3, r3, #1
    9832:	7013      	strb	r3, [r2, #0]
    9834:	e035      	b.n	98a2 <smpProcPairing+0xda>
    9836:	7e83      	ldrb	r3, [r0, #26]
    9838:	4023      	ands	r3, r4
    983a:	f023 0304 	bic.w	r3, r3, #4
    983e:	f880 3030 	strb.w	r3, [r0, #48]	; 0x30
    9842:	2301      	movs	r3, #1
    9844:	f890 202a 	ldrb.w	r2, [r0, #42]	; 0x2a
    9848:	b10a      	cbz	r2, 984e <smpProcPairing+0x86>
    984a:	7cc1      	ldrb	r1, [r0, #19]
    984c:	e000      	b.n	9850 <smpProcPairing+0x88>
    984e:	7e81      	ldrb	r1, [r0, #26]
    9850:	4a19      	ldr	r2, [pc, #100]	; (98b8 <smpProcPairing+0xf0>)
    9852:	b16b      	cbz	r3, 9870 <smpProcPairing+0xa8>
    9854:	6813      	ldr	r3, [r2, #0]
    9856:	799b      	ldrb	r3, [r3, #6]
    9858:	f003 0304 	and.w	r3, r3, #4
    985c:	4219      	tst	r1, r3
    985e:	d007      	beq.n	9870 <smpProcPairing+0xa8>
    9860:	f890 302d 	ldrb.w	r3, [r0, #45]	; 0x2d
    9864:	f8ad 3004 	strh.w	r3, [sp, #4]
    9868:	2303      	movs	r3, #3
    986a:	f88d 3007 	strb.w	r3, [sp, #7]
    986e:	e00f      	b.n	9890 <smpProcPairing+0xc8>
    9870:	6813      	ldr	r3, [r2, #0]
    9872:	7d02      	ldrb	r2, [r0, #20]
    9874:	78db      	ldrb	r3, [r3, #3]
    9876:	429a      	cmp	r2, r3
    9878:	d302      	bcc.n	9880 <smpProcPairing+0xb8>
    987a:	7ec2      	ldrb	r2, [r0, #27]
    987c:	429a      	cmp	r2, r3
    987e:	d20e      	bcs.n	989e <smpProcPairing+0xd6>
    9880:	f890 302d 	ldrb.w	r3, [r0, #45]	; 0x2d
    9884:	f8ad 3004 	strh.w	r3, [sp, #4]
    9888:	2306      	movs	r3, #6
    988a:	f88d 3007 	strb.w	r3, [sp, #7]
    988e:	2303      	movs	r3, #3
    9890:	a901      	add	r1, sp, #4
    9892:	f88d 3006 	strb.w	r3, [sp, #6]
    9896:	f7ff ff72 	bl	977e <smpSmExecute>
    989a:	2000      	movs	r0, #0
    989c:	e00a      	b.n	98b4 <smpProcPairing+0xec>
    989e:	2001      	movs	r0, #1
    98a0:	e008      	b.n	98b4 <smpProcPairing+0xec>
    98a2:	7e82      	ldrb	r2, [r0, #26]
    98a4:	7cc3      	ldrb	r3, [r0, #19]
    98a6:	4013      	ands	r3, r2
    98a8:	f043 0304 	orr.w	r3, r3, #4
    98ac:	f880 3030 	strb.w	r3, [r0, #48]	; 0x30
    98b0:	2300      	movs	r3, #0
    98b2:	e7c7      	b.n	9844 <smpProcPairing+0x7c>
    98b4:	b002      	add	sp, #8
    98b6:	bd10      	pop	{r4, pc}
    98b8:	10000294 	.word	0x10000294

000098bc <smpAuthReq>:
    98bc:	b530      	push	{r4, r5, lr}
    98be:	f890 3030 	ldrb.w	r3, [r0, #48]	; 0x30
    98c2:	f890 502d 	ldrb.w	r5, [r0, #45]	; 0x2d
    98c6:	b087      	sub	sp, #28
    98c8:	f003 0304 	and.w	r3, r3, #4
    98cc:	f003 04ff 	and.w	r4, r3, #255	; 0xff
    98d0:	f8ad 5000 	strh.w	r5, [sp]
    98d4:	b153      	cbz	r3, 98ec <smpAuthReq+0x30>
    98d6:	232e      	movs	r3, #46	; 0x2e
    98d8:	4668      	mov	r0, sp
    98da:	f88d 3002 	strb.w	r3, [sp, #2]
    98de:	f88d 1004 	strb.w	r1, [sp, #4]
    98e2:	f88d 2005 	strb.w	r2, [sp, #5]
    98e6:	f7ff f877 	bl	89d8 <DmSmpCbackExec>
    98ea:	e00e      	b.n	990a <smpAuthReq+0x4e>
    98ec:	2304      	movs	r3, #4
    98ee:	f88d 3002 	strb.w	r3, [sp, #2]
    98f2:	4669      	mov	r1, sp
    98f4:	2303      	movs	r3, #3
    98f6:	f88d 4004 	strb.w	r4, [sp, #4]
    98fa:	f88d 4005 	strb.w	r4, [sp, #5]
    98fe:	f88d 4006 	strb.w	r4, [sp, #6]
    9902:	f88d 3014 	strb.w	r3, [sp, #20]
    9906:	f7ff ff3a 	bl	977e <smpSmExecute>
    990a:	b007      	add	sp, #28
    990c:	bd30      	pop	{r4, r5, pc}
    990e:	bf00      	nop

00009910 <smprActSendSecurityReq>:
    9910:	b538      	push	{r3, r4, r5, lr}
    9912:	2301      	movs	r3, #1
    9914:	f880 302b 	strb.w	r3, [r0, #43]	; 0x2b
    9918:	4604      	mov	r4, r0
    991a:	200a      	movs	r0, #10
    991c:	460d      	mov	r5, r1
    991e:	f7fb f8cd 	bl	4abc <WsfMsgAlloc>
    9922:	4601      	mov	r1, r0
    9924:	b140      	cbz	r0, 9938 <smprActSendSecurityReq+0x28>
    9926:	220b      	movs	r2, #11
    9928:	7202      	strb	r2, [r0, #8]
    992a:	792a      	ldrb	r2, [r5, #4]
    992c:	7242      	strb	r2, [r0, #9]
    992e:	4620      	mov	r0, r4
    9930:	e8bd 4038 	ldmia.w	sp!, {r3, r4, r5, lr}
    9934:	f7ff bc52 	b.w	91dc <smpSendPkt>
    9938:	bd38      	pop	{r3, r4, r5, pc}

0000993a <smprActCheckSecurityReq>:
    993a:	f890 302b 	ldrb.w	r3, [r0, #43]	; 0x2b
    993e:	b10b      	cbz	r3, 9944 <smprActCheckSecurityReq+0xa>
    9940:	f7ff bd5e 	b.w	9400 <smpActPairingFailed>
    9944:	4770      	bx	lr

00009946 <smprActClearSecurityReq>:
    9946:	2300      	movs	r3, #0
    9948:	f880 302b 	strb.w	r3, [r0, #43]	; 0x2b
    994c:	4770      	bx	lr

0000994e <smprActProcPairReq>:
    994e:	6a03      	ldr	r3, [r0, #32]
    9950:	b537      	push	{r0, r1, r2, r4, r5, lr}
    9952:	4605      	mov	r5, r0
    9954:	460c      	mov	r4, r1
    9956:	b96b      	cbnz	r3, 9974 <smprActProcPairReq+0x26>
    9958:	2040      	movs	r0, #64	; 0x40
    995a:	f7fb f83b 	bl	49d4 <WsfBufAlloc>
    995e:	6228      	str	r0, [r5, #32]
    9960:	b940      	cbnz	r0, 9974 <smprActProcPairReq+0x26>
    9962:	2308      	movs	r3, #8
    9964:	70e3      	strb	r3, [r4, #3]
    9966:	2303      	movs	r3, #3
    9968:	70a3      	strb	r3, [r4, #2]
    996a:	4628      	mov	r0, r5
    996c:	4621      	mov	r1, r4
    996e:	f7ff ff06 	bl	977e <smpSmExecute>
    9972:	e023      	b.n	99bc <smprActProcPairReq+0x6e>
    9974:	2101      	movs	r1, #1
    9976:	f895 002d 	ldrb.w	r0, [r5, #45]	; 0x2d
    997a:	460a      	mov	r2, r1
    997c:	f7fe fda6 	bl	84cc <DmConnSetIdle>
    9980:	4623      	mov	r3, r4
    9982:	4668      	mov	r0, sp
    9984:	f853 1f08 	ldr.w	r1, [r3, #8]!
    9988:	6129      	str	r1, [r5, #16]
    998a:	8899      	ldrh	r1, [r3, #4]
    998c:	82a9      	strh	r1, [r5, #20]
    998e:	799b      	ldrb	r3, [r3, #6]
    9990:	75ab      	strb	r3, [r5, #22]
    9992:	7aa3      	ldrb	r3, [r4, #10]
    9994:	f88d 3005 	strb.w	r3, [sp, #5]
    9998:	7ae3      	ldrb	r3, [r4, #11]
    999a:	f88d 3004 	strb.w	r3, [sp, #4]
    999e:	7b63      	ldrb	r3, [r4, #13]
    99a0:	f88d 3006 	strb.w	r3, [sp, #6]
    99a4:	7ba3      	ldrb	r3, [r4, #14]
    99a6:	f88d 3007 	strb.w	r3, [sp, #7]
    99aa:	f895 302d 	ldrb.w	r3, [r5, #45]	; 0x2d
    99ae:	f8ad 3000 	strh.w	r3, [sp]
    99b2:	2331      	movs	r3, #49	; 0x31
    99b4:	f88d 3002 	strb.w	r3, [sp, #2]
    99b8:	f7ff f80e 	bl	89d8 <DmSmpCbackExec>
    99bc:	b003      	add	sp, #12
    99be:	bd30      	pop	{r4, r5, pc}

000099c0 <smprActSendPairRsp>:
    99c0:	b537      	push	{r0, r1, r2, r4, r5, lr}
    99c2:	2302      	movs	r3, #2
    99c4:	75c3      	strb	r3, [r0, #23]
    99c6:	4b1f      	ldr	r3, [pc, #124]	; (9a44 <smprActSendPairRsp+0x84>)
    99c8:	681b      	ldr	r3, [r3, #0]
    99ca:	789a      	ldrb	r2, [r3, #2]
    99cc:	7602      	strb	r2, [r0, #24]
    99ce:	790a      	ldrb	r2, [r1, #4]
    99d0:	7642      	strb	r2, [r0, #25]
    99d2:	794a      	ldrb	r2, [r1, #5]
    99d4:	7682      	strb	r2, [r0, #26]
    99d6:	791b      	ldrb	r3, [r3, #4]
    99d8:	76c3      	strb	r3, [r0, #27]
    99da:	798b      	ldrb	r3, [r1, #6]
    99dc:	7703      	strb	r3, [r0, #28]
    99de:	79cb      	ldrb	r3, [r1, #7]
    99e0:	7743      	strb	r3, [r0, #29]
    99e2:	4b19      	ldr	r3, [pc, #100]	; (9a48 <smprActSendPairRsp+0x88>)
    99e4:	460d      	mov	r5, r1
    99e6:	f8d3 30b8 	ldr.w	r3, [r3, #184]	; 0xb8
    99ea:	f10d 0106 	add.w	r1, sp, #6
    99ee:	f10d 0207 	add.w	r2, sp, #7
    99f2:	4604      	mov	r4, r0
    99f4:	4798      	blx	r3
    99f6:	b310      	cbz	r0, 9a3e <smprActSendPairRsp+0x7e>
    99f8:	7ce2      	ldrb	r2, [r4, #19]
    99fa:	796b      	ldrb	r3, [r5, #5]
    99fc:	4013      	ands	r3, r2
    99fe:	071b      	lsls	r3, r3, #28
    9a00:	bf4c      	ite	mi
    9a02:	230c      	movmi	r3, #12
    9a04:	2303      	movpl	r3, #3
    9a06:	f884 302f 	strb.w	r3, [r4, #47]	; 0x2f
    9a0a:	4620      	mov	r0, r4
    9a0c:	f7ff fcc4 	bl	9398 <smpStartRspTimer>
    9a10:	200f      	movs	r0, #15
    9a12:	f7fb f853 	bl	4abc <WsfMsgAlloc>
    9a16:	4601      	mov	r1, r0
    9a18:	b150      	cbz	r0, 9a30 <smprActSendPairRsp+0x70>
    9a1a:	4623      	mov	r3, r4
    9a1c:	f853 0f17 	ldr.w	r0, [r3, #23]!
    9a20:	6088      	str	r0, [r1, #8]
    9a22:	8898      	ldrh	r0, [r3, #4]
    9a24:	8188      	strh	r0, [r1, #12]
    9a26:	799b      	ldrb	r3, [r3, #6]
    9a28:	738b      	strb	r3, [r1, #14]
    9a2a:	4620      	mov	r0, r4
    9a2c:	f7ff fbd6 	bl	91dc <smpSendPkt>
    9a30:	4620      	mov	r0, r4
    9a32:	f89d 1006 	ldrb.w	r1, [sp, #6]
    9a36:	f89d 2007 	ldrb.w	r2, [sp, #7]
    9a3a:	f7ff ff3f 	bl	98bc <smpAuthReq>
    9a3e:	b003      	add	sp, #12
    9a40:	bd30      	pop	{r4, r5, pc}
    9a42:	bf00      	nop
    9a44:	10000294 	.word	0x10000294
    9a48:	10000c34 	.word	0x10000c34

00009a4c <smprActProcPairCnf>:
    9a4c:	b510      	push	{r4, lr}
    9a4e:	6a03      	ldr	r3, [r0, #32]
    9a50:	f101 0209 	add.w	r2, r1, #9
    9a54:	3320      	adds	r3, #32
    9a56:	3119      	adds	r1, #25
    9a58:	f852 4b04 	ldr.w	r4, [r2], #4
    9a5c:	f843 4b04 	str.w	r4, [r3], #4
    9a60:	428a      	cmp	r2, r1
    9a62:	d1f9      	bne.n	9a58 <smprActProcPairCnf+0xc>
    9a64:	2300      	movs	r3, #0
    9a66:	f880 302f 	strb.w	r3, [r0, #47]	; 0x2f
    9a6a:	bd10      	pop	{r4, pc}

00009a6c <smprActProcPairCnfCalc1>:
    9a6c:	b510      	push	{r4, lr}
    9a6e:	4604      	mov	r4, r0
    9a70:	f7ff ffec 	bl	9a4c <smprActProcPairCnf>
    9a74:	6a20      	ldr	r0, [r4, #32]
    9a76:	2110      	movs	r1, #16
    9a78:	3030      	adds	r0, #48	; 0x30
    9a7a:	f7fb f9b9 	bl	4df0 <WsfSecRand>
    9a7e:	6a21      	ldr	r1, [r4, #32]
    9a80:	4620      	mov	r0, r4
    9a82:	f101 0230 	add.w	r2, r1, #48	; 0x30
    9a86:	e8bd 4010 	ldmia.w	sp!, {r4, lr}
    9a8a:	f7ff babd 	b.w	9008 <smpCalcC1Part1>

00009a8e <smprActCnfVerify>:
    9a8e:	b570      	push	{r4, r5, r6, lr}
    9a90:	6a06      	ldr	r6, [r0, #32]
    9a92:	4605      	mov	r5, r0
    9a94:	460c      	mov	r4, r1
    9a96:	6848      	ldr	r0, [r1, #4]
    9a98:	2210      	movs	r2, #16
    9a9a:	f106 0120 	add.w	r1, r6, #32
    9a9e:	f000 f8bb 	bl	9c18 <memcmp>
    9aa2:	b1b0      	cbz	r0, 9ad2 <smprActCnfVerify+0x44>
    9aa4:	f895 3032 	ldrb.w	r3, [r5, #50]	; 0x32
    9aa8:	4a0f      	ldr	r2, [pc, #60]	; (9ae8 <smprActCnfVerify+0x5a>)
    9aaa:	3301      	adds	r3, #1
    9aac:	b2db      	uxtb	r3, r3
    9aae:	6812      	ldr	r2, [r2, #0]
    9ab0:	f885 3032 	strb.w	r3, [r5, #50]	; 0x32
    9ab4:	7952      	ldrb	r2, [r2, #5]
    9ab6:	429a      	cmp	r2, r3
    9ab8:	f04f 0304 	mov.w	r3, #4
    9abc:	70e3      	strb	r3, [r4, #3]
    9abe:	bf0c      	ite	eq
    9ac0:	230d      	moveq	r3, #13
    9ac2:	2303      	movne	r3, #3
    9ac4:	70a3      	strb	r3, [r4, #2]
    9ac6:	4628      	mov	r0, r5
    9ac8:	4621      	mov	r1, r4
    9aca:	e8bd 4070 	ldmia.w	sp!, {r4, r5, r6, lr}
    9ace:	f7ff be56 	b.w	977e <smpSmExecute>
    9ad2:	4628      	mov	r0, r5
    9ad4:	4631      	mov	r1, r6
    9ad6:	f106 0230 	add.w	r2, r6, #48	; 0x30
    9ada:	f106 0310 	add.w	r3, r6, #16
    9ade:	e8bd 4070 	ldmia.w	sp!, {r4, r5, r6, lr}
    9ae2:	f7ff bb37 	b.w	9154 <smpCalcS1>
    9ae6:	bf00      	nop
    9ae8:	10000294 	.word	0x10000294

00009aec <smprActSendPairRandom>:
    9aec:	b538      	push	{r3, r4, r5, lr}
    9aee:	7d05      	ldrb	r5, [r0, #20]
    9af0:	7ec3      	ldrb	r3, [r0, #27]
    9af2:	6849      	ldr	r1, [r1, #4]
    9af4:	429d      	cmp	r5, r3
    9af6:	4604      	mov	r4, r0
    9af8:	6a00      	ldr	r0, [r0, #32]
    9afa:	bf28      	it	cs
    9afc:	461d      	movcs	r5, r3
    9afe:	462a      	mov	r2, r5
    9b00:	3020      	adds	r0, #32
    9b02:	f000 f8bd 	bl	9c80 <memcpy>
    9b06:	6a20      	ldr	r0, [r4, #32]
    9b08:	f105 0320 	add.w	r3, r5, #32
    9b0c:	2100      	movs	r1, #0
    9b0e:	4418      	add	r0, r3
    9b10:	f1c5 0210 	rsb	r2, r5, #16
    9b14:	f000 f9ae 	bl	9e74 <memset>
    9b18:	4620      	mov	r0, r4
    9b1a:	f7ff fc3d 	bl	9398 <smpStartRspTimer>
    9b1e:	2019      	movs	r0, #25
    9b20:	f7fa ffcc 	bl	4abc <WsfMsgAlloc>
    9b24:	4601      	mov	r1, r0
    9b26:	b188      	cbz	r0, 9b4c <smprActSendPairRandom+0x60>
    9b28:	2304      	movs	r3, #4
    9b2a:	7203      	strb	r3, [r0, #8]
    9b2c:	6a23      	ldr	r3, [r4, #32]
    9b2e:	3009      	adds	r0, #9
    9b30:	f103 0230 	add.w	r2, r3, #48	; 0x30
    9b34:	3340      	adds	r3, #64	; 0x40
    9b36:	f852 5b04 	ldr.w	r5, [r2], #4
    9b3a:	f840 5b04 	str.w	r5, [r0], #4
    9b3e:	429a      	cmp	r2, r3
    9b40:	d1f9      	bne.n	9b36 <smprActSendPairRandom+0x4a>
    9b42:	4620      	mov	r0, r4
    9b44:	e8bd 4038 	ldmia.w	sp!, {r3, r4, r5, lr}
    9b48:	f7ff bb48 	b.w	91dc <smpSendPkt>
    9b4c:	bd38      	pop	{r3, r4, r5, pc}

00009b4e <smprActSendKey>:
    9b4e:	b538      	push	{r3, r4, r5, lr}
    9b50:	460d      	mov	r5, r1
    9b52:	7d83      	ldrb	r3, [r0, #22]
    9b54:	7f41      	ldrb	r1, [r0, #29]
    9b56:	4019      	ands	r1, r3
    9b58:	4604      	mov	r4, r0
    9b5a:	f7ff fcd6 	bl	950a <smpSendKey>
    9b5e:	b1f8      	cbz	r0, 9ba0 <smprActSendKey+0x52>
    9b60:	7f22      	ldrb	r2, [r4, #28]
    9b62:	7d63      	ldrb	r3, [r4, #21]
    9b64:	4013      	ands	r3, r2
    9b66:	07d9      	lsls	r1, r3, #31
    9b68:	d50a      	bpl.n	9b80 <smprActSendKey+0x32>
    9b6a:	4b0e      	ldr	r3, [pc, #56]	; (9ba4 <smprActSendKey+0x56>)
    9b6c:	f893 30bc 	ldrb.w	r3, [r3, #188]	; 0xbc
    9b70:	b123      	cbz	r3, 9b7c <smprActSendKey+0x2e>
    9b72:	6b63      	ldr	r3, [r4, #52]	; 0x34
    9b74:	781b      	ldrb	r3, [r3, #0]
    9b76:	b10b      	cbz	r3, 9b7c <smprActSendKey+0x2e>
    9b78:	2308      	movs	r3, #8
    9b7a:	e006      	b.n	9b8a <smprActSendKey+0x3c>
    9b7c:	2306      	movs	r3, #6
    9b7e:	e004      	b.n	9b8a <smprActSendKey+0x3c>
    9b80:	079a      	lsls	r2, r3, #30
    9b82:	d4f9      	bmi.n	9b78 <smprActSendKey+0x2a>
    9b84:	075b      	lsls	r3, r3, #29
    9b86:	d503      	bpl.n	9b90 <smprActSendKey+0x42>
    9b88:	230a      	movs	r3, #10
    9b8a:	f884 302f 	strb.w	r3, [r4, #47]	; 0x2f
    9b8e:	bd38      	pop	{r3, r4, r5, pc}
    9b90:	230e      	movs	r3, #14
    9b92:	70ab      	strb	r3, [r5, #2]
    9b94:	4620      	mov	r0, r4
    9b96:	4629      	mov	r1, r5
    9b98:	e8bd 4038 	ldmia.w	sp!, {r3, r4, r5, lr}
    9b9c:	f7ff bdef 	b.w	977e <smpSmExecute>
    9ba0:	bd38      	pop	{r3, r4, r5, pc}
    9ba2:	bf00      	nop
    9ba4:	10000c34 	.word	0x10000c34

00009ba8 <smprActSetupKeyDist>:
    9ba8:	b538      	push	{r3, r4, r5, lr}
    9baa:	4604      	mov	r4, r0
    9bac:	2300      	movs	r3, #0
    9bae:	f880 302f 	strb.w	r3, [r0, #47]	; 0x2f
    9bb2:	460d      	mov	r5, r1
    9bb4:	f7ff fbf0 	bl	9398 <smpStartRspTimer>
    9bb8:	6a23      	ldr	r3, [r4, #32]
    9bba:	f894 202d 	ldrb.w	r2, [r4, #45]	; 0x2d
    9bbe:	801a      	strh	r2, [r3, #0]
    9bc0:	f894 2030 	ldrb.w	r2, [r4, #48]	; 0x30
    9bc4:	6a23      	ldr	r3, [r4, #32]
    9bc6:	f012 0f04 	tst.w	r2, #4
    9bca:	bf14      	ite	ne
    9bcc:	2202      	movne	r2, #2
    9bce:	2201      	moveq	r2, #1
    9bd0:	77da      	strb	r2, [r3, #31]
    9bd2:	7d21      	ldrb	r1, [r4, #20]
    9bd4:	7ee3      	ldrb	r3, [r4, #27]
    9bd6:	6a22      	ldr	r2, [r4, #32]
    9bd8:	428b      	cmp	r3, r1
    9bda:	bf28      	it	cs
    9bdc:	460b      	movcs	r3, r1
    9bde:	f882 3020 	strb.w	r3, [r2, #32]
    9be2:	4620      	mov	r0, r4
    9be4:	4629      	mov	r1, r5
    9be6:	e8bd 4038 	ldmia.w	sp!, {r3, r4, r5, lr}
    9bea:	f7ff bfb0 	b.w	9b4e <smprActSendKey>

00009bee <smprActRcvKey>:
    9bee:	b570      	push	{r4, r5, r6, lr}
    9bf0:	7f06      	ldrb	r6, [r0, #28]
    9bf2:	7d43      	ldrb	r3, [r0, #21]
    9bf4:	460d      	mov	r5, r1
    9bf6:	462a      	mov	r2, r5
    9bf8:	6a01      	ldr	r1, [r0, #32]
    9bfa:	4033      	ands	r3, r6
    9bfc:	4604      	mov	r4, r0
    9bfe:	f7ff fd27 	bl	9650 <smpProcRcvKey>
    9c02:	b138      	cbz	r0, 9c14 <smprActRcvKey+0x26>
    9c04:	230e      	movs	r3, #14
    9c06:	70ab      	strb	r3, [r5, #2]
    9c08:	4620      	mov	r0, r4
    9c0a:	4629      	mov	r1, r5
    9c0c:	e8bd 4070 	ldmia.w	sp!, {r4, r5, r6, lr}
    9c10:	f7ff bdb5 	b.w	977e <smpSmExecute>
    9c14:	bd70      	pop	{r4, r5, r6, pc}
    9c16:	bf00      	nop

00009c18 <memcmp>:
    9c18:	2a03      	cmp	r2, #3
    9c1a:	b470      	push	{r4, r5, r6}
    9c1c:	d928      	bls.n	9c70 <memcmp+0x58>
    9c1e:	ea40 0301 	orr.w	r3, r0, r1
    9c22:	079b      	lsls	r3, r3, #30
    9c24:	d013      	beq.n	9c4e <memcmp+0x36>
    9c26:	7805      	ldrb	r5, [r0, #0]
    9c28:	780c      	ldrb	r4, [r1, #0]
    9c2a:	42a5      	cmp	r5, r4
    9c2c:	d124      	bne.n	9c78 <memcmp+0x60>
    9c2e:	3a01      	subs	r2, #1
    9c30:	2300      	movs	r3, #0
    9c32:	e005      	b.n	9c40 <memcmp+0x28>
    9c34:	f810 5f01 	ldrb.w	r5, [r0, #1]!
    9c38:	f811 4f01 	ldrb.w	r4, [r1, #1]!
    9c3c:	42a5      	cmp	r5, r4
    9c3e:	d11b      	bne.n	9c78 <memcmp+0x60>
    9c40:	4293      	cmp	r3, r2
    9c42:	f103 0301 	add.w	r3, r3, #1
    9c46:	d1f5      	bne.n	9c34 <memcmp+0x1c>
    9c48:	2000      	movs	r0, #0
    9c4a:	bc70      	pop	{r4, r5, r6}
    9c4c:	4770      	bx	lr
    9c4e:	460c      	mov	r4, r1
    9c50:	4603      	mov	r3, r0
    9c52:	6825      	ldr	r5, [r4, #0]
    9c54:	681e      	ldr	r6, [r3, #0]
    9c56:	42ae      	cmp	r6, r5
    9c58:	4621      	mov	r1, r4
    9c5a:	4618      	mov	r0, r3
    9c5c:	f104 0404 	add.w	r4, r4, #4
    9c60:	f103 0304 	add.w	r3, r3, #4
    9c64:	d104      	bne.n	9c70 <memcmp+0x58>
    9c66:	3a04      	subs	r2, #4
    9c68:	2a03      	cmp	r2, #3
    9c6a:	4618      	mov	r0, r3
    9c6c:	4621      	mov	r1, r4
    9c6e:	d8f0      	bhi.n	9c52 <memcmp+0x3a>
    9c70:	2a00      	cmp	r2, #0
    9c72:	d1d8      	bne.n	9c26 <memcmp+0xe>
    9c74:	4610      	mov	r0, r2
    9c76:	e7e8      	b.n	9c4a <memcmp+0x32>
    9c78:	1b28      	subs	r0, r5, r4
    9c7a:	bc70      	pop	{r4, r5, r6}
    9c7c:	4770      	bx	lr
    9c7e:	bf00      	nop

00009c80 <memcpy>:
    9c80:	4684      	mov	ip, r0
    9c82:	ea41 0300 	orr.w	r3, r1, r0
    9c86:	f013 0303 	ands.w	r3, r3, #3
    9c8a:	d16d      	bne.n	9d68 <memcpy+0xe8>
    9c8c:	3a40      	subs	r2, #64	; 0x40
    9c8e:	d341      	bcc.n	9d14 <memcpy+0x94>
    9c90:	f851 3b04 	ldr.w	r3, [r1], #4
    9c94:	f840 3b04 	str.w	r3, [r0], #4
    9c98:	f851 3b04 	ldr.w	r3, [r1], #4
    9c9c:	f840 3b04 	str.w	r3, [r0], #4
    9ca0:	f851 3b04 	ldr.w	r3, [r1], #4
    9ca4:	f840 3b04 	str.w	r3, [r0], #4
    9ca8:	f851 3b04 	ldr.w	r3, [r1], #4
    9cac:	f840 3b04 	str.w	r3, [r0], #4
    9cb0:	f851 3b04 	ldr.w	r3, [r1], #4
    9cb4:	f840 3b04 	str.w	r3, [r0], #4
    9cb8:	f851 3b04 	ldr.w	r3, [r1], #4
    9cbc:	f840 3b04 	str.w	r3, [r0], #4
    9cc0:	f851 3b04 	ldr.w	r3, [r1], #4
    9cc4:	f840 3b04 	str.w	r3, [r0], #4
    9cc8:	f851 3b04 	ldr.w	r3, [r1], #4
    9ccc:	f840 3b04 	str.w	r3, [r0], #4
    9cd0:	f851 3b04 	ldr.w	r3, [r1], #4
    9cd4:	f840 3b04 	str.w	r3, [r0], #4
    9cd8:	f851 3b04 	ldr.w	r3, [r1], #4
    9cdc:	f840 3b04 	str.w	r3, [r0], #4
    9ce0:	f851 3b04 	ldr.w	r3, [r1], #4
    9ce4:	f840 3b04 	str.w	r3, [r0], #4
    9ce8:	f851 3b04 	ldr.w	r3, [r1], #4
    9cec:	f840 3b04 	str.w	r3, [r0], #4
    9cf0:	f851 3b04 	ldr.w	r3, [r1], #4
    9cf4:	f840 3b04 	str.w	r3, [r0], #4
    9cf8:	f851 3b04 	ldr.w	r3, [r1], #4
    9cfc:	f840 3b04 	str.w	r3, [r0], #4
    9d00:	f851 3b04 	ldr.w	r3, [r1], #4
    9d04:	f840 3b04 	str.w	r3, [r0], #4
    9d08:	f851 3b04 	ldr.w	r3, [r1], #4
    9d0c:	f840 3b04 	str.w	r3, [r0], #4
    9d10:	3a40      	subs	r2, #64	; 0x40
    9d12:	d2bd      	bcs.n	9c90 <memcpy+0x10>
    9d14:	3230      	adds	r2, #48	; 0x30
    9d16:	d311      	bcc.n	9d3c <memcpy+0xbc>
    9d18:	f851 3b04 	ldr.w	r3, [r1], #4
    9d1c:	f840 3b04 	str.w	r3, [r0], #4
    9d20:	f851 3b04 	ldr.w	r3, [r1], #4
    9d24:	f840 3b04 	str.w	r3, [r0], #4
    9d28:	f851 3b04 	ldr.w	r3, [r1], #4
    9d2c:	f840 3b04 	str.w	r3, [r0], #4
    9d30:	f851 3b04 	ldr.w	r3, [r1], #4
    9d34:	f840 3b04 	str.w	r3, [r0], #4
    9d38:	3a10      	subs	r2, #16
    9d3a:	d2ed      	bcs.n	9d18 <memcpy+0x98>
    9d3c:	320c      	adds	r2, #12
    9d3e:	d305      	bcc.n	9d4c <memcpy+0xcc>
    9d40:	f851 3b04 	ldr.w	r3, [r1], #4
    9d44:	f840 3b04 	str.w	r3, [r0], #4
    9d48:	3a04      	subs	r2, #4
    9d4a:	d2f9      	bcs.n	9d40 <memcpy+0xc0>
    9d4c:	3204      	adds	r2, #4
    9d4e:	d008      	beq.n	9d62 <memcpy+0xe2>
    9d50:	07d2      	lsls	r2, r2, #31
    9d52:	bf1c      	itt	ne
    9d54:	f811 3b01 	ldrbne.w	r3, [r1], #1
    9d58:	f800 3b01 	strbne.w	r3, [r0], #1
    9d5c:	d301      	bcc.n	9d62 <memcpy+0xe2>
    9d5e:	880b      	ldrh	r3, [r1, #0]
    9d60:	8003      	strh	r3, [r0, #0]
    9d62:	4660      	mov	r0, ip
    9d64:	4770      	bx	lr
    9d66:	bf00      	nop
    9d68:	2a08      	cmp	r2, #8
    9d6a:	d313      	bcc.n	9d94 <memcpy+0x114>
    9d6c:	078b      	lsls	r3, r1, #30
    9d6e:	d08d      	beq.n	9c8c <memcpy+0xc>
    9d70:	f010 0303 	ands.w	r3, r0, #3
    9d74:	d08a      	beq.n	9c8c <memcpy+0xc>
    9d76:	f1c3 0304 	rsb	r3, r3, #4
    9d7a:	1ad2      	subs	r2, r2, r3
    9d7c:	07db      	lsls	r3, r3, #31
    9d7e:	bf1c      	itt	ne
    9d80:	f811 3b01 	ldrbne.w	r3, [r1], #1
    9d84:	f800 3b01 	strbne.w	r3, [r0], #1
    9d88:	d380      	bcc.n	9c8c <memcpy+0xc>
    9d8a:	f831 3b02 	ldrh.w	r3, [r1], #2
    9d8e:	f820 3b02 	strh.w	r3, [r0], #2
    9d92:	e77b      	b.n	9c8c <memcpy+0xc>
    9d94:	3a04      	subs	r2, #4
    9d96:	d3d9      	bcc.n	9d4c <memcpy+0xcc>
    9d98:	3a01      	subs	r2, #1
    9d9a:	f811 3b01 	ldrb.w	r3, [r1], #1
    9d9e:	f800 3b01 	strb.w	r3, [r0], #1
    9da2:	d2f9      	bcs.n	9d98 <memcpy+0x118>
    9da4:	780b      	ldrb	r3, [r1, #0]
    9da6:	7003      	strb	r3, [r0, #0]
    9da8:	784b      	ldrb	r3, [r1, #1]
    9daa:	7043      	strb	r3, [r0, #1]
    9dac:	788b      	ldrb	r3, [r1, #2]
    9dae:	7083      	strb	r3, [r0, #2]
    9db0:	4660      	mov	r0, ip
    9db2:	4770      	bx	lr

00009db4 <memmove>:
    9db4:	4288      	cmp	r0, r1
    9db6:	b4f0      	push	{r4, r5, r6, r7}
    9db8:	d910      	bls.n	9ddc <memmove+0x28>
    9dba:	188c      	adds	r4, r1, r2
    9dbc:	42a0      	cmp	r0, r4
    9dbe:	d20d      	bcs.n	9ddc <memmove+0x28>
    9dc0:	1885      	adds	r5, r0, r2
    9dc2:	1e53      	subs	r3, r2, #1
    9dc4:	b142      	cbz	r2, 9dd8 <memmove+0x24>
    9dc6:	4621      	mov	r1, r4
    9dc8:	462a      	mov	r2, r5
    9dca:	f811 4d01 	ldrb.w	r4, [r1, #-1]!
    9dce:	f802 4d01 	strb.w	r4, [r2, #-1]!
    9dd2:	3b01      	subs	r3, #1
    9dd4:	1c5c      	adds	r4, r3, #1
    9dd6:	d1f8      	bne.n	9dca <memmove+0x16>
    9dd8:	bcf0      	pop	{r4, r5, r6, r7}
    9dda:	4770      	bx	lr
    9ddc:	2a0f      	cmp	r2, #15
    9dde:	d93f      	bls.n	9e60 <memmove+0xac>
    9de0:	ea40 0301 	orr.w	r3, r0, r1
    9de4:	079b      	lsls	r3, r3, #30
    9de6:	d13f      	bne.n	9e68 <memmove+0xb4>
    9de8:	f1a2 0710 	sub.w	r7, r2, #16
    9dec:	093f      	lsrs	r7, r7, #4
    9dee:	eb00 1607 	add.w	r6, r0, r7, lsl #4
    9df2:	3610      	adds	r6, #16
    9df4:	460c      	mov	r4, r1
    9df6:	4603      	mov	r3, r0
    9df8:	6825      	ldr	r5, [r4, #0]
    9dfa:	601d      	str	r5, [r3, #0]
    9dfc:	6865      	ldr	r5, [r4, #4]
    9dfe:	605d      	str	r5, [r3, #4]
    9e00:	68a5      	ldr	r5, [r4, #8]
    9e02:	609d      	str	r5, [r3, #8]
    9e04:	68e5      	ldr	r5, [r4, #12]
    9e06:	60dd      	str	r5, [r3, #12]
    9e08:	3310      	adds	r3, #16
    9e0a:	42b3      	cmp	r3, r6
    9e0c:	f104 0410 	add.w	r4, r4, #16
    9e10:	d1f2      	bne.n	9df8 <memmove+0x44>
    9e12:	1c7b      	adds	r3, r7, #1
    9e14:	f002 0c0f 	and.w	ip, r2, #15
    9e18:	011b      	lsls	r3, r3, #4
    9e1a:	f1bc 0f03 	cmp.w	ip, #3
    9e1e:	4419      	add	r1, r3
    9e20:	4403      	add	r3, r0
    9e22:	d923      	bls.n	9e6c <memmove+0xb8>
    9e24:	460e      	mov	r6, r1
    9e26:	461d      	mov	r5, r3
    9e28:	4664      	mov	r4, ip
    9e2a:	3c04      	subs	r4, #4
    9e2c:	f856 7b04 	ldr.w	r7, [r6], #4
    9e30:	f845 7b04 	str.w	r7, [r5], #4
    9e34:	2c03      	cmp	r4, #3
    9e36:	d8f8      	bhi.n	9e2a <memmove+0x76>
    9e38:	f1ac 0404 	sub.w	r4, ip, #4
    9e3c:	f024 0403 	bic.w	r4, r4, #3
    9e40:	3404      	adds	r4, #4
    9e42:	f002 0203 	and.w	r2, r2, #3
    9e46:	4423      	add	r3, r4
    9e48:	4421      	add	r1, r4
    9e4a:	2a00      	cmp	r2, #0
    9e4c:	d0c4      	beq.n	9dd8 <memmove+0x24>
    9e4e:	441a      	add	r2, r3
    9e50:	f811 4b01 	ldrb.w	r4, [r1], #1
    9e54:	f803 4b01 	strb.w	r4, [r3], #1
    9e58:	4293      	cmp	r3, r2
    9e5a:	d1f9      	bne.n	9e50 <memmove+0x9c>
    9e5c:	bcf0      	pop	{r4, r5, r6, r7}
    9e5e:	4770      	bx	lr
    9e60:	4603      	mov	r3, r0
    9e62:	2a00      	cmp	r2, #0
    9e64:	d1f3      	bne.n	9e4e <memmove+0x9a>
    9e66:	e7b7      	b.n	9dd8 <memmove+0x24>
    9e68:	4603      	mov	r3, r0
    9e6a:	e7f0      	b.n	9e4e <memmove+0x9a>
    9e6c:	4662      	mov	r2, ip
    9e6e:	2a00      	cmp	r2, #0
    9e70:	d1ed      	bne.n	9e4e <memmove+0x9a>
    9e72:	e7b1      	b.n	9dd8 <memmove+0x24>

00009e74 <memset>:
    9e74:	b4f0      	push	{r4, r5, r6, r7}
    9e76:	0784      	lsls	r4, r0, #30
    9e78:	d043      	beq.n	9f02 <memset+0x8e>
    9e7a:	1e54      	subs	r4, r2, #1
    9e7c:	2a00      	cmp	r2, #0
    9e7e:	d03e      	beq.n	9efe <memset+0x8a>
    9e80:	b2cd      	uxtb	r5, r1
    9e82:	4603      	mov	r3, r0
    9e84:	e003      	b.n	9e8e <memset+0x1a>
    9e86:	1e62      	subs	r2, r4, #1
    9e88:	2c00      	cmp	r4, #0
    9e8a:	d038      	beq.n	9efe <memset+0x8a>
    9e8c:	4614      	mov	r4, r2
    9e8e:	f803 5b01 	strb.w	r5, [r3], #1
    9e92:	079a      	lsls	r2, r3, #30
    9e94:	d1f7      	bne.n	9e86 <memset+0x12>
    9e96:	2c03      	cmp	r4, #3
    9e98:	d92a      	bls.n	9ef0 <memset+0x7c>
    9e9a:	b2cd      	uxtb	r5, r1
    9e9c:	ea45 2505 	orr.w	r5, r5, r5, lsl #8
    9ea0:	2c0f      	cmp	r4, #15
    9ea2:	ea45 4505 	orr.w	r5, r5, r5, lsl #16
    9ea6:	d915      	bls.n	9ed4 <memset+0x60>
    9ea8:	f1a4 0710 	sub.w	r7, r4, #16
    9eac:	093f      	lsrs	r7, r7, #4
    9eae:	f103 0610 	add.w	r6, r3, #16
    9eb2:	eb06 1607 	add.w	r6, r6, r7, lsl #4
    9eb6:	461a      	mov	r2, r3
    9eb8:	6015      	str	r5, [r2, #0]
    9eba:	6055      	str	r5, [r2, #4]
    9ebc:	6095      	str	r5, [r2, #8]
    9ebe:	60d5      	str	r5, [r2, #12]
    9ec0:	3210      	adds	r2, #16
    9ec2:	42b2      	cmp	r2, r6
    9ec4:	d1f8      	bne.n	9eb8 <memset+0x44>
    9ec6:	f004 040f 	and.w	r4, r4, #15
    9eca:	3701      	adds	r7, #1
    9ecc:	2c03      	cmp	r4, #3
    9ece:	eb03 1307 	add.w	r3, r3, r7, lsl #4
    9ed2:	d90d      	bls.n	9ef0 <memset+0x7c>
    9ed4:	461e      	mov	r6, r3
    9ed6:	4622      	mov	r2, r4
    9ed8:	3a04      	subs	r2, #4
    9eda:	2a03      	cmp	r2, #3
    9edc:	f846 5b04 	str.w	r5, [r6], #4
    9ee0:	d8fa      	bhi.n	9ed8 <memset+0x64>
    9ee2:	1f22      	subs	r2, r4, #4
    9ee4:	f022 0203 	bic.w	r2, r2, #3
    9ee8:	3204      	adds	r2, #4
    9eea:	4413      	add	r3, r2
    9eec:	f004 0403 	and.w	r4, r4, #3
    9ef0:	b12c      	cbz	r4, 9efe <memset+0x8a>
    9ef2:	b2c9      	uxtb	r1, r1
    9ef4:	441c      	add	r4, r3
    9ef6:	f803 1b01 	strb.w	r1, [r3], #1
    9efa:	42a3      	cmp	r3, r4
    9efc:	d1fb      	bne.n	9ef6 <memset+0x82>
    9efe:	bcf0      	pop	{r4, r5, r6, r7}
    9f00:	4770      	bx	lr
    9f02:	4614      	mov	r4, r2
    9f04:	4603      	mov	r3, r0
    9f06:	e7c6      	b.n	9e96 <memset+0x22>

00009f08 <fitAdvCfg>:
    9f08:	ea60 0000 0000 0320 0000 0000               `..... .....

00009f14 <fitSlaveCfg>:
    9f14:	0001 0000                                   ....

00009f18 <fitSecCfg>:
    9f18:	0001 0001 0000 0000                         ........

00009f20 <fitUpdateCfg>:
    9f20:	1770 0000 0280 0320 0000 0258 000a 0000     p..... ...X.....

00009f30 <fitHrpsCfg>:
    9f30:	07d0 0000                                   ....

00009f34 <fitBasCfg>:
    9f34:	001e 0000 0001 0064                         ......d.

00009f3c <fitAdvDataDisc>:
    9f3c:	0102 0206 000a 0307 180d 180a 180f 0000     ................

00009f4c <fitScanDataDisc>:
    9f4c:	090e 6977 6563 746e 6972 2063 7061 0070     ..wicentric app.

00009f5c <fitCccSet>:
    9f5c:	0013 0002 0000 0023 0001 0000 0063 0001     ......#.....c...
    9f6c:	0000 0000                                   ....

00009f70 <g_pui8Da14581HciImage>:
    9f70:	9800 2000 04d1 2000 04d9 2000 04f1 2000     ... ... ... ... 
	...
    9f9c:	0509 2000 0000 0000 0000 0000 0521 2000     ... ........!.. 
    9fac:	0523 2000 27fd 2000 28f7 2000 2f3d 0003     #.. .'. .(. =/..
    9fbc:	28e5 2000 2865 2000 2fbd 0003 290f 2000     .(. e(. ./...). 
    9fcc:	291d 2000 1b4b 0002 1e03 2000 295d 2000     .). K...... ]). 
    9fdc:	2fdd 0003 7ea7 0002 1b4b 0002 1b4b 0002     ./...~..K...K...
    9fec:	20d9 2000 1b4b 0002 1b4b 0002 1b4b 0002     . . K...K...K...
    9ffc:	1dbd 2000 1dc1 2000 1dc5 2000 1dc9 2000     ... ... ... ... 
    a00c:	1dcd 2000 ffff ffff ffff ffff ffff ffff     ... ............
    a01c:	ffff ffff ffff ffff ffff ffff ffff ffff     ................
    a02c:	ffff ffff ffff ffff ffff ffff ffff ffff     ................
    a03c:	ffff ffff ffff ffff ffff ffff ffff ffff     ................
    a04c:	ffff ffff ffff ffff ffff ffff ffff ffff     ................
    a05c:	ffff ffff ffff ffff ffff ffff ffff ffff     ................
    a06c:	ffff ffff ffff ffff ffff ffff ffff ffff     ................
    a07c:	ffff ffff ffff ffff ffff ffff ffff ffff     ................
    a08c:	ffff ffff ffff ffff ffff ffff ffff ffff     ................
    a09c:	ffff ffff ffff ffff ffff ffff ffff ffff     ................
    a0ac:	ffff ffff ffff ffff ffff ffff ffff ffff     ................
    a0bc:	ffff ffff ffff ffff ffff ffff ffff ffff     ................
    a0cc:	ffff ffff 003f 0000 05b7 2000 1463 2000     ....?...... c.. 
    a0dc:	08a1 2000 0000 0000 0000 0000 7da7 0002     ... .........}..
    a0ec:	7e01 0002 7e0f 0002 7e4b 0002 7e69 0002     .~...~..K~..i~..
    a0fc:	0941 2000 08ef 2000 269b 2000 059d 2000     A.. ... .&. ... 
    a10c:	0d6f 2000 0d79 2000 2a17 2000 3133 2000     o.. y.. .*. 31. 
    a11c:	003f 0000 87f4 2000 0800 0000 0d8c 0008     ?...... ........
    a12c:	0298 0000 0980 0008 0400 0000 1030 0008     ............0...
    a13c:	0d60 0000 0000 0000 0020 0000 0048 0000     `....... ...H...
    a14c:	0058 0000 0068 0000 0908 0000 0944 0000     X...h.......D...
    a15c:	0958 0000 095e 0000 28d0 0000 2e8e 0000     X...^....(......
    a16c:	0004 0000 1388 0000 14ed 2000 5d0d 0002     ........... .]..
    a17c:	9111 0002 2357 0003 2613 0003 7197 0002     ....W#...&...q..
    a18c:	2305 2000 0003 0000 0eb3 2000 08a1 2000     .#. ....... ... 
    a19c:	0004 0000 4587 0002 44bf 0002 1bf9 0002     .....E...D......
    a1ac:	8e7b 0002 8ecf 0002 8ed7 0002 7f57 0002     {...........W...
    a1bc:	7fc5 0002 4684 2000 80bb 0002 819b 0002     .....F. ........
    a1cc:	8249 0002 82e9 0002 830d 0002 8373 0002     I...........s...
    a1dc:	8389 0002 850b 0002 8631 0002 8733 0002     ........1...3...
    a1ec:	89e5 0002 8a1f 0002 8d27 0002 8a5b 0002     ........'...[...
    a1fc:	8b3f 0002 8c11 0002 8c5f 0002 0ccd 2000     ?......._...... 
    a20c:	8ced 0002 4d47 0002 4d75 0002 4e2f 0002     ....GM..uM../N..
    a21c:	0010 0000 0320 0000 3e80 0000 003c 0000     .... ....>..<...
    a22c:	003c 0000 001a 0000 0000 0000 0000 0000     <...............
    a23c:	0000 0000 ffff ffff ffff ffff ffff ffff     ................
    a24c:	ffff ffff ffff ffff ffff ffff ffff ffff     ................
    a25c:	ffff ffff ffff ffff ffff ffff ffff ffff     ................
    a26c:	ffff ffff ffff ffff ffff ffff ffff ffff     ................
    a27c:	ffff ffff ffff ffff ffff ffff ffff ffff     ................
    a28c:	ffff ffff ffff ffff ffff ffff ffff ffff     ................
    a29c:	ffff ffff ffff ffff ffff ffff ffff ffff     ................
    a2ac:	ffff ffff ffff ffff ffff ffff ffff ffff     ................
    a2bc:	ffff ffff ffff 0001 c200 0001 0000 0000     ................
    a2cc:	0000 0000 0000 01f4 0001 1b01 070a ff1a     ................
    a2dc:	00d2 1502 5c58 93de 011b cc42 139a 0025     ....X\....B...%.
    a2ec:	ed9b 5ec6 0100 0200 00c5 0000 0000 ff09     ...^............
    a2fc:	6000 5752 422d 454c 0000 0000 0000 0000     .`RW-BLE........
	...
    a318:	0000 4144 3431 3835 0078 0000 0000 0000     ..DA1458x.......
	...
    a358:	0022 ca00 80ea 07d0 4006 3264 ffff ffff     "........@d2....
    a368:	ffff ffff ffff ffff ffff ffff ffff ffff     ................
    a378:	ffff ffff ffff ffff ffff ffff ffff ffff     ................
    a388:	ffff ffff ffff ffff ffff ffff ffff ffff     ................
    a398:	ffff ffff ffff ffff ffff ffff ffff ffff     ................
    a3a8:	ffff ffff ffff ffff ffff ffff ffff ffff     ................
    a3b8:	ffff ffff ffff ffff 4803 4685 f003 fefc     .........H.F....
    a3c8:	4800 4700 1c21 0002 9800 2000 3801 d1fd     .H.G!...... .8..
    a3d8:	4770 0000 4914 2006 8008 20ff 4913 3001     pG...I. ... .I.0
    a3e8:	6008 2005 0700 8a81 0609 d5fc 8941 0889     .`. ........A...
    a3f8:	0089 8141 8941 0609 d5fc 4a0d 6891 233e     ..A.A......J.h>#
    a408:	4399 312e 6091 2200 8002 8a01 230f 021b     .C.1.`.".....#..
    a418:	4319 8201 2101 4807 04c9 c104 1e40 2800     .C...!.H....@..(
    a428:	dafb b662 4770 0000 3400 5000 e180 e000     ..b.pG...4.P....
    a438:	3300 5000 0bff 0000 4815 4780 4815 4700     .3.P.....H.G.H.G
    a448:	2004 4671 4208 d003 f3ef 8009 4912 4708     . qF.B.......I.G
    a458:	f3ef 8008 4910 4708 2004 4671 4208 d003     .....I.G. qF.B..
    a468:	f3ef 8009 490d 4708 f3ef 8008 490b 4708     .....I.G.....I.G
    a478:	2004 4671 4208 d003 f3ef 8009 4908 4708     . qF.B.......I.G
    a488:	f3ef 8008 4906 4708 e7fe e7fe e7fe 0000     .....I.G........
    a498:	046d 2000 0451 2000 0ab9 2000 053d 2000     m.. Q.. ... =.. 
    a4a8:	114f 2000 2205 0712 8a51 2380 4319 8251     O.. ."..Q..#.CQ.
    a4b8:	4912 6803 600b 6843 604b 6883 608b 68c3     .I.h.`ChK`.h.`.h
    a4c8:	60cb 6903 610b 6943 614b 6983 618b 69c3     .`.i.aCiKa.i.a.i
    a4d8:	61cb 6208 480a 6a83 624b 6ac3 628b 6b03     .a.b.H.jKb.j.b.k
    a4e8:	62cb 6bc3 630b 6b43 634b 6b80 6388 8a90     .b.k.cCkKc.k.c..
    a4f8:	0680 d501 be00 4770 e7fe 0000 1800 0008     ......pG........
    a508:	ed00 e000 b510 49af 2000 6008 f000 fb8d     .......I. .`....
    a518:	2001 0780 6b01 0049 0849 6301 bd10 b508     . ...kI.I..c....
    a528:	49a9 2001 7008 49a9 2008 8008 f003 fe56     .I. .p.I. ....V.
    a538:	f001 f8c0 26ff 3601 2035 4631 0100 f003     .....&.65 1F....
    a548:	fe53 f001 feaf f000 fe61 48a1 7801 7001     S.......a..H.x.p
    a558:	48a0 7801 7001 48a0 7801 7001 2001 f003     .H.x.p.H.x.p. ..
    a568:	fe49 f000 fe95 4d9d 8928 210f 0289 4388     I......M(..!...C
    a578:	2109 0289 1840 8128 f000 fa9e 2004 f000     .!..@.(...... ..
    a588:	f91a 2007 f000 f917 200a f000 f914 2006     ... ..... ..... 
    a598:	f000 f911 200b f000 f90e 2001 f000 f90b     ..... ..... ....
    a5a8:	2002 f000 f908 2000 f000 f905 4c8c 6820     . ..... .....L h
    a5b8:	f001 ff54 f000 fd0b 0668 6801 4331 6001     ..T.....h..h1C.`
    a5c8:	f000 fc39 6820 2800 d001 f001 fffe f000     ..9. h.(........
    a5d8:	f9ac 2014 f000 fae7 2014 f000 faf2 f7ff     ... ..... ......
    a5e8:	ff91 2700 2405 0724 82e7 487c 8841 22e0     ...'.$$...|HA.."
    a5f8:	4391 31a0 8041 8842 0101 430a 8042 2001     .C.1A.B....CB.. 
    a608:	f003 fdfe 2200 2101 4610 f000 fb93 2604     .....".!.F.....&
    a618:	8920 0600 d51c 2001 0780 6b00 0400 d417      ...... ...k....
    a628:	f003 fdf4 07c0 d113 2004 f003 fdf5 4605     ......... .....F
    a638:	f003 fdf8 2d00 d00b 2014 9700 f000 fac1     .....-... ......
    a648:	2104 4668 f003 fdf4 2800 d001 f000 fb00     .!hF.....(......
    a658:	2100 4608 f001 f923 2800 d00e 2101 2000     .!.F..#..(...!. 
    a668:	f001 f91d 2800 d108 485e 6880 4780 21ff     .....(..^H.h.G.!
    a678:	315f 2002 1c40 4288 dbfc f000 fb36 2800     _1. @..B....6..(
    a688:	d0c6 b672 f001 fe34 4605 2804 d006 2d02     ..r...4..F.(...-
    a698:	d00b 2d03 d009 2801 d07e e08a 4852 7800     ...-...(~...RH.x
    a6a8:	2801 d001 2503 e000 2502 8a20 4330 8220     .(...%...% .0C .
    a6b8:	484e 69c0 2801 d912 2d03 d11b f003 fdbe     NH.i.(...-......
    a6c8:	2800 d017 f003 fdc0 2800 d013 2003 f003     .(.......(... ..
    a6d8:	fdc1 2800 d00e 4946 2002 7008 e00b 2d03     ...(..FI. .p...-
    a6e8:	d108 2003 f003 fdb6 2800 d003 4840 2101     ... .....(..@H.!
    a6f8:	7001 e000 2502 483f 6901 4331 6101 8a61     .p...%?H.i1C.aa.
    a708:	2220 4391 8261 8a21 2202 4311 8221 8a61      ".Ca.!..".C!.a.
    a718:	2d02 d01e 4331 8261 217f 8822 0189 2380     .-..1Ca..!"....#
    a728:	431a 8022 2200 1c52 b2d2 2a0a d3fb 8a62     .C".."R....*..b.
    a738:	2310 431a 8262 4a30 1e49 6151 8821 2280     .#.Cb.0JI.Qa!.."
    a748:	4391 8021 492d 2d02 700f d00a 2d03 d008     .C!.-I.-.p...-..
    a758:	e025 4331 8261 8a61 2210 4391 8261 4927     %.1Ca.a..".Ca.'I
    a768:	700f 491e 884a 23ff 3301 439a 804a 8862     .p.IJ..#.3.CJ.b.
    a778:	4b23 801a 884a 2301 431a 804a 9700 9900     #K..J..#.CJ.....
    a788:	1c49 9100 2914 dbfa 8961 0889 0089 1c49     I....)..a.....I.
    a798:	8161 8961 0649 e000 e006 d5fa 8067 bf30     a.a.I.......g.0.
    a7a8:	6901 43b1 6101 e004 f000 fa9f 2800 d000     .i.C.a.......(..
    a7b8:	bf30 b662 e72c 06c1 0ec9 2001 4088 4911     0.b.,...... .@.I
    a7c8:	6008 4770 04fc 0008 8000 2000 3300 5000     .`pG....... .3.P
    a7d8:	0000 0008 28d0 0008 0908 0008 0020 5000     .....(...... ..P
    a7e8:	9020 2000 3c88 0003 0378 0008 01e0 2000      .. .<..x...... 
    a7f8:	07b0 0008 ed00 e000 8000 4000 8032 2000     ...........@2.. 
    a808:	8034 2000 e280 e000 4770 b570 493e 483f     4.. ....pGp.>I?H
    a818:	680a 2a00 d010 4b3d 3360 8b9a 0792 0fd2     .h.*..=K`3......
    a828:	d018 680c 2c00 d015 684a 7815 6005 1e64     ...h.,..Jh.x.`d.
    a838:	1c52 600c 604a e7f0 2200 604a 6843 2402     R..`J`..."J`Ch.$
    a848:	43a3 6043 688b 2b00 d002 2000 608a 4798     .CC`.h.+... .`.G
    a858:	f000 f99d bd70 b510 482c 6881 0709 0f09     ....p...,H.h....
    a868:	2901 d01a 2902 d01c 2904 d017 290c d114     .)...)...)...)..
    a878:	4a25 7e11 2901 d110 6941 0609 0fc9 d00c     %J.~.)..Ai......
    a888:	2100 60d1 6111 8883 085b 005b 8083 6953     .!.`.a..[.[...Si
    a898:	2b00 d002 2001 6151 4798 bd10 f000 f815     .+... Qa.G......
    a8a8:	bd10 f7ff ffb2 bd10 b510 4c17 60a2 6021     ...........L.`!`
    a8b8:	6060 f7ff ffaa 6860 2800 d005 4913 6848     ``....`h.(...IHh
    a8c8:	2202 4390 4310 6048 bd10 480f 490f e00a     .".C.CH`...H.I..
    a8d8:	680a 6903 701a 68c2 1e52 60c2 6903 1c5b     .h.i.p.hR..`.i[.
    a8e8:	6103 2a00 d004 694a 07d2 0fd2 d1f0 4770     .a.*..Ji......pG
    a8f8:	2200 6102 684b 085b 005b 604b 6941 2900     .".aKh[.[.K`Ai.)
    a908:	d0f5 6142 2000 4708 05b0 0008 1000 5000     ..Ba. .G.......P
    a918:	483e 7801 2900 d002 2180 7041 4770 493c     >H.x.)...!AppG<I
    a928:	2000 7008 493b 70c8 4770 4838 7801 2900     . .p;I.ppG8H.x.)
    a938:	d002 2181 7041 4770 4935 2001 7008 4935     ...!AppG5I. .p5I
    a948:	70c8 4770 4831 7801 2900 d002 2182 7041     .ppG1H.x.)...!Ap
    a958:	4770 492f 2002 7008 492e 2001 70c8 4770     pG/I. .p.I. .ppG
    a968:	482a 7881 2900 d004 1e49 0609 0e09 7081     *H.x.)..I......p
    a978:	d117 7842 2100 2a00 d004 0792 0f92 7002     ..Bx.!.*.......p
    a988:	7041 e004 7802 2a00 d001 1e52 7002 0612     Ap...x.*..R..p..
    a998:	0e12 7001 d005 2a01 d002 2a02 d101 e7d1     ...p...*...*....
    a9a8:	e7c3 4770 b510 4c19 78a0 1c40 70a0 7820     ..pG...L.x@..p x
    a9b8:	2800 d105 f003 fc54 1c42 f7ff ffa9 7022     .(....T.B....."p
    a9c8:	bd10 4912 2001 70c8 4770 4910 2000 70c8     ...I. .ppG.I. .p
    a9d8:	4770 480e 78c0 4770 2000 f3ef 8110 2201     pG.H.xpG. ....."
    a9e8:	f382 8810 2205 0712 8912 0612 d405 480a     .....".........H
    a9f8:	8902 2301 431a 8102 4618 2900 d000 2101     ...#.C...F.)...!
    aa08:	f381 8810 4770 4805 7800 4770 8001 2000     ....pG.H.xpG... 
    aa18:	0378 0008 07b2 0008 3300 5000 8030 2000     x........3.P0.. 
    aa28:	2205 0712 8a11 2304 4319 8211 8a11 2302     .".....#.C.....#
    aa38:	4319 8211 8911 2340 4319 8111 4b18 2101     .C....@#.C...K.!
    aa48:	6019 4b18 2108 8019 8a51 2380 4319 8251     .`.K.!..Q..#.CQ.
    aa58:	4915 6803 610b 6843 614b 6883 618b 68c3     .I.h.aChKa.h.a.h
    aa68:	61cb 6903 620b 6943 624b 6983 628b 69c3     .a.i.bCiKb.i.b.i
    aa78:	62cb 6308 480d 6a83 634b 6ac3 638b 6b03     .b.c.H.jKc.j.c.k
    aa88:	63cb 6bc3 4908 3140 600b 6b43 604b 6b80     .c.k.I@1.`CkK`.k
    aa98:	6088 8a90 0680 d501 be00 4770 e7fe 0000     .`........pG....
    aaa8:	e280 e000 3300 5000 1840 0008 ed00 e000     .....3.P@.......
    aab8:	49fb 20aa 6048 4770 b570 2105 0709 8908     .I. H`pGp..!....
    aac8:	2230 4390 8108 8908 2380 4318 8108 8908     0".C.....#.C....
    aad8:	0880 0080 1c40 8108 8908 2208 4310 8108     ....@......".C..
    aae8:	48f0 8804 431c 8004 8a4c 4394 824c 890d     .H...C..L..CL...
    aaf8:	2440 4325 810d 8a0d 2604 43b5 820d 8a8d     @$%C.....&.C....
    ab08:	07ad d5fc 4ee6 25aa 6075 8885 26f0 43b5     .....N.%u`...&.C
    ab18:	35b0 8085 8885 2603 0236 43b5 8085 8885     .5.....&6..C....
    ab28:	092d 012d 8085 8885 2601 02b6 4335 8085     -.-......&..5C..
    ab38:	8885 0076 4335 8085 8885 0076 4335 8085     ..v.5C....v.5C..
    ab48:	8a4d 4395 824d 8802 0852 0052 8002 8802     M..CM...R.R.....
    ab58:	439a 8002 890a 43a2 810a 8940 0580 d503     .C.....C..@.....
    ab68:	49d0 2005 3160 8088 2001 0780 6801 1582     .I. `1... ...h..
    ab78:	4391 6001 48cc 6801 223f 0252 4391 1442     .C.`.H.h?"R..CB.
    ab88:	1889 6001 6801 0302 4311 6001 bd70 2103     ...`.h...C.`p..!
    ab98:	48c6 0209 8181 2208 8042 2100 1c49 2996     .H....."B..!I..)
    aba8:	d3fc 8082 4770 49c2 8048 8808 2203 4310     ....pG.IH....".C
    abb8:	8008 8808 2204 4310 8008 49b9 2001 7008     .....".C...I. .p
    abc8:	4770 b57c 4cb6 7821 2900 d02d 49b8 880a     pG|..L!x.)-..I..
    abd8:	0752 d4fc 88ca 9200 8889 9101 0411 9a01     R...............
    abe8:	1889 9100 49b3 4348 9900 f003 fb3f 9000     .....IHC....?...
    abf8:	2000 7020 9800 60a0 9800 f003 fa50 4605     .  p...`....P..F
    ac08:	4629 48ad f003 fa01 210a f003 fa3c f003     )F.H.....!..<...
    ac18:	fa4d 60e0 4628 f003 fa5d 4aa8 4ba8 f003     M..`(F..]..J.K..
    ac28:	fb2b f003 fa6b 6120 bd7c b510 48a5 f003     +...k. a|....H..
    ac38:	fb29 bd10 b570 4c9b 8860 06c0 0f05 f003     )...p..L`.......
    ac48:	fb27 8861 221e 4391 006a 4311 8061 bd70     '.a..".Cj..Ca.p.
    ac58:	b510 499d 2001 63c8 6bc8 2800 d1fc 2001     ...I. .c.k.(... 
    ac68:	0780 69c1 4899 6802 4291 d201 2200 6002     ...i.H.h.B...".`
    ac78:	2319 1a8a 01db 429a d312 6001 f003 fb0e     .#.....B...`....
    ac88:	4a93 8811 4288 d901 1a41 e000 1a09 b289     .J...B..A.......
    ac98:	2918 d305 8010 2001 f003 fb06 f003 fb0a     .)..... ........
    aca8:	bd10 b508 497e 6889 4348 498a f003 fade     ....~I.hHC.I....
    acb8:	9000 bd08 b508 497a 2201 03d2 68c9 4290     ......zI."...h.B
    acc8:	d305 f003 fc65 0589 0a80 4308 e001 4348     ....e......C..HC
    acd8:	0a80 9000 bd08 b508 f7ff ffe3 9000 bd08     ................
    ace8:	b508 f7ff ffe7 9000 bd08 487b 7941 2901     ..........{HAy.)
    acf8:	d104 7900 2800 d003 2803 d001 2000 4770     ...y.(...(... pG
    ad08:	2001 4770 b510 2005 0700 8a80 0740 d503     . pG... ....@...
    ad18:	f000 fa14 f000 fa58 4870 6881 2201 4311     ......X.pH.h.".C
    ad28:	6081 2200 2101 4610 f000 f804 486c 6880     .`.".!.F....lH.h
    ad38:	4780 bd10 b570 460c 496a 2002 7108 4615     .G..p..FjI. .q.F
    ad48:	4869 f003 fc4d 2001 40a0 2d00 d005 2100     iH..M.. .@.-...!
    ad58:	2300 2201 f001 f81e bd70 4601 e7f8 4851     .#."....p..F..QH
    ad68:	2101 30e0 8081 8801 2280 4391 8001 4770     .!.0.....".C..pG
    ad78:	4b5b 681b 4718 b5f7 2400 b082 2701 2503     [K.h.G...$...'.%
    ad88:	4616 9400 022d 9401 2300 462a 4619 4618     .F..-....#*F.F.F
    ad98:	9700 f000 fd32 2005 f7ff fb18 2300 462a     ....2.. .....#*F
    ada8:	4619 4618 9400 f000 fd28 2032 f7ff fb0e     .F.F....(.2 ....
    adb8:	2101 2000 f000 fd73 2800 9801 d004 1c40     .!. ..s..(....@.
    adc8:	9001 2814 d9f1 e7df 1c40 2100 9001 2314     ...(....@..!...#
    add8:	462a 9400 4608 f000 fd10 4c41 68a0 4780     *F...F....AL.h.G
    ade8:	6863 4632 9903 9802 4798 b005 bdf0 b508     ch2F.....G......
    adf8:	2000 22ff 2313 3201 2101 9000 f000 fcfd     . .".#.2.!......
    ae08:	2101 2000 f000 fd4b 2800 d102 4834 6880     .!. ..K..(..4H.h
    ae18:	4780 bd08 4832 68c0 4700 4601 2000 2900     .G..2H.h.G.F. .)
    ae28:	d001 2902 d100 4831 4770 1840 2137 00c0     ...)..1HpG@.7!..
    ae38:	0109 1840 4770 b51f 4668 f001 f99c 9800     ..@.pG..hF......
    ae48:	f003 f9d8 bd1f b510 4a29 2000 7811 2900     ........)J. .x.)
    ae58:	d00d 491d 2001 63c8 6bc8 2800 d1fc 2001     ...I. .c.k.(... 
    ae68:	0780 69c0 4923 6809 4288 d201 2001 bd10     ...i#I.h.B... ..
    ae78:	2000 7010 f003 f9f4 2802 d003 f003 f9f0     . .p.....(......
    ae88:	2801 d10b 4915 2008 8008 2005 0700 8a81     .(...I. ... ....
    ae98:	0689 d4fc 8a41 2280 4391 8241 2000 bd10     ....A..".CA.. ..
    aea8:	8008 2000 0020 5000 0200 4000 3020 5000     ...  ..P...@ 0.P
    aeb8:	1600 5000 2400 00f4 2400 4974 147b 47ae     ...P.$...$tI{..G
    aec8:	7ae1 3f44 04e2 0000 00c0 4000 05f8 0008     .zD?.......@....
    aed8:	05f4 0008 4240 000f 8038 2000 3300 5000     ....@B..8.. .3.P
    aee8:	3c88 0003 07b2 0008 0d9d 2000 469c 2000     .<......... .F. 
    aef8:	8000 2000 4c00 2000 2000 4770 b508 4914     ... .L. . pG...I
    af08:	884a 2301 431a 804a 2100 9100 1c49 9100     J..#.CJ..!..I...
    af18:	2914 dbfb 2105 0709 894a 0892 0092 1c52     .)...!..J.....R.
    af28:	814a 894a 0652 d5fc 894b 2204 4313 814b     J.J.R...K..".CK.
    af38:	8048 8948 4390 8148 8a88 0600 d5fc 8948     H.H..CH.......H.
    af48:	0880 0080 8148 8948 0600 d5fc bd08 0000     ....H.H.........
    af58:	0020 5000 b5ff b081 461f 460e 784d 780c      ..P.....F.FMx.x
    af68:	2000 f003 f9ad 2804 d024 2800 d11d e021     . .....($..(..!.
    af78:	4862 6a81 202e 4360 1809 8888 0702 0f12     bH.j. `C........
    af88:	0013 f003 f9a3 0507 0505 050f 050f 000f     ................
    af98:	0482 0e92 2a06 d205 7872 2a01 d012 2207     .....*..rx.*..."
    afa8:	4310 8088 1c64 0764 0f64 4628 1e6d b2ed     .C..d.d.d.(Fm...
    afb8:	2800 d1dd 463b 4631 9a03 9801 f003 f98c     .(..;F1F........
    afc8:	b005 bdf0 4620 f003 f98d 2000 e7f8 b570     .... F..... ..p.
    afd8:	484b 7803 1d02 2100 4d4a e007 00cc 5d16     KH.x...!JM.....]
    afe8:	2e00 d101 1824 60a5 1c49 b2c9 4299 d3f5     ....$..`I....B..
    aff8:	bd70 b5ff 7886 4604 0230 b081 300e 9000     p....x.F0....0..
    b008:	f003 f95e 2800 d001 26ff e052 2100 2044     ..^..(...&R..!D 
    b018:	f003 f96e 4f3c 00b5 5178 2144 f003 f96e     ..n.<O..xQD!..n.
    b028:	2101 9800 f003 f970 5979 9802 8088 5979     .!....p.yY....yY
    b038:	8860 80c8 5978 7922 3020 7c41 07d2 0849     `...xY"y 0A|..I.
    b048:	0049 0fd2 4311 7441 5978 2206 1da1 303b     I....CAtxY."..;0
    b058:	f003 f960 5978 7961 3040 7041 5978 2206     ..`.xYay@0ApxY."
    b068:	3034 9903 f003 f956 5979 9804 3120 7688     40....V.yY.. 1.v
    b078:	9802 280d d01d 4825 2310 8800 9a00 b281     ...(..%H.#......
    b088:	4823 f003 f94d 4605 8860 8028 7960 7268     #H..M..F`.(.`yhr
    b098:	4628 2206 1da1 300a f003 f93c 89a0 8068     (F."...0..<...h.
    b0a8:	89e0 80a8 8a20 80e8 7ca0 7228 4628 f003     .... ....|(r(F..
    b0b8:	f93d 4630 e784 6981 3920 7f89 2903 d205     =.0F...i 9...)..
    b0c8:	4a10 0089 3210 5851 6181 4770 e7fe 4812     .J...2QX.apG...H
    b0d8:	4910 6101 4911 6141 4911 6181 4911 61c1     .I.a.IAa.I.a.I.a
    b0e8:	490f 3938 6201 4910 6241 4910 6281 4910     .I89.b.IAb.I.b.I
    b0f8:	62c1 4910 6301 4910 6341 4770 047c 0008     .b.I.c.IAcpG|...
    b108:	084c 0008 47e4 2000 06f4 0008 0160 2000     L....G. ....`.. 
    b118:	3801 0000 4b1c 0002 8400 4000 df01 b5ff     .8...K.....@....
    b128:	78f8 0002 df00 4619 21d2 80c1 299c 0002     .x.....F.!...)..
    b138:	20d2 80d0 3b40 0002 07c9 d020 b570 4841     . ..@;.... .p.AH
    b148:	2300 6881 43db 2900 d001 4619 e000 2101     .#.h.C.)...F...!
    b158:	17ca 0f8c 0092 4322 008c 6081 493a 680d     ......"C...`:I.h
    b168:	684e 432c 4332 600c 604a 68c2 2a00 d001     Nh,C2C.`J`.h.*..
    b178:	461c e000 2401 17e2 0f65 00d2 432a 60c4     .F...$..e...*C.`
    b188:	680d 00e4 684e 432c 4332 600c 604a 6802     .h..Nh,C2C.`J`.h
    b198:	2a00 d001 461a e000 2201 6002 680d 17d4     .*...F...".`.h..
    b1a8:	684e 432a 4334 600a 604c 6842 2a00 d100     Nh*C4C.`L`Bh.*..
    b1b8:	2301 6043 17d8 18da 680c 4140 684b 4322     .#C`.....h@AKh"C
    b1c8:	4318 600a 6048 bd70 b5f8 2400 2503 2302     .C.`H`p....$.%.#
    b1d8:	022d 462a 4619 4620 9400 f000 fb0e 2301     -.*F.F F.......#
    b1e8:	021e 4632 2103 2000 9400 f000 fb06 2100     ..2F.!. .......!
    b1f8:	2314 462a 4608 9400 f000 faff 2313 4632     .#*F.F.......#2F
    b208:	2101 2000 9400 f000 faf8 bdf8 b510 2405     .!. ...........$
    b218:	0724 8a20 2102 4388 8220 8aa0 0700 d5fc     $. ..!.C .......
    b228:	88a0 2180 4308 80a0 2103 2004 f003 f884     ...!.C...!. ....
    b238:	f7ff ff4d f7ff ffc8 8a60 2120 4308 8260     ..M.....`. !.C`.
    b248:	bd10 0000 9030 2000 9028 2000 4a0f 8851     ....0.. (.. .JQ.
    b258:	2307 025b 4399 0240 4301 8051 4770 2005     .#[..C@..CQ.pG. 
    b268:	0700 8801 2230 4311 8001 8801 2203 4311     ....0".C.....".C
    b278:	8001 4770 2005 0700 8801 2230 4391 8001     ..pG. ....0".C..
    b288:	8801 0889 0089 8001 4770 0000 0080 5000     ........pG.....P
    b298:	b530 4a92 4992 05d0 8804 2380 431c 8004     0..J.I.....#.C..
    b2a8:	4c90 8965 072d d401 1e52 d2fa 4c8e 2201     .Le.-...R....L."
    b2b8:	6022 4c8e 880a 8022 4a8d 8849 8011 8801     "`.L.."..JI.....
    b2c8:	4399 8001 bd30 2000 4770 4770 4770 4770     .C..0.. pGpGpGpG
    b2d8:	2000 4770 2101 0789 6b08 2207 4310 6308     . pG.!...k.".C.c
    b2e8:	4770 4770 b530 4984 4882 6008 4983 204c     pGpG0..I.H.`.IL 
    b2f8:	8008 4c82 4b82 3c20 8223 4983 4881 8048     ...L.K <#..I.HH.
    b308:	4883 4982 8001 4981 3119 8041 2122 8141     .H.I...I.1A."!A.
    b318:	2181 0089 8201 497f 8241 497f 8301 497d     .!.....IA..I..}I
    b328:	3111 8341 4a7a 497d 3220 8091 2241 497c     .1A.zJ}I 2..A"|I
    b338:	0112 808a 4a7b 80ca 4d7a 3510 81cd 820a     ....{J..zM.5....
    b348:	824a 1c92 828a 1f6a 82ca 22ff 3246 830a     J.....j...."F2..
    b358:	4a75 834a 4a75 2159 8011 4974 4d74 3120     uJJ.uJY!..tItM 1
    b368:	800d 2543 804d 4d73 8255 22d5 808a 22ff     ..C%M.sMU.."..."
    b378:	32d3 810a 4a70 814a 4a70 818a 4a71 4970     .2..pJJ.pJ..qJpI
    b388:	8011 495e 4a70 3960 804a 88ca 2510 432a     ..^IpJ`9J....%*C
    b398:	80ca 4a67 3a0a 810a 4d58 4a6c 3d40 806a     ..gJ.:..XMlJ@=j.
    b3a8:	8263 2208 814a 4952 4a60 8809 3a40 8211     c.."J.RI`J..@:..
    b3b8:	494e 4a67 8809 8011 4966 7809 2900 d001     NIgJ....fI.x.)..
    b3c8:	2130 8301 bd30 0840 4770 b500 b08b 4a62     0!..0.@.pG....bJ
    b3d8:	6242 4a62 6282 4a62 6142 4a62 62c2 4a62     BbbJ.bbJBabJ.bbJ
    b3e8:	6002 4a62 6202 4a62 6042 4a62 61c2 4a42     .`bJ.bbJB`bJ.aBJ
    b3f8:	4840 2100 6010 4840 3840 6b02 1203 439a     @H.!.`@H@8.k...C
    b408:	6302 6b42 231f 041b 439a 2303 041b 18d2     .cBk.#...C.#....
    b418:	6342 4859 6802 12c3 439a 6002 6802 1303     BcYH.h...C.`.h..
    b428:	439a 6002 4668 5441 1c49 b2c9 2928 d3fa     .C.`hFATI...()..
    b438:	4601 2228 4851 f002 ff6d f7ff ff53 f002     .F("QH..m...S...
    b448:	ff2d 494f 8008 2000 f002 ff2e f002 ff32     -.OI... ......2.
    b458:	b00b bd00 b510 4a28 210f 4826 0209 6010     ......(J.!&H...`
    b468:	4825 3840 6b42 231f 041b 439a 2303 041b     %H@8Bk.#...C.#..
    b478:	18d2 6342 0600 6802 08d2 00d2 6002 2005     ..Bc...h.....`. 
    b488:	0700 8902 0892 0092 1c52 8102 8902 2308     ........R......#
    b498:	431a 8102 8a02 430a 8202 f7ff ff23 4839     .C.....C....#.9H
    b4a8:	6f00 7800 2800 d004 4837 8800 4913 3960     .o.x.(..7H...I`9
    b4b8:	80c8 2001 f002 fea4 bd10 4826 7800 4770     ... ......&H.xpG
    b4c8:	4924 2001 7008 4912 2030 8308 4770 4921     $I. .p.I0 ..pG!I
    b4d8:	2000 7008 490e 4810 8308 4770 86a0 0001     . .p.I.H..pG....
    b4e8:	7f08 0004 0020 5000 8000 4000 037a 0008     .... ..P...@z...
    b4f8:	04ae 0008 054c 0754 0080 4000 2c60 5000     ....L.T....@`,.P
    b508:	7f7f 0000 29ac 0000 2200 5000 0909 0000     .....)...".P....
    b518:	2400 5000 0422 0000 d030 0000 11ee 0000     .$.P"...0.......
    b528:	2500 5000 022e 0000 2044 0000 2840 5000     .%.P....D ..@(.P
    b538:	950d 0000 4202 0000 dce4 0000 9210 0000     .....B..........
    b548:	7853 0000 2a00 5000 108b 0000 d59d 0000     Sx...*.P........
    b558:	2600 5000 8020 2000 135f 2000 1363 2000     .&.P .. _.. c.. 
    b568:	1369 2000 136d 2000 1365 2000 137b 2000     i.. m.. e.. {.. 
    b578:	1367 2000 145f 2000 0200 4000 0020 0008     g.. _.. ...@ ...
    b588:	05f4 0008 01e0 2000 05ce 0008 4308 2101     ....... .....C.!
    b598:	0389 4603 430b 4943 800b 4b43 4318 8008     ...F.CCI..CK.C..
    b5a8:	2009 4302 804a 4770 493e 880a 230f 019b     . .CJ.pG>I...#..
    b5b8:	0700 439a 0d80 4302 800a 4770 4939 2000     ...C...C..pG9I. 
    b5c8:	8008 4770 4837 4939 8802 2302 431a 8002     ..pG7H9I...#.C..
    b5d8:	1e49 d302 8802 0792 d4fa 2100 8101 8940     I..........!..@.
    b5e8:	4770 e00a bf00 bf00 bf00 bf00 bf00 bf00     pG..............
    b5f8:	bf00 bf00 bf00 bf00 bf00 1e40 d2f2 4770     ..........@...pG
    b608:	b570 2202 0251 4604 004e 4630 f7ff ffbe     p.."Q..FN.0F....
    b618:	2014 f7ff ffe6 2c00 d001 2009 e000 2007     . .....,... ... 
    b628:	f7ff ffc2 f7ff ffce 4605 2001 f7ff ffd9     .........F. ....
    b638:	2202 2100 4630 f7ff ffa9 2c00 d001 2009     .".!0F.....,... 
    b648:	e000 2007 f7ff ffb0 f7ff ffbc 1940 4a15     ... ........@..J
    b658:	2100 8011 bd70 b5f0 4c12 4815 8020 2014     .!..p....L.H .. 
    b668:	f7ff ffbf 2501 026d 80a5 80e5 8820 00e9     .....%m..... ...
    b678:	4308 8020 8820 108e 43b0 8020 f7ff ffa2     .C . ....C .....
    b688:	4607 8820 4330 8020 f7ff ff9c 4602 0078     .F .0C ......Fx.
    b698:	4271 1840 1a28 0052 1851 1a69 80a0 80e1     qB@.(.R.Q.i.....
    b6a8:	bdf0 0000 1500 5000 4001 0000 86a0 0001     .......P.@......
    b6b8:	4801 0000 b5fe 2000 4ef8 4603 2228 2100     .H..... .N.F(".!
    b6c8:	4342 1992 008c 1c49 5113 290a dbfa 1c40     BC....I..Q.)..@.
    b6d8:	2804 dbf3 f7ff fd32 48f0 2200 3808 6002     .(....2..H.".8.`
    b6e8:	6042 4615 2400 48ee 0069 5a47 2001 40a0     B`.F.$.Hi.GZ. .@
    b6f8:	b280 4207 d01c 2028 4368 1980 00a1 5840     ...B..( hC....@X
    b708:	1c41 d019 2800 d010 17c1 4622 f002 fe1a     A....(...."F....
    b718:	012a f002 fe17 4be1 3b08 681a 685b 4310     *......K.;.h[h.C
    b728:	4ade 4319 3a08 6010 6051 1c64 2c0a dbdd     .J.C.:.`Q`d..,..
    b738:	1c6d 2d04 dbd6 bdfe 9500 9401 be00 e7e3     m..-............
    b748:	b5f8 4616 4604 460d 460a 461f 2001 2100     ...F.F.F.F.F. .!
    b758:	f002 fdf8 0122 f002 fdf5 4bd0 3b08 681a     ...."......K.;.h
    b768:	685b 4010 4019 4308 d100 be00 2c03 d100     [h.@.@.C.....,..
    b778:	2404 49cc 0160 1840 0069 1808 433e 80c6     .$.I`.@.i...>C..
    b788:	bdf8 b570 4604 460d 460a 2001 2100 f002     ..p..F.F.F. .!..
    b798:	fdd9 0122 f002 fdd6 4ac0 3a08 6813 6852     .."......J.:.hRh
    b7a8:	4018 4011 4308 d100 be00 2c03 d100 2404     .@.@.C.....,...$
    b7b8:	49bc 0160 1840 2101 40a9 8081 bd70 b570     .I`.@..!.@..p.p.
    b7c8:	4604 460d 460a 2001 2100 f002 fdbb 0122     .F.F.F. .!....".
    b7d8:	f002 fdb8 4ab1 3a08 6813 6852 4018 4011     .....J.:.hRh.@.@
    b7e8:	4308 d100 be00 2c03 d100 2404 49ad 0160     .C.....,...$.I`.
    b7f8:	1840 2101 40a9 8041 bd70 b5ff b081 460c     @..!.@A.p......F
    b808:	4605 460a 461f 2001 2100 9e0a f002 fd9a     .F.F.F. .!......
    b818:	012a f002 fd97 4ba1 3b08 681a 685b 4010     *......K.;.h[h.@
    b828:	4019 4308 d100 be00 2e00 4621 4628 d002     .@.C......!F(F..
    b838:	f7ff ffc5 e001 f7ff ffa4 463b 4621 4628     ..........;F!F(F
    b848:	9a03 f7ff ff7d b005 bdf0 b570 4615 4604     ....}.....p..F.F
    b858:	460e 460a 2001 2100 f002 fd74 0122 f002     .F.F. .!..t."...
    b868:	fd71 4b8e 3b08 681a 685b 4010 4019 4308     q..K.;.h[h.@.@.C
    b878:	d100 be00 2c00 d007 1e60 498a 0040 3170     .....,..`..I@.p1
    b888:	1840 2c01 d002 e002 2000 e7f6 3608 8801     @..,..... ...6..
    b898:	2201 40b2 4391 40b5 430d 8005 bd70 b570     .".@.C.@.C..p.p.
    b8a8:	4604 460d 460a 2001 2100 f002 fd4b 0122     .F.F.F. .!..K.".
    b8b8:	f002 fd48 4a79 3a08 6813 6852 4018 4011     ..H.yJ.:.hRh.@.@
    b8c8:	4308 d100 be00 2c03 d100 2404 4975 0160     .C.....,...$uI`.
    b8d8:	1840 8800 2101 40a9 4008 d000 2001 bd70     @....!.@.@... p.
    b8e8:	b5ff 4614 460d 4606 460a b081 2001 2100     ...F.F.F.F... .!
    b8f8:	f002 fd28 0132 f002 fd25 4b68 3b08 681a     ..(.2...%.hK.;.h
    b908:	685b 4010 4019 4308 d100 be00 a066 6800     [h.@.@.C....f..h
    b918:	9000 4866 8980 4623 3b13 22ff 3201 409a     ..fH..#F.;.".2.@
    b928:	990b 4390 2900 d001 2701 e000 2700 07d1     ...C.)...'...'..
    b938:	d001 2100 e038 0791 d501 2101 e034 0751     ...!8......!4.Q.
    b948:	d501 2102 e030 0711 d501 2103 e02c 06d1     ...!0......!,...
    b958:	d501 2104 e028 0691 d501 2105 e024 0651     ...!(......!$.Q.
    b968:	d501 2106 e020 0611 d501 2107 e01c 05d1     ...! ......!....
    b978:	d501 2108 e018 0591 d501 2109 e014 0551     ...!.......!..Q.
    b988:	d501 210a e010 0511 d501 210b e00c 04d1     ...!.......!....
    b998:	d501 210c e008 0491 d501 210d e004 0451     ...!.......!..Q.
    b9a8:	d501 210e e000 210f 408f 4940 4338 8188     ...!...!.@@I8C..
    b9b8:	8988 9f0b 0980 0180 4338 8188 8a0f 4397     ........8C.....C
    b9c8:	07d0 d001 2000 e038 0790 d501 2001 e034     ..... 8...... 4.
    b9d8:	0750 d501 2002 e030 0710 d501 2003 e02c     P.... 0...... ,.
    b9e8:	06d0 d501 2004 e028 0690 d501 2005 e024     ..... (...... $.
    b9f8:	0650 d501 2006 e020 0610 d501 2007 e01c     P....  ...... ..
    ba08:	05d0 d501 2008 e018 0590 d501 2009 e014     ..... ....... ..
    ba18:	0550 d501 200a e010 0510 d501 200b e00c     P.... ....... ..
    ba28:	04d0 d501 200c e008 0490 d501 200d e004     ..... ....... ..
    ba38:	0450 d501 200e e000 200f 9a0a 4082 4317     P.... ... ...@.C
    ba48:	820f 8a0f 2201 4610 4098 4387 07c3 d001     .....".F.@.C....
    ba58:	2000 e042 0783 d501 2001 e03e 0743 d501     . B...... >.C...
    ba68:	2002 e03a 0703 d501 2003 e036 06c3 d501     . :...... 6.....
    ba78:	2004 e032 0683 d501 2005 e02e 0643 d501     . 2...... ..C...
    ba88:	2006 e02a 0603 d501 2007 e026 05c3 d501     . *...... &.....
    ba98:	2008 e022 0583 d50b 2009 e01e 9030 2000     . "...... ..0.. 
    baa8:	4800 2000 3000 5000 0901 190f 1400 5000     .H. .0.P.......P
    bab8:	0543 d501 200a e010 0503 d501 200b e00c     C.... ....... ..
    bac8:	04c3 d501 200c e008 0483 d501 200d e004     ..... ....... ..
    bad8:	0440 d501 200e e000 200f 9b04 4083 431f     @.... ... ...@.C
    bae8:	820f 4895 0061 1808 8b41 466b 0989 5d9b     ...Ha...A.kF...]
    baf8:	0189 195b 4319 8341 07a0 0ec3 21ff 4099     ..[..CA......!.@
    bb08:	2080 4098 2c00 da0b 0723 0f1b 3b08 089d     . .@.,..#....;..
    bb18:	4b8a 00ad 18ed 69eb 438b 4303 61eb e007     .K.....i.C.C.a..
    bb28:	08a5 4b87 00ad 18ed 682b 438b 4303 602b     ...K....+h.C.C+`
    bb38:	06e0 0ec0 4082 4883 6002 e684 497e 3140     .....@.H.`..~I@1
    bb48:	8a0a 2101 3813 4081 400a 07c8 d001 2000     ...!.8.@.@..... 
    bb58:	e038 0788 d501 2001 e034 0748 d501 2002     8...... 4.H.... 
    bb68:	e030 0708 d501 2003 e02c 06c8 d501 2004     0...... ,...... 
    bb78:	e028 0688 d501 2005 e024 0648 d501 2006     (...... $.H.... 
    bb88:	e020 0608 d501 2007 e01c 05c8 d501 2008      ...... ....... 
    bb98:	e018 0588 d501 2009 e014 0548 d501 200a     ....... ..H.... 
    bba8:	e010 0508 d501 200b e00c 04c8 d501 200c     ....... ....... 
    bbb8:	e008 0488 d501 200d e004 0448 d501 200e     ....... ..H.... 
    bbc8:	e000 200f 40c2 b2d0 4770 b510 4c5a 3440     ... .@..pG..ZL@4
    bbd8:	8a23 2201 3813 4082 4393 07d0 d001 2000     #..".8.@.C..... 
    bbe8:	e038 0790 d501 2001 e034 0750 d501 2002     8...... 4.P.... 
    bbf8:	e030 0710 d501 2003 e02c 06d0 d501 2004     0...... ,...... 
    bc08:	e028 0690 d501 2005 e024 0650 d501 2006     (...... $.P.... 
    bc18:	e020 0610 d501 2007 e01c 05d0 d501 2008      ...... ....... 
    bc28:	e018 0590 d501 2009 e014 0550 d501 200a     ....... ..P.... 
    bc38:	e010 0510 d501 200b e00c 04d0 d501 200c     ....... ....... 
    bc48:	e008 0490 d501 200d e004 0450 d501 200e     ....... ..P.... 
    bc58:	e000 200f 4081 430b 8223 bd10 b510 4c36     ... .@.C#.....6L
    bc68:	3440 89e3 2201 4611 3813 4081 438b 07c8     @4...".F.8.@.C..
    bc78:	d001 2000 e038 0788 d501 2001 e034 0748     ... 8...... 4.H.
    bc88:	d501 2002 e030 0708 d501 2003 e02c 06c8     ... 0...... ,...
    bc98:	d501 2004 e028 0688 d501 2005 e024 0648     ... (...... $.H.
    bca8:	d501 2006 e020 0608 d501 2007 e01c 05c8     ...  ...... ....
    bcb8:	d501 2008 e018 0588 d501 2009 e014 0548     ... ....... ..H.
    bcc8:	d501 200a e010 0508 d501 200b e00c 04c8     ... ....... ....
    bcd8:	d501 200c e008 0488 d501 200d e004 0448     ... ....... ..H.
    bce8:	d501 200e e000 200f 4082 4313 81e3 bd10     ... ... .@.C....
    bcf8:	4a15 0080 1880 3880 6341 4770 b510 4604     .J.....8AcpG...F
    bd08:	f7ff ffac 4910 00a0 1840 3880 6b40 2800     .....I..@..8@k.(
    bd18:	d001 4780 bd10 06e1 0ec9 2001 4088 490b     ...G....... .@.I
    bd28:	6008 bd10 2013 e7e9 2014 e7e7 2015 e7e5     .`... ... ... ..
    bd38:	2016 e7e3 2017 e7e1 13c0 5000 ed00 e000     . ... .....P....
    bd48:	e400 e000 e100 e000 90d0 2000 e280 e000     ........... ....
    bd58:	4839 7800 2800 d002 2000 43c0 4770 2001     9H.x.(... .CpG. 
    bd68:	4936 0240 6008 2000 4770 b510 f7ff fa82     6I@..`. pG......
    bd78:	2005 0700 8880 06c0 d50b 4831 2101 8081     . ........1H.!..
    bd88:	8801 2280 4391 8001 482b 6840 2800 d000     ...".C..+H@h.(..
    bd98:	4780 bd10 b5f0 2405 0724 88a5 2610 4335     .G.....$$....&5C
    bda8:	80a5 4c27 2500 8125 b2d2 8062 462a 00d7     ..'L.%%...b.*F..
    bdb8:	4605 40fd b2ee 0055 192d 816e 460e 40fe     .F.@..U.-.n..F.@
    bdc8:	b2f6 826e 1c52 2a04 dbf1 89e2 2503 022d     ..n.R..*.....%-.
    bdd8:	0400 0f80 43aa 0200 4302 81e2 8ae0 0409     .....C...C......
    bde8:	0f89 43a8 0209 4308 82e0 2001 80a0 4a15     ...C...C... ...J
    bdf8:	0241 6011 069a 0e92 3280 8022 4b12 681a     A..`.....2"..K.h
    be08:	24ff 0224 43a2 0384 4322 601a 4a0a 7813     .$$..C.."C.`.J.x
    be18:	4303 480a 7013 3880 6001 bdf0 4806 7801     .C.H.p.8.`...H.x
    be28:	0849 0049 7001 4806 2101 8081 8801 2280     I.I..p.H.!....."
    be38:	4391 8001 e78c 0000 0328 0008 e180 e000     .C......(.......
    be48:	0100 5000 e280 e000 e408 e000 b5f8 4d94     ...P...........M
    be58:	8828 0780 0fc0 d0fb 200f f000 f8f5 2780     (........ .....'
    be68:	806f 4890 8801 0489 d5fc 8841 b2c9 2908     o..H......A....)
    be78:	d1f8 2101 80c1 4a8c 6813 2b00 d02d 6853     ...!...J.h.+-.Sh
    be88:	781c 8806 0536 d4fc 8044 e001 8844 80c1     .x..6...D...D...
    be98:	8804 04a4 0fe4 d1f9 6814 1c5b 1e64 6014     .........h[.d..`
    bea8:	6053 2c00 d1eb e005 8803 049b 0fdb d001     S`.,............
    beb8:	8843 80c1 8903 071b d4f6 80af e001 8843     C.............C.
    bec8:	80c1 8803 049b 0fdb d1f9 80c1 2000 6050     ............. P`
    bed8:	6891 2900 d001 6090 4788 2001 4973 03c0     .h.)...`.G. sI..
    bee8:	6008 4973 6008 bdf8 2005 0700 8881 2203     .`sI.`... ....."
    bef8:	0212 4391 8081 8881 2201 02d2 4311 8081     ...C....."...C..
    bf08:	4868 8801 0849 0049 8001 8801 22ff 3281     hH..I.I......".2
    bf18:	4391 8001 8801 2240 4311 8001 8801 2204     .C....@".C....."
    bf28:	4391 8001 8801 2202 4391 8001 8801 0352     .C.....".C....R.
    bf38:	4311 8001 8901 0889 0089 8101 8801 0052     .C............R.
    bf48:	4311 8001 8801 2201 4311 8001 4956 2000     .C.....".C..VI. 
    bf58:	6108 60c8 6048 6008 4856 6801 0209 0a09     .a.`H`.`VH.h....
    bf68:	6001 4770 b510 4c4e 8820 0780 0fc0 d0fb     .`pG..NL .......
    bf78:	200f f000 f869 2280 8062 484a 8801 0489     . ..i.."b.JH....
    bf88:	d5fc 8841 b2c9 2908 d1f8 2101 80c1 8803     ..A....)...!....
    bf98:	0adb 07db 0fdb d1fa 2306 8043 8803 049b     .........#C.....
    bfa8:	d5fc 8843 80c1 8901 08c9 07c9 0fc9 d1fa     ..C.............
    bfb8:	80a2 2001 493d 03c0 6008 493d 6008 bd10     ... =I...`=I.`..
    bfc8:	b510 4c37 8820 0780 0fc0 d021 200f f000     ..7L .....!.. ..
    bfd8:	f83b 2280 8062 4833 8801 0489 d5fc 8841     ;.."b.3H......A.
    bfe8:	b2c9 2908 d1f8 2101 80c1 8803 0adb 07db     ...)...!........
    bff8:	0fdb d1fa 2307 8043 8803 049b d5fc 8843     .....#C.......C.
    c008:	80c1 8901 08c9 07c9 0fc9 d1fa 80a2 2001     ............... 
    c018:	bd10 4b25 615a 60d9 6118 2001 4924 03c0     ..%KZa.`.a. $I..
    c028:	6008 4770 b510 4b20 609a 6019 6058 f7ff     .`pG.. K.`.`X`..
    c038:	ffc7 2800 d0fb f7ff ff09 f7ff ff93 bd10     ...(............
    c048:	b510 f000 f809 bd10 06c1 0ec9 2001 4088     ............. .@
    c058:	4917 3180 6008 4770 b570 2301 4c12 4811     .I.1.`pGp..#.L.H
    c068:	e00a 8841 80c3 6922 7011 68e1 1c52 1e49     ..A..."i.p.hR.I.
    c078:	6122 60e1 2900 d004 8801 0489 0fc9 d1f0     "a.`.)..........
    c088:	bd70 200f f7ff ffe0 6961 2900 d0f8 2000     p.. ....ai.)... 
    c098:	4e03 2580 6160 8075 6120 4788 80b5 bd70     .N.%`au. a.G..p.
    c0a8:	3040 5000 1200 5000 0330 0008 e280 e000     @0.P...P0.......
    c0b8:	e100 e000 e40c e000 b508 2189 2005 0700     ...........!. ..
    c0c8:	8101 2101 4a61 0349 8011 8801 2280 4311     ...!aJI......".C
    c0d8:	8001 8801 0889 0089 8001 485d 8a01 2202     ..........]H..."
    c0e8:	4311 8201 f7ff f8fe f002 f932 f002 f936     .C........2...6.
    c0f8:	2000 4669 e001 8808 1c40 8008 8808 2891     . iF....@......(
    c108:	d3f9 bd08 b508 4953 2000 8008 8048 4a53     ......SI. ..H.SJ
    c118:	4b51 80d3 23ff 33d2 8113 80c8 21c3 8051     QK...#.3.....!Q.
    c128:	4a4f 2108 8011 4669 8008 e003 466a 8811     OJ.!..iF....jF..
    c138:	1c49 8011 4669 8809 2991 d3f7 4669 8008     I...iF...)..iF..
    c148:	e003 466a 8811 1c49 8011 4669 8809 2991     ..jF..I...iF...)
    c158:	d3f7 4669 e001 8808 1c40 8008 8808 2891     ..iF....@......(
    c168:	d3f9 bd08 4a3f 8050 8091 2001 8010 88d0     ....?JP.... ....
    c178:	07c0 d1fc 4770 b5f1 b0ff b0ff b094 ac11     ....pG..........
    c188:	4833 9404 8a00 1ca4 9010 f7ff ff95 4831     3H............1H
    c198:	8801 910f 8841 910e 4930 88ca 920d 890a     ....A...0I......
    c1a8:	920c 88c2 920b 8b40 900a 482f 8840 9009     ......@.../H@...
    c1b8:	8848 4684 f7ff ffa6 2500 462b 21ff a811     H..F.....%+F.!..
    c1c8:	f7ff ffd0 2100 460a 4608 9e04 5c27 5c36     .....!.F.F..'\6\
    c1d8:	407e 07f6 0ff6 408e 4316 1c49 b2c9 b2f2     ~@.....@.CI.....
    c1e8:	2908 d106 a9ff 6cc9 554a 1c6d 2100 b2ad     .).....lJUm..!..
    c1f8:	460a 3010 26ff b280 00b6 42b0 d9e5 1c5b     .F.0.&.....B..[.
    c208:	b29b 2b02 d3da 4912 9810 8208 4914 2000     ...+...I.....I. 
    c218:	8008 4810 990f 8001 990e 8041 490f 9a0d     ...H......A..I..
    c228:	80ca 9a0c 810a 9a0b 80c2 9a0a 8342 4a0e     ............B..J
    c238:	9809 8050 4660 8048 2005 0700 8801 2280     ..P.`FH.. ....."
    c248:	4391 8001 b07f b07f b015 bdf0 0200 4000     .C.............@
    c258:	30e0 5000 2400 5000 8080 0000 2860 5000     .0.P.$.P....`(.P
    c268:	2020 5000 3500 5000 2600 5000 b570 4616       .P.5.P.&.Pp..F
    c278:	460c 4605 2801 d10f 2206 4917 4817 f002     .F.F.(...".I.H..
    c288:	f873 2800 d008 2206 4914 4630 f002 f842     s..(...".I0F..B.
    c298:	2006 7020 2000 bd70 4632 4621 4628 f002     .  p. p.2F!F(F..
    c2a8:	f869 bd70 b570 480e 490e 05c4 8822 2580     i.p.p..H.I.."..%
    c2b8:	432a 8022 4a0c 8953 071b d401 1e40 d2fa     *C"..JS.....@...
    c2c8:	4a0a 2001 6010 2206 4804 f002 f823 8820     .J. .`.".H..#. .
    c2d8:	43a8 8020 bd70 0000 3ca8 0003 8021 2000     .C .p....<..!.. 
    c2e8:	86a0 0001 7fd4 0004 0020 5000 8000 4000     ........ ..P...@
    c2f8:	b5f0 4e8a b085 6d70 2500 9001 f7fe fda3     ...N..pm.%......
    c308:	2800 d10e f002 f83c 2800 d00a 4c84 2501     .(....<..(...L.%
    c318:	78e0 2800 d005 2005 0700 8a80 07c0 d001     .x.(... ........
    c328:	2504 e098 f001 ff72 2800 d150 7920 2800     .%....r..(P. y.(
    c338:	d101 6d30 9001 487b 6980 2800 d001 6d70     ..0m..{H.i.(..pm
    c348:	9001 78a1 a801 9e01 f002 f820 2800 d03e     ...x...... ..(>.
    c358:	4873 7881 a801 f001 ff6b 2800 d07b f000     sH.x....k..({...
    c368:	fe99 2800 d077 2700 486f 9601 f7fe fcb3     ...(w..'oH......
    c378:	4606 486e 2401 07a4 6a21 4281 d202 6a21     .FnH.$..!j.B..!j
    c388:	29c8 d8f9 6a20 28c8 d800 2701 4864 7881     .).. j.(...'dH.x
    c398:	a801 f001 fffb 2800 d017 4861 7881 a801     .......(..aH.x..
    c3a8:	f001 ff46 2800 d010 9801 2800 d003 2f00     ..F..(.....(.../
    c3b8:	d001 1e40 9001 485e f7fe fc8d 4a5d 4601     ..@...^H....]J.F
    c3c8:	7812 3112 2a02 d003 e003 f000 ffe6 e042     .x.1.*........B.
    c3d8:	3111 4a59 8952 0592 d500 be00 6be3 1b82     .1YJR........k..
    c3e8:	0a9b 029b 4313 63e3 6be2 4b54 0289 401a     .....C.c.kTK...@
    c3f8:	430a 63e2 6be1 02c9 0ac9 0540 4301 63e1     .C.c.k....@..C.c
    c408:	9801 2504 2800 d001 1d00 9001 f001 fe47     ...%.(........G.
    c418:	494b 6809 f001 fdbc f001 fe48 4949 9000     KI.h......H.II..
    c428:	6008 493f 7909 2900 d000 2101 f001 ffb4     .`?I.y.)...!....
    c438:	4845 6ac0 4780 6b20 0400 0fc0 d0fb 4843     EH.j.G k......CH
    c448:	6801 05c9 d5fc f001 ffad 2005 0700 8901     .h......... ....
    c458:	2280 4391 8101 4628 b005 bdf0 b5fe 4605     .".C..(F.......F
    c468:	2601 4668 7006 2106 482d f001 ffa1 4938     .&hF.p.!-H....8I
    c478:	2004 7008 f001 ffa2 4c36 6de0 6da1 b282     . .p....6L.m.m..
    c488:	2000 f001 ffa1 6e60 6e21 b282 2001 f001     . ....`n!n... ..
    c498:	ff9b 6ee0 6ea1 b282 2002 f001 ff95 6d60     ...n.n... ....`m
    c4a8:	6d21 b282 2003 f001 ff8f 4827 f001 ff92     !m... ....'H....
    c4b8:	4829 6b41 221f 0412 4391 2203 0412 1889     )HAk."...C."....
    c4c8:	6341 f000 f84d aa01 4669 2011 f001 ff88     Ac..M...iF. ....
    c4d8:	2800 d111 4668 7900 2800 d00d 4c10 aa02     .(..hF.y.(...L..
    c4e8:	70e6 4669 2012 f001 ff7b 2800 d104 4668     .piF. ..{..(..hF
    c4f8:	7a00 2800 d000 7120 2d00 d002 4628 f000     .z.(.. q.-..(F..
    c508:	f864 4916 2000 7008 bdfe b510 2001 f001     d..I. .p..... ..
    c518:	ff6d f001 ff71 f000 fde5 bd10 0260 2000     m...q.......`.. 
    c528:	07b2 0008 0750 0008 0b54 0000 0226 0000     ....P...T...&...
    c538:	0d1d 0000 0378 0008 0020 5000 03ff ffe0     ....x... ..P....
    c548:	8018 2000 8028 2000 0808 0008 0200 4000     ... (.. .......@
    c558:	07b1 0008 0160 2000 0040 4000 07b0 0008     ....`.. @..@....
    c568:	b57c f001 ff4f 2000 f001 ff52 f000 fa35     |...O.. ..R...5.
    c578:	2000 f001 ff53 f001 ff57 f001 ff5b f001     . ..S...W...[...
    c588:	ff5f 2004 4669 7108 466a a901 2031 f001     _.. iF.qjF..1 ..
    c598:	ff27 49e5 2800 d002 2000 6108 bd7c 4668     '..I.(... .a|.hF
    c5a8:	78c5 7884 7842 7803 2001 07c0 062d 4328     .x.xBx.x. ..-.(C
    c5b8:	2501 05ed 4328 0424 4320 122c 4320 0212     .%..(C$. C,. C..
    c5c8:	4310 2280 4310 4318 e7e7 b510 4604 48d7     .C.".C.C.....F.H
    c5d8:	4284 d002 48d6 4284 d103 4620 f001 ff36     .B...H.B.. F..6.
    c5e8:	bd10 48d4 2301 6dc0 2200 b281 202d f001     ...H.#.m."..- ..
    c5f8:	fe97 49d1 42cc d101 2101 7001 f001 fe96     ...I.B...!.p....
    c608:	bd10 b570 2501 07ad 6bac 4620 f7fe fb68     ..p..%...k F..h.
    c618:	49ca f001 fe2b 2227 0112 1a51 d100 2101     .I..+.'"..Q....!
    c628:	4ac1 6050 6011 6b28 2108 4388 4308 6328     .JP`.`(k.!.C.C(c
    c638:	48c3 6004 48c3 6800 2800 d002 42a0 d200     .H.`.H.h.(...B..
    c648:	be00 bd70 b5f0 b087 2100 466a 7211 49be     ..p......!jF.r.I
    c658:	680a 2a00 d05e 4611 3140 7c8b 2b00 d059     .h.*^..F@1.|.+Y.
    c668:	4bb4 3b80 2801 d013 8d10 461a 0700 3a80     .K.;.(.....F...:
    c678:	2501 6f12 0ec0 04ed 1940 5a10 466a 0b80     .%.o....@..ZjF..
    c688:	7110 7910 2800 d045 7910 2801 d002 e00d     .q.y.(E..y.(....
    c698:	6cd8 e009 8908 254e 4368 4dac 681a 1940     .l....N%hC.M.h@.
    c6a8:	5a10 7cca 0a00 1a80 466a 7210 7a10 2800     .Z.|....jF.r.z.(
    c6b8:	d029 4aa7 48a6 3a20 7b00 6a95 e005 222e     )..J.H :.{.j..."
    c6c8:	4342 18ac 1c40 0740 0f40 466f 7a3a 1e56     BC..@.@.@.oF:zV.
    c6d8:	723e d2f4 78a2 0654 0e64 713c 793a 06d4     >r...xT.d.<q:y..
    c6e8:	0ee4 753c 699a 232e 4358 4b98 3b46 18c0     ..<u.i.#XC.KF;..
    c6f8:	5a10 463a 06c0 0fc0 7138 7938 2800 d102     .Z:F....8q8y.(..
    c708:	7d10 2800 d006 7d08 2800 d103 7dc8 2208     .}.(...}.(...}."
    c718:	4310 75c8 b007 bdf0 b510 2005 0700 8941     .C.u....... ..A.
    c728:	0789 d008 8941 0889 0089 8141 4989 884a     ....A.....A..IJ.
    c738:	0852 0052 804a 8901 2280 4311 8101 8a01     R.R.J....".C....
    c748:	2204 4391 8201 8a81 0789 d5fc f001 fe84     .".C............
    c758:	2001 0780 6901 0749 d500 be00 6901 0749     . ...iI......iI.
    c768:	d5fc bd10 b5f8 4e7c 88f0 2800 d12d 2001     ......|N...(-.. 
    c778:	80f0 497a 2008 8008 2705 073f 8978 0780     ..zI. ...'?.x...
    c788:	d020 8ab8 0740 d501 f7fe fd40 4d71 8828      ...@.....@.qM(.
    c798:	2180 4308 8028 4c72 20ff 8060 2004 8020     .!.C(.rL. `..  .
    c7a8:	f7fe fd5d 217d 00c9 88e0 88a2 0400 1880     ..].}!..........
    c7b8:	4288 d9f9 2005 8020 88b0 8078 8829 2080     .B...  ...x.).. 
    c7c8:	4381 8029 4967 2010 6008 bdf8 b570 f7fe     .C).gI. .`..p...
    c7d8:	fd51 f7ff ffa1 2600 4c5f 2005 80e6 0700     Q......&_L. ....
    c7e8:	8a41 2280 4391 8241 485c 8901 0849 0049     A..".CA.\H..I.I.
    c7f8:	8101 f000 fdd2 2001 0780 6981 2204 4311     ....... ...i.".C
    c808:	6181 f7ff fe82 4957 2010 3180 2501 6008     .a....WI. .1.%.`
    c818:	f001 fe28 f001 fe2c 2014 f7fe f9c4 484d     ..(...,.. ....MH
    c828:	7026 8940 0580 d510 7860 2800 d10d 484e     &p@.....`x.(..NH
    c838:	7065 8800 07c0 d108 2001 f7fe fee1 218b     ep....... .....!
    c848:	0089 4288 d901 2002 7060 bd70 b510 f001     ...B... `pp.....
    c858:	fe15 f000 f861 4940 2001 7008 bd10 b510     ....a.@I. .p....
    c868:	2001 0780 8a00 0600 d504 f000 f855 2014     . ..........U.. 
    c878:	f7fe f999 bd10 b510 2001 f7ff fee3 f001     ......... ......
    c888:	fe03 bd10 b510 2401 07a4 8a20 0700 d518     .......$.. .....
    c898:	2002 f7ff fed7 f001 fdfd 6820 0040 0840     . ........ h@.@.
    c8a8:	0061 4308 6020 6820 0fc0 d1fc 481e 3080     a..C ` h.....H.0
    c8b8:	6801 0609 0e09 d001 2101 6001 4926 2004     .h.......!.`&I. 
    c8c8:	7008 bd10 b570 4829 8800 0685 4828 0ead     .p..p.)H....(H..
    c8d8:	6844 4818 3880 6f00 7800 2800 d102 4628     Dh.H.8.o.x.(..(F
    c8e8:	f001 fdde 4823 8900 4e1b 05c0 d507 0620     ....#H...N.... .
    c8f8:	d50b 07e0 d009 4628 f001 fdd8 e003 0620     ......(F...... .
    c908:	d503 07e0 d001 2003 7030 0420 d503 05e0     ....... 0p .....
    c918:	d501 2002 7030 bd70 b510 490f 2001 7088     ... 0pp....I. .p
    c928:	f001 fdca bd10 0000 0040 4000 a5a5 a5a5     ........@..@....
    c938:	c3c3 c3c3 0260 2000 0d0e 0d0d 0271 0000     ....`.. ....q...
    c948:	802c 2000 8028 2000 04dc 0008 004a 0008     ,.. (.. ....J...
    c958:	049c 0008 0020 5000 8030 2000 3300 5000     .... ..P0.. .3.P
    c968:	1600 5000 e200 e000 1500 5000 2000 5000     ...P.......P. .P
    c978:	0200 4000 2c00 5000 48f9 6c40 4700 b570     ...@.,.P.H@l.Gp.
    c988:	2003 f001 fd9f 49f7 2001 7148 4608 3054     . .....I. Hq.FT0
    c998:	4605 f001 fd9d 4604 7900 2802 d008 f001     .F.....F.y.(....
    c9a8:	fd9d 2800 d010 f001 fd9f 2800 d004 e00b     ...(.......(....
    c9b8:	7da0 f001 fc97 e007 2008 f001 fd17 2204     .}....... ....."
    c9c8:	213c 48e9 f001 fd96 4620 f001 fd99 6828     <!.H.... F....(h
    c9d8:	2800 d001 f000 fcec bd70 b510 4ce1 49e3     .(......p....L.I
    c9e8:	6020 203c f001 fd92 2100 203c f001 fc8c      `< .....!< ....
    c9f8:	f000 fcd3 4620 3054 f001 fd8e 2000 60e0     .... FT0..... .`
    ca08:	200a 71a0 49da 2003 f001 fd8c bd10 b510     . .q.I. ........
    ca18:	4604 4601 48d3 3054 f001 fd8a 48d1 7940     .F.F.HT0.....H@y
    ca28:	2801 d102 4620 f000 fcc3 bd10 b570 22ff     .(.. F......p.."
    ca38:	2301 4611 2000 f001 fc73 4cca 4601 79a2     .#.F. ..s..L.F.y
    ca48:	1f40 1c52 71a2 220e 7002 2204 7042 4dc5     @.R..q.".p."Bp.M
    ca58:	79a4 7084 3520 7f6c 7fad 02a4 432c 70c4     .y.p 5l.....,C.p
    ca68:	0a24 7104 2401 7144 3910 2304 43db 710a     $..q.$Dq.9.#.C.q
    ca78:	714b 2006 80c8 4608 f7ff ffc9 bd70 49b9     Kq. ...F....p..I
    ca88:	b500 3120 7fca 2001 2a00 d029 4ab5 7f4b     .. 1... .*)..JK.
    ca98:	4611 3140 3220 7f92 7809 2b05 d049 dc0e     .F@1 2...x.+I...
    caa8:	2b01 d017 2b03 d01e 2b04 d119 0013 f001     .+...+...+......
    cab8:	fc0d 170a 3d3d 173d 173d 1717 173d 2b08     ....===.=...=..+
    cac8:	d03c 2b3f d10c 48a9 302f 1e40 5c10 4281     <.?+...H/0@..\.B
    cad8:	d807 e004 2a06 d011 2a1d d101 e02b 2001     .....*...*..+.. 
    cae8:	bd00 2000 bd00 2a31 d017 dc0a 2a01 d011     ... ..1*.....*..
    caf8:	2a03 d01b 2a08 d01e 2a2d d1f3 2903 d8f0     .*...*..-*...)..
    cb08:	e7ed 2a33 d00c 2a35 d00d 2a6c d00e 2a6d     ..3*..5*..l*..m*
    cb18:	d1e8 e010 2908 d8e4 e7e1 2901 d8e1 e7de     .....).....)....
    cb28:	2907 d8de e7db 29fd d8db e7d8 2900 d1d8     .).....).....)..
    cb38:	e7d5 2a05 d1d6 2902 d8d3 e7d0 488b 3010     ...*...).....H.0
    cb48:	e7c3 4888 b510 3060 7844 2201 7801 2c00     ...H..`0Dx.".x.,
    cb58:	d007 2300 2c01 d008 2c02 d011 2c03 d113     ...#.,...,...,..
    cb68:	e016 2901 d106 7042 e00e 2903 d006 2901     ...)..Bp...)...)
    cb78:	d00a 7043 2004 f001 fce1 bd10 2102 e002     ..Cp. .......!..
    cb88:	290c d107 2103 7041 2004 f001 fc2f bd10     .)...!Ap. ../...
    cb98:	2900 d002 2901 d1ec e7e5 2104 e7f3 4601     .)...).....!...F
    cba8:	b510 2000 22ff 4604 000b f001 fb8f 591f     ... .".F.......Y
    cbb8:	5911 5959 1713 1b59 211d 2723 5929 5959     .YYY..Y..!#')YYY
    cbc8:	2f2d 3733 403b 5943 4a45 594f 5652 0059     -/37;@CYEJOYRVY.
    cbd8:	200a e010 200d 223c 2406 e041 200e 223c     . ... <".$A.. <"
    cbe8:	2410 e03d 2010 e000 2011 223c 2420 e037     .$=.. ... <" $7.
    cbf8:	2012 e02f 2013 223c 2408 e031 2014 e013     . /.. <".$1.. ..
    cc08:	2015 223c 241a e02b 2019 e000 201a 223c     . <".$+.. ... <"
    cc18:	2407 e025 223c 4857 240e e021 201b 223c     .$%.<"WH.$!.. <"
    cc28:	2405 e01d 4853 1c40 223c 2402 e018 4851     .$..SH@.<".$..QH
    cc38:	1c80 e7f9 201c e7d8 2081 00c0 223c 241c     ..... ... ..<".$
    cc48:	e00e 484c 223c 1d00 2412 e009 4849 1d40     ..LH<"...$..IH@.
    cc58:	e7ea 201f 223c 2401 e002 2020 223c 2403     ... <".$..  <".$
    cc68:	4940 4623 3140 7809 4299 d900 460b 0a81     @I#F@1.x.B...F..
    cc78:	f001 fb56 bd10 4601 b510 2000 22ff 4604     ..V....F... .".F
    cc88:	2930 d039 dc0c 000b f001 fb20 5e12 1815     0)9....... ..^..
    cc98:	5e1c 1f5e 2722 312c 5e5e 5e5e 5e5e 5e5a     .^^."',1^^^^^^Z^
    cca8:	3931 000b f001 fb12 2b0b 5030 3350 3b38     19.......+0PP38;
    ccb8:	413e 4744 0050 2003 0280 e022 223c 482e     >ADGP.. ..".<".H
    ccc8:	2488 e041 482c 1c40 e00e 482b 1d80 e006     .$A.,H@...+H....
    ccd8:	4829 223c 1dc0 248c e036 4827 3008 223c     )H<"...$6.'H.0<"
    cce8:	240c e031 4824 1c80 223c 2402 e02c 4822     .$1.$H..<".$,."H
    ccf8:	223c 1cc0 2484 e027 481f 300c e7f4 481e     <"...$'..H.0...H
    cd08:	300d 223c 2408 e01f 481b 300e e001 481a     .0<".$...H.0...H
    cd18:	3011 223c 2406 e017 4817 3012 e00d 4816     .0<".$...H.0...H
    cd28:	3013 e7e1 4814 3014 e7de 4813 300a e7db     .0...H.0...H.0..
    cd38:	4811 300b e7e5 4810 3015 223c 2404 e003     .H.0...H.0<".$..
    cd48:	480d 223c 1d00 2401 4906 4623 3140 7809     .H<"...$.I#F@1.x
    cd58:	4299 d900 460b 0a81 f001 fae2 bd10 0000     .B...F..........
    cd68:	0160 2000 8038 2000 f001 0000 4808 2000     `.. 8.. .....H. 
    cd78:	2a11 2000 0405 0000 0c01 0000 b510 4afd     .*. ...........J
    cd88:	2000 7f54 7f91 7fd2 2a00 d03d 4af9 3220     . T......*=..J 2
    cd98:	7813 2c05 d023 dc07 2c01 d00d 2c03 d1dd     .x.,#....,...,..
    cda8:	4608 f000 f9a3 e7d9 2c08 d029 2c3f d1d5     .F.......,).?,..
    cdb8:	4608 f7ff ff60 e7d1 2906 d003 291d d006     .F..`....)...)..
    cdc8:	2000 e7cb 2001 0280 223c 2104 e002 48ea     . ... ..<".!...H
    cdd8:	223c 2102 428b d800 460b 0a81 e00d 2400     <".!.B...F.....$
    cde8:	22ff 4620 2905 d103 4ce3 223c 1ce4 2002     ." F.)...L<"... 
    cdf8:	4283 d800 4603 0aa1 4620 f001 fa91 e7ad     .B...F.. F......
    ce08:	4608 f7ff fecc e7a9 f7ff fe10 48d9 3810     .F...........H.8
    ce18:	e7a4 b510 48d9 f001 fb5b 4cd6 3c20 64e0     .....H..[..L <.d
    ce28:	2800 d008 49d6 8880 6a49 222a 4350 1808     .(...I..Ij*"PC..
    ce38:	1d00 60e0 e792 48cf 2301 3020 7900 213c     ...`...H.# 0.y<!
    ce48:	0200 1c40 b282 48cc 3014 f001 fa69 2101     ..@....H.0..i..!
    ce58:	7001 f001 fa6b 48c7 3810 64e0 e7e9 b510     .p..k..H.8.d....
    ce68:	49c4 460c 3c20 79a3 7f4a 7f88 1e5b 71a3     .I.F <.yJ...[..q
    ce78:	7fc9 2900 d04d 2a05 d031 dc0e 2a03 d01a     ...)M..*1....*..
    ce88:	2a04 d12c 2400 22ff 0003 f001 fa1f 240a     .*,..$.".......$
    ce98:	1c1a 241e 2420 2424 2422 2a08 d020 2a3f     ...$ $$$"$.* .?*
    cea8:	d11d 2300 22ff 2812 d02d dc1c 2805 d01f     ...#.".(-....(..
    ceb8:	2810 d12b e01e 2300 22ff 2803 d126 2301     .(+....#.".(&..#
    cec8:	e023 2405 e006 2406 e004 2407 e002 2408     #..$...$...$...$
    ced8:	e000 2409 223c 0aa1 4620 f001 fb35 e73d     ...$<".. F..5.=.
    cee8:	f000 f938 e73a 2833 d007 2834 d10e e007     ..8.:.3(..4(....
    cef8:	4ba4 e00a 4ba3 1d1b e007 23c1 011b e004     .K...K.....#....
    cf08:	4ba0 330b e001 4b9f 3311 223c 0a99 4618     .K.3...K.3<"...F
    cf18:	e7e3 f7ff fd8b e721 b510 2830 d038 dc0c     ......!...0(8...
    cf28:	0003 f001 f9d3 1812 1915 181d 2118 2925     .............!%)
    cf38:	312d 1818 1818 1818 1855 3831 0003 f001     -1......U.18....
    cf48:	f9c5 2b0b 0a47 2f0a 3733 3b37 433f 000a     ...+G../377;?C..
    cf58:	4608 f000 fb51 e701 4608 f000 fb5c e6fd     .F..Q....F..\...
    cf68:	4608 f000 fb6e e6f9 4608 f000 fb73 e6f5     .F..n....F..s...
    cf78:	4608 f000 fb89 e6f1 4608 f000 fba6 e6ed     .F.......F......
    cf88:	4608 f000 fbb3 e6e9 4608 f000 fbb8 e6e5     .F.......F......
    cf98:	4608 f000 fbcc e6e1 4608 f000 fbcc e6dd     .F.......F......
    cfa8:	4608 f000 fbcc e6d9 4608 f000 fbcc e6d5     .F.......F......
    cfb8:	4608 f000 fbcc e6d1 4608 f000 fbcc e6cd     .F.......F......
    cfc8:	4608 f000 fbcc e6c9 4608 f000 fbdc e6c5     .F.......F......
    cfd8:	4608 f000 fa51 e6c1 b570 4a66 4601 4615     .F..Q...p.fJ.F.F
    cfe8:	3d20 79ac 7f53 7f90 1e64 71ac 7fd2 2a00      =.yS...d..q...*
    cff8:	d016 2b05 d02b dc0d 2b01 d012 2b03 d10f     ...++....+...+..
    d008:	2831 d018 dc11 2801 d015 2808 d009 282d     1(.....(...(..-(
    d018:	d106 e006 2b08 d01d 2b3f d101 f7ff ff7c     .....+..?+....|.
    d028:	bd70 4608 f000 fa2c bd70 2833 d007 2835     p..F..,.p.3(..5(
    d038:	d009 286d d1f8 4608 f000 fa1e bd70 4608     ..m(...F....p..F
    d048:	f000 fa3d bd70 4608 f000 fa47 bd70 2805     ..=.p..F..G.p..(
    d058:	d1fc e7e6 f000 f8bb bd70 b510 4c45 230c     ........p...EL.#
    d068:	3420 7920 223c 0200 1c40 b281 4842 300a      4 y<"..@...BH.0
    d078:	f001 f956 88a1 8001 79a1 7081 8921 291b     ..V......y.p!..)
    d088:	d900 211b 8081 493b 3920 6cc9 6081 f001     ...!..;I 9.l.`..
    d098:	f94d e663 483c 6c80 4700 4836 b510 3820     M.c.<H.l.G6H.. 8
    d0a8:	7941 2400 2901 d107 7900 2800 d001 2803     Ay.$.)...y.(...(
    d0b8:	d102 f000 f9a3 4604 f001 fa16 2800 d00b     .......F.....(..
    d0c8:	4832 2c00 d003 213c f001 fa44 e006 2202     2H.,..<!..D...."
    d0d8:	213c f001 fa0f e003 2c00 d001 2001 e63d     <!.......,... =.
    d0e8:	2000 e63b b510 f000 f984 e637 4601 2000     . ;.......7..F. 
    d0f8:	b510 22ff 4603 2931 d019 dc06 2901 d009     ...".F1).....)..
    d108:	2908 d00a 292d d11b e00c 2933 d013 2935     .)..-)....3)..5)
    d118:	d116 e012 223c 2308 e012 4817 223c 1c40     ....<".#...H<"@.
    d128:	2302 e00d 4814 223c 1c80 2304 e008 2002     .#...H<"...#... 
    d138:	223c 2301 e004 2003 e7ec 2004 223c 2322     <".#... ... <""#
    d148:	490c 3120 7809 4299 d900 460b 0a81 f001     .I 1.x.B...F....
    d158:	f8e7 e603 4601 b510 2000 22ff 290f d028     .....F... .".)(.
    d168:	dc16 2902 d01d 2903 d01d 2907 d01d 290e     ...)...)...)...)
    d178:	d129 e01c 8058 2000 0401 0000 037c 0008     )...X.. ....|...
    d188:	047c 0008 0c06 0000 0160 2000 f001 0000     |.......`.. ....
    d198:	2910 d010 2918 d010 291c d010 291f d112     .)...)...)...)..
    d1a8:	e00f 200b e00e 200c e00c 200f e00a 2016     ... ... ... ... 
    d1b8:	e008 2017 e006 2018 e004 201d e002 201e     ... ... ... ... 
    d1c8:	e000 2021 223c 0a81 f001 f9be e5c6 b510     ..! <"..........
    d1d8:	0003 f001 f87b 141f 1411 1414 1911 1114     ....{...........
    d1e8:	1111 111d 1421 1414 1111 1125 1515 1411     ....!.....%.....
    d1f8:	1529 1415 1111 0014 4608 f000 f93d e5ad     )........F..=...
    d208:	4608 f000 f93d e5a9 4608 f000 f97f e5a5     .F..=....F......
    d218:	4608 f000 f97f e5a1 4608 f000 f98d e59d     .F.......F......
    d228:	4608 f000 f9ab e599 4608 f000 f9c6 e595     .F.......F......
    d238:	b510 4881 2301 6dc0 2200 b281 202d f001     ...H.#.m."..- ..
    d248:	f86f 2400 7004 f001 f871 487c 7044 f000     o..$.p..q.|HDp..
    d258:	f8da 2004 f001 f972 bd10 b5f8 2801 d043     ... ..r......(C.
    d268:	4e76 2701 3e60 4631 4608 7932 3008 79c9     vN.'`>1F.F2y.0.y
    d278:	2a00 d010 4635 3520 2a01 d01b 2a02 d05d     .*..5F 5.*...*].
    d288:	2a03 d107 f7ff fc5d 486c 7840 2804 d068     .*....].lH@x.(h.
    d298:	f000 f8b9 bdf8 2901 d001 2902 d124 4a68     .......)...)$.hJ
    d2a8:	5c51 7137 6832 6813 4a66 4798 2004 f001     Q\7q2h.hfJ.G. ..
    d2b8:	f89d bdf8 4c61 3c60 8920 3440 2901 d016     ....aL`< .@4.)..
    d2c8:	2902 d1f6 7a71 0500 0909 71a1 0d00 80a0     .)..qz.....q....
    d2d8:	4620 3840 7ac1 7a82 0208 4310 8120 f7ff      F@8.z.z...C ...
    d2e8:	fd98 8920 281b d925 f7ff ffa2 bdf8 2100     .. ..(%........!
    d2f8:	4a53 77e9 1d92 004b 5ad3 4283 d101 77ef     SJ.w..K..Z.B...w
    d308:	e002 1c49 2947 d3f6 0a81 7769 77a8 7ab0     ..I.G)....iw.w.z
    d318:	7020 f7ff fbb4 2800 d0e6 7820 2800 d006      p.....(.. x.(..
    d328:	f7ff fd2c 60f0 2800 d0e0 7820 e003 f7ff     ..,..`.(.. x....
    d338:	fd96 e010 b2c0 f000 f870 bdf8 483f 3860     ........p...?H`8
    d348:	68c0 2901 d00a 2902 d1f7 493c 3950 4288     .h.)...)..<IP9.B
    d358:	d001 f7ff fe82 f000 f809 bdf8 f7ff fe3c     ..............<.
    d368:	e7f9 77ef 2003 77a8 7768 e7e0 4833 b510     ...w. .whw..3H..
    d378:	2100 3860 7101 6801 4a32 680b 2101 1dc0     .!`8.q.h2J.h.!..
    d388:	4798 2004 f001 f8da bd10 b510 2003 f001     .G. ......... ..
    d398:	f8e7 2002 f001 f8d2 bd10 b510 4c27 3c60     ... ........'L`<
    d3a8:	6820 6880 4780 2001 7160 f7ff ffdf bd10      h.h.G. `q......
    d3b8:	b570 4604 7902 2105 3010 5661 2a02 d106     p..F.y.!.0aV.*..
    d3c8:	4a21 7980 6a92 232e 4358 1810 3008 180d     !J.y.j.#XC...0..
    d3d8:	2002 f001 f80b 1e68 7921 4a18 7001 2100     . ....h.!y.J.p.!
    d3e8:	3a60 7151 6812 88e1 6853 4a18 1c49 4798     `:Qq.h..Sh.JI..G
    d3f8:	bd70 4812 3860 6800 6880 4700 480f 3860     p..H`8.h.h.G.H`8
    d408:	6800 68c0 4700 480d 2103 3860 7101 6800     .h.h.G.H.!`8.q.h
    d418:	4a0c 6803 2101 4809 4718 4601 4807 b430     .J.h.!.H.G.F.H0.
    d428:	2202 3860 7102 68c3 6800 4a06 6804 4618     ."`8.q.h.h.J.h.F
    d438:	46a4 bc30 4760 0000 0260 2000 8098 2000     .F0.`G..`.. ... 
    d448:	4b24 2000 32f3 2000 047c 0008 3423 2000     $K. .2. |...#4. 
    d458:	b510 4604 2306 2201 213c 48fe f000 ff60     ...F.#."<!.H..`.
    d468:	49fd 7f4a 7f89 0292 430a 8002 2102 7081     .IJ......C...!.p
    d478:	8084 f000 ff5b bd10 b510 f000 ff57 bd10     ....[.......W...
    d488:	b5f8 4606 4605 7840 7831 0204 48f3 3d10     ...F.F@x1x...H.=
    d498:	69c0 430c 42a0 d90b 0227 1c7f b2b8 f000     .i.C.B..'.......
    d4a8:	ff0f 2800 d004 816f 4630 f000 ff3f bdf8     ...(..o.0F..?...
    d4b8:	4628 f001 f825 4620 f7ff ffca bdf8 b510     (F..%. F........
    d4c8:	7982 7943 0211 4319 80c1 7902 78c3 0211     .yCy...C...y.x..
    d4d8:	4319 8081 f000 ff2a bd10 b570 7802 e010     .C....*...p..x..
    d4e8:	0093 181b 1e59 781c 780d 0221 4329 0054     ....Y..x.x!.)CT.
    d4f8:	1825 8229 1edb 7859 781b 0209 4319 5301     %.)...Yx.x...C.S
    d508:	1e52 2a00 dcec f000 ff11 bd70 b510 f000     R..*......p.....
    d518:	ff0d bd10 b510 7981 71c1 7941 7181 7902     .......y.qAy.q.y
    d528:	78c3 0211 4319 8081 7882 7843 0211 4319     .x...C...xCx...C
    d538:	8041 f000 fefb bd10 b510 7e02 7dc3 0211     A..........~.}..
    d548:	4319 8301 7d82 7d43 0211 4319 82c1 7d02     .C...}C}...C...}
    d558:	7cc3 0211 4319 8281 7c82 7c43 0211 4319     .|...C...|C|...C
    d568:	8241 7c02 7bc3 0211 4319 8201 7b82 7b43     A..|.{...C...{C{
    d578:	0211 4319 81c1 f000 fed9 bd10 b570 49b7     ...C........p..I
    d588:	4605 4604 8800 69c9 3d10 4288 d20e 0200     .F.F...i.=.B....
    d598:	1c40 b280 f000 fe94 2800 d007 7820 0200     @........(.. x..
    d5a8:	1c40 8168 4620 f000 fec1 bd70 4628 f000     @.h. F....p.(F..
    d5b8:	ffa7 8820 f7ff ff4c bd70 b570 49a7 4605     .. ...L.p.p..I.F
    d5c8:	4604 8800 69c9 3d10 4288 d20e 0200 1c40     .F...i.=.B....@.
    d5d8:	b280 f000 fe75 2800 d007 7820 0200 1c40     ....u..(.. x..@.
    d5e8:	8168 4620 f000 fea2 bd70 4628 f000 ff88     h. F....p.(F....
    d5f8:	8820 f7ff ff2d bd70 b510 7841 7802 0209      ...-.p...Ax.x..
    d608:	4311 78c2 7883 0212 431a 0412 430a 6002     .C.x.x...C...C.`
    d618:	f000 fe8c bd10 b510 4604 7942 1d81 4608     .........FBy...F
    d628:	f000 fe78 7860 7821 0200 4308 78e1 78a2     ..x.`x!x...C.x.x
    d638:	0209 4311 0409 4301 4620 6021 f000 fe76     ...C...C F!`..v.
    d648:	bd10 b510 7841 7802 0209 4311 8001 f000     ....Ax.x...C....
    d658:	fe6d bd10 b510 7982 7943 0212 431a 7a03     m......yCy...C.z
    d668:	79c4 0219 4321 0409 4311 6081 7882 7843     .y..!C...C.`.xCx
    d678:	0212 431a 7903 78c4 0219 4321 0409 4311     ...C.y.x..!C...C
    d688:	6041 f000 fe53 bd10 b530 7945 b0a1 4604     A`..S...0.Ey...F
    d698:	1d81 462a 4668 f000 fe3d 7960 7220 78a0     ..*FhF..=.`y r.x
    d6a8:	7862 0200 4310 7922 78e3 0211 4319 0409     bx...C"y.x...C..
    d6b8:	4301 6061 4620 462a 4669 3009 f000 fe2a     .Ca` F*FiF.0..*.
    d6c8:	4620 f000 fe33 b021 bd30 b510 7941 7201      F..3.!.0...Ay.r
    d6d8:	7882 7843 0212 431a 7903 78c4 0219 4321     .xCx...C.y.x..!C
    d6e8:	0409 4311 6041 f000 fe21 bd10 b510 7841     ...CA`..!.....Ax
    d6f8:	7802 0209 4311 8001 f000 fe18 bd10 b530     .x...C........0.
    d708:	7885 b0a1 4604 1cc1 462a 4668 f000 fe02     .x...F..*FhF....
    d718:	70a5 7860 7821 0200 4308 8020 462a 4669     .p`x!x...C .*FiF
    d728:	1ce0 f000 fdf7 4620 f000 fe00 e7cb b510     ...... F........
    d738:	f000 fdfc bd10 b510 f000 fdf8 bd10 b510     ................
    d748:	f000 fdf4 bd10 b510 f000 fdf0 bd10 b510     ................
    d758:	f000 fdec bd10 b510 f000 fde8 bd10 b510     ................
    d768:	78c1 7883 020a 431a 7941 7903 0209 4319     .x.x...CAy.y...C
    d778:	0409 4311 6041 7841 7802 0209 4311 8001     ...CA`Ax.x...C..
    d788:	f000 fdd4 bd10 b510 f000 fdd0 bd10 b570     ..............p.
    d798:	4b31 4602 3b20 7999 300b 1c49 7199 7b15     1K.F ;.y.0I..q.{
    d7a8:	2100 062d 460c 0e2d d004 2d01 d008 2d03     .!-..F-....-...-
    d7b8:	d10e e018 8911 4a2a 00c9 39ff 3911 e004     ......*J...9.9..
    d7c8:	8911 00ca 4927 1851 4a27 188a 8851 7854     ....'IQ.'J..Q.Tx
    d7d8:	220e 7002 1ce2 7042 799a 7082 1cc0 f000     .".p..Bp.y.p....
    d7e8:	fab5 1d60 bd70 8911 00ca 4920 1851 4a20     ..`.p..... IQ. J
    d7f8:	e7eb b510 4614 4a18 3a20 7993 1c5b 7193     .....F.J :.y[..q
    d808:	230e 72c3 1ce3 7303 7992 7342 300e f000     .#.r...s.yBs.0..
    d818:	fa9d 1d60 bd10 e7ba b510 4604 3010 1c42     ..`........F.0B.
    d828:	8841 4610 f000 fa92 4620 f7ff ffb0 bd10     A..F.... F......
    d838:	b570 4606 3610 4605 1cb4 8a41 4620 f000     p..F.6.F..A. F..
    d848:	fa85 1ce4 88f1 4620 f000 fa80 1ca0 8931     ...... F......1.
    d858:	e010 0000 0421 0000 8058 2000 01e0 2000     ....!...X.. ... 
    d868:	4874 2000 dfa0 ffff 49a4 2000 9f40 ffff     tH. .....I. @...
    d878:	4a5c 2000 f000 fa6a 4628 f7ff ff88 bd70     \J. ..j.(F....p.
    d888:	b570 4606 3610 4605 1c74 8a41 4620 f000     p..F.6.Ft.A. F..
    d898:	fa5d 7930 70a0 4628 f7ff ff79 bd70 b570     ].0y.p(F..y.p.p.
    d8a8:	4606 3610 4605 1c74 8a41 4620 f000 fa4e     .F.6.Ft.A. F..N.
    d8b8:	7930 70a0 1ce4 88f1 4620 f000 fa47 1ca0     0y.p.... F..G...
    d8c8:	8931 f000 fa43 4628 f7ff ff61 bd70 b570     1...C.(F..a.p.p.
    d8d8:	4606 3610 4605 1c74 8a41 4620 f000 fa36     .F.6.Ft.A. F..6.
    d8e8:	7930 70a0 4628 f7ff ff52 bd70 b570 4606     0y.p(F..R.p.p..F
    d8f8:	3610 4605 1c74 8a41 4620 f000 fa27 7930     .6.Ft.A. F..'.0y
    d908:	70a0 4628 f7ff ff43 bd70 b570 4606 3610     .p(F..C.p.p..F.6
    d918:	4604 1c75 8a41 4628 f000 fa18 2000 1cad     .Fu.A.(F..... ..
    d928:	1831 7909 7029 1c40 1c6d 2805 dbf8 4620     1..y)p@.m..(.. F
    d938:	f7ff ff2d bd70 b510 4604 3010 1c42 8841     ..-.p....F.0B.A.
    d948:	4610 f000 fa03 4620 f7ff ff21 bd10 b510     .F.... F..!.....
    d958:	4604 3010 1c42 8841 4610 f000 f9f7 4620     .F.0B.A..F.... F
    d968:	f7ff ff15 bd10 b510 4604 3010 1c42 8841     .........F.0B.A.
    d978:	4610 f000 f9eb 4620 f7ff ff09 bd10 b510     .F.... F........
    d988:	4bf4 2100 799a 1c52 719a 7b02 0612 0e12     .K.!.yR..q.{....
    d998:	d004 2a01 d00a 2a03 d117 e00f 8901 4aee     ...*...*.......J
    d9a8:	00c9 1889 39ff 3941 8e49 e00e 8901 4aeb     .....9A9I......J
    d9b8:	00c9 1889 4aea 1889 8c49 e006 8901 4ae9     .....J..I......J
    d9c8:	00c9 1889 4ae8 1889 8849 240f 72c4 4602     .....J..I..$.r.F
    d9d8:	2404 7304 320b 7c00 7090 1cd0 799a 7002     .$.s.2.|.p...y.p
    d9e8:	1c40 f000 f9b3 2006 bd10 b570 4604 48d9     @...... ..p..F.H
    d9f8:	340b 7981 1d65 1c49 7181 210e 7021 2106     .4.ye.I..q.!!p.!
    da08:	7061 7980 70a0 1ce4 8829 4620 f000 f99e     ap.y.p..). F....
    da18:	1ca4 78a9 7021 1c60 88a9 f000 f997 2008     ...x!p`........ 
    da28:	bd70 b570 4605 3510 1eac 2005 7020 2004     p.p..F.5...  p. 
    da38:	7060 1ce4 8869 4620 f000 f988 7928 70a0     `p..i. F....(y.p
    da48:	2006 bd70 b570 210c 7381 4605 2108 3510     . p.p..!.s.F.!.5
    da58:	73c1 1c6c 8a41 4620 f000 f978 7928 70a0     .sl.A. F..x.(y.p
    da68:	1ce4 88e9 4620 f000 f971 1ca0 8929 f000     .... F..q...)...
    da78:	f96d 200a bd70 b510 2211 7382 2202 73c2     m.. p....".s.".s
    da88:	8a01 3010 f000 f962 2004 bd10 b570 4605     ...0..b.. ..p..F
    da98:	3510 1eac 2008 7020 2004 7060 1ce4 8869     .5...  p. `p..i.
    daa8:	4620 f000 f953 7928 70a0 2006 bd70 b510      F..S.(y.p. p...
    dab8:	2230 7382 2203 73c2 8a41 3011 f000 f946     0".s.".sA..0..F.
    dac8:	2005 bd10 2110 7381 2101 73c1 2003 4770     . ...!.s.!.s. pG
    dad8:	211a 7381 2101 73c1 2003 4770 b5fe 4601     .!.s.!.s. pG...F
    dae8:	310e 7c06 2013 7008 00b0 9001 1c40 1c8d     .1.|. .p....@...
    daf8:	1ccc 7048 2700 e00e 0078 1940 9000 8841     ..Hp.'..x.@...A.
    db08:	4620 f000 f923 9800 1ca4 8881 4620 f000      F..#....... F..
    db18:	f91d 1ca4 1c7f 42b7 dbee 9801 1cc0 bdfe     .......B........
    db28:	223e 7382 4601 2213 310e 73c2 3010 7c80     >".s.F.".1.s.0.|
    db38:	7508 2015 4770 213e 7381 210a 73c1 200c     .u. pG>!.s.!.s. 
    db48:	4770 213e 7381 210c 73c1 200e 4770 b5f0     pG>!.s.!.s. pG..
    db58:	4606 3610 b08d 1eb1 7c40 900b 203e 1c4c     .F.6....@|..> L.
    db68:	7008 2002 1d0d 7020 2700 e03b 2029 4378     .p. .. p.';.) xC
    db78:	1981 2229 4668 1c89 f000 fbcc 4668 7800     ..)"hF......hF.x
    db88:	7028 7820 466a 1c40 7020 4668 7840 7068     (p xjF@. phF@xhp
    db98:	7820 1c40 7020 2000 1cad 1811 7889 7029      x@. p. .....x)p
    dba8:	1c40 1c6d 2806 dbf8 7820 1d80 7020 a808     @.m..(.. x.. p..
    dbb8:	7a00 7a11 4684 7029 7820 1c40 7020 2000     .z.z.F)p x@. p. 
    dbc8:	e003 1813 7a5b 702b 1c40 1c6d 4288 dbf8     ....[z+p@.m..B..
    dbd8:	7820 1840 7020 4660 7028 7820 1c6d 1c40      x@. p`F(p xm.@.
    dbe8:	7020 1c7f 980b 4287 dbc0 7820 b00d 1c80      p.....B.. x....
    dbf8:	bdf0 b570 4604 300e 213e 7001 210d 7041     ..p..F.0>!.p.!Ap
    dc08:	1cc5 8a61 4628 3410 f000 f8a0 1ca8 2100     ..a.(F.4.......!
    dc18:	1862 7912 7002 1c40 1c49 2908 dbf8 89a1     b..y.p@.I..)....
    dc28:	f000 f894 200f bd70 b510 7c41 1c89 b2ca     ..... p...A|....
    dc38:	494e f7ff fdde bd10 b510 7c41 1c89 b2ca     NI........A|....
    dc48:	494a 1c49 f7ff fdd5 bd10 b510 7c41 1c89     JII.........A|..
    dc58:	b2ca 4946 1fc9 f7ff fdcc bd10 b570 4604     ..FI........p..F
    dc68:	4605 3410 8a41 4626 3011 f000 f86f 6870     .F.4A.&F.0..o.ph
    dc78:	70e0 0a01 7121 0c01 7161 0e00 71a0 4628     .p..!q..aq...q(F
    dc88:	f7ff fd85 bd70 b5f8 4604 3411 1e67 4606     ....p....F.4g..F
    dc98:	2500 0068 19c0 8841 4620 f000 f857 1c6d     .%h...A. F..W.m.
    dca8:	b2ed 1ca4 2d04 d3f4 68f8 7020 0a01 7061     .....-...h p..ap
    dcb8:	0c01 70a1 0e00 70e0 4630 f7ff fd68 bdf8     ...p...p0F..h...
    dcc8:	b510 4604 3010 8841 1c40 f000 f83f 4620     ...F.0A.@...?. F
    dcd8:	f7ff fd5d bd10 b570 4604 4605 3410 8a41     ..]...p..F.F.4A.
    dce8:	4626 3011 f000 f832 6870 70e0 0a01 7121     &F.0..2.ph.p..!q
    dcf8:	0c01 7161 0e00 71a0 4628 f7ff fd48 bd70     ..aq...q(F..H.p.
    dd08:	b510 4604 3010 8841 1c40 f000 f81f 4620     ...F.0A.@..... F
    dd18:	f7ff fd3d bd10 b570 4604 4915 7d80 6a89     ..=...p..F.I.}.j
    dd28:	222e 4350 3410 180e 8821 78a0 0509 0300     ."PC.4..!..x....
    dd38:	0d09 4308 b281 1d36 88a5 4630 f000 f806     ...C..6...0F....
    dd48:	1cb0 88a1 f000 f802 1d28 bd70 7001 0a09     ........(.p..p..
    dd58:	7041 4770 8038 2000 4874 2000 49a4 2000     AppG8.. tH. .I. 
    dd68:	df80 ffff 4a5c 2000 9f40 ffff fc08 0000     ....\J. @.......
    dd78:	047c 0008 b5f8 4606 3910 4829 460c 4286     |......F.9)H.F.B
    dd88:	d107 4608 f7ff ffc7 80e0 2002 7120 1f80     ...F.......  q..
    dd98:	e01f 0ab0 2704 00f5 2800 d004 2801 d00d     .....'...(...(..
    dda8:	2803 d117 e01d 481f 3dff 3d11 1828 6841     .(.....H.=.=(.Ah
    ddb8:	4620 4788 80e0 7127 481a e009 481a 182d      F.G..'q.H...H-.
    ddc8:	481a 1828 6841 4620 4788 80e0 4817 7127     .H(.Ah F.G...H'q
    ddd8:	5d40 7160 4816 6dc0 2828 d916 0ab1 d00b     @]`q.H.m((......
    dde8:	e00f 4814 182d 4814 1828 6841 4620 4788     ...H-..H(.Ah F.G
    ddf8:	80e0 7127 4810 e7eb 8921 0589 0d89 2947     ..'q.H..!.....G)
    de08:	d001 2832 d901 2000 bdf8 4620 f7fe fdff     ..2(... .. F....
    de18:	2001 bdf8 b510 2008 f000 fb90 2000 bd10     . ..... ..... ..
    de28:	0422 0000 4874 2000 dfa0 ffff 49a4 2000     "...tH. .....I. 
    de38:	8038 2000 9f40 ffff 4a5c 2000 b5ff 4606     8.. @...\J. ...F
    de48:	7a80 b081 2801 d005 2302 4940 680d 2d00     .z...(...#@I.h.-
    de58:	d002 e006 2300 e7f8 2802 d070 2801 d071     .....#...(p..(q.
    de68:	4d3b 4c3c 88f2 8ba0 88b1 b280 f000 fb7e     ;M<L..........~.
    de78:	9000 69e0 234e 2104 4358 044b 6822 18c0     ...iN#.!XCK."h..
    de88:	5211 69e0 234e 4358 4b34 6822 4932 18c0     .R.iN#XC4K"h2I..
    de98:	5211 69e0 234e 7a71 4358 4b30 0209 3155     .R.iN#qzXC0K..U1
    dea8:	1e9b 6822 18c0 5211 9800 69e2 3040 274e     .."h...R...i@0N'
    deb8:	8841 437a 111b 4f29 4319 1d3f 6823 19d2     A.zC..)O.C?.#h..
    dec8:	5299 69e1 274e 4379 4f24 224b 0152 370c     .R.iN'yC$OK"R..7
    ded8:	6823 19c9 525a 4621 3140 69e2 7b09 274e     #h..ZR!F@1.i.{N'
    dee8:	9b04 437a 0209 4f1d 4319 1cbf 6823 19d2     ..zC...O.C..#h..
    def8:	5299 6823 69e1 244e 4361 4c18 2200 3414     .R#h.iN$aC.L.".4
    df08:	1909 525a 4a16 2196 6311 4915 7a32 3940     ..ZR.J.!.c.I2z@9
    df18:	610a 620d 9904 7641 9902 9800 f000 fb2c     .a.b..Av......,.
    df28:	9803 2800 d003 4601 9800 f000 fb25 9800     ...(...F....%...
    df38:	f000 fb28 9800 b005 bdf0 e000 e002 25ff     ..(............%
    df48:	35f5 e78e 4d02 3dfa e78b 0000 801c 2000     .5...M.=....... 
    df58:	05dc 0000 01e0 2000 8027 0000 000a 0008     ....... '.......
    df68:	00c0 4000 b510 4619 2309 2200 202a f000     ...@...F.#."* ..
    df78:	f9d7 2100 7041 7081 70c1 7101 2260 7142     ...!Ap.p.p.q`"Bq
    df88:	7181 71c1 7201 7001 f000 f9d0 2000 bd10     .q.q.r.p..... ..
    df98:	4602 b570 404a 0fd3 07db 0040 d02d 004a     .Fp.J@....@.-.J.
    dfa8:	d02a 0e01 0e14 0200 0212 1909 0a40 0a52     *...........@.R.
    dfb8:	1884 01e5 4604 4354 0a00 0a12 042e 4350     .....FTC......PC
    dfc8:	19a4 1942 0c20 43c5 18aa 0c12 2501 03ad     ..B. ..C.....%..
    dfd8:	1c52 1952 0412 397f 0424 d000 1c52 4310     R.R....9$...R..C
    dfe8:	d401 0040 1e49 b2c2 060c 09c0 1820 1c40     ..@.I....... .@.
    dff8:	0840 2a80 d002 e003 2000 bd70 0840 0040     @..*..... p.@.@.
    e008:	2900 da00 2000 4318 bd70 b570 4602 404a     .)... .Cp.p..FJ@
    e018:	0fd5 0040 004a 07ed 0840 0852 2800 d014     ..@.J...@.R..(..
    e028:	2a00 d012 0dc4 0dd3 0241 2001 05c0 0252     .*......A.. ..R.
    e038:	0a49 0a52 1ae4 1809 1812 347d 4291 d301     I.R.......}4.B..
    e048:	1c64 e000 0049 2c00 da01 2000 bd70 2300     d...I..,... p..#
    e058:	4291 d301 1a89 4303 0840 0049 2800 d1f7     .B.....C@.I..(..
    e068:	2900 d00a 4291 d102 2101 07c9 e005 4291     .)...B...!.....B
    e078:	d201 2101 e001 2101 43c9 05e0 18c0 1940     ...!...!.C....@.
    e088:	f000 f858 bd70 0042 d005 0042 0e12 4252     ..X.p.B...B...RB
    e098:	428a db01 2000 4770 05c9 1808 4770 b510     .B... pG....pG..
    e0a8:	2200 2396 4611 f000 f84d bd10 0041 0240     .".#.F..M...A.@.
    e0b8:	2201 0a40 05d2 0e09 1880 297f da01 2000     ."@........)... 
    e0c8:	4770 2996 dc03 2296 1a51 40c8 4770 3996     pG.)..."Q..@pG.9
    e0d8:	4088 4770 0fc2 07d2 0040 0840 d00b 0dc1     .@pG....@.@.....
    e0e8:	2307 01db 18c9 0240 0509 0a40 4311 08c2     .#....@...@..C..
    e0f8:	0740 4311 4770 2000 4601 4770 0fcb 07db     @..CpG. .FpG....
    e108:	0049 b510 0849 4602 430a d007 0d0a 2407     I...I..F.C.....$
    e118:	0309 01e4 0b09 1b12 2a00 dc01 2000 bd10     .........*... ..
    e128:	00c9 0f44 430c 00c1 18e0 05d2 1880 f000     ..D..C..........
    e138:	f801 bd10 2900 da04 1c40 0049 d101 0840     .....)..@.I...@.
    e148:	0040 4770 b470 2400 0c05 d105 2410 0400     @.pGp..$.....$..
    e158:	d102 2900 d021 2411 0e05 d101 0200 3408     ...)!..$.......4
    e168:	0f05 d101 0100 1d24 0f85 d101 0080 1ca4     ......$.........
    e178:	2800 db01 0040 1c64 2900 d008 2520 1b2e     .(..@.d..).. %..
    e188:	460d 40f5 40a1 d000 2101 4329 4308 0601     .F.@.@...!)C.C..
    e198:	1b1b 0a00 1ddb d502 2000 bc70 4770 05db     ......... p.pG..
    e1a8:	1818 1880 2900 daf8 1c40 0049 d1f5 bc70     .....)..@.I...p.
    e1b8:	0840 0040 4770 0000 4c06 2501 4e06 e005     @.@.pG...L.%.N..
    e1c8:	68e3 cc07 432b 3c0c 4798 3410 42b4 d3f7     .h..+C.<.G.4.B..
    e1d8:	f7fc f8f6 4bd0 2000 4c00 2000 b403 4801     .....K. .L. ...H
    e1e8:	9001 bd01 1b9d 0002 b403 4801 9001 bd01     ...........H....
    e1f8:	29df 0003 b403 4801 9001 bd01 396f 0003     .).....H....o9..
    e208:	b403 4801 9001 bd01 8d21 0002 b403 4801     ...H....!......H
    e218:	9001 bd01 2bf9 0003 b403 4801 9001 bd01     .....+.....H....
    e228:	1ebd 0003 b403 4801 9001 bd01 2c01 0003     .......H.....,..
    e238:	b403 4801 9001 bd01 657f 0002 b403 4801     ...H.....e.....H
    e248:	9001 bd01 301b 0003 b403 4801 9001 bd01     .....0.....H....
    e258:	306b 0003 b403 4801 9001 bd01 1f8f 0003     k0.....H........
    e268:	b403 4801 9001 bd01 1b7b 0002 b403 4801     ...H....{......H
    e278:	9001 bd01 3907 0003 b403 4801 9001 bd01     .....9.....H....
    e288:	39f5 0003 b403 4801 9001 bd01 2d67 0003     .9.....H....g-..
    e298:	b403 4801 9001 bd01 8cb1 0002 b403 4801     ...H...........H
    e2a8:	9001 bd01 8cab 0002 b403 4801 9001 bd01     ...........H....
    e2b8:	89df 0002 b403 4801 9001 bd01 8c59 0002     .......H....Y...
    e2c8:	b403 4801 9001 bd01 24ad 0003 b403 4801     ...H.....$.....H
    e2d8:	9001 bd01 3c6f 0003 b403 4801 9001 bd01     ....o<.....H....
    e2e8:	7a43 0002 b403 4801 9001 bd01 1d15 0002     Cz.....H........
    e2f8:	b403 4801 9001 bd01 1fcd 0003 b403 4801     ...H...........H
    e308:	9001 bd01 39b3 0003 b403 4801 9001 bd01     .....9.....H....
    e318:	2429 0003 b403 4801 9001 bd01 3981 0003     )$.....H.....9..
    e328:	b403 4801 9001 bd01 217d 0003 b403 4801     ...H....}!.....H
    e338:	9001 bd01 21ad 0003 b403 4801 9001 bd01     .....!.....H....
    e348:	7da1 0002 b403 4801 9001 bd01 3bf1 0003     .}.....H.....;..
    e358:	b403 4801 9001 bd01 8c0b 0002 b403 4801     ...H...........H
    e368:	9001 bd01 8b39 0002 b403 4801 9001 bd01     ....9......H....
    e378:	39d9 0003 b403 4801 9001 bd01 27e7 0003     .9.....H.....'..
    e388:	b403 4801 9001 bd01 1e2d 0003 b403 4801     ...H....-......H
    e398:	9001 bd01 272d 0003 b403 4801 9001 bd01     ....-'.....H....
    e3a8:	651b 0002 b403 4801 9001 bd01 2a45 0003     .e.....H....E*..
    e3b8:	b403 4801 9001 bd01 39b3 0003 b403 4801     ...H.....9.....H
    e3c8:	9001 bd01 1dc1 0003 b403 4801 9001 bd01     ...........H....
    e3d8:	1f45 0003 b403 4801 9001 bd01 2af5 0003     E......H.....*..
    e3e8:	b403 4801 9001 bd01 27e1 0003 b403 4801     ...H.....'.....H
    e3f8:	9001 bd01 2cef 0003 b403 4801 9001 bd01     .....,.....H....
    e408:	6543 0002 b403 4801 9001 bd01 1c55 0002     Ce.....H....U...
    e418:	b403 4801 9001 bd01 1c29 0002 b403 4801     ...H....)......H
    e428:	9001 bd01 4581 0002 b403 4801 9001 bd01     .....E.....H....
    e438:	23d1 0002 b403 4801 9001 bd01 66f5 0002     .#.....H.....f..
    e448:	b403 4801 9001 bd01 1e55 0002 b403 4801     ...H....U......H
    e458:	9001 bd01 1e69 0002 b403 4801 9001 bd01     ....i......H....
    e468:	2a9d 0003 b403 4801 9001 bd01 1bed 0002     .*.....H........
    e478:	b403 4801 9001 bd01 2afb 0003 b403 4801     ...H.....*.....H
    e488:	9001 bd01 2f45 0003 b403 4801 9001 bd01     ....E/.....H....
    e498:	626f 0002 b403 4801 9001 bd01 625f 0002     ob.....H...._b..
    e4a8:	b403 4801 9001 bd01 8a19 0002 b403 4801     ...H...........H
    e4b8:	9001 bd01 8ce7 0002 b403 4801 9001 bd01     ...........H....
    e4c8:	624f 0002 b403 4801 9001 bd01 1e91 0003     Ob.....H........
    e4d8:	b403 4801 9001 bd01 1dd3 0002 b403 4801     ...H...........H
    e4e8:	9001 bd01 2d77 0003 b403 4801 9001 bd01     ....w-.....H....
    e4f8:	2d7f 0003 b403 4801 9001 bd01 261f 0003     .-.....H.....&..
    e508:	b403 4801 9001 bd01 2201 0003 b403 4801     ...H.....".....H
    e518:	9001 bd01 236b 0003 b403 4801 9001 bd01     ....k#.....H....
    e528:	1d39 0002 b403 4801 9001 bd01 1e51 0003     9......H....Q...
    e538:	b403 4801 9001 bd01 1d43 0002 b403 4801     ...H....C......H
    e548:	9001 bd01 2d25 0003 b403 4801 9001 bd01     ....%-.....H....
    e558:	21d9 0003 b403 4801 9001 bd01 26b1 0003     .!.....H.....&..
    e568:	b403 4801 9001 bd01 1e65 0003 b403 4801     ...H....e......H
    e578:	9001 bd01 61ef 0002 b403 4801 9001 bd01     .....a.....H....
    e588:	5053 0002 b403 4801 9001 bd01 502d 0002     SP.....H....-P..
    e598:	b5f8 0c04 b28b 4626 b282 435e 0c0d 4610     ......&F..^C...F
    e5a8:	0c37 4358 0436 1980 2100 4179 4616 436e     7.XC6....!yA.FnC
    e5b8:	0c37 0436 1980 4179 4626 436e 1989 bdf8     7.6...yA&FnC....
    e5c8:	e002 c808 1f12 c108 2a00 d1fa 4770 4770     .........*..pGpG
    e5d8:	2000 e001 c101 1f12 2a00 d1fb 4770 0000     . .......*..pG..
    e5e8:	4901 6048 4770 0000 0328 0008 0101 0a00     .IH`pG..(.......
    e5f8:	2804 040a 0302 00aa 0355 002a 01a0 ffff     .(......U.*.....
    e608:	012c 0000 0e09 2000 0e0f 2000 0e87 2000     ,...... ... ... 
    e618:	0ead 2000 000a 0000 727d 0002 000b 0000     ... ....}r......
    e628:	7793 0002 000c 0000 76f3 0002 000d 0000     .w.......v......
    e638:	7299 0002 000e 0000 72cb 0002 000f 0000     .r.......r......
    e648:	771b 0002 0010 0000 72f5 0002 0012 0000     .w.......r......
    e658:	7337 0002 0011 0000 737d 0002 0013 0000     7s......}s......
    e668:	73a7 0002 0014 0000 73d1 0002 0015 0000     .s.......s......
    e678:	7603 0002 0016 0000 7635 0002 001b 0000     .v......5v......
    e688:	7417 0002 004d 0000 768f 0002 0017 0000     .t..M....v......
    e698:	7749 0002 0018 0000 7533 0002 0019 0000     Iw......3u......
    e6a8:	7577 0002 001a 0000 75bd 0002 001c 0000     wu.......u......
    e6b8:	77b5 0002 001d 0000 77d5 0002 001e 0000     .w.......w......
    e6c8:	776b 0002 001f 0000 7493 0002 0020 0000     kw.......t.. ...
    e6d8:	74e3 0002 0021 0000 781b 0002 0049 0000     .t..!....x..I...
    e6e8:	7859 0002 0800 0000 0fed 2000 0001 0000     Yx......... ....
    e6f8:	7865 0002 0009 0000 787d 0002 0005 0000     ex......}x......
    e708:	78a7 0002 0006 0000 78d1 0002 0002 0000     .x.......x......
    e718:	7935 0002 0007 0000 78f9 0002 0000 0000     5y.......x......
    e728:	7923 0002 0003 0000 7995 0002 0004 0000     #y.......y......
    e738:	79b7 0002 0008 0000 7a21 0002 004c 0000     .y......!z..L...
    e748:	7ba9 0002 46ac 2000 0026 0000 41c4 0003     .{...F. &....A..
    e758:	47dc 2000 05ac 0008 0006 0001 3ffd 2000     .G. .........?. 
    e768:	3ed5 2000 108b 2000 00ff 003f 03ff 01ff     .>. ... ..?.....
    e778:	0000 0000 4bc8 2000 809c 2000 0001 0001     .....K. ... ....
    e788:	0008 0000 0f06 2000 0120 0207 0019 0000     .......  .......
    e798:	0707 050e 0202 0020 121c 0002 0301 0600     ...... .........
    e7a8:	0287 0000 8609 0206 0083 0000 0000 0100     ................
	...
    e7d4:	0000 0802 0006 0500 0203 0202 0308 0000     ................
    e7e4:	01fb 0000 38af 2000 01fb 0c01 38af 2000     .....8. .....8. 
    e7f4:	01fb 0c03 38af 2000 01fb 0c31 38af 2000     .....8. ..1..8. 
    e804:	01fb 0c33 38af 2000 01fb 0c35 38af 2000     ..3..8. ..5..8. 
    e814:	09fb 1001 38c9 2000 41fb 1002 38af 2000     .....8. .A...8. 
    e824:	09fb 1003 38af 2000 08fb 1005 3937 2000     .....8. ....79. 
    e834:	07fb 1009 38af 2000 01fe 0000 3b5d 2000     .....8. ....];. 
    e844:	01fb 2001 38af 2000 04fb 2002 3985 2000     ... .8. ... .9. 
    e854:	09fb 2003 38af 2000 01fb 2005 38af 2000     ... .8. ... .8. 
    e864:	01fb 2006 38af 2000 02fb 2007 38af 2000     ... .8. ... .8. 
    e874:	01fb 2008 38af 2000 01fb 2009 38af 2000     ... .8. ... .8. 
    e884:	01fb 200a 38af 2000 01fb 200b 38af 2000     ... .8. ... .8. 
    e894:	01fb 200c 38af 2000 01fb 200e 38af 2000     ... .8. ... .8. 
    e8a4:	02fb 200f 38af 2000 01fb 2010 38af 2000     ... .8. ... .8. 
    e8b4:	01fb 2011 38af 2000 01fb 2012 38af 2000     ... .8. ... .8. 
    e8c4:	01fb 2014 38af 2000 11fb 2017 38af 2000     ... .8. ... .8. 
    e8d4:	09fb 2018 38af 2000 09fb 201c 38af 2000     ... .8. ... .8. 
    e8e4:	01fb 201d 38af 2000 01fb 201e 38af 2000     ... .8. ... .8. 
    e8f4:	03fb 201f 39ff 2000 00fb 200d 3a17 2000     ... .9. ... .:. 
    e904:	00fe 0000 3bb9 2000 00fe 0000 3be7 2000     .....;. .....;. 
    e914:	00fb 0406 3a17 2000 00fb 041d 3a17 2000     .....:. .....:. 
    e924:	03fb 0c08 38b1 2000 04fb 0c2d 3919 2000     .....8. ..-..9. 
    e934:	04fb 1405 3967 2000 00fe 0000 3abb 2000     ....g9. .....:. 
    e944:	00fe 041d 3add 2000 00fe 0000 3b0f 2000     .....:. .....;. 
    e954:	00fe 0000 3b75 2000 01fe 0000 3b69 2000     ....u;. ....i;. 
    e964:	04fe 2019 3b25 2000 00fe 2019 3b47 2000     ... %;. ... G;. 
    e974:	00fb 2013 3a17 2000 08fb 2015 39a3 2000     ... .:. ... .9. 
    e984:	00fb 2016 3a17 2000 00fb 2019 3a17 2000     ... .:. ... .:. 
    e994:	03fb 201a 39cf 2000 03fb 201b 39e7 2000     ... .9. ... .9. 
    e9a4:	00fe 2013 3bcf 2000 0cfe 2016 3bdb 2000     ... .;. ... .;. 
    e9b4:	0dfe 0000 3c8b 2000 01fb 0000 3a83 2000     .....<. .....:. 
	...
    e9cc:	00fb 0000 3ce3 2000 01fb fc02 38af 2000     .....<. .....8. 
    e9dc:	01fb fc03 38af 2000 00fb 0000 3cd1 2000     .....8. .....<. 
    e9ec:	01fb fc0a 38af 2000 02fb fc05 38af 2000     .....8. .....8. 
    e9fc:	01fb fc06 38af 2000 01fb fc07 38af 2000     .....8. .....8. 
    ea0c:	00fb 0000 3cc1 2000 08fb fc10 38af 2000     .....<. .....8. 
	...
    ea24:	07fb fc39 3d6f 2000 03fb fc3a 3d99 2000     ..9.o=. ..:..=. 
    ea34:	01fb fc11 38af 2000 07fb fc30 3cf5 2000     .....8. ..0..<. 
    ea44:	03fb fc31 3d59 2000 01fb fc32 38af 2000     ..1.Y=. ..2..8. 
    ea54:	01fb fc33 38af 2000 01fb fc34 38af 2000     ..3..8. ..4..8. 
    ea64:	01fb fc35 38af 2000 01fb fc36 38af 2000     ..5..8. ..6..8. 
    ea74:	01fb fc37 38af 2000 01fb fc38 38af 2000     ..7..8. ..8..8. 
    ea84:	01fb fc3b 38af 2000 0dfb fc12 3d1f 2000     ..;..8. .....=. 
    ea94:	0300 0004 0002 0406 041d 0c01 0c03 0c08     ................
    eaa4:	0c2d 0c31 0c33 0c35 0c6c 0c6d 1001 1002     -.1.3.5.l.m.....
    eab4:	1003 1005 1009 1405 2001 2002 2003 2005     ......... . . . 
    eac4:	2006 2007 2008 2009 200a 200b 200c 200d     . . . . . . . . 
    ead4:	200e 200f 2010 2011 2012 2013 2014 2015     . . . . . . . . 
    eae4:	2016 2017 2018 2019 201a 201b 201c 201d     . . . . . . . . 
    eaf4:	201e 201f fc01 fc02 fc03 fc05 fc06 fc07     . . ............
    eb04:	fc08 fc09 fc0a fc11 fc10 fc30 fc31 fc32     ..........0.1.2.
    eb14:	fc33 fc34 fc35 fc36 fc37 fc38 fc39 fc3a     3.4.5.6.7.8.9.:.
    eb24:	fc3b fc12 ffff 0000 3e0d 2000 f001 0000     ;........>. ....
    eb34:	3ead 2000 4bb8 2000 0002 0000 4c04 2000     .>. .K. .....L. 
    eb44:	8000 2000 00a0 0000 4668 2000 4c04 2000     ... ....hF. .L. 
    eb54:	9020 2000 00c4 0000 4668 2000 0908 0008      .. ....hF. ....
    eb64:	28d0 0008 0730 0000 4668 2000 0c80 0000     .(..0...hF. ....

0000eb74 <hciLeEventMask>:
    eb74:	001f 0000 0000 0000                         ........

0000eb7c <hciEvtParseFcnTbl>:
    eb7c:	0000 0000 2d65 0000 2e45 0000 2ea5 0000     ....e-..E.......
    eb8c:	2f51 0000 0000 0000 2f7d 0000 2fdd 0000     Q/......}/.../..
    eb9c:	3039 0000 308d 0000 3129 0000 3185 0000     90...0..)1...1..
    ebac:	31d9 0000 322d 0000 3281 0000 32e1 0000     .1..-2...2...2..
    ebbc:	334d 0000 3385 0000 33d9 0000 33fd 0000     M3...3...3...3..
    ebcc:	3421 0000 3459 0000                         !4..Y4..

0000ebd4 <hciEvtCbackLen>:
    ebd4:	1804 0e0a 1406 0e0a 0e08 0810 0808 100a     ................
    ebe4:	0806 0606 0e16 0000                         ........

0000ebec <battValSvc>:
    ebec:	180f 0000                                   ....

0000ebf0 <battLenSvc>:
    ebf0:	0002 0000                                   ....

0000ebf4 <battValLvlCh>:
    ebf4:	6212 1900 002a 0000                         .b..*...

0000ebfc <battLenLvlCh>:
    ebfc:	0005                                        ..

0000ebfe <battLenLvl>:
    ebfe:	0001                                        ..

0000ec00 <battLenLvlChCcc>:
    ec00:	0002 0000                                   ....

0000ec04 <battList>:
    ec04:	f160 0000 ebec 0000 ebf0 0000 0002 0100     `...............
    ec14:	f15a 0000 ebf4 0000 ebfc 0000 0005 0100     Z...............
    ec24:	f114 0000 0574 1000 ebfe 0000 0001 0104     ....t...........
    ec34:	f154 0000 0578 1000 ec00 0000 0002 1120     T...x......... .

0000ec44 <gapValSvc>:
    ec44:	1800 0000                                   ....

0000ec48 <gapLenSvc>:
    ec48:	0002 0000                                   ....

0000ec4c <gapValDnCh>:
    ec4c:	0302 0000 002a 0000                         ....*...

0000ec54 <gapLenDnCh>:
    ec54:	0005 0000                                   ....

0000ec58 <gapValApCh>:
    ec58:	0502 0100 002a 0000                         ....*...

0000ec60 <gapLenApCh>:
    ec60:	0005                                        ..

0000ec62 <gapLenAp>:
    ec62:	0002                                        ..

0000ec64 <gapList>:
    ec64:	f160 0000 ec44 0000 ec48 0000 0002 0100     `...D...H.......
    ec74:	f15a 0000 ec4c 0000 ec54 0000 0005 0100     Z...L...T.......
    ec84:	f146 0000 021c 1000 0230 1000 0014 110a     F.......0.......
    ec94:	f15a 0000 ec58 0000 ec60 0000 0005 0100     Z...X...`.......
    eca4:	f144 0000 057c 1000 ec62 0000 0002 0100     D...|...b.......

0000ecb4 <gattValSvc>:
    ecb4:	1801 0000                                   ....

0000ecb8 <gattLenSvc>:
    ecb8:	0002 0000                                   ....

0000ecbc <gattValScCh>:
    ecbc:	1220 0500 002a 0000                          ...*...

0000ecc4 <gattLenScCh>:
    ecc4:	0005 0000                                   ....

0000ecc8 <gattValSc>:
    ecc8:	0001 ffff                                   ....

0000eccc <gattLenSc>:
    eccc:	0004                                        ..

0000ecce <gattLenScChCcc>:
    ecce:	0002                                        ..

0000ecd0 <gattList>:
    ecd0:	f160 0000 ecb4 0000 ecb8 0000 0002 0100     `...............
    ece0:	f15a 0000 ecbc 0000 ecc4 0000 0005 0100     Z...............
    ecf0:	f13c 0000 ecc8 0000 eccc 0000 0004 0000     <...............
    ed00:	f154 0000 0580 1000 ecce 0000 0002 1120     T............. .

0000ed10 <disValSvc>:
    ed10:	180a 0000                                   ....

0000ed14 <disLenSvc>:
    ed14:	0002 0000                                   ....

0000ed18 <disValMfrCh>:
    ed18:	3202 2900 002a 0000                         .2.)*...

0000ed20 <disLenMfrCh>:
    ed20:	0005 0000                                   ....

0000ed24 <disUuMfr>:
    ed24:	2a29 0000                                   )*..

0000ed28 <disValMfr>:
    ed28:	6977 6563 746e 6972 2063 6e69 2e63 0000     wicentric inc...

0000ed38 <disLenMfr>:
    ed38:	000e 0000                                   ....

0000ed3c <disValSidCh>:
    ed3c:	3402 2300 002a 0000                         .4.#*...

0000ed44 <disLenSidCh>:
    ed44:	0005 0000                                   ....

0000ed48 <disUuSid>:
    ed48:	2a23 0000                                   #*..

0000ed4c <disLenSid>:
    ed4c:	0008 0000                                   ....

0000ed50 <disValMnCh>:
    ed50:	3602 2400 002a 0000                         .6.$*...

0000ed58 <disLenMnCh>:
    ed58:	0005 0000                                   ....

0000ed5c <disUuMn>:
    ed5c:	2a24 0000                                   $*..

0000ed60 <disValMn>:
    ed60:	6977 6563 746e 6972 2063 6f6d 6564 206c     wicentric model 
    ed70:	756e 006d                                   num.

0000ed74 <disLenMn>:
    ed74:	0013 0000                                   ....

0000ed78 <disValSnCh>:
    ed78:	3802 2500 002a 0000                         .8.%*...

0000ed80 <disLenSnCh>:
    ed80:	0005 0000                                   ....

0000ed84 <disUuSn>:
    ed84:	2a25 0000                                   %*..

0000ed88 <disValSn>:
    ed88:	6977 6563 746e 6972 2063 6573 6972 6c61     wicentric serial
    ed98:	6e20 6d75 0000 0000                          num....

0000eda0 <disLenSn>:
    eda0:	0014 0000                                   ....

0000eda4 <disValFwrCh>:
    eda4:	3a02 2600 002a 0000                         .:.&*...

0000edac <disLenFwrCh>:
    edac:	0005 0000                                   ....

0000edb0 <disUuFwr>:
    edb0:	2a26 0000                                   &*..

0000edb4 <disValFwr>:
    edb4:	6977 6563 746e 6972 2063 7766 7220 7665     wicentric fw rev
    edc4:	0000 0000                                   ....

0000edc8 <disLenFwr>:
    edc8:	0010 0000                                   ....

0000edcc <disValHwrCh>:
    edcc:	3c02 2700 002a 0000                         .<.'*...

0000edd4 <disLenHwrCh>:
    edd4:	0005 0000                                   ....

0000edd8 <disUuHwr>:
    edd8:	2a27 0000                                   '*..

0000eddc <disValHwr>:
    eddc:	6977 6563 746e 6972 2063 7768 7220 7665     wicentric hw rev
    edec:	0000 0000                                   ....

0000edf0 <disLenHwr>:
    edf0:	0010 0000                                   ....

0000edf4 <disValSwrCh>:
    edf4:	3e02 2800 002a 0000                         .>.(*...

0000edfc <disLenSwrCh>:
    edfc:	0005 0000                                   ....

0000ee00 <disUuSwr>:
    ee00:	2a28 0000                                   (*..

0000ee04 <disValSwr>:
    ee04:	6977 6563 746e 6972 2063 7773 7220 7665     wicentric sw rev
    ee14:	0000 0000                                   ....

0000ee18 <disLenSwr>:
    ee18:	0010 0000                                   ....

0000ee1c <disValRcdCh>:
    ee1c:	4002 2a00 002a 0000                         .@.**...

0000ee24 <disLenRcdCh>:
    ee24:	0005 0000                                   ....

0000ee28 <disUuRcd>:
    ee28:	2a2a 0000                                   **..

0000ee2c <disValRcd>:
	...

0000ee34 <disLenRcd>:
    ee34:	0006 0000                                   ....

0000ee38 <disList>:
    ee38:	f160 0000 ed10 0000 ed14 0000 0002 0100     `...............
    ee48:	f15a 0000 ed18 0000 ed20 0000 0005 0100     Z....... .......
    ee58:	ed24 0000 ed28 0000 ed38 0000 000e 0100     $...(...8.......
    ee68:	f15a 0000 ed3c 0000 ed44 0000 0005 0100     Z...<...D.......
    ee78:	ed48 0000 025c 1000 ed4c 0000 0008 0100     H...\...L.......
    ee88:	f15a 0000 ed50 0000 ed58 0000 0005 0100     Z...P...X.......
    ee98:	ed5c 0000 ed60 0000 ed74 0000 0013 0100     \...`...t.......
    eea8:	f15a 0000 ed78 0000 ed80 0000 0005 0100     Z...x...........
    eeb8:	ed84 0000 ed88 0000 eda0 0000 0014 0100     ................
    eec8:	f15a 0000 eda4 0000 edac 0000 0005 0100     Z...............
    eed8:	edb0 0000 edb4 0000 edc8 0000 0010 0100     ................
    eee8:	f15a 0000 edcc 0000 edd4 0000 0005 0100     Z...............
    eef8:	edd8 0000 eddc 0000 edf0 0000 0010 0100     ................
    ef08:	f15a 0000 edf4 0000 edfc 0000 0005 0100     Z...............
    ef18:	ee00 0000 ee04 0000 ee18 0000 0010 0100     ................
    ef28:	f15a 0000 ee1c 0000 ee24 0000 0005 0100     Z.......$.......
    ef38:	ee28 0000 ee2c 0000 ee34 0000 0006 0100     (...,...4.......

0000ef48 <svcHrmUuid>:
    ef48:	2a37 0000                                   7*..

0000ef4c <svcSlUuid>:
    ef4c:	2a38 0000                                   8*..

0000ef50 <svcCpUuid>:
    ef50:	2a39 0000                                   9*..

0000ef54 <hrsValSvc>:
    ef54:	180d 0000                                   ....

0000ef58 <hrsLenSvc>:
    ef58:	0002 0000                                   ....

0000ef5c <hrsValHrmCh>:
    ef5c:	2210 3700 002a 0000                         .".7*...

0000ef64 <hrsLenHrmCh>:
    ef64:	0005 0000                                   ....

0000ef68 <hrsValHrm>:
    ef68:	0000 0000                                   ....

0000ef6c <hrsLenHrm>:
    ef6c:	0001                                        ..

0000ef6e <hrsLenHrmChCcc>:
    ef6e:	0002                                        ..

0000ef70 <hrsValSlCh>:
    ef70:	2502 3800 002a 0000                         .%.8*...

0000ef78 <hrsLenSlCh>:
    ef78:	0005                                        ..

0000ef7a <hrsLenSl>:
    ef7a:	0001                                        ..

0000ef7c <hrsValCpCh>:
    ef7c:	2708 3900 002a 0000                         .'.9*...

0000ef84 <hrsLenCpCh>:
    ef84:	0005 0000                                   ....

0000ef88 <hrsValCp>:
    ef88:	0000 0000                                   ....

0000ef8c <hrsLenCp>:
    ef8c:	0001 0000                                   ....

0000ef90 <hrsList>:
    ef90:	f160 0000 ef54 0000 ef58 0000 0002 0100     `...T...X.......
    efa0:	f15a 0000 ef5c 0000 ef64 0000 0005 0100     Z...\...d.......
    efb0:	ef48 0000 ef68 0000 ef6c 0000 0001 0000     H...h...l.......
    efc0:	f154 0000 0584 1000 ef6e 0000 0002 1120     T.......n..... .
    efd0:	f15a 0000 ef70 0000 ef78 0000 0005 0100     Z...p...x.......
    efe0:	ef4c 0000 0278 1000 ef7a 0000 0001 0100     L...x...z.......
    eff0:	f15a 0000 ef7c 0000 ef84 0000 0005 0100     Z...|...........
    f000:	ef50 0000 ef88 0000 ef8c 0000 0001 1002     P...............

0000f010 <attCfg>:
    f010:	000f 0000 0017 041e                         ........

0000f018 <smpCfg>:
    f018:	0bb8 0703 0310 0000                         ........

0000f020 <calc128Zeros>:
	...

0000f030 <CSWTCH.2>:
    f030:	3600 016e 1b00 00b7 1200 007a 8d80 005b     .6n.......z...[.
    f040:	3e00 0049 0900 003d 50db 0034 c6c0 002d     .>I...=..P4...-.
    f050:	8000 4000 8010 4000 8020 4000 8030 4000     ...@...@ ..@0..@
    f060:	2e2e 2e2f 612f 5f6d 6168 5f6c 7463 6d69     .././am_hal_ctim
    f070:	7265 632e 0000 0000 6142 2064 7463 6d69     er.c....Bad ctim
    f080:	7265 7220 6165 2164 0000 0000               er read!....

0000f08c <attFcnDefault>:
    f08c:	5b89 0000 5b85 0000 5b85 0000 5b87 0000     .[...[...[...[..

0000f09c <attWsfChUuid>:
    f09c:	2a9e                                        .*

0000f09e <attWmChUuid>:
    f09e:	2a9d                                        .*

0000f0a0 <attWssSvcUuid>:
    f0a0:	181d                                        ..

0000f0a2 <attRacpChUuid>:
    f0a2:	2a52                                        R*

0000f0a4 <attGlfChUuid>:
    f0a4:	2a51                                        Q*

0000f0a6 <attPnpChUuid>:
    f0a6:	2a50                                        P*

0000f0a8 <attSiwChUuid>:
    f0a8:	2a4f                                        O*

0000f0aa <attHidPmChUuid>:
    f0aa:	2a4e                                        N*

0000f0ac <attHidRepChUuid>:
    f0ac:	2a4d                                        M*

0000f0ae <attHidcpChUuid>:
    f0ae:	2a4c                                        L*

0000f0b0 <attHidRmChUuid>:
    f0b0:	2a4b                                        K*

0000f0b2 <attHidiChUuid>:
    f0b2:	2a4a                                        J*

0000f0b4 <attHidBkoChUuid>:
    f0b4:	2a32                                        2*

0000f0b6 <attHidBkiChUuid>:
    f0b6:	2a22                                        "*

0000f0b8 <attHidBmiChUuid>:
    f0b8:	2a21                                        !*

0000f0ba <attBpfChUuid>:
    f0ba:	2a49                                        I*

0000f0bc <attSuacChUuid>:
    f0bc:	2a48                                        H*

0000f0be <attSnacChUuid>:
    f0be:	2a47                                        G*

0000f0c0 <attNaChUuid>:
    f0c0:	2a46                                        F*

0000f0c2 <attUasChUuid>:
    f0c2:	2a45                                        E*

0000f0c4 <attAncpChUuid>:
    f0c4:	2a44                                        D*

0000f0c6 <attAcChUuid>:
    f0c6:	2a43                                        C*

0000f0c8 <attAcbmChUuid>:
    f0c8:	2a42                                        B*

0000f0ca <attRsChUuid>:
    f0ca:	2a41                                        A*

0000f0cc <attRcpChUuid>:
    f0cc:	2a40                                        @*

0000f0ce <attAsChUuid>:
    f0ce:	2a3f                                        ?*

0000f0d0 <attNwaChUuid>:
    f0d0:	2a3e                                        >*

0000f0d2 <attStrChUuid>:
    f0d2:	2a3d                                        =*

0000f0d4 <attStcChUuid>:
    f0d4:	2a3c                                        <*

0000f0d6 <attSrChUuid>:
    f0d6:	2a3b                                        ;*

0000f0d8 <attRemChUuid>:
    f0d8:	2a3a                                        :*

0000f0da <attHrcpChUuid>:
    f0da:	2a39                                        9*

0000f0dc <attBslChUuid>:
    f0dc:	2a38                                        8*

0000f0de <attHrmChUuid>:
    f0de:	2a37                                        7*

0000f0e0 <attIcpChUuid>:
    f0e0:	2a36                                        6*

0000f0e2 <attBpmChUuid>:
    f0e2:	2a35                                        5*

0000f0e4 <attGlmcChUuid>:
    f0e4:	2a34                                        4*

0000f0e6 <attHbmiChUuid>:
    f0e6:	2a33                                        3*

0000f0e8 <attVidChUuid>:
    f0e8:	2a31                                        1*

0000f0ea <attP3dChUuid>:
    f0ea:	2a30                                        0*

0000f0ec <attP2dChUuid>:
    f0ec:	2a2f                                        /*

0000f0ee <attLongChUuid>:
    f0ee:	2a2e                                        .*

0000f0f0 <attLatChUuid>:
    f0f0:	2a2d                                        -*

0000f0f2 <attElChUuid>:
    f0f2:	2a2c                                        ,*

0000f0f4 <attCtChUuid>:
    f0f4:	2a2b                                        +*

0000f0f6 <attIeeeChUuid>:
    f0f6:	2a2a                                        **

0000f0f8 <attMfnsChUuid>:
    f0f8:	2a29                                        )*

0000f0fa <attSrsChUuid>:
    f0fa:	2a28                                        (*

0000f0fc <attHrsChUuid>:
    f0fc:	2a27                                        '*

0000f0fe <attFrsChUuid>:
    f0fe:	2a26                                        &*

0000f100 <attSnsChUuid>:
    f100:	2a25                                        %*

0000f102 <attMnsChUuid>:
    f102:	2a24                                        $*

0000f104 <attSidChUuid>:
    f104:	2a23                                        #*

0000f106 <attTfahChUuid>:
    f106:	2a20                                         *

0000f108 <attTcelChUuid>:
    f108:	2a1f                                        .*

0000f10a <attItChUuid>:
    f10a:	2a1e                                        .*

0000f10c <attTtChUuid>:
    f10c:	2a1d                                        .*

0000f10e <attTmChUuid>:
    f10e:	2a1c                                        .*

0000f110 <attBlsChUuid>:
    f110:	2a1b                                        .*

0000f112 <attBpsChUuid>:
    f112:	2a1a                                        .*

0000f114 <attBlChUuid>:
    f114:	2a19                                        .*

0000f116 <attGlmChUuid>:
    f116:	2a18                                        .*

0000f118 <attTusChUuid>:
    f118:	2a17                                        .*

0000f11a <attTucpChUuid>:
    f11a:	2a16                                        .*

0000f11c <attTbChUuid>:
    f11c:	2a15                                        .*

0000f11e <attRtiChUuid>:
    f11e:	2a14                                        .*

0000f120 <attTsChUuid>:
    f120:	2a13                                        .*

0000f122 <attTaChUuid>:
    f122:	2a12                                        .*

0000f124 <attTdstChUuid>:
    f124:	2a11                                        .*

0000f126 <attStzChUuid>:
    f126:	2a10                                        .*

0000f128 <attLtiChUuid>:
    f128:	2a0f                                        .*

0000f12a <attTzChUuid>:
    f12a:	2a0e                                        .*

0000f12c <attDstoChUuid>:
    f12c:	2a0d                                        .*

0000f12e <attEt256ChUuid>:
    f12e:	2a0c                                        .*

0000f130 <attEt100ChUuid>:
    f130:	2a0b                                        .*

0000f132 <attDdtChUuid>:
    f132:	2a0a                                        .*

0000f134 <attDwChUuid>:
    f134:	2a09                                        .*

0000f136 <attDtChUuid>:
    f136:	2a08                                        .*

0000f138 <attTxpChUuid>:
    f138:	2a07                                        .*

0000f13a <attAlChUuid>:
    f13a:	2a06                                        .*

0000f13c <attScChUuid>:
    f13c:	2a05                                        .*

0000f13e <attPpcpChUuid>:
    f13e:	2a04                                        .*

0000f140 <attRaChUuid>:
    f140:	2a03                                        .*

0000f142 <attPpfChUuid>:
    f142:	2a02                                        .*

0000f144 <attApChUuid>:
    f144:	2a01                                        .*

0000f146 <attDnChUuid>:
    f146:	2a00                                        .*

0000f148 <attHidRimUuid>:
    f148:	2908                                        .)

0000f14a <attHidErmUuid>:
    f14a:	2907                                        .)

0000f14c <attValRangeUuid>:
    f14c:	2906                                        .)

0000f14e <attAggFmtUuid>:
    f14e:	2905                                        .)

0000f150 <attChPresFmtUuid>:
    f150:	2904                                        .)

0000f152 <attSrvChCfgUuid>:
    f152:	2903                                        .)

0000f154 <attCliChCfgUuid>:
    f154:	2902                                        .)

0000f156 <attChUserDescUuid>:
    f156:	2901                                        .)

0000f158 <attChExtUuid>:
    f158:	2900                                        .)

0000f15a <attChUuid>:
    f15a:	2803                                        .(

0000f15c <attIncUuid>:
    f15c:	2802                                        .(

0000f15e <attSecSvcUuid>:
    f15e:	2801                                        .(

0000f160 <attPrimSvcUuid>:
    f160:	2800                                        .(

0000f162 <attSpsSvcUuid>:
    f162:	1813                                        ..

0000f164 <attHidSvcUuid>:
    f164:	1812                                        ..

0000f166 <attAnsSvcUuid>:
    f166:	1811                                        ..

0000f168 <attBpsSvcUuid>:
    f168:	1810                                        ..

0000f16a <attBasSvcUuid>:
    f16a:	180f                                        ..

0000f16c <attPassSvcUuid>:
    f16c:	180e                                        ..

0000f16e <attHrsSvcUuid>:
    f16e:	180d                                        ..

0000f170 <attWdsSvcUuid>:
    f170:	180c                                        ..

0000f172 <attNwaSvcUuid>:
    f172:	180b                                        ..

0000f174 <attDisSvcUuid>:
    f174:	180a                                        ..

0000f176 <attHtsSvcUuid>:
    f176:	1809                                        ..

0000f178 <attGlsSvcUuid>:
    f178:	1808                                        ..

0000f17a <attNdcsSvcUuid>:
    f17a:	1807                                        ..

0000f17c <attRtusSvcUuid>:
    f17c:	1806                                        ..

0000f17e <attCtsSvcUuid>:
    f17e:	1805                                        ..

0000f180 <attTpsSvcUuid>:
    f180:	1804                                        ..

0000f182 <attLlsSvcUuid>:
    f182:	1803                                        ..

0000f184 <attIasSvcUuid>:
    f184:	1802                                        ..

0000f186 <attGattSvcUuid>:
    f186:	1801                                        ..

0000f188 <attGapSvcUuid>:
    f188:	1800 0000                                   ....

0000f18c <attcSendReqTbl>:
    f18c:	0000 0000 5dd3 0000 5ef1 0000 5ef1 0000     .....]...^...^..
    f19c:	5ef1 0000 5ca5 0000 5ef1 0000 5ca5 0000     .^...\...^...\..
    f1ac:	5ef1 0000 5ca5 0000 5cdd 0000 5e47 0000     .^...\...\..G^..
    f1bc:	5ca5 0000                                   .\..

0000f1c0 <attcFcnIf>:
    f1c0:	5d89 0000 5b85 0000 601d 0000 5f79 0000     .]...[...`..y_..

0000f1d0 <attcProcRspTbl>:
    f1d0:	6115 0000 6143 0000 6165 0000 64d9 0000     .a..Ca..ea...d..
    f1e0:	6165 0000 622b 0000 6549 0000 622b 0000     ea..+b..Ie..+b..
    f1f0:	6165 0000 622d 0000 0000 0000 66f7 0000     ea..-b.......f..
    f200:	622d 0000                                   -b..

0000f204 <attsIndFcnIf>:
    f204:	5b89 0000 6a1d 0000 6a3d 0000 6ad5 0000     .[...j..=j...j..

0000f214 <attsMinPduLen>:
    f214:	0300 0705 0305 0505 0305 0503 0002 0100     ................
    f224:	000f 0000                                   ....

0000f228 <attsFcnIf>:
    f228:	6cb3 0000 6c4d 0000 6c59 0000 6d45 0000     .l..Ml..Yl..Em..
    f238:	2801 0000                                   .(..

0000f23c <dmAdvAct>:
    f23c:	7d99 0000 7d49 0000 7d95 0000               .}..I}...}..

0000f248 <dmAdvFcnIf>:
    f248:	7ccd 0000 7cb9 0000 7cbb 0000               .|...|...|..

0000f254 <dmConnSpecDefaults>:
    f254:	0018 0028 0000 07d0 0000 0000               ..(.........

0000f260 <dmConnFcnIf>:
    f260:	800d 0000 8131 0000 81c9 0000               ....1.......

0000f26c <dmConn2FcnIf>:
    f26c:	86e5 0000 80c1 0000 81e1 0000               ............

0000f278 <dmConnActSetMain>:
    f278:	7ff5 0000 8041 0000 821d 0000 8271 0000     ....A.......q...
    f288:	827f 0000 7ff7 0000                         ........

0000f290 <dmConnActSetSlave>:
    f290:	8525 0000 852d 0000 85ad 0000 8543 0000     %...-.......C...
    f2a0:	8559 0000 856f 0000                         Y...o...

0000f2a8 <dmConnStateTbl>:
    f2a8:	1001 0000 2002 0000 0000 0000 0000 0000     ..... ..........
    f2b8:	2303 0000 0000 0000 0000 0001 1104 0001     .#..............
    f2c8:	0001 0001 0001 0001 0300 0203 0300 0001     ................
    f2d8:	0001 0001 0002 2100 0002 0002 0002 0002     .......!........
    f2e8:	0002 2400 2303 2400 0002 0002 0002 0003     ...$.#.$........
    f2f8:	0104 0003 1203 2203 1303 2503 0003 0003     ......."...%....
    f308:	0400 0503 0003 0503 0004 0004 0004 0004     ................
    f318:	0004 0004 0004 0400 0104 0400 0004 0004     ................
    f328:	0004 0000                                   ....

0000f32c <dmDevFcnIf>:
    f32c:	86e5 0000 863d 0000 865d 0000               ....=...]...

0000f338 <dmHciToIdTbl>:
    f338:	0307 0303 0203 0404 0404 0504 0505 0505     ................
    f348:	0707 0707                                   ....

0000f34c <dmFcnDefault>:
    f34c:	86e5 0000 86e7 0000 86e7 0000               ............

0000f358 <dmScanAct>:
    f358:	878d 0000 8805 0000 883d 0000               ........=...

0000f364 <dmScanFcnIf>:
    f364:	876d 0000 8895 0000 8759 0000               m.......Y...

0000f370 <dmSecFcnIf>:
    f370:	86e5 0000 8a05 0000 892d 0000               ........-...

0000f37c <smpPktLenTbl>:
    f37c:	0700 1107 0211 0b11 0811 0211 1141 0002     ............A...

0000f38c <smprSmIf>:
    f38c:	f398 0000 f468 0000 f456 0000               ....h...V...

0000f398 <smprStateTbl>:
    f398:	f43b 0000 f435 0000 f42c 0000 f423 0000     ;...5...,...#...
    f3a8:	f41d 0000 f417 0000 f411 0000 f40b 0000     ................
    f3b8:	f405 0000 f3fc 0000 f3f0 0000 f3e1 0000     ................
    f3c8:	f3cc 0000                                   ....

0000f3cc <smprStateTblAttempts>:
    f3cc:	000f 060c 0b0c 0005 0a0e 0100 0003 0701     ................
    f3dc:	000c 0000 0c00                                   .....

0000f3e1 <smprStateTblKeyDist>:
    f3e1:	0b0c 0618 190b 000e 030d 000b 0000 0800          ...............

0000f3f0 <smprStateTblEncrypt>:
    f3f0:	0b08 0917 0200 0a03 0000 0000               ............

0000f3fc <smprStateTblStkCalc>:
    f3fc:	0a0b 0d16 0a0c 0000 0b00                         .........

0000f405 <smprStateTblCnfVerCalc2>:
    f405:	090b 0015 0000                              ......

0000f40b <smprStateTblCnfVerCalc1>:
    f40b:	080b 0009 0000                              ......

0000f411 <smprStateTblPairRand>:
    f411:	0706 0008 0000                              ......

0000f417 <smprStateTblCnfCalc2>:
    f417:	060b 0007 0000                              ......

0000f41d <smprStateTblCnfCalc1>:
    f41d:	050b 0006 0000                              ......

0000f423 <smprStateTblPinPair2>:
    f423:	0404 0605 1404 0000 0400                         .........

0000f42c <smprStateTblPinPair1>:
    f42c:	0304 0604 1303 0000 0200                         .........

0000f435 <smprStateTblApiPairRsp>:
    f435:	0202 0012 0000                              ......

0000f43b <smprStateTblIdle>:
    f43b:	0005 0a0e 0100 0008 0910 1000 0106 0711     ................
    f44b:	0f00 0003 0f01 0000 0000 0a00                    ...........

0000f456 <smprStateTblCommon>:
    f456:	000a 0702 0200 0003 0f03 0200 0000 0000     ................
	...

0000f468 <smprActionTbl>:
    f468:	93a7 0000 93db 0000 9401 0000 9425 0000     ............%...
    f478:	943d 0000 9465 0000 9487 0000 9491 0000     =...e...........
    f488:	94dd 0000 9501 0000 96fb 0000 9721 0000     ............!...
    f498:	9729 0000 974b 0000 9911 0000 993b 0000     )...K.......;...
    f4a8:	9947 0000 994f 0000 99c1 0000 9a4d 0000     G...O.......M...
    f4b8:	9a6d 0000 9a8f 0000 9aed 0000 9ba9 0000     m...............
    f4c8:	9b4f 0000 9bef 0000                         O.......
